ARM GAS  C:\Users\Jarik\AppData\Local\Temp\cc6jVHtS.s 			page 1


   1              		.cpu cortex-m0
   2              		.fpu softvfp
   3              		.eabi_attribute 20, 1
   4              		.eabi_attribute 21, 1
   5              		.eabi_attribute 23, 3
   6              		.eabi_attribute 24, 1
   7              		.eabi_attribute 25, 1
   8              		.eabi_attribute 26, 1
   9              		.eabi_attribute 30, 1
  10              		.eabi_attribute 34, 0
  11              		.eabi_attribute 18, 4
  12              		.code	16
  13              		.file	"AL_reg.c"
  14              		.text
  15              	.Ltext0:
  16              		.cfi_sections	.debug_frame
  17              		.section	.text.AL_reg_Read,"ax",%progbits
  18              		.align	2
  19              		.global	AL_reg_Read
  20              		.code	16
  21              		.thumb_func
  22              		.type	AL_reg_Read, %function
  23              	AL_reg_Read:
  24              	.LFB0:
  25              		.file 1 ".\\Generated_Source\\PSoC4\\AL_reg.c"
   1:.\Generated_Source\PSoC4/AL_reg.c **** /*******************************************************************************
   2:.\Generated_Source\PSoC4/AL_reg.c **** * File Name: AL_reg.c  
   3:.\Generated_Source\PSoC4/AL_reg.c **** * Version 1.80
   4:.\Generated_Source\PSoC4/AL_reg.c **** *
   5:.\Generated_Source\PSoC4/AL_reg.c **** * Description:
   6:.\Generated_Source\PSoC4/AL_reg.c **** *  This file contains API to enable firmware to read the value of a Status 
   7:.\Generated_Source\PSoC4/AL_reg.c **** *  Register.
   8:.\Generated_Source\PSoC4/AL_reg.c **** *
   9:.\Generated_Source\PSoC4/AL_reg.c **** * Note:
  10:.\Generated_Source\PSoC4/AL_reg.c **** *
  11:.\Generated_Source\PSoC4/AL_reg.c **** ********************************************************************************
  12:.\Generated_Source\PSoC4/AL_reg.c **** * Copyright 2008-2012, Cypress Semiconductor Corporation.  All rights reserved.
  13:.\Generated_Source\PSoC4/AL_reg.c **** * You may use this file only in accordance with the license, terms, conditions, 
  14:.\Generated_Source\PSoC4/AL_reg.c **** * disclaimers, and limitations in the end user license agreement accompanying 
  15:.\Generated_Source\PSoC4/AL_reg.c **** * the software package with which this file was provided.
  16:.\Generated_Source\PSoC4/AL_reg.c **** *******************************************************************************/
  17:.\Generated_Source\PSoC4/AL_reg.c **** 
  18:.\Generated_Source\PSoC4/AL_reg.c **** #include "AL_reg.h"
  19:.\Generated_Source\PSoC4/AL_reg.c **** 
  20:.\Generated_Source\PSoC4/AL_reg.c **** #if !defined(AL_reg_sts_sts_reg__REMOVED) /* Check for removal by optimization */
  21:.\Generated_Source\PSoC4/AL_reg.c **** 
  22:.\Generated_Source\PSoC4/AL_reg.c **** 
  23:.\Generated_Source\PSoC4/AL_reg.c **** /*******************************************************************************
  24:.\Generated_Source\PSoC4/AL_reg.c **** * Function Name: AL_reg_Read
  25:.\Generated_Source\PSoC4/AL_reg.c **** ********************************************************************************
  26:.\Generated_Source\PSoC4/AL_reg.c **** *
  27:.\Generated_Source\PSoC4/AL_reg.c **** * Summary:
  28:.\Generated_Source\PSoC4/AL_reg.c **** *  Reads the current value assigned to the Status Register.
  29:.\Generated_Source\PSoC4/AL_reg.c **** *
  30:.\Generated_Source\PSoC4/AL_reg.c **** * Parameters:
  31:.\Generated_Source\PSoC4/AL_reg.c **** *  None.
  32:.\Generated_Source\PSoC4/AL_reg.c **** *
ARM GAS  C:\Users\Jarik\AppData\Local\Temp\cc6jVHtS.s 			page 2


  33:.\Generated_Source\PSoC4/AL_reg.c **** * Return:
  34:.\Generated_Source\PSoC4/AL_reg.c **** *  The current value in the Status Register.
  35:.\Generated_Source\PSoC4/AL_reg.c **** *
  36:.\Generated_Source\PSoC4/AL_reg.c **** *******************************************************************************/
  37:.\Generated_Source\PSoC4/AL_reg.c **** uint8 AL_reg_Read(void) 
  38:.\Generated_Source\PSoC4/AL_reg.c **** { 
  26              		.loc 1 38 0
  27              		.cfi_startproc
  39:.\Generated_Source\PSoC4/AL_reg.c ****     return AL_reg_Status;
  28              		.loc 1 39 0
  29 0000 014B     		ldr	r3, .L2
  30 0002 1878     		ldrb	r0, [r3]
  31 0004 C0B2     		uxtb	r0, r0
  40:.\Generated_Source\PSoC4/AL_reg.c **** }
  32              		.loc 1 40 0
  33              		@ sp needed
  34 0006 7047     		bx	lr
  35              	.L3:
  36              		.align	2
  37              	.L2:
  38 0008 62000F40 		.word	1074724962
  39              		.cfi_endproc
  40              	.LFE0:
  41              		.size	AL_reg_Read, .-AL_reg_Read
  42              		.section	.text.AL_reg_InterruptEnable,"ax",%progbits
  43              		.align	2
  44              		.global	AL_reg_InterruptEnable
  45              		.code	16
  46              		.thumb_func
  47              		.type	AL_reg_InterruptEnable, %function
  48              	AL_reg_InterruptEnable:
  49              	.LFB1:
  41:.\Generated_Source\PSoC4/AL_reg.c **** 
  42:.\Generated_Source\PSoC4/AL_reg.c **** 
  43:.\Generated_Source\PSoC4/AL_reg.c **** /*******************************************************************************
  44:.\Generated_Source\PSoC4/AL_reg.c **** * Function Name: AL_reg_InterruptEnable
  45:.\Generated_Source\PSoC4/AL_reg.c **** ********************************************************************************
  46:.\Generated_Source\PSoC4/AL_reg.c **** *
  47:.\Generated_Source\PSoC4/AL_reg.c **** * Summary:
  48:.\Generated_Source\PSoC4/AL_reg.c **** *  Enables the Status Register interrupt.
  49:.\Generated_Source\PSoC4/AL_reg.c **** *
  50:.\Generated_Source\PSoC4/AL_reg.c **** * Parameters:
  51:.\Generated_Source\PSoC4/AL_reg.c **** *  None.
  52:.\Generated_Source\PSoC4/AL_reg.c **** *
  53:.\Generated_Source\PSoC4/AL_reg.c **** * Return:
  54:.\Generated_Source\PSoC4/AL_reg.c **** *  None.
  55:.\Generated_Source\PSoC4/AL_reg.c **** *
  56:.\Generated_Source\PSoC4/AL_reg.c **** *******************************************************************************/
  57:.\Generated_Source\PSoC4/AL_reg.c **** void AL_reg_InterruptEnable(void) 
  58:.\Generated_Source\PSoC4/AL_reg.c **** {
  50              		.loc 1 58 0
  51              		.cfi_startproc
  52 0000 08B5     		push	{r3, lr}
  53              		.cfi_def_cfa_offset 8
  54              		.cfi_offset 3, -8
  55              		.cfi_offset 14, -4
  59:.\Generated_Source\PSoC4/AL_reg.c ****     uint8 interruptState;
ARM GAS  C:\Users\Jarik\AppData\Local\Temp\cc6jVHtS.s 			page 3


  60:.\Generated_Source\PSoC4/AL_reg.c ****     interruptState = CyEnterCriticalSection();
  56              		.loc 1 60 0
  57 0002 FFF7FEFF 		bl	CyEnterCriticalSection
  58              	.LVL0:
  61:.\Generated_Source\PSoC4/AL_reg.c ****     AL_reg_Status_Aux_Ctrl |= AL_reg_STATUS_INTR_ENBL;
  59              		.loc 1 61 0
  60 0006 044A     		ldr	r2, .L5
  61 0008 1178     		ldrb	r1, [r2]
  62 000a 1023     		mov	r3, #16
  63 000c 0B43     		orr	r3, r1
  64 000e 1370     		strb	r3, [r2]
  62:.\Generated_Source\PSoC4/AL_reg.c ****     CyExitCriticalSection(interruptState);
  65              		.loc 1 62 0
  66 0010 FFF7FEFF 		bl	CyExitCriticalSection
  67              	.LVL1:
  63:.\Generated_Source\PSoC4/AL_reg.c **** }
  68              		.loc 1 63 0
  69              		@ sp needed
  70 0014 08BD     		pop	{r3, pc}
  71              	.L6:
  72 0016 C046     		.align	2
  73              	.L5:
  74 0018 92000F40 		.word	1074725010
  75              		.cfi_endproc
  76              	.LFE1:
  77              		.size	AL_reg_InterruptEnable, .-AL_reg_InterruptEnable
  78              		.section	.text.AL_reg_InterruptDisable,"ax",%progbits
  79              		.align	2
  80              		.global	AL_reg_InterruptDisable
  81              		.code	16
  82              		.thumb_func
  83              		.type	AL_reg_InterruptDisable, %function
  84              	AL_reg_InterruptDisable:
  85              	.LFB2:
  64:.\Generated_Source\PSoC4/AL_reg.c **** 
  65:.\Generated_Source\PSoC4/AL_reg.c **** 
  66:.\Generated_Source\PSoC4/AL_reg.c **** /*******************************************************************************
  67:.\Generated_Source\PSoC4/AL_reg.c **** * Function Name: AL_reg_InterruptDisable
  68:.\Generated_Source\PSoC4/AL_reg.c **** ********************************************************************************
  69:.\Generated_Source\PSoC4/AL_reg.c **** *
  70:.\Generated_Source\PSoC4/AL_reg.c **** * Summary:
  71:.\Generated_Source\PSoC4/AL_reg.c **** *  Disables the Status Register interrupt.
  72:.\Generated_Source\PSoC4/AL_reg.c **** *
  73:.\Generated_Source\PSoC4/AL_reg.c **** * Parameters:
  74:.\Generated_Source\PSoC4/AL_reg.c **** *  None.
  75:.\Generated_Source\PSoC4/AL_reg.c **** *
  76:.\Generated_Source\PSoC4/AL_reg.c **** * Return:
  77:.\Generated_Source\PSoC4/AL_reg.c **** *  None.
  78:.\Generated_Source\PSoC4/AL_reg.c **** *
  79:.\Generated_Source\PSoC4/AL_reg.c **** *******************************************************************************/
  80:.\Generated_Source\PSoC4/AL_reg.c **** void AL_reg_InterruptDisable(void) 
  81:.\Generated_Source\PSoC4/AL_reg.c **** {
  86              		.loc 1 81 0
  87              		.cfi_startproc
  88 0000 08B5     		push	{r3, lr}
  89              		.cfi_def_cfa_offset 8
  90              		.cfi_offset 3, -8
ARM GAS  C:\Users\Jarik\AppData\Local\Temp\cc6jVHtS.s 			page 4


  91              		.cfi_offset 14, -4
  82:.\Generated_Source\PSoC4/AL_reg.c ****     uint8 interruptState;
  83:.\Generated_Source\PSoC4/AL_reg.c ****     interruptState = CyEnterCriticalSection();
  92              		.loc 1 83 0
  93 0002 FFF7FEFF 		bl	CyEnterCriticalSection
  94              	.LVL2:
  84:.\Generated_Source\PSoC4/AL_reg.c ****     AL_reg_Status_Aux_Ctrl &= (uint8)(~AL_reg_STATUS_INTR_ENBL);
  95              		.loc 1 84 0
  96 0006 044A     		ldr	r2, .L8
  97 0008 1378     		ldrb	r3, [r2]
  98 000a 1021     		mov	r1, #16
  99 000c 8B43     		bic	r3, r1
 100 000e 1370     		strb	r3, [r2]
  85:.\Generated_Source\PSoC4/AL_reg.c ****     CyExitCriticalSection(interruptState);
 101              		.loc 1 85 0
 102 0010 FFF7FEFF 		bl	CyExitCriticalSection
 103              	.LVL3:
  86:.\Generated_Source\PSoC4/AL_reg.c **** }
 104              		.loc 1 86 0
 105              		@ sp needed
 106 0014 08BD     		pop	{r3, pc}
 107              	.L9:
 108 0016 C046     		.align	2
 109              	.L8:
 110 0018 92000F40 		.word	1074725010
 111              		.cfi_endproc
 112              	.LFE2:
 113              		.size	AL_reg_InterruptDisable, .-AL_reg_InterruptDisable
 114              		.section	.text.AL_reg_WriteMask,"ax",%progbits
 115              		.align	2
 116              		.global	AL_reg_WriteMask
 117              		.code	16
 118              		.thumb_func
 119              		.type	AL_reg_WriteMask, %function
 120              	AL_reg_WriteMask:
 121              	.LFB3:
  87:.\Generated_Source\PSoC4/AL_reg.c **** 
  88:.\Generated_Source\PSoC4/AL_reg.c **** 
  89:.\Generated_Source\PSoC4/AL_reg.c **** /*******************************************************************************
  90:.\Generated_Source\PSoC4/AL_reg.c **** * Function Name: AL_reg_WriteMask
  91:.\Generated_Source\PSoC4/AL_reg.c **** ********************************************************************************
  92:.\Generated_Source\PSoC4/AL_reg.c **** *
  93:.\Generated_Source\PSoC4/AL_reg.c **** * Summary:
  94:.\Generated_Source\PSoC4/AL_reg.c **** *  Writes the current mask value assigned to the Status Register.
  95:.\Generated_Source\PSoC4/AL_reg.c **** *
  96:.\Generated_Source\PSoC4/AL_reg.c **** * Parameters:
  97:.\Generated_Source\PSoC4/AL_reg.c **** *  mask:  Value to write into the mask register.
  98:.\Generated_Source\PSoC4/AL_reg.c **** *
  99:.\Generated_Source\PSoC4/AL_reg.c **** * Return:
 100:.\Generated_Source\PSoC4/AL_reg.c **** *  None.
 101:.\Generated_Source\PSoC4/AL_reg.c **** *
 102:.\Generated_Source\PSoC4/AL_reg.c **** *******************************************************************************/
 103:.\Generated_Source\PSoC4/AL_reg.c **** void AL_reg_WriteMask(uint8 mask) 
 104:.\Generated_Source\PSoC4/AL_reg.c **** {
 122              		.loc 1 104 0
 123              		.cfi_startproc
 124              	.LVL4:
ARM GAS  C:\Users\Jarik\AppData\Local\Temp\cc6jVHtS.s 			page 5


 105:.\Generated_Source\PSoC4/AL_reg.c ****     #if(AL_reg_INPUTS < 8u)
 106:.\Generated_Source\PSoC4/AL_reg.c ****     	mask &= (uint8)((((uint8)1u) << AL_reg_INPUTS) - 1u);
 107:.\Generated_Source\PSoC4/AL_reg.c **** 	#endif /* End AL_reg_INPUTS < 8u */
 108:.\Generated_Source\PSoC4/AL_reg.c ****     AL_reg_Status_Mask = mask;
 125              		.loc 1 108 0
 126 0000 014B     		ldr	r3, .L11
 127 0002 1870     		strb	r0, [r3]
 109:.\Generated_Source\PSoC4/AL_reg.c **** }
 128              		.loc 1 109 0
 129              		@ sp needed
 130 0004 7047     		bx	lr
 131              	.L12:
 132 0006 C046     		.align	2
 133              	.L11:
 134 0008 82000F40 		.word	1074724994
 135              		.cfi_endproc
 136              	.LFE3:
 137              		.size	AL_reg_WriteMask, .-AL_reg_WriteMask
 138              		.section	.text.AL_reg_ReadMask,"ax",%progbits
 139              		.align	2
 140              		.global	AL_reg_ReadMask
 141              		.code	16
 142              		.thumb_func
 143              		.type	AL_reg_ReadMask, %function
 144              	AL_reg_ReadMask:
 145              	.LFB4:
 110:.\Generated_Source\PSoC4/AL_reg.c **** 
 111:.\Generated_Source\PSoC4/AL_reg.c **** 
 112:.\Generated_Source\PSoC4/AL_reg.c **** /*******************************************************************************
 113:.\Generated_Source\PSoC4/AL_reg.c **** * Function Name: AL_reg_ReadMask
 114:.\Generated_Source\PSoC4/AL_reg.c **** ********************************************************************************
 115:.\Generated_Source\PSoC4/AL_reg.c **** *
 116:.\Generated_Source\PSoC4/AL_reg.c **** * Summary:
 117:.\Generated_Source\PSoC4/AL_reg.c **** *  Reads the current interrupt mask assigned to the Status Register.
 118:.\Generated_Source\PSoC4/AL_reg.c **** *
 119:.\Generated_Source\PSoC4/AL_reg.c **** * Parameters:
 120:.\Generated_Source\PSoC4/AL_reg.c **** *  None.
 121:.\Generated_Source\PSoC4/AL_reg.c **** *
 122:.\Generated_Source\PSoC4/AL_reg.c **** * Return:
 123:.\Generated_Source\PSoC4/AL_reg.c **** *  The value of the interrupt mask of the Status Register.
 124:.\Generated_Source\PSoC4/AL_reg.c **** *
 125:.\Generated_Source\PSoC4/AL_reg.c **** *******************************************************************************/
 126:.\Generated_Source\PSoC4/AL_reg.c **** uint8 AL_reg_ReadMask(void) 
 127:.\Generated_Source\PSoC4/AL_reg.c **** {
 146              		.loc 1 127 0
 147              		.cfi_startproc
 128:.\Generated_Source\PSoC4/AL_reg.c ****     return AL_reg_Status_Mask;
 148              		.loc 1 128 0
 149 0000 014B     		ldr	r3, .L14
 150 0002 1878     		ldrb	r0, [r3]
 151 0004 C0B2     		uxtb	r0, r0
 129:.\Generated_Source\PSoC4/AL_reg.c **** }
 152              		.loc 1 129 0
 153              		@ sp needed
 154 0006 7047     		bx	lr
 155              	.L15:
 156              		.align	2
ARM GAS  C:\Users\Jarik\AppData\Local\Temp\cc6jVHtS.s 			page 6


 157              	.L14:
 158 0008 82000F40 		.word	1074724994
 159              		.cfi_endproc
 160              	.LFE4:
 161              		.size	AL_reg_ReadMask, .-AL_reg_ReadMask
 162              		.text
 163              	.Letext0:
 164              		.file 2 ".\\Generated_Source\\PSoC4\\cytypes.h"
 165              		.file 3 ".\\Generated_Source\\PSoC4\\CyLib.h"