ARM GAS  C:\Users\Jarik\AppData\Local\Temp\ccLvX4ah.s 			page 1


   1              		.cpu cortex-m0
   2              		.fpu softvfp
   3              		.eabi_attribute 20, 1
   4              		.eabi_attribute 21, 1
   5              		.eabi_attribute 23, 3
   6              		.eabi_attribute 24, 1
   7              		.eabi_attribute 25, 1
   8              		.eabi_attribute 26, 1
   9              		.eabi_attribute 30, 1
  10              		.eabi_attribute 34, 0
  11              		.eabi_attribute 18, 4
  12              		.code	16
  13              		.file	"cyfitter_cfg.c"
  14              		.text
  15              	.Ltext0:
  16              		.cfi_sections	.debug_frame
  17              		.section	.text.cfg_write_bytes32,"ax",%progbits
  18              		.align	2
  19              		.code	16
  20              		.thumb_func
  21              		.type	cfg_write_bytes32, %function
  22              	cfg_write_bytes32:
  23              	.LFB3:
  24              		.file 1 ".\\Generated_Source\\PSoC4\\cyfitter_cfg.c"
   1:.\Generated_Source\PSoC4/cyfitter_cfg.c **** /*******************************************************************************
   2:.\Generated_Source\PSoC4/cyfitter_cfg.c **** * File Name: cyfitter_cfg.c
   3:.\Generated_Source\PSoC4/cyfitter_cfg.c **** * 
   4:.\Generated_Source\PSoC4/cyfitter_cfg.c **** * PSoC Creator  3.3 CP1
   5:.\Generated_Source\PSoC4/cyfitter_cfg.c **** *
   6:.\Generated_Source\PSoC4/cyfitter_cfg.c **** * Description:
   7:.\Generated_Source\PSoC4/cyfitter_cfg.c **** * This file contains device initialization code.
   8:.\Generated_Source\PSoC4/cyfitter_cfg.c **** * Except for the user defined sections in CyClockStartupError(), this file should not be modified.
   9:.\Generated_Source\PSoC4/cyfitter_cfg.c **** * This file is automatically generated by PSoC Creator.
  10:.\Generated_Source\PSoC4/cyfitter_cfg.c **** *
  11:.\Generated_Source\PSoC4/cyfitter_cfg.c **** ********************************************************************************
  12:.\Generated_Source\PSoC4/cyfitter_cfg.c **** * Copyright (c) 2007-2015 Cypress Semiconductor.  All rights reserved.
  13:.\Generated_Source\PSoC4/cyfitter_cfg.c **** * You may use this file only in accordance with the license, terms, conditions, 
  14:.\Generated_Source\PSoC4/cyfitter_cfg.c **** * disclaimers, and limitations in the end user license agreement accompanying 
  15:.\Generated_Source\PSoC4/cyfitter_cfg.c **** * the software package with which this file was provided.
  16:.\Generated_Source\PSoC4/cyfitter_cfg.c **** ********************************************************************************/
  17:.\Generated_Source\PSoC4/cyfitter_cfg.c **** 
  18:.\Generated_Source\PSoC4/cyfitter_cfg.c **** #include <string.h>
  19:.\Generated_Source\PSoC4/cyfitter_cfg.c **** #include "cytypes.h"
  20:.\Generated_Source\PSoC4/cyfitter_cfg.c **** #include "cydevice_trm.h"
  21:.\Generated_Source\PSoC4/cyfitter_cfg.c **** #include "cyfitter.h"
  22:.\Generated_Source\PSoC4/cyfitter_cfg.c **** #include "CyLib.h"
  23:.\Generated_Source\PSoC4/cyfitter_cfg.c **** #include "cyfitter_cfg.h"
  24:.\Generated_Source\PSoC4/cyfitter_cfg.c **** 
  25:.\Generated_Source\PSoC4/cyfitter_cfg.c **** 
  26:.\Generated_Source\PSoC4/cyfitter_cfg.c **** #if defined(__GNUC__) || defined(__ARMCC_VERSION)
  27:.\Generated_Source\PSoC4/cyfitter_cfg.c ****     #define CYPACKED 
  28:.\Generated_Source\PSoC4/cyfitter_cfg.c ****     #define CYPACKED_ATTR __attribute__ ((packed))
  29:.\Generated_Source\PSoC4/cyfitter_cfg.c ****     #define CYALIGNED __attribute__ ((aligned))
  30:.\Generated_Source\PSoC4/cyfitter_cfg.c ****     #define CY_CFG_UNUSED __attribute__ ((unused))
  31:.\Generated_Source\PSoC4/cyfitter_cfg.c ****     #define CY_CFG_SECTION __attribute__ ((section(".psocinit")))
  32:.\Generated_Source\PSoC4/cyfitter_cfg.c ****     
  33:.\Generated_Source\PSoC4/cyfitter_cfg.c ****     #if defined(__ARMCC_VERSION)
ARM GAS  C:\Users\Jarik\AppData\Local\Temp\ccLvX4ah.s 			page 2


  34:.\Generated_Source\PSoC4/cyfitter_cfg.c ****         #define CY_CFG_MEMORY_BARRIER() __memory_changed()
  35:.\Generated_Source\PSoC4/cyfitter_cfg.c ****     #else
  36:.\Generated_Source\PSoC4/cyfitter_cfg.c ****         #define CY_CFG_MEMORY_BARRIER() __sync_synchronize()
  37:.\Generated_Source\PSoC4/cyfitter_cfg.c ****     #endif
  38:.\Generated_Source\PSoC4/cyfitter_cfg.c ****     
  39:.\Generated_Source\PSoC4/cyfitter_cfg.c **** #elif defined(__ICCARM__)
  40:.\Generated_Source\PSoC4/cyfitter_cfg.c ****     #include <intrinsics.h>
  41:.\Generated_Source\PSoC4/cyfitter_cfg.c **** 
  42:.\Generated_Source\PSoC4/cyfitter_cfg.c ****     #define CYPACKED __packed
  43:.\Generated_Source\PSoC4/cyfitter_cfg.c ****     #define CYPACKED_ATTR 
  44:.\Generated_Source\PSoC4/cyfitter_cfg.c ****     #define CYALIGNED _Pragma("data_alignment=4")
  45:.\Generated_Source\PSoC4/cyfitter_cfg.c ****     #define CY_CFG_UNUSED _Pragma("diag_suppress=Pe177")
  46:.\Generated_Source\PSoC4/cyfitter_cfg.c ****     #define CY_CFG_SECTION _Pragma("location=\".psocinit\"")
  47:.\Generated_Source\PSoC4/cyfitter_cfg.c ****     
  48:.\Generated_Source\PSoC4/cyfitter_cfg.c ****     #define CY_CFG_MEMORY_BARRIER() __DMB()
  49:.\Generated_Source\PSoC4/cyfitter_cfg.c ****     
  50:.\Generated_Source\PSoC4/cyfitter_cfg.c **** #else
  51:.\Generated_Source\PSoC4/cyfitter_cfg.c ****     #error Unsupported toolchain
  52:.\Generated_Source\PSoC4/cyfitter_cfg.c **** #endif
  53:.\Generated_Source\PSoC4/cyfitter_cfg.c **** 
  54:.\Generated_Source\PSoC4/cyfitter_cfg.c **** 
  55:.\Generated_Source\PSoC4/cyfitter_cfg.c **** CY_CFG_UNUSED
  56:.\Generated_Source\PSoC4/cyfitter_cfg.c **** static void CYMEMZERO(void *s, size_t n);
  57:.\Generated_Source\PSoC4/cyfitter_cfg.c **** CY_CFG_UNUSED
  58:.\Generated_Source\PSoC4/cyfitter_cfg.c **** static void CYMEMZERO(void *s, size_t n)
  59:.\Generated_Source\PSoC4/cyfitter_cfg.c **** {
  60:.\Generated_Source\PSoC4/cyfitter_cfg.c **** 	(void)memset(s, 0, n);
  61:.\Generated_Source\PSoC4/cyfitter_cfg.c **** }
  62:.\Generated_Source\PSoC4/cyfitter_cfg.c **** CY_CFG_UNUSED
  63:.\Generated_Source\PSoC4/cyfitter_cfg.c **** static void CYCONFIGCPY(void *dest, const void *src, size_t n);
  64:.\Generated_Source\PSoC4/cyfitter_cfg.c **** CY_CFG_UNUSED
  65:.\Generated_Source\PSoC4/cyfitter_cfg.c **** static void CYCONFIGCPY(void *dest, const void *src, size_t n)
  66:.\Generated_Source\PSoC4/cyfitter_cfg.c **** {
  67:.\Generated_Source\PSoC4/cyfitter_cfg.c **** 	(void)memcpy(dest, src, n);
  68:.\Generated_Source\PSoC4/cyfitter_cfg.c **** }
  69:.\Generated_Source\PSoC4/cyfitter_cfg.c **** CY_CFG_UNUSED
  70:.\Generated_Source\PSoC4/cyfitter_cfg.c **** static void CYCONFIGCPYCODE(void *dest, const void *src, size_t n);
  71:.\Generated_Source\PSoC4/cyfitter_cfg.c **** CY_CFG_UNUSED
  72:.\Generated_Source\PSoC4/cyfitter_cfg.c **** static void CYCONFIGCPYCODE(void *dest, const void *src, size_t n)
  73:.\Generated_Source\PSoC4/cyfitter_cfg.c **** {
  74:.\Generated_Source\PSoC4/cyfitter_cfg.c **** 	(void)memcpy(dest, src, n);
  75:.\Generated_Source\PSoC4/cyfitter_cfg.c **** }
  76:.\Generated_Source\PSoC4/cyfitter_cfg.c **** 
  77:.\Generated_Source\PSoC4/cyfitter_cfg.c **** 
  78:.\Generated_Source\PSoC4/cyfitter_cfg.c **** 
  79:.\Generated_Source\PSoC4/cyfitter_cfg.c **** /* Clock startup error codes                                                   */
  80:.\Generated_Source\PSoC4/cyfitter_cfg.c **** #define CYCLOCKSTART_NO_ERROR    0u
  81:.\Generated_Source\PSoC4/cyfitter_cfg.c **** #define CYCLOCKSTART_XTAL_ERROR  1u
  82:.\Generated_Source\PSoC4/cyfitter_cfg.c **** #define CYCLOCKSTART_32KHZ_ERROR 2u
  83:.\Generated_Source\PSoC4/cyfitter_cfg.c **** #define CYCLOCKSTART_PLL_ERROR   3u
  84:.\Generated_Source\PSoC4/cyfitter_cfg.c **** 
  85:.\Generated_Source\PSoC4/cyfitter_cfg.c **** #ifdef CY_NEED_CYCLOCKSTARTUPERROR
  86:.\Generated_Source\PSoC4/cyfitter_cfg.c **** /*******************************************************************************
  87:.\Generated_Source\PSoC4/cyfitter_cfg.c **** * Function Name: CyClockStartupError
  88:.\Generated_Source\PSoC4/cyfitter_cfg.c **** ********************************************************************************
  89:.\Generated_Source\PSoC4/cyfitter_cfg.c **** * Summary:
  90:.\Generated_Source\PSoC4/cyfitter_cfg.c **** *  If an error is encountered during clock configuration (crystal startup error,
ARM GAS  C:\Users\Jarik\AppData\Local\Temp\ccLvX4ah.s 			page 3


  91:.\Generated_Source\PSoC4/cyfitter_cfg.c **** *  PLL lock error, etc.), the system will end up here.  Unless reimplemented by
  92:.\Generated_Source\PSoC4/cyfitter_cfg.c **** *  the customer, this function will stop in an infinite loop.
  93:.\Generated_Source\PSoC4/cyfitter_cfg.c **** *
  94:.\Generated_Source\PSoC4/cyfitter_cfg.c **** * Parameters:
  95:.\Generated_Source\PSoC4/cyfitter_cfg.c **** *   void
  96:.\Generated_Source\PSoC4/cyfitter_cfg.c **** *
  97:.\Generated_Source\PSoC4/cyfitter_cfg.c **** * Return:
  98:.\Generated_Source\PSoC4/cyfitter_cfg.c **** *   void
  99:.\Generated_Source\PSoC4/cyfitter_cfg.c **** *
 100:.\Generated_Source\PSoC4/cyfitter_cfg.c **** *******************************************************************************/
 101:.\Generated_Source\PSoC4/cyfitter_cfg.c **** CY_CFG_UNUSED
 102:.\Generated_Source\PSoC4/cyfitter_cfg.c **** static void CyClockStartupError(uint8 errorCode);
 103:.\Generated_Source\PSoC4/cyfitter_cfg.c **** CY_CFG_UNUSED
 104:.\Generated_Source\PSoC4/cyfitter_cfg.c **** static void CyClockStartupError(uint8 errorCode)
 105:.\Generated_Source\PSoC4/cyfitter_cfg.c **** {
 106:.\Generated_Source\PSoC4/cyfitter_cfg.c ****     /* To remove the compiler warning if errorCode not used.                */
 107:.\Generated_Source\PSoC4/cyfitter_cfg.c ****     errorCode = errorCode;
 108:.\Generated_Source\PSoC4/cyfitter_cfg.c **** 
 109:.\Generated_Source\PSoC4/cyfitter_cfg.c ****     /* `#START CyClockStartupError` */
 110:.\Generated_Source\PSoC4/cyfitter_cfg.c **** 
 111:.\Generated_Source\PSoC4/cyfitter_cfg.c ****     /* If we have a clock startup error (bad MHz crystal, PLL lock, etc.),  */
 112:.\Generated_Source\PSoC4/cyfitter_cfg.c ****     /* we will end up here to allow the customer to implement something to  */
 113:.\Generated_Source\PSoC4/cyfitter_cfg.c ****     /* deal with the clock condition.                                       */
 114:.\Generated_Source\PSoC4/cyfitter_cfg.c **** 
 115:.\Generated_Source\PSoC4/cyfitter_cfg.c ****     /* `#END` */
 116:.\Generated_Source\PSoC4/cyfitter_cfg.c **** 
 117:.\Generated_Source\PSoC4/cyfitter_cfg.c ****     /* If nothing else, stop here since the clocks have not started         */
 118:.\Generated_Source\PSoC4/cyfitter_cfg.c ****     /* correctly.                                                           */
 119:.\Generated_Source\PSoC4/cyfitter_cfg.c ****     while(1) {}
 120:.\Generated_Source\PSoC4/cyfitter_cfg.c **** }
 121:.\Generated_Source\PSoC4/cyfitter_cfg.c **** #endif
 122:.\Generated_Source\PSoC4/cyfitter_cfg.c **** 
 123:.\Generated_Source\PSoC4/cyfitter_cfg.c **** #define CY_CFG_BASE_ADDR_COUNT 9u
 124:.\Generated_Source\PSoC4/cyfitter_cfg.c **** CYPACKED typedef struct
 125:.\Generated_Source\PSoC4/cyfitter_cfg.c **** {
 126:.\Generated_Source\PSoC4/cyfitter_cfg.c **** 	uint8 offset;
 127:.\Generated_Source\PSoC4/cyfitter_cfg.c **** 	uint8 value;
 128:.\Generated_Source\PSoC4/cyfitter_cfg.c **** } CYPACKED_ATTR cy_cfg_addrvalue_t;
 129:.\Generated_Source\PSoC4/cyfitter_cfg.c **** 
 130:.\Generated_Source\PSoC4/cyfitter_cfg.c **** 
 131:.\Generated_Source\PSoC4/cyfitter_cfg.c **** 
 132:.\Generated_Source\PSoC4/cyfitter_cfg.c **** /*******************************************************************************
 133:.\Generated_Source\PSoC4/cyfitter_cfg.c **** * Function Name: cfg_write_bytes32
 134:.\Generated_Source\PSoC4/cyfitter_cfg.c **** ********************************************************************************
 135:.\Generated_Source\PSoC4/cyfitter_cfg.c **** * Summary:
 136:.\Generated_Source\PSoC4/cyfitter_cfg.c **** *  This function is used for setting up the chip configuration areas that
 137:.\Generated_Source\PSoC4/cyfitter_cfg.c **** *  contain relatively sparse data.
 138:.\Generated_Source\PSoC4/cyfitter_cfg.c **** *
 139:.\Generated_Source\PSoC4/cyfitter_cfg.c **** * Parameters:
 140:.\Generated_Source\PSoC4/cyfitter_cfg.c **** *   void
 141:.\Generated_Source\PSoC4/cyfitter_cfg.c **** *
 142:.\Generated_Source\PSoC4/cyfitter_cfg.c **** * Return:
 143:.\Generated_Source\PSoC4/cyfitter_cfg.c **** *   void
 144:.\Generated_Source\PSoC4/cyfitter_cfg.c **** *
 145:.\Generated_Source\PSoC4/cyfitter_cfg.c **** *******************************************************************************/
 146:.\Generated_Source\PSoC4/cyfitter_cfg.c **** static void cfg_write_bytes32(const uint32 addr_table[], const cy_cfg_addrvalue_t data_table[]);
 147:.\Generated_Source\PSoC4/cyfitter_cfg.c **** static void cfg_write_bytes32(const uint32 addr_table[], const cy_cfg_addrvalue_t data_table[])
ARM GAS  C:\Users\Jarik\AppData\Local\Temp\ccLvX4ah.s 			page 4


 148:.\Generated_Source\PSoC4/cyfitter_cfg.c **** {
  25              		.loc 1 148 0
  26              		.cfi_startproc
  27              	.LVL0:
  28 0000 F0B5     		push	{r4, r5, r6, r7, lr}
  29              		.cfi_def_cfa_offset 20
  30              		.cfi_offset 4, -20
  31              		.cfi_offset 5, -16
  32              		.cfi_offset 6, -12
  33              		.cfi_offset 7, -8
  34              		.cfi_offset 14, -4
  35              	.LVL1:
 149:.\Generated_Source\PSoC4/cyfitter_cfg.c **** 	/* For 32-bit little-endian architectures */
 150:.\Generated_Source\PSoC4/cyfitter_cfg.c **** 	uint32 i, j = 0u;
  36              		.loc 1 150 0
  37 0002 0025     		mov	r5, #0
 151:.\Generated_Source\PSoC4/cyfitter_cfg.c **** 	for (i = 0u; i < CY_CFG_BASE_ADDR_COUNT; i++)
  38              		.loc 1 151 0
  39 0004 0027     		mov	r7, #0
  40 0006 11E0     		b	.L2
  41              	.LVL2:
  42              	.L5:
  43              	.LBB2:
 152:.\Generated_Source\PSoC4/cyfitter_cfg.c **** 	{
 153:.\Generated_Source\PSoC4/cyfitter_cfg.c **** 		uint32 baseAddr = addr_table[i];
  44              		.loc 1 153 0
  45 0008 BB00     		lsl	r3, r7, #2
  46 000a C658     		ldr	r6, [r0, r3]
  47              	.LVL3:
 154:.\Generated_Source\PSoC4/cyfitter_cfg.c **** 		uint8 count = (uint8)baseAddr;
  48              		.loc 1 154 0
  49 000c F3B2     		uxtb	r3, r6
  50              	.LVL4:
 155:.\Generated_Source\PSoC4/cyfitter_cfg.c **** 		baseAddr &= 0xFFFFFF00u;
  51              		.loc 1 155 0
  52 000e FF22     		mov	r2, #255
  53 0010 9643     		bic	r6, r2
  54              	.LVL5:
 156:.\Generated_Source\PSoC4/cyfitter_cfg.c **** 		while (count != 0u)
  55              		.loc 1 156 0
  56 0012 08E0     		b	.L3
  57              	.L4:
 157:.\Generated_Source\PSoC4/cyfitter_cfg.c **** 		{
 158:.\Generated_Source\PSoC4/cyfitter_cfg.c **** 			CY_SET_XTND_REG8((void CYFAR *)(baseAddr + data_table[j].offset), data_table[j].value);
  58              		.loc 1 158 0
  59 0014 6A00     		lsl	r2, r5, #1
  60 0016 8A18     		add	r2, r1, r2
  61 0018 1478     		ldrb	r4, [r2]
  62 001a A419     		add	r4, r4, r6
  63 001c 5278     		ldrb	r2, [r2, #1]
  64 001e 2270     		strb	r2, [r4]
 159:.\Generated_Source\PSoC4/cyfitter_cfg.c **** 			j++;
  65              		.loc 1 159 0
  66 0020 0135     		add	r5, r5, #1
  67              	.LVL6:
 160:.\Generated_Source\PSoC4/cyfitter_cfg.c **** 			count--;
  68              		.loc 1 160 0
ARM GAS  C:\Users\Jarik\AppData\Local\Temp\ccLvX4ah.s 			page 5


  69 0022 013B     		sub	r3, r3, #1
  70              	.LVL7:
  71 0024 DBB2     		uxtb	r3, r3
  72              	.LVL8:
  73              	.L3:
 156:.\Generated_Source\PSoC4/cyfitter_cfg.c **** 		{
  74              		.loc 1 156 0
  75 0026 002B     		cmp	r3, #0
  76 0028 F4D1     		bne	.L4
  77              	.LBE2:
 151:.\Generated_Source\PSoC4/cyfitter_cfg.c **** 	{
  78              		.loc 1 151 0 discriminator 2
  79 002a 0137     		add	r7, r7, #1
  80              	.LVL9:
  81              	.L2:
 151:.\Generated_Source\PSoC4/cyfitter_cfg.c **** 	{
  82              		.loc 1 151 0 is_stmt 0 discriminator 1
  83 002c 082F     		cmp	r7, #8
  84 002e EBD9     		bls	.L5
 161:.\Generated_Source\PSoC4/cyfitter_cfg.c **** 		}
 162:.\Generated_Source\PSoC4/cyfitter_cfg.c **** 	}
 163:.\Generated_Source\PSoC4/cyfitter_cfg.c **** }
  85              		.loc 1 163 0 is_stmt 1
  86              		@ sp needed
  87              	.LVL10:
  88              	.LVL11:
  89 0030 F0BD     		pop	{r4, r5, r6, r7, pc}
  90              		.cfi_endproc
  91              	.LFE3:
  92              		.size	cfg_write_bytes32, .-cfg_write_bytes32
  93 0032 C046     		.section	.text.CYMEMZERO,"ax",%progbits
  94              		.align	2
  95              		.code	16
  96              		.thumb_func
  97              		.type	CYMEMZERO, %function
  98              	CYMEMZERO:
  99              	.LFB0:
  59:.\Generated_Source\PSoC4/cyfitter_cfg.c **** 	(void)memset(s, 0, n);
 100              		.loc 1 59 0
 101              		.cfi_startproc
 102              	.LVL12:
 103 0000 08B5     		push	{r3, lr}
 104              		.cfi_def_cfa_offset 8
 105              		.cfi_offset 3, -8
 106              		.cfi_offset 14, -4
 107 0002 0A1C     		mov	r2, r1
  60:.\Generated_Source\PSoC4/cyfitter_cfg.c **** }
 108              		.loc 1 60 0
 109 0004 0021     		mov	r1, #0
 110              	.LVL13:
 111 0006 FFF7FEFF 		bl	memset
 112              	.LVL14:
  61:.\Generated_Source\PSoC4/cyfitter_cfg.c **** CY_CFG_UNUSED
 113              		.loc 1 61 0
 114              		@ sp needed
 115 000a 08BD     		pop	{r3, pc}
 116              		.cfi_endproc
ARM GAS  C:\Users\Jarik\AppData\Local\Temp\ccLvX4ah.s 			page 6


 117              	.LFE0:
 118              		.size	CYMEMZERO, .-CYMEMZERO
 119              		.section	.psocinit,"ax",%progbits
 120              		.align	2
 121              		.code	16
 122              		.thumb_func
 123              		.type	ClockSetup, %function
 124              	ClockSetup:
 125              	.LFB4:
 164:.\Generated_Source\PSoC4/cyfitter_cfg.c **** 
 165:.\Generated_Source\PSoC4/cyfitter_cfg.c **** 
 166:.\Generated_Source\PSoC4/cyfitter_cfg.c **** /*******************************************************************************
 167:.\Generated_Source\PSoC4/cyfitter_cfg.c **** * Function Name: ClockSetup
 168:.\Generated_Source\PSoC4/cyfitter_cfg.c **** ********************************************************************************
 169:.\Generated_Source\PSoC4/cyfitter_cfg.c **** *
 170:.\Generated_Source\PSoC4/cyfitter_cfg.c **** * Summary:
 171:.\Generated_Source\PSoC4/cyfitter_cfg.c **** *   Performs the initialization of all of the clocks in the device based on the
 172:.\Generated_Source\PSoC4/cyfitter_cfg.c **** *   settings in the Clock tab of the DWR.  This includes enabling the requested
 173:.\Generated_Source\PSoC4/cyfitter_cfg.c **** *   clocks and setting the necessary dividers to produce the desired frequency. 
 174:.\Generated_Source\PSoC4/cyfitter_cfg.c **** *
 175:.\Generated_Source\PSoC4/cyfitter_cfg.c **** * Parameters:
 176:.\Generated_Source\PSoC4/cyfitter_cfg.c **** *   void
 177:.\Generated_Source\PSoC4/cyfitter_cfg.c **** *
 178:.\Generated_Source\PSoC4/cyfitter_cfg.c **** * Return:
 179:.\Generated_Source\PSoC4/cyfitter_cfg.c **** *   void
 180:.\Generated_Source\PSoC4/cyfitter_cfg.c **** *
 181:.\Generated_Source\PSoC4/cyfitter_cfg.c **** *******************************************************************************/
 182:.\Generated_Source\PSoC4/cyfitter_cfg.c **** static void ClockSetup(void);
 183:.\Generated_Source\PSoC4/cyfitter_cfg.c **** CY_CFG_SECTION
 184:.\Generated_Source\PSoC4/cyfitter_cfg.c **** static void ClockSetup(void)
 185:.\Generated_Source\PSoC4/cyfitter_cfg.c **** {
 126              		.loc 1 185 0
 127              		.cfi_startproc
 128 0000 38B5     		push	{r3, r4, r5, lr}
 129              		.cfi_def_cfa_offset 16
 130              		.cfi_offset 3, -16
 131              		.cfi_offset 4, -12
 132              		.cfi_offset 5, -8
 133              		.cfi_offset 14, -4
 186:.\Generated_Source\PSoC4/cyfitter_cfg.c **** 	/* Enable HALF_EN before trimming for the flash accelerator. */
 187:.\Generated_Source\PSoC4/cyfitter_cfg.c **** 	CY_SET_REG32((void CYXDATA *)(CYREG_CLK_SELECT), (CY_GET_REG32((void *)CYREG_CLK_SELECT) | 0x00040
 134              		.loc 1 187 0
 135 0002 0D4C     		ldr	r4, .L8
 136 0004 2368     		ldr	r3, [r4]
 137 0006 8025     		mov	r5, #128
 138 0008 ED02     		lsl	r5, r5, #11
 139 000a 2B43     		orr	r3, r5
 140 000c 2360     		str	r3, [r4]
 188:.\Generated_Source\PSoC4/cyfitter_cfg.c **** 
 189:.\Generated_Source\PSoC4/cyfitter_cfg.c **** 	/* Setup and trim IMO based on desired frequency. */
 190:.\Generated_Source\PSoC4/cyfitter_cfg.c **** 	CySysClkWriteImoFreq(48u);
 141              		.loc 1 190 0
 142 000e 3020     		mov	r0, #48
 143 0010 FFF7FEFF 		bl	CySysClkWriteImoFreq
 144              	.LVL15:
 191:.\Generated_Source\PSoC4/cyfitter_cfg.c **** 	/* CYDEV_CLK_ILO_CONFIG Starting address: CYDEV_CLK_ILO_CONFIG */
 192:.\Generated_Source\PSoC4/cyfitter_cfg.c **** 	CY_SET_XTND_REG32((void CYFAR *)(CYREG_CLK_ILO_CONFIG), 0x80000006u);
ARM GAS  C:\Users\Jarik\AppData\Local\Temp\ccLvX4ah.s 			page 7


 145              		.loc 1 192 0
 146 0014 094A     		ldr	r2, .L8+4
 147 0016 0A4B     		ldr	r3, .L8+8
 148 0018 1A60     		str	r2, [r3]
 193:.\Generated_Source\PSoC4/cyfitter_cfg.c **** 
 194:.\Generated_Source\PSoC4/cyfitter_cfg.c **** 
 195:.\Generated_Source\PSoC4/cyfitter_cfg.c **** 	/* CYDEV_CLK_SELECT00 Starting address: CYDEV_CLK_SELECT00 */
 196:.\Generated_Source\PSoC4/cyfitter_cfg.c **** 	CY_SET_XTND_REG32((void CYFAR *)(CYREG_CLK_SELECT02), 0x00000010u);
 149              		.loc 1 196 0
 150 001a 1022     		mov	r2, #16
 151 001c 094B     		ldr	r3, .L8+12
 152 001e 1A60     		str	r2, [r3]
 197:.\Generated_Source\PSoC4/cyfitter_cfg.c **** 
 198:.\Generated_Source\PSoC4/cyfitter_cfg.c **** 	/* CYDEV_CLK_IMO_CONFIG Starting address: CYDEV_CLK_IMO_CONFIG */
 199:.\Generated_Source\PSoC4/cyfitter_cfg.c **** 	CY_SET_XTND_REG32((void CYFAR *)(CYREG_CLK_IMO_CONFIG), 0x80000000u);
 153              		.loc 1 199 0
 154 0020 8022     		mov	r2, #128
 155 0022 1206     		lsl	r2, r2, #24
 156 0024 084B     		ldr	r3, .L8+16
 157 0026 1A60     		str	r2, [r3]
 200:.\Generated_Source\PSoC4/cyfitter_cfg.c **** 
 201:.\Generated_Source\PSoC4/cyfitter_cfg.c **** 	/* CYDEV_CLK_SELECT Starting address: CYDEV_CLK_SELECT */
 202:.\Generated_Source\PSoC4/cyfitter_cfg.c **** 	CY_SET_XTND_REG32((void CYFAR *)(CYREG_CLK_SELECT), 0x00040000u);
 158              		.loc 1 202 0
 159 0028 2560     		str	r5, [r4]
 203:.\Generated_Source\PSoC4/cyfitter_cfg.c **** 
 204:.\Generated_Source\PSoC4/cyfitter_cfg.c **** 	/* CYDEV_CLK_DIVIDER_A00 Starting address: CYDEV_CLK_DIVIDER_A00 */
 205:.\Generated_Source\PSoC4/cyfitter_cfg.c **** 	CY_SET_XTND_REG32((void CYFAR *)(CYREG_CLK_DIVIDER_A00), 0x80000001u);
 160              		.loc 1 205 0
 161 002a 084A     		ldr	r2, .L8+20
 162 002c 084B     		ldr	r3, .L8+24
 163 002e 1A60     		str	r2, [r3]
 206:.\Generated_Source\PSoC4/cyfitter_cfg.c **** 
 207:.\Generated_Source\PSoC4/cyfitter_cfg.c **** 	CY_SET_XTND_REG32((void CYFAR *)(CYREG_WDT_CONFIG), 0x00000000u);
 164              		.loc 1 207 0
 165 0030 0022     		mov	r2, #0
 166 0032 084B     		ldr	r3, .L8+28
 167 0034 1A60     		str	r2, [r3]
 208:.\Generated_Source\PSoC4/cyfitter_cfg.c **** }
 168              		.loc 1 208 0
 169              		@ sp needed
 170 0036 38BD     		pop	{r3, r4, r5, pc}
 171              	.L9:
 172              		.align	2
 173              	.L8:
 174 0038 00010B40 		.word	1074462976
 175 003c 06000080 		.word	-2147483642
 176 0040 04010B40 		.word	1074462980
 177 0044 08020240 		.word	1073873416
 178 0048 08010B40 		.word	1074462984
 179 004c 01000080 		.word	-2147483647
 180 0050 00000240 		.word	1073872896
 181 0054 0C020B40 		.word	1074463244
 182              		.cfi_endproc
 183              	.LFE4:
 184              		.size	ClockSetup, .-ClockSetup
 185              		.align	2
ARM GAS  C:\Users\Jarik\AppData\Local\Temp\ccLvX4ah.s 			page 8


 186              		.global	cyfitter_cfg
 187              		.code	16
 188              		.thumb_func
 189              		.type	cyfitter_cfg, %function
 190              	cyfitter_cfg:
 191              	.LFB6:
 209:.\Generated_Source\PSoC4/cyfitter_cfg.c **** 
 210:.\Generated_Source\PSoC4/cyfitter_cfg.c **** 
 211:.\Generated_Source\PSoC4/cyfitter_cfg.c **** /* Analog API Functions */
 212:.\Generated_Source\PSoC4/cyfitter_cfg.c **** 
 213:.\Generated_Source\PSoC4/cyfitter_cfg.c **** 
 214:.\Generated_Source\PSoC4/cyfitter_cfg.c **** /*******************************************************************************
 215:.\Generated_Source\PSoC4/cyfitter_cfg.c **** * Function Name: AnalogSetDefault
 216:.\Generated_Source\PSoC4/cyfitter_cfg.c **** ********************************************************************************
 217:.\Generated_Source\PSoC4/cyfitter_cfg.c **** *
 218:.\Generated_Source\PSoC4/cyfitter_cfg.c **** * Summary:
 219:.\Generated_Source\PSoC4/cyfitter_cfg.c **** *  Sets up the analog portions of the chip to default values based on chip
 220:.\Generated_Source\PSoC4/cyfitter_cfg.c **** *  configuration options from the project.
 221:.\Generated_Source\PSoC4/cyfitter_cfg.c **** *
 222:.\Generated_Source\PSoC4/cyfitter_cfg.c **** * Parameters:
 223:.\Generated_Source\PSoC4/cyfitter_cfg.c **** *  void
 224:.\Generated_Source\PSoC4/cyfitter_cfg.c **** *
 225:.\Generated_Source\PSoC4/cyfitter_cfg.c **** * Return:
 226:.\Generated_Source\PSoC4/cyfitter_cfg.c **** *  void
 227:.\Generated_Source\PSoC4/cyfitter_cfg.c **** *
 228:.\Generated_Source\PSoC4/cyfitter_cfg.c **** *******************************************************************************/
 229:.\Generated_Source\PSoC4/cyfitter_cfg.c **** static void AnalogSetDefault(void);
 230:.\Generated_Source\PSoC4/cyfitter_cfg.c **** static void AnalogSetDefault(void)
 231:.\Generated_Source\PSoC4/cyfitter_cfg.c **** {
 232:.\Generated_Source\PSoC4/cyfitter_cfg.c **** }
 233:.\Generated_Source\PSoC4/cyfitter_cfg.c **** 
 234:.\Generated_Source\PSoC4/cyfitter_cfg.c **** #define CY_AMUX_UNUSED CYREG_CM0_ROM_DWT
 235:.\Generated_Source\PSoC4/cyfitter_cfg.c **** 
 236:.\Generated_Source\PSoC4/cyfitter_cfg.c **** 
 237:.\Generated_Source\PSoC4/cyfitter_cfg.c **** /*******************************************************************************
 238:.\Generated_Source\PSoC4/cyfitter_cfg.c **** * Function Name: cyfitter_cfg
 239:.\Generated_Source\PSoC4/cyfitter_cfg.c **** ********************************************************************************
 240:.\Generated_Source\PSoC4/cyfitter_cfg.c **** * Summary:
 241:.\Generated_Source\PSoC4/cyfitter_cfg.c **** *  This function is called by the start-up code for the selected device. It
 242:.\Generated_Source\PSoC4/cyfitter_cfg.c **** *  performs all of the necessary device configuration based on the design
 243:.\Generated_Source\PSoC4/cyfitter_cfg.c **** *  settings.  This includes settings from the Design Wide Resources (DWR) such
 244:.\Generated_Source\PSoC4/cyfitter_cfg.c **** *  as Clocks and Pins as well as any component configuration that is necessary.
 245:.\Generated_Source\PSoC4/cyfitter_cfg.c **** *
 246:.\Generated_Source\PSoC4/cyfitter_cfg.c **** * Parameters:  
 247:.\Generated_Source\PSoC4/cyfitter_cfg.c **** *   void
 248:.\Generated_Source\PSoC4/cyfitter_cfg.c **** *
 249:.\Generated_Source\PSoC4/cyfitter_cfg.c **** * Return:
 250:.\Generated_Source\PSoC4/cyfitter_cfg.c **** *   void
 251:.\Generated_Source\PSoC4/cyfitter_cfg.c **** *
 252:.\Generated_Source\PSoC4/cyfitter_cfg.c **** *******************************************************************************/
 253:.\Generated_Source\PSoC4/cyfitter_cfg.c **** CY_CFG_SECTION
 254:.\Generated_Source\PSoC4/cyfitter_cfg.c **** void cyfitter_cfg(void)
 255:.\Generated_Source\PSoC4/cyfitter_cfg.c **** {
 192              		.loc 1 255 0
 193              		.cfi_startproc
 194 0058 10B5     		push	{r4, lr}
 195              		.cfi_def_cfa_offset 8
ARM GAS  C:\Users\Jarik\AppData\Local\Temp\ccLvX4ah.s 			page 9


 196              		.cfi_offset 4, -8
 197              		.cfi_offset 14, -4
 256:.\Generated_Source\PSoC4/cyfitter_cfg.c **** 	/* Disable interrupts by default. Let user enable if/when they want. */
 257:.\Generated_Source\PSoC4/cyfitter_cfg.c **** 	CyGlobalIntDisable;
 198              		.loc 1 257 0
 199              	@ 257 ".\Generated_Source\PSoC4\cyfitter_cfg.c" 1
 200 005a 72B6     		CPSID   i
 201              	@ 0 "" 2
 202              	.LVL16:
 203              		.code	16
 204              	.LBB3:
 258:.\Generated_Source\PSoC4/cyfitter_cfg.c **** 
 259:.\Generated_Source\PSoC4/cyfitter_cfg.c **** 	{
 260:.\Generated_Source\PSoC4/cyfitter_cfg.c **** 		static const uint32 CYCODE cy_cfg_addr_table[] = {
 261:.\Generated_Source\PSoC4/cyfitter_cfg.c **** 			0x400F3038u, /* Base address: 0x400F3000 Count: 56 */
 262:.\Generated_Source\PSoC4/cyfitter_cfg.c **** 			0x400F313Eu, /* Base address: 0x400F3100 Count: 62 */
 263:.\Generated_Source\PSoC4/cyfitter_cfg.c **** 			0x400F3222u, /* Base address: 0x400F3200 Count: 34 */
 264:.\Generated_Source\PSoC4/cyfitter_cfg.c **** 			0x400F3347u, /* Base address: 0x400F3300 Count: 71 */
 265:.\Generated_Source\PSoC4/cyfitter_cfg.c **** 			0x400F400Cu, /* Base address: 0x400F4000 Count: 12 */
 266:.\Generated_Source\PSoC4/cyfitter_cfg.c **** 			0x400F410Eu, /* Base address: 0x400F4100 Count: 14 */
 267:.\Generated_Source\PSoC4/cyfitter_cfg.c **** 			0x400F420Fu, /* Base address: 0x400F4200 Count: 15 */
 268:.\Generated_Source\PSoC4/cyfitter_cfg.c **** 			0x400F4312u, /* Base address: 0x400F4300 Count: 18 */
 269:.\Generated_Source\PSoC4/cyfitter_cfg.c **** 			0x400F6002u, /* Base address: 0x400F6000 Count: 2 */
 270:.\Generated_Source\PSoC4/cyfitter_cfg.c **** 		};
 271:.\Generated_Source\PSoC4/cyfitter_cfg.c **** 
 272:.\Generated_Source\PSoC4/cyfitter_cfg.c **** 		static const cy_cfg_addrvalue_t CYCODE cy_cfg_data_table[] = {
 273:.\Generated_Source\PSoC4/cyfitter_cfg.c **** 			{0x02u, 0x01u},
 274:.\Generated_Source\PSoC4/cyfitter_cfg.c **** 			{0x03u, 0x0Fu},
 275:.\Generated_Source\PSoC4/cyfitter_cfg.c **** 			{0x05u, 0x02u},
 276:.\Generated_Source\PSoC4/cyfitter_cfg.c **** 			{0x06u, 0x01u},
 277:.\Generated_Source\PSoC4/cyfitter_cfg.c **** 			{0x07u, 0x01u},
 278:.\Generated_Source\PSoC4/cyfitter_cfg.c **** 			{0x08u, 0x01u},
 279:.\Generated_Source\PSoC4/cyfitter_cfg.c **** 			{0x09u, 0x0Fu},
 280:.\Generated_Source\PSoC4/cyfitter_cfg.c **** 			{0x0Du, 0x04u},
 281:.\Generated_Source\PSoC4/cyfitter_cfg.c **** 			{0x0Eu, 0x01u},
 282:.\Generated_Source\PSoC4/cyfitter_cfg.c **** 			{0x0Fu, 0x01u},
 283:.\Generated_Source\PSoC4/cyfitter_cfg.c **** 			{0x11u, 0x0Fu},
 284:.\Generated_Source\PSoC4/cyfitter_cfg.c **** 			{0x12u, 0x01u},
 285:.\Generated_Source\PSoC4/cyfitter_cfg.c **** 			{0x14u, 0x01u},
 286:.\Generated_Source\PSoC4/cyfitter_cfg.c **** 			{0x15u, 0x08u},
 287:.\Generated_Source\PSoC4/cyfitter_cfg.c **** 			{0x17u, 0x01u},
 288:.\Generated_Source\PSoC4/cyfitter_cfg.c **** 			{0x19u, 0x0Fu},
 289:.\Generated_Source\PSoC4/cyfitter_cfg.c **** 			{0x1Au, 0x01u},
 290:.\Generated_Source\PSoC4/cyfitter_cfg.c **** 			{0x1Cu, 0x01u},
 291:.\Generated_Source\PSoC4/cyfitter_cfg.c **** 			{0x1Du, 0x0Fu},
 292:.\Generated_Source\PSoC4/cyfitter_cfg.c **** 			{0x22u, 0x01u},
 293:.\Generated_Source\PSoC4/cyfitter_cfg.c **** 			{0x23u, 0x0Fu},
 294:.\Generated_Source\PSoC4/cyfitter_cfg.c **** 			{0x26u, 0x01u},
 295:.\Generated_Source\PSoC4/cyfitter_cfg.c **** 			{0x27u, 0x0Fu},
 296:.\Generated_Source\PSoC4/cyfitter_cfg.c **** 			{0x28u, 0x01u},
 297:.\Generated_Source\PSoC4/cyfitter_cfg.c **** 			{0x2Bu, 0x0Fu},
 298:.\Generated_Source\PSoC4/cyfitter_cfg.c **** 			{0x2Cu, 0x01u},
 299:.\Generated_Source\PSoC4/cyfitter_cfg.c **** 			{0x2Du, 0x0Fu},
 300:.\Generated_Source\PSoC4/cyfitter_cfg.c **** 			{0x32u, 0x01u},
 301:.\Generated_Source\PSoC4/cyfitter_cfg.c **** 			{0x35u, 0x01u},
 302:.\Generated_Source\PSoC4/cyfitter_cfg.c **** 			{0x37u, 0x0Eu},
 303:.\Generated_Source\PSoC4/cyfitter_cfg.c **** 			{0x38u, 0x08u},
ARM GAS  C:\Users\Jarik\AppData\Local\Temp\ccLvX4ah.s 			page 10


 304:.\Generated_Source\PSoC4/cyfitter_cfg.c **** 			{0x39u, 0xA0u},
 305:.\Generated_Source\PSoC4/cyfitter_cfg.c **** 			{0x3Eu, 0x04u},
 306:.\Generated_Source\PSoC4/cyfitter_cfg.c **** 			{0x3Fu, 0x50u},
 307:.\Generated_Source\PSoC4/cyfitter_cfg.c **** 			{0x58u, 0x04u},
 308:.\Generated_Source\PSoC4/cyfitter_cfg.c **** 			{0x59u, 0x04u},
 309:.\Generated_Source\PSoC4/cyfitter_cfg.c **** 			{0x5Fu, 0x01u},
 310:.\Generated_Source\PSoC4/cyfitter_cfg.c **** 			{0x8Du, 0x04u},
 311:.\Generated_Source\PSoC4/cyfitter_cfg.c **** 			{0x98u, 0x01u},
 312:.\Generated_Source\PSoC4/cyfitter_cfg.c **** 			{0x99u, 0x02u},
 313:.\Generated_Source\PSoC4/cyfitter_cfg.c **** 			{0xA8u, 0x02u},
 314:.\Generated_Source\PSoC4/cyfitter_cfg.c **** 			{0xA9u, 0x01u},
 315:.\Generated_Source\PSoC4/cyfitter_cfg.c **** 			{0xACu, 0x04u},
 316:.\Generated_Source\PSoC4/cyfitter_cfg.c **** 			{0xADu, 0x08u},
 317:.\Generated_Source\PSoC4/cyfitter_cfg.c **** 			{0xB0u, 0x02u},
 318:.\Generated_Source\PSoC4/cyfitter_cfg.c **** 			{0xB1u, 0x02u},
 319:.\Generated_Source\PSoC4/cyfitter_cfg.c **** 			{0xB2u, 0x04u},
 320:.\Generated_Source\PSoC4/cyfitter_cfg.c **** 			{0xB3u, 0x08u},
 321:.\Generated_Source\PSoC4/cyfitter_cfg.c **** 			{0xB4u, 0x01u},
 322:.\Generated_Source\PSoC4/cyfitter_cfg.c **** 			{0xB5u, 0x04u},
 323:.\Generated_Source\PSoC4/cyfitter_cfg.c **** 			{0xB7u, 0x01u},
 324:.\Generated_Source\PSoC4/cyfitter_cfg.c **** 			{0xD8u, 0x0Bu},
 325:.\Generated_Source\PSoC4/cyfitter_cfg.c **** 			{0xD9u, 0x0Bu},
 326:.\Generated_Source\PSoC4/cyfitter_cfg.c **** 			{0xDBu, 0x04u},
 327:.\Generated_Source\PSoC4/cyfitter_cfg.c **** 			{0xDCu, 0x99u},
 328:.\Generated_Source\PSoC4/cyfitter_cfg.c **** 			{0xDFu, 0x01u},
 329:.\Generated_Source\PSoC4/cyfitter_cfg.c **** 			{0x02u, 0x85u},
 330:.\Generated_Source\PSoC4/cyfitter_cfg.c **** 			{0x03u, 0x20u},
 331:.\Generated_Source\PSoC4/cyfitter_cfg.c **** 			{0x08u, 0x10u},
 332:.\Generated_Source\PSoC4/cyfitter_cfg.c **** 			{0x09u, 0x02u},
 333:.\Generated_Source\PSoC4/cyfitter_cfg.c **** 			{0x0Au, 0x12u},
 334:.\Generated_Source\PSoC4/cyfitter_cfg.c **** 			{0x0Eu, 0x04u},
 335:.\Generated_Source\PSoC4/cyfitter_cfg.c **** 			{0x10u, 0x44u},
 336:.\Generated_Source\PSoC4/cyfitter_cfg.c **** 			{0x12u, 0x0Au},
 337:.\Generated_Source\PSoC4/cyfitter_cfg.c **** 			{0x13u, 0x04u},
 338:.\Generated_Source\PSoC4/cyfitter_cfg.c **** 			{0x15u, 0x10u},
 339:.\Generated_Source\PSoC4/cyfitter_cfg.c **** 			{0x17u, 0x80u},
 340:.\Generated_Source\PSoC4/cyfitter_cfg.c **** 			{0x19u, 0x04u},
 341:.\Generated_Source\PSoC4/cyfitter_cfg.c **** 			{0x1Eu, 0xA0u},
 342:.\Generated_Source\PSoC4/cyfitter_cfg.c **** 			{0x1Fu, 0x20u},
 343:.\Generated_Source\PSoC4/cyfitter_cfg.c **** 			{0x22u, 0x50u},
 344:.\Generated_Source\PSoC4/cyfitter_cfg.c **** 			{0x24u, 0x98u},
 345:.\Generated_Source\PSoC4/cyfitter_cfg.c **** 			{0x25u, 0x02u},
 346:.\Generated_Source\PSoC4/cyfitter_cfg.c **** 			{0x26u, 0x89u},
 347:.\Generated_Source\PSoC4/cyfitter_cfg.c **** 			{0x28u, 0x40u},
 348:.\Generated_Source\PSoC4/cyfitter_cfg.c **** 			{0x29u, 0x11u},
 349:.\Generated_Source\PSoC4/cyfitter_cfg.c **** 			{0x2Bu, 0x21u},
 350:.\Generated_Source\PSoC4/cyfitter_cfg.c **** 			{0x2Du, 0x80u},
 351:.\Generated_Source\PSoC4/cyfitter_cfg.c **** 			{0x2Fu, 0x04u},
 352:.\Generated_Source\PSoC4/cyfitter_cfg.c **** 			{0x30u, 0xA0u},
 353:.\Generated_Source\PSoC4/cyfitter_cfg.c **** 			{0x31u, 0x20u},
 354:.\Generated_Source\PSoC4/cyfitter_cfg.c **** 			{0x32u, 0x05u},
 355:.\Generated_Source\PSoC4/cyfitter_cfg.c **** 			{0x33u, 0x02u},
 356:.\Generated_Source\PSoC4/cyfitter_cfg.c **** 			{0x37u, 0x20u},
 357:.\Generated_Source\PSoC4/cyfitter_cfg.c **** 			{0x38u, 0x98u},
 358:.\Generated_Source\PSoC4/cyfitter_cfg.c **** 			{0x3Au, 0x01u},
 359:.\Generated_Source\PSoC4/cyfitter_cfg.c **** 			{0x3Bu, 0x04u},
 360:.\Generated_Source\PSoC4/cyfitter_cfg.c **** 			{0x3Du, 0x40u},
ARM GAS  C:\Users\Jarik\AppData\Local\Temp\ccLvX4ah.s 			page 11


 361:.\Generated_Source\PSoC4/cyfitter_cfg.c **** 			{0x45u, 0x20u},
 362:.\Generated_Source\PSoC4/cyfitter_cfg.c **** 			{0x46u, 0x04u},
 363:.\Generated_Source\PSoC4/cyfitter_cfg.c **** 			{0x58u, 0x10u},
 364:.\Generated_Source\PSoC4/cyfitter_cfg.c **** 			{0x59u, 0x10u},
 365:.\Generated_Source\PSoC4/cyfitter_cfg.c **** 			{0x5Au, 0x08u},
 366:.\Generated_Source\PSoC4/cyfitter_cfg.c **** 			{0x5Bu, 0x08u},
 367:.\Generated_Source\PSoC4/cyfitter_cfg.c **** 			{0x5Eu, 0xA2u},
 368:.\Generated_Source\PSoC4/cyfitter_cfg.c **** 			{0x5Fu, 0x08u},
 369:.\Generated_Source\PSoC4/cyfitter_cfg.c **** 			{0x64u, 0x05u},
 370:.\Generated_Source\PSoC4/cyfitter_cfg.c **** 			{0x65u, 0x02u},
 371:.\Generated_Source\PSoC4/cyfitter_cfg.c **** 			{0x67u, 0x10u},
 372:.\Generated_Source\PSoC4/cyfitter_cfg.c **** 			{0x7Au, 0x02u},
 373:.\Generated_Source\PSoC4/cyfitter_cfg.c **** 			{0x7Bu, 0x01u},
 374:.\Generated_Source\PSoC4/cyfitter_cfg.c **** 			{0x7Fu, 0x80u},
 375:.\Generated_Source\PSoC4/cyfitter_cfg.c **** 			{0x81u, 0x02u},
 376:.\Generated_Source\PSoC4/cyfitter_cfg.c **** 			{0x83u, 0xA0u},
 377:.\Generated_Source\PSoC4/cyfitter_cfg.c **** 			{0x84u, 0x01u},
 378:.\Generated_Source\PSoC4/cyfitter_cfg.c **** 			{0x85u, 0x10u},
 379:.\Generated_Source\PSoC4/cyfitter_cfg.c **** 			{0x87u, 0x16u},
 380:.\Generated_Source\PSoC4/cyfitter_cfg.c **** 			{0x88u, 0x05u},
 381:.\Generated_Source\PSoC4/cyfitter_cfg.c **** 			{0x8Cu, 0x88u},
 382:.\Generated_Source\PSoC4/cyfitter_cfg.c **** 			{0xC0u, 0x0Fu},
 383:.\Generated_Source\PSoC4/cyfitter_cfg.c **** 			{0xC2u, 0x4Fu},
 384:.\Generated_Source\PSoC4/cyfitter_cfg.c **** 			{0xC4u, 0xCFu},
 385:.\Generated_Source\PSoC4/cyfitter_cfg.c **** 			{0xCAu, 0x3Fu},
 386:.\Generated_Source\PSoC4/cyfitter_cfg.c **** 			{0xCCu, 0x2Fu},
 387:.\Generated_Source\PSoC4/cyfitter_cfg.c **** 			{0xCEu, 0x1Fu},
 388:.\Generated_Source\PSoC4/cyfitter_cfg.c **** 			{0xD6u, 0xF0u},
 389:.\Generated_Source\PSoC4/cyfitter_cfg.c **** 			{0xD8u, 0xF0u},
 390:.\Generated_Source\PSoC4/cyfitter_cfg.c **** 			{0xDEu, 0x80u},
 391:.\Generated_Source\PSoC4/cyfitter_cfg.c **** 			{0x01u, 0x08u},
 392:.\Generated_Source\PSoC4/cyfitter_cfg.c **** 			{0x02u, 0x01u},
 393:.\Generated_Source\PSoC4/cyfitter_cfg.c **** 			{0x05u, 0x04u},
 394:.\Generated_Source\PSoC4/cyfitter_cfg.c **** 			{0x0Au, 0x01u},
 395:.\Generated_Source\PSoC4/cyfitter_cfg.c **** 			{0x0Cu, 0x08u},
 396:.\Generated_Source\PSoC4/cyfitter_cfg.c **** 			{0x14u, 0x02u},
 397:.\Generated_Source\PSoC4/cyfitter_cfg.c **** 			{0x19u, 0x02u},
 398:.\Generated_Source\PSoC4/cyfitter_cfg.c **** 			{0x1Du, 0x01u},
 399:.\Generated_Source\PSoC4/cyfitter_cfg.c **** 			{0x20u, 0x04u},
 400:.\Generated_Source\PSoC4/cyfitter_cfg.c **** 			{0x26u, 0x01u},
 401:.\Generated_Source\PSoC4/cyfitter_cfg.c **** 			{0x28u, 0x01u},
 402:.\Generated_Source\PSoC4/cyfitter_cfg.c **** 			{0x2Cu, 0x01u},
 403:.\Generated_Source\PSoC4/cyfitter_cfg.c **** 			{0x30u, 0x02u},
 404:.\Generated_Source\PSoC4/cyfitter_cfg.c **** 			{0x31u, 0x01u},
 405:.\Generated_Source\PSoC4/cyfitter_cfg.c **** 			{0x32u, 0x04u},
 406:.\Generated_Source\PSoC4/cyfitter_cfg.c **** 			{0x33u, 0x04u},
 407:.\Generated_Source\PSoC4/cyfitter_cfg.c **** 			{0x34u, 0x08u},
 408:.\Generated_Source\PSoC4/cyfitter_cfg.c **** 			{0x35u, 0x08u},
 409:.\Generated_Source\PSoC4/cyfitter_cfg.c **** 			{0x36u, 0x01u},
 410:.\Generated_Source\PSoC4/cyfitter_cfg.c **** 			{0x37u, 0x02u},
 411:.\Generated_Source\PSoC4/cyfitter_cfg.c **** 			{0x3Eu, 0x40u},
 412:.\Generated_Source\PSoC4/cyfitter_cfg.c **** 			{0x58u, 0x0Bu},
 413:.\Generated_Source\PSoC4/cyfitter_cfg.c **** 			{0x59u, 0x0Bu},
 414:.\Generated_Source\PSoC4/cyfitter_cfg.c **** 			{0x5Bu, 0x04u},
 415:.\Generated_Source\PSoC4/cyfitter_cfg.c **** 			{0x5Cu, 0x99u},
 416:.\Generated_Source\PSoC4/cyfitter_cfg.c **** 			{0x5Fu, 0x01u},
 417:.\Generated_Source\PSoC4/cyfitter_cfg.c **** 			{0xA0u, 0x01u},
ARM GAS  C:\Users\Jarik\AppData\Local\Temp\ccLvX4ah.s 			page 12


 418:.\Generated_Source\PSoC4/cyfitter_cfg.c **** 			{0xA4u, 0x02u},
 419:.\Generated_Source\PSoC4/cyfitter_cfg.c **** 			{0xB0u, 0x01u},
 420:.\Generated_Source\PSoC4/cyfitter_cfg.c **** 			{0xB4u, 0x02u},
 421:.\Generated_Source\PSoC4/cyfitter_cfg.c **** 			{0xD8u, 0x0Bu},
 422:.\Generated_Source\PSoC4/cyfitter_cfg.c **** 			{0xDBu, 0x04u},
 423:.\Generated_Source\PSoC4/cyfitter_cfg.c **** 			{0xDCu, 0x09u},
 424:.\Generated_Source\PSoC4/cyfitter_cfg.c **** 			{0xDFu, 0x01u},
 425:.\Generated_Source\PSoC4/cyfitter_cfg.c **** 			{0x04u, 0x40u},
 426:.\Generated_Source\PSoC4/cyfitter_cfg.c **** 			{0x05u, 0x11u},
 427:.\Generated_Source\PSoC4/cyfitter_cfg.c **** 			{0x06u, 0x40u},
 428:.\Generated_Source\PSoC4/cyfitter_cfg.c **** 			{0x0Cu, 0x08u},
 429:.\Generated_Source\PSoC4/cyfitter_cfg.c **** 			{0x11u, 0x02u},
 430:.\Generated_Source\PSoC4/cyfitter_cfg.c **** 			{0x12u, 0x10u},
 431:.\Generated_Source\PSoC4/cyfitter_cfg.c **** 			{0x15u, 0x11u},
 432:.\Generated_Source\PSoC4/cyfitter_cfg.c **** 			{0x17u, 0x88u},
 433:.\Generated_Source\PSoC4/cyfitter_cfg.c **** 			{0x19u, 0x20u},
 434:.\Generated_Source\PSoC4/cyfitter_cfg.c **** 			{0x1Bu, 0x02u},
 435:.\Generated_Source\PSoC4/cyfitter_cfg.c **** 			{0x1Eu, 0x64u},
 436:.\Generated_Source\PSoC4/cyfitter_cfg.c **** 			{0x1Fu, 0x80u},
 437:.\Generated_Source\PSoC4/cyfitter_cfg.c **** 			{0x25u, 0x28u},
 438:.\Generated_Source\PSoC4/cyfitter_cfg.c **** 			{0x26u, 0x01u},
 439:.\Generated_Source\PSoC4/cyfitter_cfg.c **** 			{0x27u, 0x02u},
 440:.\Generated_Source\PSoC4/cyfitter_cfg.c **** 			{0x34u, 0x80u},
 441:.\Generated_Source\PSoC4/cyfitter_cfg.c **** 			{0x37u, 0x10u},
 442:.\Generated_Source\PSoC4/cyfitter_cfg.c **** 			{0x3Cu, 0x0Au},
 443:.\Generated_Source\PSoC4/cyfitter_cfg.c **** 			{0x45u, 0x28u},
 444:.\Generated_Source\PSoC4/cyfitter_cfg.c **** 			{0x46u, 0x28u},
 445:.\Generated_Source\PSoC4/cyfitter_cfg.c **** 			{0x58u, 0x01u},
 446:.\Generated_Source\PSoC4/cyfitter_cfg.c **** 			{0x59u, 0x04u},
 447:.\Generated_Source\PSoC4/cyfitter_cfg.c **** 			{0x5Au, 0xA0u},
 448:.\Generated_Source\PSoC4/cyfitter_cfg.c **** 			{0x5Bu, 0x02u},
 449:.\Generated_Source\PSoC4/cyfitter_cfg.c **** 			{0x5Du, 0x20u},
 450:.\Generated_Source\PSoC4/cyfitter_cfg.c **** 			{0x5Eu, 0x46u},
 451:.\Generated_Source\PSoC4/cyfitter_cfg.c **** 			{0x64u, 0x01u},
 452:.\Generated_Source\PSoC4/cyfitter_cfg.c **** 			{0x66u, 0x2Au},
 453:.\Generated_Source\PSoC4/cyfitter_cfg.c **** 			{0x7Bu, 0x80u},
 454:.\Generated_Source\PSoC4/cyfitter_cfg.c **** 			{0x7Fu, 0x80u},
 455:.\Generated_Source\PSoC4/cyfitter_cfg.c **** 			{0x82u, 0x01u},
 456:.\Generated_Source\PSoC4/cyfitter_cfg.c **** 			{0x83u, 0x08u},
 457:.\Generated_Source\PSoC4/cyfitter_cfg.c **** 			{0x86u, 0x12u},
 458:.\Generated_Source\PSoC4/cyfitter_cfg.c **** 			{0x88u, 0x20u},
 459:.\Generated_Source\PSoC4/cyfitter_cfg.c **** 			{0x89u, 0x10u},
 460:.\Generated_Source\PSoC4/cyfitter_cfg.c **** 			{0x8Au, 0x40u},
 461:.\Generated_Source\PSoC4/cyfitter_cfg.c **** 			{0x8Bu, 0x81u},
 462:.\Generated_Source\PSoC4/cyfitter_cfg.c **** 			{0x8Cu, 0x80u},
 463:.\Generated_Source\PSoC4/cyfitter_cfg.c **** 			{0x8Du, 0x10u},
 464:.\Generated_Source\PSoC4/cyfitter_cfg.c **** 			{0x90u, 0x40u},
 465:.\Generated_Source\PSoC4/cyfitter_cfg.c **** 			{0x91u, 0x01u},
 466:.\Generated_Source\PSoC4/cyfitter_cfg.c **** 			{0x92u, 0xA0u},
 467:.\Generated_Source\PSoC4/cyfitter_cfg.c **** 			{0x98u, 0x80u},
 468:.\Generated_Source\PSoC4/cyfitter_cfg.c **** 			{0x99u, 0x04u},
 469:.\Generated_Source\PSoC4/cyfitter_cfg.c **** 			{0x9Au, 0x10u},
 470:.\Generated_Source\PSoC4/cyfitter_cfg.c **** 			{0x9Bu, 0x10u},
 471:.\Generated_Source\PSoC4/cyfitter_cfg.c **** 			{0x9Du, 0x11u},
 472:.\Generated_Source\PSoC4/cyfitter_cfg.c **** 			{0x9Eu, 0x01u},
 473:.\Generated_Source\PSoC4/cyfitter_cfg.c **** 			{0xA0u, 0x0Du},
 474:.\Generated_Source\PSoC4/cyfitter_cfg.c **** 			{0xA1u, 0x01u},
ARM GAS  C:\Users\Jarik\AppData\Local\Temp\ccLvX4ah.s 			page 13


 475:.\Generated_Source\PSoC4/cyfitter_cfg.c **** 			{0xA4u, 0xA0u},
 476:.\Generated_Source\PSoC4/cyfitter_cfg.c **** 			{0xA7u, 0x83u},
 477:.\Generated_Source\PSoC4/cyfitter_cfg.c **** 			{0xA9u, 0x41u},
 478:.\Generated_Source\PSoC4/cyfitter_cfg.c **** 			{0xABu, 0x20u},
 479:.\Generated_Source\PSoC4/cyfitter_cfg.c **** 			{0xADu, 0x80u},
 480:.\Generated_Source\PSoC4/cyfitter_cfg.c **** 			{0xAEu, 0x04u},
 481:.\Generated_Source\PSoC4/cyfitter_cfg.c **** 			{0xAFu, 0x04u},
 482:.\Generated_Source\PSoC4/cyfitter_cfg.c **** 			{0xB1u, 0x01u},
 483:.\Generated_Source\PSoC4/cyfitter_cfg.c **** 			{0xB2u, 0x94u},
 484:.\Generated_Source\PSoC4/cyfitter_cfg.c **** 			{0xB4u, 0x40u},
 485:.\Generated_Source\PSoC4/cyfitter_cfg.c **** 			{0xB6u, 0x10u},
 486:.\Generated_Source\PSoC4/cyfitter_cfg.c **** 			{0xB7u, 0x10u},
 487:.\Generated_Source\PSoC4/cyfitter_cfg.c **** 			{0xC0u, 0xD0u},
 488:.\Generated_Source\PSoC4/cyfitter_cfg.c **** 			{0xC2u, 0x20u},
 489:.\Generated_Source\PSoC4/cyfitter_cfg.c **** 			{0xC4u, 0xFCu},
 490:.\Generated_Source\PSoC4/cyfitter_cfg.c **** 			{0xCCu, 0x30u},
 491:.\Generated_Source\PSoC4/cyfitter_cfg.c **** 			{0xCEu, 0xC0u},
 492:.\Generated_Source\PSoC4/cyfitter_cfg.c **** 			{0xD6u, 0xFEu},
 493:.\Generated_Source\PSoC4/cyfitter_cfg.c **** 			{0xD8u, 0xF0u},
 494:.\Generated_Source\PSoC4/cyfitter_cfg.c **** 			{0xDEu, 0x81u},
 495:.\Generated_Source\PSoC4/cyfitter_cfg.c **** 			{0xECu, 0x10u},
 496:.\Generated_Source\PSoC4/cyfitter_cfg.c **** 			{0x01u, 0x10u},
 497:.\Generated_Source\PSoC4/cyfitter_cfg.c **** 			{0x03u, 0x80u},
 498:.\Generated_Source\PSoC4/cyfitter_cfg.c **** 			{0x07u, 0x24u},
 499:.\Generated_Source\PSoC4/cyfitter_cfg.c **** 			{0x08u, 0x08u},
 500:.\Generated_Source\PSoC4/cyfitter_cfg.c **** 			{0x09u, 0x80u},
 501:.\Generated_Source\PSoC4/cyfitter_cfg.c **** 			{0x0Fu, 0x14u},
 502:.\Generated_Source\PSoC4/cyfitter_cfg.c **** 			{0x83u, 0x20u},
 503:.\Generated_Source\PSoC4/cyfitter_cfg.c **** 			{0x87u, 0x80u},
 504:.\Generated_Source\PSoC4/cyfitter_cfg.c **** 			{0xC0u, 0xF0u},
 505:.\Generated_Source\PSoC4/cyfitter_cfg.c **** 			{0xC2u, 0xF0u},
 506:.\Generated_Source\PSoC4/cyfitter_cfg.c **** 			{0xE0u, 0x80u},
 507:.\Generated_Source\PSoC4/cyfitter_cfg.c **** 			{0xE4u, 0x10u},
 508:.\Generated_Source\PSoC4/cyfitter_cfg.c **** 			{0x03u, 0x10u},
 509:.\Generated_Source\PSoC4/cyfitter_cfg.c **** 			{0x06u, 0x80u},
 510:.\Generated_Source\PSoC4/cyfitter_cfg.c **** 			{0x83u, 0x10u},
 511:.\Generated_Source\PSoC4/cyfitter_cfg.c **** 			{0x9Eu, 0x80u},
 512:.\Generated_Source\PSoC4/cyfitter_cfg.c **** 			{0xA8u, 0x08u},
 513:.\Generated_Source\PSoC4/cyfitter_cfg.c **** 			{0xA9u, 0x80u},
 514:.\Generated_Source\PSoC4/cyfitter_cfg.c **** 			{0xABu, 0x04u},
 515:.\Generated_Source\PSoC4/cyfitter_cfg.c **** 			{0xADu, 0x10u},
 516:.\Generated_Source\PSoC4/cyfitter_cfg.c **** 			{0xAFu, 0x14u},
 517:.\Generated_Source\PSoC4/cyfitter_cfg.c **** 			{0xB6u, 0x80u},
 518:.\Generated_Source\PSoC4/cyfitter_cfg.c **** 			{0xC0u, 0x30u},
 519:.\Generated_Source\PSoC4/cyfitter_cfg.c **** 			{0xE0u, 0x20u},
 520:.\Generated_Source\PSoC4/cyfitter_cfg.c **** 			{0xE8u, 0xD0u},
 521:.\Generated_Source\PSoC4/cyfitter_cfg.c **** 			{0xECu, 0xB0u},
 522:.\Generated_Source\PSoC4/cyfitter_cfg.c **** 			{0x00u, 0x01u},
 523:.\Generated_Source\PSoC4/cyfitter_cfg.c **** 			{0x01u, 0x40u},
 524:.\Generated_Source\PSoC4/cyfitter_cfg.c **** 			{0x04u, 0x10u},
 525:.\Generated_Source\PSoC4/cyfitter_cfg.c **** 			{0x06u, 0x80u},
 526:.\Generated_Source\PSoC4/cyfitter_cfg.c **** 			{0x08u, 0x40u},
 527:.\Generated_Source\PSoC4/cyfitter_cfg.c **** 			{0x09u, 0x04u},
 528:.\Generated_Source\PSoC4/cyfitter_cfg.c **** 			{0x0Eu, 0x01u},
 529:.\Generated_Source\PSoC4/cyfitter_cfg.c **** 			{0x0Fu, 0x40u},
 530:.\Generated_Source\PSoC4/cyfitter_cfg.c **** 			{0x88u, 0x40u},
 531:.\Generated_Source\PSoC4/cyfitter_cfg.c **** 			{0x8Bu, 0x40u},
ARM GAS  C:\Users\Jarik\AppData\Local\Temp\ccLvX4ah.s 			page 14


 532:.\Generated_Source\PSoC4/cyfitter_cfg.c **** 			{0x8Cu, 0x11u},
 533:.\Generated_Source\PSoC4/cyfitter_cfg.c **** 			{0xC0u, 0x0Fu},
 534:.\Generated_Source\PSoC4/cyfitter_cfg.c **** 			{0xC2u, 0x0Fu},
 535:.\Generated_Source\PSoC4/cyfitter_cfg.c **** 			{0xE2u, 0x0Du},
 536:.\Generated_Source\PSoC4/cyfitter_cfg.c **** 			{0xE6u, 0x08u},
 537:.\Generated_Source\PSoC4/cyfitter_cfg.c **** 			{0x00u, 0x02u},
 538:.\Generated_Source\PSoC4/cyfitter_cfg.c **** 			{0x06u, 0x20u},
 539:.\Generated_Source\PSoC4/cyfitter_cfg.c **** 			{0x09u, 0x02u},
 540:.\Generated_Source\PSoC4/cyfitter_cfg.c **** 			{0x0Au, 0x01u},
 541:.\Generated_Source\PSoC4/cyfitter_cfg.c **** 			{0x0Fu, 0x08u},
 542:.\Generated_Source\PSoC4/cyfitter_cfg.c **** 			{0x88u, 0x01u},
 543:.\Generated_Source\PSoC4/cyfitter_cfg.c **** 			{0x89u, 0x02u},
 544:.\Generated_Source\PSoC4/cyfitter_cfg.c **** 			{0x8Au, 0x01u},
 545:.\Generated_Source\PSoC4/cyfitter_cfg.c **** 			{0x8Eu, 0x20u},
 546:.\Generated_Source\PSoC4/cyfitter_cfg.c **** 			{0x8Fu, 0x04u},
 547:.\Generated_Source\PSoC4/cyfitter_cfg.c **** 			{0xB2u, 0x81u},
 548:.\Generated_Source\PSoC4/cyfitter_cfg.c **** 			{0xB5u, 0x44u},
 549:.\Generated_Source\PSoC4/cyfitter_cfg.c **** 			{0xC0u, 0x0Cu},
 550:.\Generated_Source\PSoC4/cyfitter_cfg.c **** 			{0xC2u, 0x0Bu},
 551:.\Generated_Source\PSoC4/cyfitter_cfg.c **** 			{0xE2u, 0x03u},
 552:.\Generated_Source\PSoC4/cyfitter_cfg.c **** 			{0xE6u, 0x07u},
 553:.\Generated_Source\PSoC4/cyfitter_cfg.c **** 			{0xEAu, 0x02u},
 554:.\Generated_Source\PSoC4/cyfitter_cfg.c **** 			{0xEEu, 0x07u},
 555:.\Generated_Source\PSoC4/cyfitter_cfg.c **** 			{0x02u, 0x01u},
 556:.\Generated_Source\PSoC4/cyfitter_cfg.c **** 			{0x11u, 0x01u},
 557:.\Generated_Source\PSoC4/cyfitter_cfg.c **** 		};
 558:.\Generated_Source\PSoC4/cyfitter_cfg.c **** 
 559:.\Generated_Source\PSoC4/cyfitter_cfg.c **** 
 560:.\Generated_Source\PSoC4/cyfitter_cfg.c **** 
 561:.\Generated_Source\PSoC4/cyfitter_cfg.c **** 		CYPACKED typedef struct {
 562:.\Generated_Source\PSoC4/cyfitter_cfg.c **** 			void CYFAR *address;
 563:.\Generated_Source\PSoC4/cyfitter_cfg.c **** 			uint16 size;
 564:.\Generated_Source\PSoC4/cyfitter_cfg.c **** 		} CYPACKED_ATTR cfg_memset_t;
 565:.\Generated_Source\PSoC4/cyfitter_cfg.c **** 
 566:.\Generated_Source\PSoC4/cyfitter_cfg.c **** 		static const cfg_memset_t CYCODE cfg_memset_list [] = {
 567:.\Generated_Source\PSoC4/cyfitter_cfg.c **** 			/* address, size */
 568:.\Generated_Source\PSoC4/cyfitter_cfg.c **** 			{(void CYFAR *)(CYDEV_UDB_P0_U0_BASE), 1024u},
 569:.\Generated_Source\PSoC4/cyfitter_cfg.c **** 			{(void CYFAR *)(CYDEV_UDB_DSI0_BASE), 1024u},
 570:.\Generated_Source\PSoC4/cyfitter_cfg.c **** 		};
 571:.\Generated_Source\PSoC4/cyfitter_cfg.c **** 
 572:.\Generated_Source\PSoC4/cyfitter_cfg.c **** 		uint8 CYDATA i;
 573:.\Generated_Source\PSoC4/cyfitter_cfg.c **** 
 574:.\Generated_Source\PSoC4/cyfitter_cfg.c **** 		/* Zero out critical memory blocks before beginning configuration */
 575:.\Generated_Source\PSoC4/cyfitter_cfg.c **** 		for (i = 0u; i < (sizeof(cfg_memset_list)/sizeof(cfg_memset_list[0])); i++)
 205              		.loc 1 575 0
 206 005c 0024     		mov	r4, #0
 207 005e 10E0     		b	.L11
 208              	.LVL17:
 209              	.L12:
 210              	.LBB4:
 576:.\Generated_Source\PSoC4/cyfitter_cfg.c **** 		{
 577:.\Generated_Source\PSoC4/cyfitter_cfg.c **** 			const cfg_memset_t CYCODE * CYDATA ms = &cfg_memset_list[i];
 578:.\Generated_Source\PSoC4/cyfitter_cfg.c **** 			CYMEMZERO(ms->address, (size_t)(uint32)(ms->size));
 211              		.loc 1 578 0 discriminator 3
 212 0060 3448     		ldr	r0, .L13
 213 0062 6300     		lsl	r3, r4, #1
 214 0064 1A19     		add	r2, r3, r4
ARM GAS  C:\Users\Jarik\AppData\Local\Temp\ccLvX4ah.s 			page 15


 215 0066 5200     		lsl	r2, r2, #1
 216 0068 8218     		add	r2, r0, r2
 217 006a 9188     		ldrh	r1, [r2, #4]
 218 006c 1B19     		add	r3, r3, r4
 219 006e 5B00     		lsl	r3, r3, #1
 220 0070 1A5A     		ldrh	r2, [r3, r0]
 221 0072 C318     		add	r3, r0, r3
 222 0074 5888     		ldrh	r0, [r3, #2]
 223 0076 0004     		lsl	r0, r0, #16
 224 0078 1043     		orr	r0, r2
 225 007a FFF7FEFF 		bl	CYMEMZERO
 226              	.LVL18:
 227              	.LBE4:
 575:.\Generated_Source\PSoC4/cyfitter_cfg.c **** 		{
 228              		.loc 1 575 0 discriminator 3
 229 007e 0134     		add	r4, r4, #1
 230              	.LVL19:
 231 0080 E4B2     		uxtb	r4, r4
 232              	.LVL20:
 233              	.L11:
 575:.\Generated_Source\PSoC4/cyfitter_cfg.c **** 		{
 234              		.loc 1 575 0 is_stmt 0 discriminator 1
 235 0082 012C     		cmp	r4, #1
 236 0084 ECD9     		bls	.L12
 579:.\Generated_Source\PSoC4/cyfitter_cfg.c **** 		}
 580:.\Generated_Source\PSoC4/cyfitter_cfg.c **** 
 581:.\Generated_Source\PSoC4/cyfitter_cfg.c **** 		cfg_write_bytes32(cy_cfg_addr_table, cy_cfg_data_table);
 237              		.loc 1 581 0 is_stmt 1
 238 0086 2B49     		ldr	r1, .L13
 239 0088 081C     		mov	r0, r1
 240 008a 0C30     		add	r0, r0, #12
 241 008c 3031     		add	r1, r1, #48
 242 008e FFF7FEFF 		bl	cfg_write_bytes32
 243              	.LVL21:
 582:.\Generated_Source\PSoC4/cyfitter_cfg.c **** 
 583:.\Generated_Source\PSoC4/cyfitter_cfg.c **** 		/* HSIOM Starting address: CYDEV_HSIOM_BASE */
 584:.\Generated_Source\PSoC4/cyfitter_cfg.c **** 		CY_SET_XTND_REG32((void CYFAR *)(CYREG_HSIOM_PORT_SEL3), 0x0000EE00u);
 244              		.loc 1 584 0
 245 0092 EE22     		mov	r2, #238
 246 0094 1202     		lsl	r2, r2, #8
 247 0096 284B     		ldr	r3, .L13+4
 248 0098 1A60     		str	r2, [r3]
 585:.\Generated_Source\PSoC4/cyfitter_cfg.c **** 		CY_SET_XTND_REG32((void CYFAR *)(CYREG_HSIOM_PORT_SEL4), 0x0000FFFFu);
 249              		.loc 1 585 0
 250 009a 284A     		ldr	r2, .L13+8
 251 009c 284B     		ldr	r3, .L13+12
 252 009e 1A60     		str	r2, [r3]
 586:.\Generated_Source\PSoC4/cyfitter_cfg.c **** 
 587:.\Generated_Source\PSoC4/cyfitter_cfg.c **** 		/* UDB_PA_0 Starting address: CYDEV_UDB_PA0_BASE */
 588:.\Generated_Source\PSoC4/cyfitter_cfg.c **** 		CY_SET_XTND_REG32((void CYFAR *)(CYDEV_UDB_PA0_BASE), 0x00990004u);
 253              		.loc 1 588 0
 254 00a0 284B     		ldr	r3, .L13+16
 255 00a2 294A     		ldr	r2, .L13+20
 256 00a4 1360     		str	r3, [r2]
 589:.\Generated_Source\PSoC4/cyfitter_cfg.c **** 		CY_SET_XTND_REG32((void CYFAR *)(CYREG_UDB_PA0_CFG4), 0x55550000u);
 257              		.loc 1 589 0
 258 00a6 294A     		ldr	r2, .L13+24
ARM GAS  C:\Users\Jarik\AppData\Local\Temp\ccLvX4ah.s 			page 16


 259 00a8 2949     		ldr	r1, .L13+28
 260 00aa 0A60     		str	r2, [r1]
 590:.\Generated_Source\PSoC4/cyfitter_cfg.c **** 
 591:.\Generated_Source\PSoC4/cyfitter_cfg.c **** 		/* UDB_PA_1 Starting address: CYDEV_UDB_PA1_BASE */
 592:.\Generated_Source\PSoC4/cyfitter_cfg.c **** 		CY_SET_XTND_REG32((void CYFAR *)(CYDEV_UDB_PA1_BASE), 0x00990004u);
 261              		.loc 1 592 0
 262 00ac 2949     		ldr	r1, .L13+32
 263 00ae 0B60     		str	r3, [r1]
 593:.\Generated_Source\PSoC4/cyfitter_cfg.c **** 		CY_SET_XTND_REG32((void CYFAR *)(CYREG_UDB_PA1_CFG4), 0x24050000u);
 264              		.loc 1 593 0
 265 00b0 2948     		ldr	r0, .L13+36
 266 00b2 2A49     		ldr	r1, .L13+40
 267 00b4 0860     		str	r0, [r1]
 594:.\Generated_Source\PSoC4/cyfitter_cfg.c **** 
 595:.\Generated_Source\PSoC4/cyfitter_cfg.c **** 		/* UDB_PA_2 Starting address: CYDEV_UDB_PA2_BASE */
 596:.\Generated_Source\PSoC4/cyfitter_cfg.c **** 		CY_SET_XTND_REG32((void CYFAR *)(CYDEV_UDB_PA2_BASE), 0x00990004u);
 268              		.loc 1 596 0
 269 00b6 2A49     		ldr	r1, .L13+44
 270 00b8 0B60     		str	r3, [r1]
 597:.\Generated_Source\PSoC4/cyfitter_cfg.c **** 		CY_SET_XTND_REG32((void CYFAR *)(CYREG_UDB_PA2_CFG4), 0x55550000u);
 271              		.loc 1 597 0
 272 00ba 2A49     		ldr	r1, .L13+48
 273 00bc 0A60     		str	r2, [r1]
 598:.\Generated_Source\PSoC4/cyfitter_cfg.c **** 
 599:.\Generated_Source\PSoC4/cyfitter_cfg.c **** 		/* UDB_PA_3 Starting address: CYDEV_UDB_PA3_BASE */
 600:.\Generated_Source\PSoC4/cyfitter_cfg.c **** 		CY_SET_XTND_REG32((void CYFAR *)(CYDEV_UDB_PA3_BASE), 0x00990004u);
 274              		.loc 1 600 0
 275 00be 2A4A     		ldr	r2, .L13+52
 276 00c0 1360     		str	r3, [r2]
 601:.\Generated_Source\PSoC4/cyfitter_cfg.c **** 		CY_SET_XTND_REG32((void CYFAR *)(CYREG_UDB_PA3_CFG4), 0x51050000u);
 277              		.loc 1 601 0
 278 00c2 2A4A     		ldr	r2, .L13+56
 279 00c4 2A4B     		ldr	r3, .L13+60
 280 00c6 1A60     		str	r2, [r3]
 602:.\Generated_Source\PSoC4/cyfitter_cfg.c **** 
 603:.\Generated_Source\PSoC4/cyfitter_cfg.c **** 		/* Enable digital routing */
 604:.\Generated_Source\PSoC4/cyfitter_cfg.c **** 		CY_SET_XTND_REG8((void *)CYREG_UDB_UDBIF_BANK_CTL, CY_GET_XTND_REG8((void *)CYREG_UDB_UDBIF_BANK_
 281              		.loc 1 604 0
 282 00c8 2A4B     		ldr	r3, .L13+64
 283 00ca 1978     		ldrb	r1, [r3]
 284 00cc 0222     		mov	r2, #2
 285 00ce 0A43     		orr	r2, r1
 286 00d0 1A70     		strb	r2, [r3]
 605:.\Generated_Source\PSoC4/cyfitter_cfg.c **** 
 606:.\Generated_Source\PSoC4/cyfitter_cfg.c **** 		/* Enable UDB array */
 607:.\Generated_Source\PSoC4/cyfitter_cfg.c **** 		CY_SET_XTND_REG8((void *)CYREG_UDB_UDBIF_WAIT_CFG, (uint8)((CY_GET_XTND_REG8((void *)CYREG_UDB_UD
 287              		.loc 1 607 0
 288 00d2 2948     		ldr	r0, .L13+68
 289 00d4 0278     		ldrb	r2, [r0]
 290 00d6 3C21     		mov	r1, #60
 291 00d8 8A43     		bic	r2, r1
 292 00da 2839     		sub	r1, r1, #40
 293 00dc 0A43     		orr	r2, r1
 294 00de 0270     		strb	r2, [r0]
 608:.\Generated_Source\PSoC4/cyfitter_cfg.c **** 		CY_SET_XTND_REG8((void *)CYREG_UDB_UDBIF_BANK_CTL, (uint8)(CY_GET_XTND_REG8((void *)CYREG_UDB_UDB
 295              		.loc 1 608 0
 296 00e0 1978     		ldrb	r1, [r3]
ARM GAS  C:\Users\Jarik\AppData\Local\Temp\ccLvX4ah.s 			page 17


 297 00e2 1622     		mov	r2, #22
 298 00e4 0A43     		orr	r2, r1
 299 00e6 1A70     		strb	r2, [r3]
 300              	.LBE3:
 609:.\Generated_Source\PSoC4/cyfitter_cfg.c **** 	}
 610:.\Generated_Source\PSoC4/cyfitter_cfg.c **** 
 611:.\Generated_Source\PSoC4/cyfitter_cfg.c **** 	/* Perform second pass device configuration. These items must be configured in specific order afte
 612:.\Generated_Source\PSoC4/cyfitter_cfg.c **** 	/* IOPINS0_0 Starting address: CYDEV_PRT0_BASE */
 613:.\Generated_Source\PSoC4/cyfitter_cfg.c **** 	CY_SET_XTND_REG32((void CYFAR *)(CYDEV_PRT0_BASE), 0x000000FFu);
 301              		.loc 1 613 0
 302 00e8 FF22     		mov	r2, #255
 303 00ea 244B     		ldr	r3, .L13+72
 304 00ec 1A60     		str	r2, [r3]
 614:.\Generated_Source\PSoC4/cyfitter_cfg.c **** 	CY_SET_XTND_REG32((void CYFAR *)(CYREG_PRT0_PC), 0x00249249u);
 305              		.loc 1 614 0
 306 00ee 244B     		ldr	r3, .L13+76
 307 00f0 2449     		ldr	r1, .L13+80
 308 00f2 0B60     		str	r3, [r1]
 615:.\Generated_Source\PSoC4/cyfitter_cfg.c **** 
 616:.\Generated_Source\PSoC4/cyfitter_cfg.c **** 	/* IOPINS0_1 Starting address: CYDEV_PRT1_BASE */
 617:.\Generated_Source\PSoC4/cyfitter_cfg.c **** 	CY_SET_XTND_REG32((void CYFAR *)(CYDEV_PRT1_BASE), 0x00000044u);
 309              		.loc 1 617 0
 310 00f4 4420     		mov	r0, #68
 311 00f6 2449     		ldr	r1, .L13+84
 312 00f8 0860     		str	r0, [r1]
 618:.\Generated_Source\PSoC4/cyfitter_cfg.c **** 	CY_SET_XTND_REG32((void CYFAR *)(CYREG_PRT1_PC), 0x0008ED89u);
 313              		.loc 1 618 0
 314 00fa 2448     		ldr	r0, .L13+88
 315 00fc 2449     		ldr	r1, .L13+92
 316 00fe 0860     		str	r0, [r1]
 619:.\Generated_Source\PSoC4/cyfitter_cfg.c **** 	CY_SET_XTND_REG32((void CYFAR *)(CYREG_PRT1_INTCFG), 0x00001000u);
 317              		.loc 1 619 0
 318 0100 8020     		mov	r0, #128
 319 0102 4001     		lsl	r0, r0, #5
 320 0104 2349     		ldr	r1, .L13+96
 321 0106 0860     		str	r0, [r1]
 620:.\Generated_Source\PSoC4/cyfitter_cfg.c **** 
 621:.\Generated_Source\PSoC4/cyfitter_cfg.c **** 	/* IOPINS0_2 Starting address: CYDEV_PRT2_BASE */
 622:.\Generated_Source\PSoC4/cyfitter_cfg.c **** 	CY_SET_XTND_REG32((void CYFAR *)(CYDEV_PRT2_BASE), 0x000000FFu);
 322              		.loc 1 622 0
 323 0108 2349     		ldr	r1, .L13+100
 324 010a 0A60     		str	r2, [r1]
 623:.\Generated_Source\PSoC4/cyfitter_cfg.c **** 	CY_SET_XTND_REG32((void CYFAR *)(CYREG_PRT2_PC), 0x00249249u);
 325              		.loc 1 623 0
 326 010c 234A     		ldr	r2, .L13+104
 327 010e 1360     		str	r3, [r2]
 624:.\Generated_Source\PSoC4/cyfitter_cfg.c **** 
 625:.\Generated_Source\PSoC4/cyfitter_cfg.c **** 	/* IOPINS0_3 Starting address: CYDEV_PRT3_BASE */
 626:.\Generated_Source\PSoC4/cyfitter_cfg.c **** 	CY_SET_XTND_REG32((void CYFAR *)(CYDEV_PRT3_BASE), 0x00000020u);
 328              		.loc 1 626 0
 329 0110 2022     		mov	r2, #32
 330 0112 234B     		ldr	r3, .L13+108
 331 0114 1A60     		str	r2, [r3]
 627:.\Generated_Source\PSoC4/cyfitter_cfg.c **** 	CY_SET_XTND_REG32((void CYFAR *)(CYREG_PRT3_PC), 0x00261D89u);
 332              		.loc 1 627 0
 333 0116 234A     		ldr	r2, .L13+112
 334 0118 234B     		ldr	r3, .L13+116
ARM GAS  C:\Users\Jarik\AppData\Local\Temp\ccLvX4ah.s 			page 18


 335 011a 1A60     		str	r2, [r3]
 628:.\Generated_Source\PSoC4/cyfitter_cfg.c **** 
 629:.\Generated_Source\PSoC4/cyfitter_cfg.c **** 	/* IOPINS0_4 Starting address: CYDEV_PRT4_BASE */
 630:.\Generated_Source\PSoC4/cyfitter_cfg.c **** 	CY_SET_XTND_REG32((void CYFAR *)(CYDEV_PRT4_BASE), 0x0000000Du);
 336              		.loc 1 630 0
 337 011c 0D23     		mov	r3, #13
 338 011e 234A     		ldr	r2, .L13+120
 339 0120 1360     		str	r3, [r2]
 631:.\Generated_Source\PSoC4/cyfitter_cfg.c **** 	CY_SET_XTND_REG32((void CYFAR *)(CYREG_PRT4_PC), 0x00000D8Eu);
 340              		.loc 1 631 0
 341 0122 2349     		ldr	r1, .L13+124
 342 0124 234A     		ldr	r2, .L13+128
 343 0126 1160     		str	r1, [r2]
 632:.\Generated_Source\PSoC4/cyfitter_cfg.c **** 	CY_SET_XTND_REG32((void CYFAR *)(CYREG_PRT4_PC2), 0x0000000Du);
 344              		.loc 1 632 0
 345 0128 234A     		ldr	r2, .L13+132
 346 012a 1360     		str	r3, [r2]
 633:.\Generated_Source\PSoC4/cyfitter_cfg.c **** 
 634:.\Generated_Source\PSoC4/cyfitter_cfg.c **** 	/* Setup clocks based on selections from Clock DWR */
 635:.\Generated_Source\PSoC4/cyfitter_cfg.c **** 	ClockSetup();
 347              		.loc 1 635 0
 348 012c FFF768FF 		bl	ClockSetup
 349              	.LVL22:
 636:.\Generated_Source\PSoC4/cyfitter_cfg.c **** 
 637:.\Generated_Source\PSoC4/cyfitter_cfg.c **** 	/* Perform basic analog initialization to defaults */
 638:.\Generated_Source\PSoC4/cyfitter_cfg.c **** 	AnalogSetDefault();
 639:.\Generated_Source\PSoC4/cyfitter_cfg.c **** 
 640:.\Generated_Source\PSoC4/cyfitter_cfg.c **** }
 350              		.loc 1 640 0
 351              		@ sp needed
 352              	.LVL23:
 353 0130 10BD     		pop	{r4, pc}
 354              	.L14:
 355 0132 C046     		.align	2
 356              	.L13:
 357 0134 00000000 		.word	.LANCHOR0
 358 0138 0C000140 		.word	1073807372
 359 013c FFFF0000 		.word	65535
 360 0140 10000140 		.word	1073807376
 361 0144 04009900 		.word	10027012
 362 0148 00500F40 		.word	1074745344
 363 014c 00005555 		.word	1431633920
 364 0150 04500F40 		.word	1074745348
 365 0154 10500F40 		.word	1074745360
 366 0158 00000524 		.word	604307456
 367 015c 14500F40 		.word	1074745364
 368 0160 20500F40 		.word	1074745376
 369 0164 24500F40 		.word	1074745380
 370 0168 30500F40 		.word	1074745392
 371 016c 00000551 		.word	1359282176
 372 0170 34500F40 		.word	1074745396
 373 0174 00700F40 		.word	1074753536
 374 0178 01700F40 		.word	1074753537
 375 017c 00000440 		.word	1074003968
 376 0180 49922400 		.word	2396745
 377 0184 08000440 		.word	1074003976
 378 0188 00010440 		.word	1074004224
ARM GAS  C:\Users\Jarik\AppData\Local\Temp\ccLvX4ah.s 			page 19


 379 018c 89ED0800 		.word	585097
 380 0190 08010440 		.word	1074004232
 381 0194 0C010440 		.word	1074004236
 382 0198 00020440 		.word	1074004480
 383 019c 08020440 		.word	1074004488
 384 01a0 00030440 		.word	1074004736
 385 01a4 891D2600 		.word	2497929
 386 01a8 08030440 		.word	1074004744
 387 01ac 00040440 		.word	1074004992
 388 01b0 8E0D0000 		.word	3470
 389 01b4 08040440 		.word	1074005000
 390 01b8 18040440 		.word	1074005016
 391              		.cfi_endproc
 392              	.LFE6:
 393              		.size	cyfitter_cfg, .-cyfitter_cfg
 394              		.section	.rodata
 395              		.align	2
 396              		.set	.LANCHOR0,. + 0
 397              		.type	cfg_memset_list.4711, %object
 398              		.size	cfg_memset_list.4711, 12
 399              	cfg_memset_list.4711:
 400 0000 00300F40 		.word	1074737152
 401 0004 0004     		.short	1024
 402 0006 00400F40 		.4byte	1074741248
 403 000a 0004     		.short	1024
 404              		.type	cy_cfg_addr_table.4705, %object
 405              		.size	cy_cfg_addr_table.4705, 36
 406              	cy_cfg_addr_table.4705:
 407 000c 38300F40 		.word	1074737208
 408 0010 3E310F40 		.word	1074737470
 409 0014 22320F40 		.word	1074737698
 410 0018 47330F40 		.word	1074737991
 411 001c 0C400F40 		.word	1074741260
 412 0020 0E410F40 		.word	1074741518
 413 0024 0F420F40 		.word	1074741775
 414 0028 12430F40 		.word	1074742034
 415 002c 02600F40 		.word	1074749442
 416              		.type	cy_cfg_data_table.4706, %object
 417              		.size	cy_cfg_data_table.4706, 568
 418              	cy_cfg_data_table.4706:
 419 0030 02       		.byte	2
 420 0031 01       		.byte	1
 421 0032 03       		.byte	3
 422 0033 0F       		.byte	15
 423 0034 05       		.byte	5
 424 0035 02       		.byte	2
 425 0036 06       		.byte	6
 426 0037 01       		.byte	1
 427 0038 07       		.byte	7
 428 0039 01       		.byte	1
 429 003a 08       		.byte	8
 430 003b 01       		.byte	1
 431 003c 09       		.byte	9
 432 003d 0F       		.byte	15
 433 003e 0D       		.byte	13
 434 003f 04       		.byte	4
 435 0040 0E       		.byte	14
ARM GAS  C:\Users\Jarik\AppData\Local\Temp\ccLvX4ah.s 			page 20


 436 0041 01       		.byte	1
 437 0042 0F       		.byte	15
 438 0043 01       		.byte	1
 439 0044 11       		.byte	17
 440 0045 0F       		.byte	15
 441 0046 12       		.byte	18
 442 0047 01       		.byte	1
 443 0048 14       		.byte	20
 444 0049 01       		.byte	1
 445 004a 15       		.byte	21
 446 004b 08       		.byte	8
 447 004c 17       		.byte	23
 448 004d 01       		.byte	1
 449 004e 19       		.byte	25
 450 004f 0F       		.byte	15
 451 0050 1A       		.byte	26
 452 0051 01       		.byte	1
 453 0052 1C       		.byte	28
 454 0053 01       		.byte	1
 455 0054 1D       		.byte	29
 456 0055 0F       		.byte	15
 457 0056 22       		.byte	34
 458 0057 01       		.byte	1
 459 0058 23       		.byte	35
 460 0059 0F       		.byte	15
 461 005a 26       		.byte	38
 462 005b 01       		.byte	1
 463 005c 27       		.byte	39
 464 005d 0F       		.byte	15
 465 005e 28       		.byte	40
 466 005f 01       		.byte	1
 467 0060 2B       		.byte	43
 468 0061 0F       		.byte	15
 469 0062 2C       		.byte	44
 470 0063 01       		.byte	1
 471 0064 2D       		.byte	45
 472 0065 0F       		.byte	15
 473 0066 32       		.byte	50
 474 0067 01       		.byte	1
 475 0068 35       		.byte	53
 476 0069 01       		.byte	1
 477 006a 37       		.byte	55
 478 006b 0E       		.byte	14
 479 006c 38       		.byte	56
 480 006d 08       		.byte	8
 481 006e 39       		.byte	57
 482 006f A0       		.byte	-96
 483 0070 3E       		.byte	62
 484 0071 04       		.byte	4
 485 0072 3F       		.byte	63
 486 0073 50       		.byte	80
 487 0074 58       		.byte	88
 488 0075 04       		.byte	4
 489 0076 59       		.byte	89
 490 0077 04       		.byte	4
 491 0078 5F       		.byte	95
 492 0079 01       		.byte	1
ARM GAS  C:\Users\Jarik\AppData\Local\Temp\ccLvX4ah.s 			page 21


 493 007a 8D       		.byte	-115
 494 007b 04       		.byte	4
 495 007c 98       		.byte	-104
 496 007d 01       		.byte	1
 497 007e 99       		.byte	-103
 498 007f 02       		.byte	2
 499 0080 A8       		.byte	-88
 500 0081 02       		.byte	2
 501 0082 A9       		.byte	-87
 502 0083 01       		.byte	1
 503 0084 AC       		.byte	-84
 504 0085 04       		.byte	4
 505 0086 AD       		.byte	-83
 506 0087 08       		.byte	8
 507 0088 B0       		.byte	-80
 508 0089 02       		.byte	2
 509 008a B1       		.byte	-79
 510 008b 02       		.byte	2
 511 008c B2       		.byte	-78
 512 008d 04       		.byte	4
 513 008e B3       		.byte	-77
 514 008f 08       		.byte	8
 515 0090 B4       		.byte	-76
 516 0091 01       		.byte	1
 517 0092 B5       		.byte	-75
 518 0093 04       		.byte	4
 519 0094 B7       		.byte	-73
 520 0095 01       		.byte	1
 521 0096 D8       		.byte	-40
 522 0097 0B       		.byte	11
 523 0098 D9       		.byte	-39
 524 0099 0B       		.byte	11
 525 009a DB       		.byte	-37
 526 009b 04       		.byte	4
 527 009c DC       		.byte	-36
 528 009d 99       		.byte	-103
 529 009e DF       		.byte	-33
 530 009f 01       		.byte	1
 531 00a0 02       		.byte	2
 532 00a1 85       		.byte	-123
 533 00a2 03       		.byte	3
 534 00a3 20       		.byte	32
 535 00a4 08       		.byte	8
 536 00a5 10       		.byte	16
 537 00a6 09       		.byte	9
 538 00a7 02       		.byte	2
 539 00a8 0A       		.byte	10
 540 00a9 12       		.byte	18
 541 00aa 0E       		.byte	14
 542 00ab 04       		.byte	4
 543 00ac 10       		.byte	16
 544 00ad 44       		.byte	68
 545 00ae 12       		.byte	18
 546 00af 0A       		.byte	10
 547 00b0 13       		.byte	19
 548 00b1 04       		.byte	4
 549 00b2 15       		.byte	21
ARM GAS  C:\Users\Jarik\AppData\Local\Temp\ccLvX4ah.s 			page 22


 550 00b3 10       		.byte	16
 551 00b4 17       		.byte	23
 552 00b5 80       		.byte	-128
 553 00b6 19       		.byte	25
 554 00b7 04       		.byte	4
 555 00b8 1E       		.byte	30
 556 00b9 A0       		.byte	-96
 557 00ba 1F       		.byte	31
 558 00bb 20       		.byte	32
 559 00bc 22       		.byte	34
 560 00bd 50       		.byte	80
 561 00be 24       		.byte	36
 562 00bf 98       		.byte	-104
 563 00c0 25       		.byte	37
 564 00c1 02       		.byte	2
 565 00c2 26       		.byte	38
 566 00c3 89       		.byte	-119
 567 00c4 28       		.byte	40
 568 00c5 40       		.byte	64
 569 00c6 29       		.byte	41
 570 00c7 11       		.byte	17
 571 00c8 2B       		.byte	43
 572 00c9 21       		.byte	33
 573 00ca 2D       		.byte	45
 574 00cb 80       		.byte	-128
 575 00cc 2F       		.byte	47
 576 00cd 04       		.byte	4
 577 00ce 30       		.byte	48
 578 00cf A0       		.byte	-96
 579 00d0 31       		.byte	49
 580 00d1 20       		.byte	32
 581 00d2 32       		.byte	50
 582 00d3 05       		.byte	5
 583 00d4 33       		.byte	51
 584 00d5 02       		.byte	2
 585 00d6 37       		.byte	55
 586 00d7 20       		.byte	32
 587 00d8 38       		.byte	56
 588 00d9 98       		.byte	-104
 589 00da 3A       		.byte	58
 590 00db 01       		.byte	1
 591 00dc 3B       		.byte	59
 592 00dd 04       		.byte	4
 593 00de 3D       		.byte	61
 594 00df 40       		.byte	64
 595 00e0 45       		.byte	69
 596 00e1 20       		.byte	32
 597 00e2 46       		.byte	70
 598 00e3 04       		.byte	4
 599 00e4 58       		.byte	88
 600 00e5 10       		.byte	16
 601 00e6 59       		.byte	89
 602 00e7 10       		.byte	16
 603 00e8 5A       		.byte	90
 604 00e9 08       		.byte	8
 605 00ea 5B       		.byte	91
 606 00eb 08       		.byte	8
ARM GAS  C:\Users\Jarik\AppData\Local\Temp\ccLvX4ah.s 			page 23


 607 00ec 5E       		.byte	94
 608 00ed A2       		.byte	-94
 609 00ee 5F       		.byte	95
 610 00ef 08       		.byte	8
 611 00f0 64       		.byte	100
 612 00f1 05       		.byte	5
 613 00f2 65       		.byte	101
 614 00f3 02       		.byte	2
 615 00f4 67       		.byte	103
 616 00f5 10       		.byte	16
 617 00f6 7A       		.byte	122
 618 00f7 02       		.byte	2
 619 00f8 7B       		.byte	123
 620 00f9 01       		.byte	1
 621 00fa 7F       		.byte	127
 622 00fb 80       		.byte	-128
 623 00fc 81       		.byte	-127
 624 00fd 02       		.byte	2
 625 00fe 83       		.byte	-125
 626 00ff A0       		.byte	-96
 627 0100 84       		.byte	-124
 628 0101 01       		.byte	1
 629 0102 85       		.byte	-123
 630 0103 10       		.byte	16
 631 0104 87       		.byte	-121
 632 0105 16       		.byte	22
 633 0106 88       		.byte	-120
 634 0107 05       		.byte	5
 635 0108 8C       		.byte	-116
 636 0109 88       		.byte	-120
 637 010a C0       		.byte	-64
 638 010b 0F       		.byte	15
 639 010c C2       		.byte	-62
 640 010d 4F       		.byte	79
 641 010e C4       		.byte	-60
 642 010f CF       		.byte	-49
 643 0110 CA       		.byte	-54
 644 0111 3F       		.byte	63
 645 0112 CC       		.byte	-52
 646 0113 2F       		.byte	47
 647 0114 CE       		.byte	-50
 648 0115 1F       		.byte	31
 649 0116 D6       		.byte	-42
 650 0117 F0       		.byte	-16
 651 0118 D8       		.byte	-40
 652 0119 F0       		.byte	-16
 653 011a DE       		.byte	-34
 654 011b 80       		.byte	-128
 655 011c 01       		.byte	1
 656 011d 08       		.byte	8
 657 011e 02       		.byte	2
 658 011f 01       		.byte	1
 659 0120 05       		.byte	5
 660 0121 04       		.byte	4
 661 0122 0A       		.byte	10
 662 0123 01       		.byte	1
 663 0124 0C       		.byte	12
ARM GAS  C:\Users\Jarik\AppData\Local\Temp\ccLvX4ah.s 			page 24


 664 0125 08       		.byte	8
 665 0126 14       		.byte	20
 666 0127 02       		.byte	2
 667 0128 19       		.byte	25
 668 0129 02       		.byte	2
 669 012a 1D       		.byte	29
 670 012b 01       		.byte	1
 671 012c 20       		.byte	32
 672 012d 04       		.byte	4
 673 012e 26       		.byte	38
 674 012f 01       		.byte	1
 675 0130 28       		.byte	40
 676 0131 01       		.byte	1
 677 0132 2C       		.byte	44
 678 0133 01       		.byte	1
 679 0134 30       		.byte	48
 680 0135 02       		.byte	2
 681 0136 31       		.byte	49
 682 0137 01       		.byte	1
 683 0138 32       		.byte	50
 684 0139 04       		.byte	4
 685 013a 33       		.byte	51
 686 013b 04       		.byte	4
 687 013c 34       		.byte	52
 688 013d 08       		.byte	8
 689 013e 35       		.byte	53
 690 013f 08       		.byte	8
 691 0140 36       		.byte	54
 692 0141 01       		.byte	1
 693 0142 37       		.byte	55
 694 0143 02       		.byte	2
 695 0144 3E       		.byte	62
 696 0145 40       		.byte	64
 697 0146 58       		.byte	88
 698 0147 0B       		.byte	11
 699 0148 59       		.byte	89
 700 0149 0B       		.byte	11
 701 014a 5B       		.byte	91
 702 014b 04       		.byte	4
 703 014c 5C       		.byte	92
 704 014d 99       		.byte	-103
 705 014e 5F       		.byte	95
 706 014f 01       		.byte	1
 707 0150 A0       		.byte	-96
 708 0151 01       		.byte	1
 709 0152 A4       		.byte	-92
 710 0153 02       		.byte	2
 711 0154 B0       		.byte	-80
 712 0155 01       		.byte	1
 713 0156 B4       		.byte	-76
 714 0157 02       		.byte	2
 715 0158 D8       		.byte	-40
 716 0159 0B       		.byte	11
 717 015a DB       		.byte	-37
 718 015b 04       		.byte	4
 719 015c DC       		.byte	-36
 720 015d 09       		.byte	9
ARM GAS  C:\Users\Jarik\AppData\Local\Temp\ccLvX4ah.s 			page 25


 721 015e DF       		.byte	-33
 722 015f 01       		.byte	1
 723 0160 04       		.byte	4
 724 0161 40       		.byte	64
 725 0162 05       		.byte	5
 726 0163 11       		.byte	17
 727 0164 06       		.byte	6
 728 0165 40       		.byte	64
 729 0166 0C       		.byte	12
 730 0167 08       		.byte	8
 731 0168 11       		.byte	17
 732 0169 02       		.byte	2
 733 016a 12       		.byte	18
 734 016b 10       		.byte	16
 735 016c 15       		.byte	21
 736 016d 11       		.byte	17
 737 016e 17       		.byte	23
 738 016f 88       		.byte	-120
 739 0170 19       		.byte	25
 740 0171 20       		.byte	32
 741 0172 1B       		.byte	27
 742 0173 02       		.byte	2
 743 0174 1E       		.byte	30
 744 0175 64       		.byte	100
 745 0176 1F       		.byte	31
 746 0177 80       		.byte	-128
 747 0178 25       		.byte	37
 748 0179 28       		.byte	40
 749 017a 26       		.byte	38
 750 017b 01       		.byte	1
 751 017c 27       		.byte	39
 752 017d 02       		.byte	2
 753 017e 34       		.byte	52
 754 017f 80       		.byte	-128
 755 0180 37       		.byte	55
 756 0181 10       		.byte	16
 757 0182 3C       		.byte	60
 758 0183 0A       		.byte	10
 759 0184 45       		.byte	69
 760 0185 28       		.byte	40
 761 0186 46       		.byte	70
 762 0187 28       		.byte	40
 763 0188 58       		.byte	88
 764 0189 01       		.byte	1
 765 018a 59       		.byte	89
 766 018b 04       		.byte	4
 767 018c 5A       		.byte	90
 768 018d A0       		.byte	-96
 769 018e 5B       		.byte	91
 770 018f 02       		.byte	2
 771 0190 5D       		.byte	93
 772 0191 20       		.byte	32
 773 0192 5E       		.byte	94
 774 0193 46       		.byte	70
 775 0194 64       		.byte	100
 776 0195 01       		.byte	1
 777 0196 66       		.byte	102
ARM GAS  C:\Users\Jarik\AppData\Local\Temp\ccLvX4ah.s 			page 26


 778 0197 2A       		.byte	42
 779 0198 7B       		.byte	123
 780 0199 80       		.byte	-128
 781 019a 7F       		.byte	127
 782 019b 80       		.byte	-128
 783 019c 82       		.byte	-126
 784 019d 01       		.byte	1
 785 019e 83       		.byte	-125
 786 019f 08       		.byte	8
 787 01a0 86       		.byte	-122
 788 01a1 12       		.byte	18
 789 01a2 88       		.byte	-120
 790 01a3 20       		.byte	32
 791 01a4 89       		.byte	-119
 792 01a5 10       		.byte	16
 793 01a6 8A       		.byte	-118
 794 01a7 40       		.byte	64
 795 01a8 8B       		.byte	-117
 796 01a9 81       		.byte	-127
 797 01aa 8C       		.byte	-116
 798 01ab 80       		.byte	-128
 799 01ac 8D       		.byte	-115
 800 01ad 10       		.byte	16
 801 01ae 90       		.byte	-112
 802 01af 40       		.byte	64
 803 01b0 91       		.byte	-111
 804 01b1 01       		.byte	1
 805 01b2 92       		.byte	-110
 806 01b3 A0       		.byte	-96
 807 01b4 98       		.byte	-104
 808 01b5 80       		.byte	-128
 809 01b6 99       		.byte	-103
 810 01b7 04       		.byte	4
 811 01b8 9A       		.byte	-102
 812 01b9 10       		.byte	16
 813 01ba 9B       		.byte	-101
 814 01bb 10       		.byte	16
 815 01bc 9D       		.byte	-99
 816 01bd 11       		.byte	17
 817 01be 9E       		.byte	-98
 818 01bf 01       		.byte	1
 819 01c0 A0       		.byte	-96
 820 01c1 0D       		.byte	13
 821 01c2 A1       		.byte	-95
 822 01c3 01       		.byte	1
 823 01c4 A4       		.byte	-92
 824 01c5 A0       		.byte	-96
 825 01c6 A7       		.byte	-89
 826 01c7 83       		.byte	-125
 827 01c8 A9       		.byte	-87
 828 01c9 41       		.byte	65
 829 01ca AB       		.byte	-85
 830 01cb 20       		.byte	32
 831 01cc AD       		.byte	-83
 832 01cd 80       		.byte	-128
 833 01ce AE       		.byte	-82
 834 01cf 04       		.byte	4
ARM GAS  C:\Users\Jarik\AppData\Local\Temp\ccLvX4ah.s 			page 27


 835 01d0 AF       		.byte	-81
 836 01d1 04       		.byte	4
 837 01d2 B1       		.byte	-79
 838 01d3 01       		.byte	1
 839 01d4 B2       		.byte	-78
 840 01d5 94       		.byte	-108
 841 01d6 B4       		.byte	-76
 842 01d7 40       		.byte	64
 843 01d8 B6       		.byte	-74
 844 01d9 10       		.byte	16
 845 01da B7       		.byte	-73
 846 01db 10       		.byte	16
 847 01dc C0       		.byte	-64
 848 01dd D0       		.byte	-48
 849 01de C2       		.byte	-62
 850 01df 20       		.byte	32
 851 01e0 C4       		.byte	-60
 852 01e1 FC       		.byte	-4
 853 01e2 CC       		.byte	-52
 854 01e3 30       		.byte	48
 855 01e4 CE       		.byte	-50
 856 01e5 C0       		.byte	-64
 857 01e6 D6       		.byte	-42
 858 01e7 FE       		.byte	-2
 859 01e8 D8       		.byte	-40
 860 01e9 F0       		.byte	-16
 861 01ea DE       		.byte	-34
 862 01eb 81       		.byte	-127
 863 01ec EC       		.byte	-20
 864 01ed 10       		.byte	16
 865 01ee 01       		.byte	1
 866 01ef 10       		.byte	16
 867 01f0 03       		.byte	3
 868 01f1 80       		.byte	-128
 869 01f2 07       		.byte	7
 870 01f3 24       		.byte	36
 871 01f4 08       		.byte	8
 872 01f5 08       		.byte	8
 873 01f6 09       		.byte	9
 874 01f7 80       		.byte	-128
 875 01f8 0F       		.byte	15
 876 01f9 14       		.byte	20
 877 01fa 83       		.byte	-125
 878 01fb 20       		.byte	32
 879 01fc 87       		.byte	-121
 880 01fd 80       		.byte	-128
 881 01fe C0       		.byte	-64
 882 01ff F0       		.byte	-16
 883 0200 C2       		.byte	-62
 884 0201 F0       		.byte	-16
 885 0202 E0       		.byte	-32
 886 0203 80       		.byte	-128
 887 0204 E4       		.byte	-28
 888 0205 10       		.byte	16
 889 0206 03       		.byte	3
 890 0207 10       		.byte	16
 891 0208 06       		.byte	6
ARM GAS  C:\Users\Jarik\AppData\Local\Temp\ccLvX4ah.s 			page 28


 892 0209 80       		.byte	-128
 893 020a 83       		.byte	-125
 894 020b 10       		.byte	16
 895 020c 9E       		.byte	-98
 896 020d 80       		.byte	-128
 897 020e A8       		.byte	-88
 898 020f 08       		.byte	8
 899 0210 A9       		.byte	-87
 900 0211 80       		.byte	-128
 901 0212 AB       		.byte	-85
 902 0213 04       		.byte	4
 903 0214 AD       		.byte	-83
 904 0215 10       		.byte	16
 905 0216 AF       		.byte	-81
 906 0217 14       		.byte	20
 907 0218 B6       		.byte	-74
 908 0219 80       		.byte	-128
 909 021a C0       		.byte	-64
 910 021b 30       		.byte	48
 911 021c E0       		.byte	-32
 912 021d 20       		.byte	32
 913 021e E8       		.byte	-24
 914 021f D0       		.byte	-48
 915 0220 EC       		.byte	-20
 916 0221 B0       		.byte	-80
 917 0222 00       		.byte	0
 918 0223 01       		.byte	1
 919 0224 01       		.byte	1
 920 0225 40       		.byte	64
 921 0226 04       		.byte	4
 922 0227 10       		.byte	16
 923 0228 06       		.byte	6
 924 0229 80       		.byte	-128
 925 022a 08       		.byte	8
 926 022b 40       		.byte	64
 927 022c 09       		.byte	9
 928 022d 04       		.byte	4
 929 022e 0E       		.byte	14
 930 022f 01       		.byte	1
 931 0230 0F       		.byte	15
 932 0231 40       		.byte	64
 933 0232 88       		.byte	-120
 934 0233 40       		.byte	64
 935 0234 8B       		.byte	-117
 936 0235 40       		.byte	64
 937 0236 8C       		.byte	-116
 938 0237 11       		.byte	17
 939 0238 C0       		.byte	-64
 940 0239 0F       		.byte	15
 941 023a C2       		.byte	-62
 942 023b 0F       		.byte	15
 943 023c E2       		.byte	-30
 944 023d 0D       		.byte	13
 945 023e E6       		.byte	-26
 946 023f 08       		.byte	8
 947 0240 00       		.byte	0
 948 0241 02       		.byte	2
ARM GAS  C:\Users\Jarik\AppData\Local\Temp\ccLvX4ah.s 			page 29


 949 0242 06       		.byte	6
 950 0243 20       		.byte	32
 951 0244 09       		.byte	9
 952 0245 02       		.byte	2
 953 0246 0A       		.byte	10
 954 0247 01       		.byte	1
 955 0248 0F       		.byte	15
 956 0249 08       		.byte	8
 957 024a 88       		.byte	-120
 958 024b 01       		.byte	1
 959 024c 89       		.byte	-119
 960 024d 02       		.byte	2
 961 024e 8A       		.byte	-118
 962 024f 01       		.byte	1
 963 0250 8E       		.byte	-114
 964 0251 20       		.byte	32
 965 0252 8F       		.byte	-113
 966 0253 04       		.byte	4
 967 0254 B2       		.byte	-78
 968 0255 81       		.byte	-127
 969 0256 B5       		.byte	-75
 970 0257 44       		.byte	68
 971 0258 C0       		.byte	-64
 972 0259 0C       		.byte	12
 973 025a C2       		.byte	-62
 974 025b 0B       		.byte	11
 975 025c E2       		.byte	-30
 976 025d 03       		.byte	3
 977 025e E6       		.byte	-26
 978 025f 07       		.byte	7
 979 0260 EA       		.byte	-22
 980 0261 02       		.byte	2
 981 0262 EE       		.byte	-18
 982 0263 07       		.byte	7
 983 0264 02       		.byte	2
 984 0265 01       		.byte	1
 985 0266 11       		.byte	17
 986 0267 01       		.byte	1
 987              		.text
 988              	.Letext0:
 989              		.file 2 "c:\\program files\\cypress\\psoc creator\\3.3\\psoc creator\\import\\gnu\\arm\\4.9.3\\lib
 990              		.file 3 ".\\Generated_Source\\PSoC4\\cytypes.h"
 991              		.file 4 ".\\Generated_Source\\PSoC4\\CyLib.h"