ARM GAS  C:\Users\Jarik\AppData\Local\Temp\ccb2seiw.s 			page 1


   1              		.cpu cortex-m0
   2              		.fpu softvfp
   3              		.eabi_attribute 20, 1
   4              		.eabi_attribute 21, 1
   5              		.eabi_attribute 23, 3
   6              		.eabi_attribute 24, 1
   7              		.eabi_attribute 25, 1
   8              		.eabi_attribute 26, 1
   9              		.eabi_attribute 30, 1
  10              		.eabi_attribute 34, 0
  11              		.eabi_attribute 18, 4
  12              		.code	16
  13              		.file	"CyFlash.c"
  14              		.text
  15              	.Ltext0:
  16              		.cfi_sections	.debug_frame
  17              		.section	.text.CySysFlashClockBackup,"ax",%progbits
  18              		.align	2
  19              		.code	16
  20              		.thumb_func
  21              		.type	CySysFlashClockBackup, %function
  22              	CySysFlashClockBackup:
  23              	.LFB2:
  24              		.file 1 ".\\Generated_Source\\PSoC4\\CyFlash.c"
   1:.\Generated_Source\PSoC4/CyFlash.c **** /*******************************************************************************
   2:.\Generated_Source\PSoC4/CyFlash.c **** * File Name: CyFlash.c
   3:.\Generated_Source\PSoC4/CyFlash.c **** * Version 4.20
   4:.\Generated_Source\PSoC4/CyFlash.c **** *
   5:.\Generated_Source\PSoC4/CyFlash.c **** *  Description:
   6:.\Generated_Source\PSoC4/CyFlash.c **** *   Provides an API for the FLASH.
   7:.\Generated_Source\PSoC4/CyFlash.c **** *
   8:.\Generated_Source\PSoC4/CyFlash.c **** *  Note:
   9:.\Generated_Source\PSoC4/CyFlash.c **** *   This code is endian agnostic.
  10:.\Generated_Source\PSoC4/CyFlash.c **** *
  11:.\Generated_Source\PSoC4/CyFlash.c **** *  Note:
  12:.\Generated_Source\PSoC4/CyFlash.c **** *   Documentation of the API's in this file is located in the
  13:.\Generated_Source\PSoC4/CyFlash.c **** *   System Reference Guide provided with PSoC Creator.
  14:.\Generated_Source\PSoC4/CyFlash.c **** *
  15:.\Generated_Source\PSoC4/CyFlash.c **** ********************************************************************************
  16:.\Generated_Source\PSoC4/CyFlash.c **** * Copyright 2010-2014, Cypress Semiconductor Corporation.  All rights reserved.
  17:.\Generated_Source\PSoC4/CyFlash.c **** * You may use this file only in accordance with the license, terms, conditions,
  18:.\Generated_Source\PSoC4/CyFlash.c **** * disclaimers, and limitations in the end user license agreement accompanying
  19:.\Generated_Source\PSoC4/CyFlash.c **** * the software package with which this file was provided.
  20:.\Generated_Source\PSoC4/CyFlash.c **** *******************************************************************************/
  21:.\Generated_Source\PSoC4/CyFlash.c **** 
  22:.\Generated_Source\PSoC4/CyFlash.c **** #include "CyFlash.h"
  23:.\Generated_Source\PSoC4/CyFlash.c **** 
  24:.\Generated_Source\PSoC4/CyFlash.c **** static CY_SYS_FLASH_CLOCK_BACKUP_STRUCT cySysFlashBackup;
  25:.\Generated_Source\PSoC4/CyFlash.c **** 
  26:.\Generated_Source\PSoC4/CyFlash.c **** static cystatus CySysFlashClockBackup(void);
  27:.\Generated_Source\PSoC4/CyFlash.c **** static cystatus CySysFlashClockRestore(void);
  28:.\Generated_Source\PSoC4/CyFlash.c **** #if(CY_IP_FMLT)
  29:.\Generated_Source\PSoC4/CyFlash.c ****     static cystatus CySysFlashClockConfig(void);
  30:.\Generated_Source\PSoC4/CyFlash.c **** #endif  /* (CY_IP_FMLT) */
  31:.\Generated_Source\PSoC4/CyFlash.c **** 
  32:.\Generated_Source\PSoC4/CyFlash.c **** 
  33:.\Generated_Source\PSoC4/CyFlash.c **** /*******************************************************************************
ARM GAS  C:\Users\Jarik\AppData\Local\Temp\ccb2seiw.s 			page 2


  34:.\Generated_Source\PSoC4/CyFlash.c **** * Function Name: CySysFlashWriteRow
  35:.\Generated_Source\PSoC4/CyFlash.c **** ********************************************************************************
  36:.\Generated_Source\PSoC4/CyFlash.c **** *
  37:.\Generated_Source\PSoC4/CyFlash.c **** * Summary:
  38:.\Generated_Source\PSoC4/CyFlash.c **** *  Erases a row of Flash and programs it with the new data.
  39:.\Generated_Source\PSoC4/CyFlash.c **** *
  40:.\Generated_Source\PSoC4/CyFlash.c **** * Parameters:
  41:.\Generated_Source\PSoC4/CyFlash.c **** *  uint16 rowNum:
  42:.\Generated_Source\PSoC4/CyFlash.c **** *   The flash row number. The number of the flash rows is defined by the
  43:.\Generated_Source\PSoC4/CyFlash.c **** *   CY_FLASH_NUMBER_ROWS macro for the selected device. Refer to the device
  44:.\Generated_Source\PSoC4/CyFlash.c **** *   datasheet for the details.
  45:.\Generated_Source\PSoC4/CyFlash.c **** *
  46:.\Generated_Source\PSoC4/CyFlash.c **** *  uint8* rowData:
  47:.\Generated_Source\PSoC4/CyFlash.c **** *   Array of bytes to write. The size of the array must be equal to the flash
  48:.\Generated_Source\PSoC4/CyFlash.c **** *   row size. The flash row size for the selected device is defined by
  49:.\Generated_Source\PSoC4/CyFlash.c **** *   the CY_FLASH_SIZEOF_ROW macro. Refer to the device datasheet for the
  50:.\Generated_Source\PSoC4/CyFlash.c **** *   details.
  51:.\Generated_Source\PSoC4/CyFlash.c **** *
  52:.\Generated_Source\PSoC4/CyFlash.c **** * Return:
  53:.\Generated_Source\PSoC4/CyFlash.c **** *  Status
  54:.\Generated_Source\PSoC4/CyFlash.c **** *     Value                     Description
  55:.\Generated_Source\PSoC4/CyFlash.c **** *    CY_SYS_FLASH_SUCCESS           Successful
  56:.\Generated_Source\PSoC4/CyFlash.c **** *    CY_SYS_FLASH_INVALID_ADDR      Specified flash row address is invalid
  57:.\Generated_Source\PSoC4/CyFlash.c **** *    CY_SYS_FLASH_PROTECTED         Specified flash row is protected
  58:.\Generated_Source\PSoC4/CyFlash.c **** *    Other non-zero                 Failure
  59:.\Generated_Source\PSoC4/CyFlash.c **** *
  60:.\Generated_Source\PSoC4/CyFlash.c **** * Side Effects:
  61:.\Generated_Source\PSoC4/CyFlash.c **** *   The IMO must be enabled before calling this function. The operation of the
  62:.\Generated_Source\PSoC4/CyFlash.c **** *   flash writing hardware is dependent on the IMO.
  63:.\Generated_Source\PSoC4/CyFlash.c **** *
  64:.\Generated_Source\PSoC4/CyFlash.c **** *   For PSoC 4000 devices this API will automatically modify the clock settings
  65:.\Generated_Source\PSoC4/CyFlash.c **** *   for the device. Writing to flash requires that changes be made to the IMO
  66:.\Generated_Source\PSoC4/CyFlash.c **** *   and HFCLK settings. The configuration is restored before returning. HFCLK
  67:.\Generated_Source\PSoC4/CyFlash.c **** *   will have several frequency changes during the operation of this API between
  68:.\Generated_Source\PSoC4/CyFlash.c **** *   a minimum frequency of the current IMO frequency divided by 8 and a maximum
  69:.\Generated_Source\PSoC4/CyFlash.c **** *   frequency of 12 MHz. This will impact the operation of most of the hardware
  70:.\Generated_Source\PSoC4/CyFlash.c **** *   in the device.
  71:.\Generated_Source\PSoC4/CyFlash.c **** *
  72:.\Generated_Source\PSoC4/CyFlash.c **** *******************************************************************************/
  73:.\Generated_Source\PSoC4/CyFlash.c **** uint32 CySysFlashWriteRow(uint32 rowNum, const uint8 rowData[])
  74:.\Generated_Source\PSoC4/CyFlash.c **** {
  75:.\Generated_Source\PSoC4/CyFlash.c ****     volatile uint32 retValue = CY_SYS_FLASH_SUCCESS;
  76:.\Generated_Source\PSoC4/CyFlash.c ****     volatile uint32 clkCnfRetValue = CY_SYS_FLASH_SUCCESS;
  77:.\Generated_Source\PSoC4/CyFlash.c ****     volatile uint32   parameters[(CY_FLASH_SIZEOF_ROW + CY_FLASH_SRAM_ROM_DATA)/4u];
  78:.\Generated_Source\PSoC4/CyFlash.c ****     uint8  interruptState;
  79:.\Generated_Source\PSoC4/CyFlash.c **** 
  80:.\Generated_Source\PSoC4/CyFlash.c ****     #if (CY_PSOC4_4000 || CY_PSOC4_4100 || CY_PSOC4_4200)
  81:.\Generated_Source\PSoC4/CyFlash.c ****         uint32 rowDataTmp[CY_FLASH_SIZEOF_ROW / sizeof(uint32)];
  82:.\Generated_Source\PSoC4/CyFlash.c **** 
  83:.\Generated_Source\PSoC4/CyFlash.c ****         uint32 needChecksumWorkaround = 0u;
  84:.\Generated_Source\PSoC4/CyFlash.c ****         uint32 savedIndex = 0u;
  85:.\Generated_Source\PSoC4/CyFlash.c ****         uint32 savedValue = 0u;
  86:.\Generated_Source\PSoC4/CyFlash.c ****         uint32 checksum = 0u;
  87:.\Generated_Source\PSoC4/CyFlash.c ****         uint32 bits = 0u;
  88:.\Generated_Source\PSoC4/CyFlash.c ****         uint32 i;
  89:.\Generated_Source\PSoC4/CyFlash.c ****     #endif  /* (CY_PSOC4_4000 || CY_PSOC4_4100 || CY_PSOC4_4200) */
  90:.\Generated_Source\PSoC4/CyFlash.c **** 
ARM GAS  C:\Users\Jarik\AppData\Local\Temp\ccb2seiw.s 			page 3


  91:.\Generated_Source\PSoC4/CyFlash.c ****     if ((rowNum < CY_FLASH_NUMBER_ROWS) && (rowData != 0u))
  92:.\Generated_Source\PSoC4/CyFlash.c ****     {
  93:.\Generated_Source\PSoC4/CyFlash.c ****         #if (CY_PSOC4_4000 || CY_PSOC4_4100 || CY_PSOC4_4200)
  94:.\Generated_Source\PSoC4/CyFlash.c **** 
  95:.\Generated_Source\PSoC4/CyFlash.c ****             (void) memcpy((void *)rowDataTmp, rowData, CY_FLASH_SIZEOF_ROW);
  96:.\Generated_Source\PSoC4/CyFlash.c **** 
  97:.\Generated_Source\PSoC4/CyFlash.c ****             for (i = 0u; i < (CY_FLASH_SIZEOF_ROW / sizeof(uint32)); i++)
  98:.\Generated_Source\PSoC4/CyFlash.c ****             {
  99:.\Generated_Source\PSoC4/CyFlash.c ****                 uint32 tmp = rowDataTmp[i];
 100:.\Generated_Source\PSoC4/CyFlash.c ****                 if (tmp != 0u)
 101:.\Generated_Source\PSoC4/CyFlash.c ****                 {
 102:.\Generated_Source\PSoC4/CyFlash.c ****                     checksum += tmp;
 103:.\Generated_Source\PSoC4/CyFlash.c ****                     bits |= tmp;
 104:.\Generated_Source\PSoC4/CyFlash.c ****                     savedIndex = i;
 105:.\Generated_Source\PSoC4/CyFlash.c ****                 }
 106:.\Generated_Source\PSoC4/CyFlash.c ****             }
 107:.\Generated_Source\PSoC4/CyFlash.c **** 
 108:.\Generated_Source\PSoC4/CyFlash.c ****             needChecksumWorkaround = ((checksum == 0u) && (bits != 0u)) ? 1u : 0u;
 109:.\Generated_Source\PSoC4/CyFlash.c ****             if (needChecksumWorkaround != 0u)
 110:.\Generated_Source\PSoC4/CyFlash.c ****             {
 111:.\Generated_Source\PSoC4/CyFlash.c ****                 savedValue = rowDataTmp[savedIndex];
 112:.\Generated_Source\PSoC4/CyFlash.c ****                 rowDataTmp[savedIndex] = 0u;
 113:.\Generated_Source\PSoC4/CyFlash.c ****             }
 114:.\Generated_Source\PSoC4/CyFlash.c ****         #endif  /* (CY_PSOC4_4000 || CY_PSOC4_4100 || CY_PSOC4_4200) */
 115:.\Generated_Source\PSoC4/CyFlash.c **** 
 116:.\Generated_Source\PSoC4/CyFlash.c ****         /* Load Flash Bytes */
 117:.\Generated_Source\PSoC4/CyFlash.c ****         parameters[0u] = (uint32) (CY_FLASH_GET_MACRO_FROM_ROW(rowNum)        << CY_FLASH_PARAM_MAC
 118:.\Generated_Source\PSoC4/CyFlash.c ****                          (uint32) (CY_FLASH_PAGE_LATCH_START_ADDR             << CY_FLASH_PARAM_ADD
 119:.\Generated_Source\PSoC4/CyFlash.c ****                          (uint32) (CY_FLASH_KEY_TWO(CY_FLASH_API_OPCODE_LOAD) << CY_FLASH_PARAM_KEY
 120:.\Generated_Source\PSoC4/CyFlash.c ****                          CY_FLASH_KEY_ONE;
 121:.\Generated_Source\PSoC4/CyFlash.c ****         parameters[1u] = CY_FLASH_SIZEOF_ROW - 1u;
 122:.\Generated_Source\PSoC4/CyFlash.c ****     #if (CY_PSOC4_4000 || CY_PSOC4_4100 || CY_PSOC4_4200)
 123:.\Generated_Source\PSoC4/CyFlash.c ****         (void)memcpy((void *)&parameters[2u], rowDataTmp, CY_FLASH_SIZEOF_ROW);
 124:.\Generated_Source\PSoC4/CyFlash.c ****     #else
 125:.\Generated_Source\PSoC4/CyFlash.c ****         (void)memcpy((void *)&parameters[2u], rowData, CY_FLASH_SIZEOF_ROW);
 126:.\Generated_Source\PSoC4/CyFlash.c ****     #endif /* (CY_PSOC4_4000 || CY_PSOC4_4100 || CY_PSOC4_4200) */
 127:.\Generated_Source\PSoC4/CyFlash.c ****         CY_FLASH_CPUSS_SYSARG_REG = (uint32) &parameters[0u];
 128:.\Generated_Source\PSoC4/CyFlash.c ****         CY_FLASH_CPUSS_SYSREQ_REG = CY_FLASH_CPUSS_REQ_START | CY_FLASH_API_OPCODE_LOAD;
 129:.\Generated_Source\PSoC4/CyFlash.c ****         retValue = CY_FLASH_API_RETURN;
 130:.\Generated_Source\PSoC4/CyFlash.c **** 
 131:.\Generated_Source\PSoC4/CyFlash.c ****         if(retValue == CY_SYS_FLASH_SUCCESS)
 132:.\Generated_Source\PSoC4/CyFlash.c ****         {
 133:.\Generated_Source\PSoC4/CyFlash.c ****             /***************************************************************
 134:.\Generated_Source\PSoC4/CyFlash.c ****             * Mask all the exceptions to guarantee that Flash write will
 135:.\Generated_Source\PSoC4/CyFlash.c ****             * occur in the atomic way. It will not affect system call
 136:.\Generated_Source\PSoC4/CyFlash.c ****             * execution (flash row write) since it is executed in the NMI
 137:.\Generated_Source\PSoC4/CyFlash.c ****             * context.
 138:.\Generated_Source\PSoC4/CyFlash.c ****             ***************************************************************/
 139:.\Generated_Source\PSoC4/CyFlash.c ****             interruptState = CyEnterCriticalSection();
 140:.\Generated_Source\PSoC4/CyFlash.c **** 
 141:.\Generated_Source\PSoC4/CyFlash.c ****             clkCnfRetValue = CySysFlashClockBackup();
 142:.\Generated_Source\PSoC4/CyFlash.c **** 
 143:.\Generated_Source\PSoC4/CyFlash.c ****         #if(CY_IP_FMLT)
 144:.\Generated_Source\PSoC4/CyFlash.c ****             if(clkCnfRetValue == CY_SYS_FLASH_SUCCESS)
 145:.\Generated_Source\PSoC4/CyFlash.c ****             {
 146:.\Generated_Source\PSoC4/CyFlash.c ****                 retValue = CySysFlashClockConfig();
 147:.\Generated_Source\PSoC4/CyFlash.c ****             }
ARM GAS  C:\Users\Jarik\AppData\Local\Temp\ccb2seiw.s 			page 4


 148:.\Generated_Source\PSoC4/CyFlash.c ****         #endif  /* (CY_IP_FMLT) */
 149:.\Generated_Source\PSoC4/CyFlash.c **** 
 150:.\Generated_Source\PSoC4/CyFlash.c ****             if(retValue == CY_SYS_FLASH_SUCCESS)
 151:.\Generated_Source\PSoC4/CyFlash.c ****             {
 152:.\Generated_Source\PSoC4/CyFlash.c ****                 /* Write Row */
 153:.\Generated_Source\PSoC4/CyFlash.c ****                 parameters[0u]  = (uint32) (((uint32) CY_FLASH_KEY_TWO(CY_FLASH_API_OPCODE_WRITE_RO
 154:.\Generated_Source\PSoC4/CyFlash.c ****                 parameters[0u] |= (uint32)(rowNum << 16u);
 155:.\Generated_Source\PSoC4/CyFlash.c **** 
 156:.\Generated_Source\PSoC4/CyFlash.c ****                 CY_FLASH_CPUSS_SYSARG_REG = (uint32) &parameters[0u];
 157:.\Generated_Source\PSoC4/CyFlash.c ****                 CY_FLASH_CPUSS_SYSREQ_REG = CY_FLASH_CPUSS_REQ_START | CY_FLASH_API_OPCODE_WRITE_RO
 158:.\Generated_Source\PSoC4/CyFlash.c ****                 retValue = CY_FLASH_API_RETURN;
 159:.\Generated_Source\PSoC4/CyFlash.c ****             }
 160:.\Generated_Source\PSoC4/CyFlash.c **** 
 161:.\Generated_Source\PSoC4/CyFlash.c ****             #if (CY_PSOC4_4000 || CY_PSOC4_4100 || CY_PSOC4_4200)
 162:.\Generated_Source\PSoC4/CyFlash.c **** 
 163:.\Generated_Source\PSoC4/CyFlash.c ****                 if ((retValue == CYRET_SUCCESS) && (needChecksumWorkaround != 0u))
 164:.\Generated_Source\PSoC4/CyFlash.c ****                 {
 165:.\Generated_Source\PSoC4/CyFlash.c ****                     (void)memset((void *)rowDataTmp, 0, CY_FLASH_SIZEOF_ROW);
 166:.\Generated_Source\PSoC4/CyFlash.c ****                     rowDataTmp[savedIndex] = savedValue;
 167:.\Generated_Source\PSoC4/CyFlash.c **** 
 168:.\Generated_Source\PSoC4/CyFlash.c ****                     /* Load Flash Bytes */
 169:.\Generated_Source\PSoC4/CyFlash.c ****                     parameters[0u] = (uint32) (CY_FLASH_GET_MACRO_FROM_ROW(rowNum)        << CY_FLA
 170:.\Generated_Source\PSoC4/CyFlash.c ****                                      (uint32) (CY_FLASH_PAGE_LATCH_START_ADDR             << CY_FLA
 171:.\Generated_Source\PSoC4/CyFlash.c ****                                      (uint32) (CY_FLASH_KEY_TWO(CY_FLASH_API_OPCODE_LOAD) << CY_FLA
 172:.\Generated_Source\PSoC4/CyFlash.c ****                                      CY_FLASH_KEY_ONE;
 173:.\Generated_Source\PSoC4/CyFlash.c ****                     parameters[1u] = CY_FLASH_SIZEOF_ROW - 1u;
 174:.\Generated_Source\PSoC4/CyFlash.c ****                     (void)memcpy((void *)&parameters[2u], rowDataTmp, CY_FLASH_SIZEOF_ROW);
 175:.\Generated_Source\PSoC4/CyFlash.c ****                     CY_FLASH_CPUSS_SYSARG_REG = (uint32) &parameters[0u];
 176:.\Generated_Source\PSoC4/CyFlash.c ****                     CY_FLASH_CPUSS_SYSREQ_REG = CY_FLASH_CPUSS_REQ_START | CY_FLASH_API_OPCODE_LOAD
 177:.\Generated_Source\PSoC4/CyFlash.c ****                     retValue = CY_FLASH_API_RETURN;
 178:.\Generated_Source\PSoC4/CyFlash.c **** 
 179:.\Generated_Source\PSoC4/CyFlash.c **** 
 180:.\Generated_Source\PSoC4/CyFlash.c ****                     if(retValue == CY_SYS_FLASH_SUCCESS)
 181:.\Generated_Source\PSoC4/CyFlash.c ****                     {
 182:.\Generated_Source\PSoC4/CyFlash.c ****                         /* Program Row */
 183:.\Generated_Source\PSoC4/CyFlash.c ****                         parameters[0u]  = (uint32) (((uint32) CY_FLASH_KEY_TWO(CY_FLASH_API_OPCODE_
 184:.\Generated_Source\PSoC4/CyFlash.c ****                         parameters[0u] |= (uint32)(rowNum << 16u);
 185:.\Generated_Source\PSoC4/CyFlash.c **** 
 186:.\Generated_Source\PSoC4/CyFlash.c ****                         CY_FLASH_CPUSS_SYSARG_REG = (uint32) &parameters[0u];
 187:.\Generated_Source\PSoC4/CyFlash.c ****                         CY_FLASH_CPUSS_SYSREQ_REG = CY_FLASH_CPUSS_REQ_START | CY_FLASH_API_OPCODE_
 188:.\Generated_Source\PSoC4/CyFlash.c ****                         retValue = CY_FLASH_API_RETURN;
 189:.\Generated_Source\PSoC4/CyFlash.c ****                     }
 190:.\Generated_Source\PSoC4/CyFlash.c ****                 }
 191:.\Generated_Source\PSoC4/CyFlash.c ****             #endif  /* (CY_PSOC4_4000 || CY_PSOC4_4100 || CY_PSOC4_4200) */
 192:.\Generated_Source\PSoC4/CyFlash.c **** 
 193:.\Generated_Source\PSoC4/CyFlash.c ****             if(clkCnfRetValue == CY_SYS_FLASH_SUCCESS)
 194:.\Generated_Source\PSoC4/CyFlash.c ****             {
 195:.\Generated_Source\PSoC4/CyFlash.c ****                 clkCnfRetValue = CySysFlashClockRestore();
 196:.\Generated_Source\PSoC4/CyFlash.c ****             }
 197:.\Generated_Source\PSoC4/CyFlash.c **** 
 198:.\Generated_Source\PSoC4/CyFlash.c ****             CyExitCriticalSection(interruptState);
 199:.\Generated_Source\PSoC4/CyFlash.c ****         }
 200:.\Generated_Source\PSoC4/CyFlash.c ****     }
 201:.\Generated_Source\PSoC4/CyFlash.c ****     else
 202:.\Generated_Source\PSoC4/CyFlash.c ****     {
 203:.\Generated_Source\PSoC4/CyFlash.c ****         retValue = CY_SYS_FLASH_INVALID_ADDR;
 204:.\Generated_Source\PSoC4/CyFlash.c ****     }
ARM GAS  C:\Users\Jarik\AppData\Local\Temp\ccb2seiw.s 			page 5


 205:.\Generated_Source\PSoC4/CyFlash.c **** 
 206:.\Generated_Source\PSoC4/CyFlash.c ****     return (retValue);
 207:.\Generated_Source\PSoC4/CyFlash.c **** }
 208:.\Generated_Source\PSoC4/CyFlash.c **** 
 209:.\Generated_Source\PSoC4/CyFlash.c **** 
 210:.\Generated_Source\PSoC4/CyFlash.c **** 
 211:.\Generated_Source\PSoC4/CyFlash.c **** 
 212:.\Generated_Source\PSoC4/CyFlash.c **** 
 213:.\Generated_Source\PSoC4/CyFlash.c **** /*******************************************************************************
 214:.\Generated_Source\PSoC4/CyFlash.c **** * Function Name: CySysFlashSetWaitCycles
 215:.\Generated_Source\PSoC4/CyFlash.c **** ********************************************************************************
 216:.\Generated_Source\PSoC4/CyFlash.c **** *
 217:.\Generated_Source\PSoC4/CyFlash.c **** * Summary:
 218:.\Generated_Source\PSoC4/CyFlash.c **** *  Sets the number of clock cycles the cache will wait before it samples data
 219:.\Generated_Source\PSoC4/CyFlash.c **** *  coming back from Flash. This function must be called before increasing the
 220:.\Generated_Source\PSoC4/CyFlash.c **** *  SYSCLK clock frequency. It can optionally be called after lowering SYSCLK
 221:.\Generated_Source\PSoC4/CyFlash.c **** *  clock frequency in order to improve the CPU performance.
 222:.\Generated_Source\PSoC4/CyFlash.c **** *
 223:.\Generated_Source\PSoC4/CyFlash.c **** * Parameters:
 224:.\Generated_Source\PSoC4/CyFlash.c **** *  freq: The System clock frequency in MHz. Note: Invalid frequency will be
 225:.\Generated_Source\PSoC4/CyFlash.c **** *  ignored in Release mode and the CPU will be halted if project is compiled in
 226:.\Generated_Source\PSoC4/CyFlash.c **** *  Debug mode.
 227:.\Generated_Source\PSoC4/CyFlash.c **** *
 228:.\Generated_Source\PSoC4/CyFlash.c **** * Return:
 229:.\Generated_Source\PSoC4/CyFlash.c **** *  None
 230:.\Generated_Source\PSoC4/CyFlash.c **** *
 231:.\Generated_Source\PSoC4/CyFlash.c **** *******************************************************************************/
 232:.\Generated_Source\PSoC4/CyFlash.c **** void CySysFlashSetWaitCycles(uint32 freq)
 233:.\Generated_Source\PSoC4/CyFlash.c **** {
 234:.\Generated_Source\PSoC4/CyFlash.c ****     uint8  interruptState;
 235:.\Generated_Source\PSoC4/CyFlash.c **** 
 236:.\Generated_Source\PSoC4/CyFlash.c ****     #if (CY_IP_CPUSS)
 237:.\Generated_Source\PSoC4/CyFlash.c **** 
 238:.\Generated_Source\PSoC4/CyFlash.c ****         interruptState = CyEnterCriticalSection();
 239:.\Generated_Source\PSoC4/CyFlash.c **** 
 240:.\Generated_Source\PSoC4/CyFlash.c ****         if ( freq <= CY_FLASH_SYSCLK_BOUNDARY_MHZ )
 241:.\Generated_Source\PSoC4/CyFlash.c ****         {
 242:.\Generated_Source\PSoC4/CyFlash.c ****             CY_SYS_CLK_SELECT_REG &= (uint32)(~CY_FLASH_WAIT_STATE_EN);
 243:.\Generated_Source\PSoC4/CyFlash.c ****         }
 244:.\Generated_Source\PSoC4/CyFlash.c ****         else
 245:.\Generated_Source\PSoC4/CyFlash.c ****         {
 246:.\Generated_Source\PSoC4/CyFlash.c ****             CY_SYS_CLK_SELECT_REG |= CY_FLASH_WAIT_STATE_EN;
 247:.\Generated_Source\PSoC4/CyFlash.c ****         }
 248:.\Generated_Source\PSoC4/CyFlash.c **** 
 249:.\Generated_Source\PSoC4/CyFlash.c ****         CyExitCriticalSection(interruptState);
 250:.\Generated_Source\PSoC4/CyFlash.c **** 
 251:.\Generated_Source\PSoC4/CyFlash.c ****     #else
 252:.\Generated_Source\PSoC4/CyFlash.c ****         interruptState = CyEnterCriticalSection();
 253:.\Generated_Source\PSoC4/CyFlash.c **** 
 254:.\Generated_Source\PSoC4/CyFlash.c ****         if (freq <= CY_FLASH_CTL_WS_0_FREQ_MAX)
 255:.\Generated_Source\PSoC4/CyFlash.c ****         {
 256:.\Generated_Source\PSoC4/CyFlash.c ****             CY_FLASH_CTL_REG = (CY_FLASH_CTL_REG & ~CY_FLASH_CTL_WS_MASK) | CY_FLASH_CTL_WS_0_VALUE
 257:.\Generated_Source\PSoC4/CyFlash.c ****         } else
 258:.\Generated_Source\PSoC4/CyFlash.c ****         if (freq <= CY_FLASH_CTL_WS_1_FREQ_MAX)
 259:.\Generated_Source\PSoC4/CyFlash.c ****         {
 260:.\Generated_Source\PSoC4/CyFlash.c ****             CY_FLASH_CTL_REG = (CY_FLASH_CTL_REG & ~CY_FLASH_CTL_WS_MASK) | CY_FLASH_CTL_WS_1_VALUE
 261:.\Generated_Source\PSoC4/CyFlash.c ****         } else
ARM GAS  C:\Users\Jarik\AppData\Local\Temp\ccb2seiw.s 			page 6


 262:.\Generated_Source\PSoC4/CyFlash.c ****     #if (CY_IP_FMLT)
 263:.\Generated_Source\PSoC4/CyFlash.c ****         if (freq <= CY_FLASH_CTL_WS_2_FREQ_MAX)
 264:.\Generated_Source\PSoC4/CyFlash.c ****         {
 265:.\Generated_Source\PSoC4/CyFlash.c ****             CY_FLASH_CTL_REG = (CY_FLASH_CTL_REG & ~CY_FLASH_CTL_WS_MASK) | CY_FLASH_CTL_WS_2_VALUE
 266:.\Generated_Source\PSoC4/CyFlash.c ****         }
 267:.\Generated_Source\PSoC4/CyFlash.c ****     #endif  /* (CY_IP_FMLT) */
 268:.\Generated_Source\PSoC4/CyFlash.c ****         else
 269:.\Generated_Source\PSoC4/CyFlash.c ****         {
 270:.\Generated_Source\PSoC4/CyFlash.c ****             /* Halt CPU in debug mode if frequency is invalid */
 271:.\Generated_Source\PSoC4/CyFlash.c ****             CYASSERT(0u != 0u);
 272:.\Generated_Source\PSoC4/CyFlash.c ****         }
 273:.\Generated_Source\PSoC4/CyFlash.c **** 
 274:.\Generated_Source\PSoC4/CyFlash.c ****         CyExitCriticalSection(interruptState);
 275:.\Generated_Source\PSoC4/CyFlash.c **** 
 276:.\Generated_Source\PSoC4/CyFlash.c ****     #endif  /* (CY_IP_CPUSS) */
 277:.\Generated_Source\PSoC4/CyFlash.c **** }
 278:.\Generated_Source\PSoC4/CyFlash.c **** 
 279:.\Generated_Source\PSoC4/CyFlash.c **** 
 280:.\Generated_Source\PSoC4/CyFlash.c **** /*******************************************************************************
 281:.\Generated_Source\PSoC4/CyFlash.c **** * Function Name: CySysFlashClockBackup
 282:.\Generated_Source\PSoC4/CyFlash.c **** ********************************************************************************
 283:.\Generated_Source\PSoC4/CyFlash.c **** *
 284:.\Generated_Source\PSoC4/CyFlash.c **** * Summary:
 285:.\Generated_Source\PSoC4/CyFlash.c **** *  Backups the device clock configuration.
 286:.\Generated_Source\PSoC4/CyFlash.c **** *
 287:.\Generated_Source\PSoC4/CyFlash.c **** * Parameters:
 288:.\Generated_Source\PSoC4/CyFlash.c **** *  None
 289:.\Generated_Source\PSoC4/CyFlash.c **** *
 290:.\Generated_Source\PSoC4/CyFlash.c **** * Return:
 291:.\Generated_Source\PSoC4/CyFlash.c **** *  The same as CySysFlashWriteRow().
 292:.\Generated_Source\PSoC4/CyFlash.c **** *
 293:.\Generated_Source\PSoC4/CyFlash.c **** *******************************************************************************/
 294:.\Generated_Source\PSoC4/CyFlash.c **** static cystatus CySysFlashClockBackup(void)
 295:.\Generated_Source\PSoC4/CyFlash.c **** {
  25              		.loc 1 295 0
  26              		.cfi_startproc
  27              	.LVL0:
 296:.\Generated_Source\PSoC4/CyFlash.c ****     cystatus retValue = CY_SYS_FLASH_SUCCESS;
 297:.\Generated_Source\PSoC4/CyFlash.c **** #if(!CY_IP_FM)
 298:.\Generated_Source\PSoC4/CyFlash.c ****     #if !(CY_PSOC4_4000)
 299:.\Generated_Source\PSoC4/CyFlash.c ****         volatile uint32   parameters[2u];
 300:.\Generated_Source\PSoC4/CyFlash.c ****     #endif  /* !(CY_PSOC4_4000) */
 301:.\Generated_Source\PSoC4/CyFlash.c **** #endif  /* (!CY_IP_FM) */
 302:.\Generated_Source\PSoC4/CyFlash.c **** 
 303:.\Generated_Source\PSoC4/CyFlash.c **** #if(CY_IP_FM)
 304:.\Generated_Source\PSoC4/CyFlash.c **** 
 305:.\Generated_Source\PSoC4/CyFlash.c ****     /***************************************************************
 306:.\Generated_Source\PSoC4/CyFlash.c ****     * Preserve IMO configuration that could be changed during
 307:.\Generated_Source\PSoC4/CyFlash.c ****     * system call execution (Cypress ID #150448).
 308:.\Generated_Source\PSoC4/CyFlash.c ****     ***************************************************************/
 309:.\Generated_Source\PSoC4/CyFlash.c ****     cySysFlashBackup.imoConfigReg = CY_SYS_CLK_IMO_CONFIG_REG;
  28              		.loc 1 309 0
  29 0000 024B     		ldr	r3, .L2
  30 0002 1A68     		ldr	r2, [r3]
  31 0004 024B     		ldr	r3, .L2+4
  32 0006 1A60     		str	r2, [r3]
 310:.\Generated_Source\PSoC4/CyFlash.c **** 
ARM GAS  C:\Users\Jarik\AppData\Local\Temp\ccb2seiw.s 			page 7


 311:.\Generated_Source\PSoC4/CyFlash.c **** #else   /* (CY_IP_FMLT) */
 312:.\Generated_Source\PSoC4/CyFlash.c **** 
 313:.\Generated_Source\PSoC4/CyFlash.c ****     #if (CY_PSOC4_4000)
 314:.\Generated_Source\PSoC4/CyFlash.c **** 
 315:.\Generated_Source\PSoC4/CyFlash.c ****         /***************************************************************************
 316:.\Generated_Source\PSoC4/CyFlash.c ****         * Perform firmware clock settings backup for the PSOC4 4000 devices (the
 317:.\Generated_Source\PSoC4/CyFlash.c ****         * corresponding system call is not available).
 318:.\Generated_Source\PSoC4/CyFlash.c ****         ***************************************************************************/
 319:.\Generated_Source\PSoC4/CyFlash.c **** 
 320:.\Generated_Source\PSoC4/CyFlash.c ****         /***************************************************************************
 321:.\Generated_Source\PSoC4/CyFlash.c ****         * The registers listed below are modified by CySysFlashClockConfig().
 322:.\Generated_Source\PSoC4/CyFlash.c ****         *
 323:.\Generated_Source\PSoC4/CyFlash.c ****         * The registers to be saved:
 324:.\Generated_Source\PSoC4/CyFlash.c ****         * - CY_SYS_CLK_IMO_CONFIG_REG - IMO enable state.
 325:.\Generated_Source\PSoC4/CyFlash.c ****         * - CY_SYS_CLK_SELECT_REG     - HFCLK source, divider, pump source. Save
 326:.\Generated_Source\PSoC4/CyFlash.c ****         *                               entire register as it can be directly
 327:.\Generated_Source\PSoC4/CyFlash.c ****         *                               written on restore (no special
 328:.\Generated_Source\PSoC4/CyFlash.c ****         *                               requirements).
 329:.\Generated_Source\PSoC4/CyFlash.c ****         * - CY_SYS_CLK_IMO_SELECT_REG - Save IMO frequency.
 330:.\Generated_Source\PSoC4/CyFlash.c ****         *
 331:.\Generated_Source\PSoC4/CyFlash.c ****         * The registers not to be saved:
 332:.\Generated_Source\PSoC4/CyFlash.c ****         * - CY_SYS_CLK_IMO_TRIM1_REG  - No need to save. Function of frequency.
 333:.\Generated_Source\PSoC4/CyFlash.c ****         *                               Restored by CySysClkWriteImoFreq().
 334:.\Generated_Source\PSoC4/CyFlash.c ****         * - CY_SYS_CLK_IMO_TRIM3_REG  - No need to save. Function of frequency.
 335:.\Generated_Source\PSoC4/CyFlash.c ****         *                               Restored by CySysClkWriteImoFreq().
 336:.\Generated_Source\PSoC4/CyFlash.c ****         * - REG_CPUSS_FLASH_CTL       - Flash wait cycles. Unmodified due to system
 337:.\Generated_Source\PSoC4/CyFlash.c ****         *                               clock 16 MHz limit.
 338:.\Generated_Source\PSoC4/CyFlash.c ****         ***************************************************************************/
 339:.\Generated_Source\PSoC4/CyFlash.c **** 
 340:.\Generated_Source\PSoC4/CyFlash.c ****         cySysFlashBackup.clkSelectReg = CY_SYS_CLK_SELECT_REG;
 341:.\Generated_Source\PSoC4/CyFlash.c ****         cySysFlashBackup.clkImoEna    = CY_SYS_CLK_IMO_CONFIG_REG & CY_SYS_CLK_IMO_CONFIG_ENABLE;
 342:.\Generated_Source\PSoC4/CyFlash.c ****         cySysFlashBackup.clkImoFreq   = CY_SYS_CLK_IMO_MIN_FREQ_MHZ + (CY_SYS_CLK_IMO_SELECT_REG <<
 343:.\Generated_Source\PSoC4/CyFlash.c **** 
 344:.\Generated_Source\PSoC4/CyFlash.c ****     #else
 345:.\Generated_Source\PSoC4/CyFlash.c **** 
 346:.\Generated_Source\PSoC4/CyFlash.c ****         /* FM-Lite Clock Backup System Call */
 347:.\Generated_Source\PSoC4/CyFlash.c ****         parameters[0u] = (uint32) ((CY_FLASH_KEY_TWO(CY_FLASH_API_OPCODE_CLK_BACKUP) <<  CY_FLASH_P
 348:.\Generated_Source\PSoC4/CyFlash.c ****         parameters[1u] = (uint32) &cySysFlashBackup.clockSettings[0u];
 349:.\Generated_Source\PSoC4/CyFlash.c ****         CY_FLASH_CPUSS_SYSARG_REG = (uint32) &parameters[0u];
 350:.\Generated_Source\PSoC4/CyFlash.c ****         CY_FLASH_CPUSS_SYSREQ_REG = CY_FLASH_CPUSS_REQ_START | CY_FLASH_API_OPCODE_CLK_BACKUP;
 351:.\Generated_Source\PSoC4/CyFlash.c ****         retValue = CY_FLASH_API_RETURN;
 352:.\Generated_Source\PSoC4/CyFlash.c **** 
 353:.\Generated_Source\PSoC4/CyFlash.c ****     #endif  /* (CY_PSOC4_4000) */
 354:.\Generated_Source\PSoC4/CyFlash.c **** 
 355:.\Generated_Source\PSoC4/CyFlash.c **** #endif  /* (CY_IP_FM) */
 356:.\Generated_Source\PSoC4/CyFlash.c **** 
 357:.\Generated_Source\PSoC4/CyFlash.c ****     return (retValue);
 358:.\Generated_Source\PSoC4/CyFlash.c **** }
  33              		.loc 1 358 0
  34 0008 0020     		mov	r0, #0
  35              		@ sp needed
  36 000a 7047     		bx	lr
  37              	.L3:
  38              		.align	2
  39              	.L2:
  40 000c 08010B40 		.word	1074462984
  41 0010 00000000 		.word	.LANCHOR0
ARM GAS  C:\Users\Jarik\AppData\Local\Temp\ccb2seiw.s 			page 8


  42              		.cfi_endproc
  43              	.LFE2:
  44              		.size	CySysFlashClockBackup, .-CySysFlashClockBackup
  45              		.section	.text.CySysFlashClockRestore,"ax",%progbits
  46              		.align	2
  47              		.code	16
  48              		.thumb_func
  49              		.type	CySysFlashClockRestore, %function
  50              	CySysFlashClockRestore:
  51              	.LFB3:
 359:.\Generated_Source\PSoC4/CyFlash.c **** 
 360:.\Generated_Source\PSoC4/CyFlash.c **** 
 361:.\Generated_Source\PSoC4/CyFlash.c **** #if(CY_IP_FMLT)
 362:.\Generated_Source\PSoC4/CyFlash.c **** /*******************************************************************************
 363:.\Generated_Source\PSoC4/CyFlash.c **** * Function Name: CySysFlashClockConfig
 364:.\Generated_Source\PSoC4/CyFlash.c **** ********************************************************************************
 365:.\Generated_Source\PSoC4/CyFlash.c **** *
 366:.\Generated_Source\PSoC4/CyFlash.c **** * Summary:
 367:.\Generated_Source\PSoC4/CyFlash.c **** *  Configures the device clocks for the flash writing.
 368:.\Generated_Source\PSoC4/CyFlash.c **** *
 369:.\Generated_Source\PSoC4/CyFlash.c **** * Parameters:
 370:.\Generated_Source\PSoC4/CyFlash.c **** *  None
 371:.\Generated_Source\PSoC4/CyFlash.c **** *
 372:.\Generated_Source\PSoC4/CyFlash.c **** * Return:
 373:.\Generated_Source\PSoC4/CyFlash.c **** *  The same as CySysFlashWriteRow().
 374:.\Generated_Source\PSoC4/CyFlash.c **** *
 375:.\Generated_Source\PSoC4/CyFlash.c **** *******************************************************************************/
 376:.\Generated_Source\PSoC4/CyFlash.c **** static cystatus CySysFlashClockConfig(void)
 377:.\Generated_Source\PSoC4/CyFlash.c **** {
 378:.\Generated_Source\PSoC4/CyFlash.c ****     cystatus retValue = CY_SYS_FLASH_SUCCESS;
 379:.\Generated_Source\PSoC4/CyFlash.c **** 
 380:.\Generated_Source\PSoC4/CyFlash.c ****     /***************************************************************************
 381:.\Generated_Source\PSoC4/CyFlash.c ****     * The FM-Lite IP uses the IMO at 48MHz for the pump clock and SPC timer
 382:.\Generated_Source\PSoC4/CyFlash.c ****     * clock. The PUMP_SEL and HF clock must be set to IMO before calling Flash
 383:.\Generated_Source\PSoC4/CyFlash.c ****     * write or erase operation.
 384:.\Generated_Source\PSoC4/CyFlash.c ****     ***************************************************************************/
 385:.\Generated_Source\PSoC4/CyFlash.c **** #if (CY_PSOC4_4000)
 386:.\Generated_Source\PSoC4/CyFlash.c **** 
 387:.\Generated_Source\PSoC4/CyFlash.c ****     /***************************************************************************
 388:.\Generated_Source\PSoC4/CyFlash.c ****     * Perform firmware clock settings setup for the PSOC4 4000 devices (the
 389:.\Generated_Source\PSoC4/CyFlash.c ****     * corresponding system call is not reliable):
 390:.\Generated_Source\PSoC4/CyFlash.c ****     * - The IMO frequency should be 48 MHz
 391:.\Generated_Source\PSoC4/CyFlash.c ****     * - The IMO should be source for the HFCLK
 392:.\Generated_Source\PSoC4/CyFlash.c ****     * - The IMO should be the source for the charge pump clock
 393:.\Generated_Source\PSoC4/CyFlash.c ****     *
 394:.\Generated_Source\PSoC4/CyFlash.c ****     * Note The structure members used below are initialized by
 395:.\Generated_Source\PSoC4/CyFlash.c ****     * the CySysFlashClockBackup() function.
 396:.\Generated_Source\PSoC4/CyFlash.c ****     ***************************************************************************/
 397:.\Generated_Source\PSoC4/CyFlash.c ****     if ((cySysFlashBackup.clkImoFreq != 48u) ||
 398:.\Generated_Source\PSoC4/CyFlash.c ****         ((cySysFlashBackup.clkSelectReg & CY_SYS_CLK_SELECT_DIRECT_SEL_MASK) != CY_SYS_CLK_HFCLK_IM
 399:.\Generated_Source\PSoC4/CyFlash.c ****         (((cySysFlashBackup.clkSelectReg >> CY_SYS_CLK_SELECT_PUMP_SEL_SHIFT) & CY_SYS_CLK_SELECT_P
 400:.\Generated_Source\PSoC4/CyFlash.c ****             CY_SYS_CLK_SELECT_PUMP_SEL_IMO))
 401:.\Generated_Source\PSoC4/CyFlash.c ****     {
 402:.\Generated_Source\PSoC4/CyFlash.c ****         /***********************************************************************
 403:.\Generated_Source\PSoC4/CyFlash.c ****          Set HFCLK divider to divide-by-4 to ensure that System clock frequency
 404:.\Generated_Source\PSoC4/CyFlash.c ****         * is within the valid limit (16 MHz for the PSoC4 4000).
 405:.\Generated_Source\PSoC4/CyFlash.c ****         ***********************************************************************/
ARM GAS  C:\Users\Jarik\AppData\Local\Temp\ccb2seiw.s 			page 9


 406:.\Generated_Source\PSoC4/CyFlash.c ****         CySysClkWriteHfclkDiv(CY_SYS_CLK_HFCLK_DIV_4);
 407:.\Generated_Source\PSoC4/CyFlash.c **** 
 408:.\Generated_Source\PSoC4/CyFlash.c ****         /* The IMO frequency should be 48 MHz */
 409:.\Generated_Source\PSoC4/CyFlash.c ****         if (cySysFlashBackup.clkImoFreq != 48u)
 410:.\Generated_Source\PSoC4/CyFlash.c ****         {
 411:.\Generated_Source\PSoC4/CyFlash.c ****             CySysClkWriteImoFreq(48u);
 412:.\Generated_Source\PSoC4/CyFlash.c ****         }
 413:.\Generated_Source\PSoC4/CyFlash.c ****         CySysClkImoStart();
 414:.\Generated_Source\PSoC4/CyFlash.c **** 
 415:.\Generated_Source\PSoC4/CyFlash.c ****         /* The IMO should be source for the HFCLK */
 416:.\Generated_Source\PSoC4/CyFlash.c ****         CySysClkWriteHfclkDirect(CY_SYS_CLK_HFCLK_IMO);
 417:.\Generated_Source\PSoC4/CyFlash.c **** 
 418:.\Generated_Source\PSoC4/CyFlash.c ****         /* The IMO should be the source for the charge pump clock */
 419:.\Generated_Source\PSoC4/CyFlash.c ****         CY_SYS_CLK_SELECT_REG =  (CY_SYS_CLK_SELECT_REG &
 420:.\Generated_Source\PSoC4/CyFlash.c ****             ((uint32)~(uint32)(CY_SYS_CLK_SELECT_PUMP_SEL_MASK << CY_SYS_CLK_SELECT_PUMP_SEL_SHIFT)
 421:.\Generated_Source\PSoC4/CyFlash.c ****             ((uint32)((uint32)1u << CY_SYS_CLK_SELECT_PUMP_SEL_SHIFT));
 422:.\Generated_Source\PSoC4/CyFlash.c ****     }
 423:.\Generated_Source\PSoC4/CyFlash.c **** 
 424:.\Generated_Source\PSoC4/CyFlash.c **** #else
 425:.\Generated_Source\PSoC4/CyFlash.c **** 
 426:.\Generated_Source\PSoC4/CyFlash.c ****     /* FM-Lite Clock Configuration */
 427:.\Generated_Source\PSoC4/CyFlash.c ****     CY_FLASH_CPUSS_SYSARG_REG = (uint32) ((CY_FLASH_KEY_TWO(CY_FLASH_API_OPCODE_CLK_CONFIG) <<  CY_
 428:.\Generated_Source\PSoC4/CyFlash.c ****     CY_FLASH_CPUSS_SYSREQ_REG = CY_FLASH_CPUSS_REQ_START | CY_FLASH_API_OPCODE_CLK_CONFIG;
 429:.\Generated_Source\PSoC4/CyFlash.c ****     retValue = CY_FLASH_API_RETURN;
 430:.\Generated_Source\PSoC4/CyFlash.c **** 
 431:.\Generated_Source\PSoC4/CyFlash.c **** #endif  /* (CY_PSOC4_4000) */
 432:.\Generated_Source\PSoC4/CyFlash.c **** 
 433:.\Generated_Source\PSoC4/CyFlash.c ****     return (retValue);
 434:.\Generated_Source\PSoC4/CyFlash.c **** }
 435:.\Generated_Source\PSoC4/CyFlash.c **** #endif  /* (CY_IP_FMLT) */
 436:.\Generated_Source\PSoC4/CyFlash.c **** 
 437:.\Generated_Source\PSoC4/CyFlash.c **** 
 438:.\Generated_Source\PSoC4/CyFlash.c **** /*******************************************************************************
 439:.\Generated_Source\PSoC4/CyFlash.c **** * Function Name: CySysFlashClockRestore
 440:.\Generated_Source\PSoC4/CyFlash.c **** ********************************************************************************
 441:.\Generated_Source\PSoC4/CyFlash.c **** *
 442:.\Generated_Source\PSoC4/CyFlash.c **** * Summary:
 443:.\Generated_Source\PSoC4/CyFlash.c **** *  Restores the device clock configuration.
 444:.\Generated_Source\PSoC4/CyFlash.c **** *
 445:.\Generated_Source\PSoC4/CyFlash.c **** * Parameters:
 446:.\Generated_Source\PSoC4/CyFlash.c **** *  None
 447:.\Generated_Source\PSoC4/CyFlash.c **** *
 448:.\Generated_Source\PSoC4/CyFlash.c **** * Return:
 449:.\Generated_Source\PSoC4/CyFlash.c **** *  The same as CySysFlashWriteRow().
 450:.\Generated_Source\PSoC4/CyFlash.c **** *
 451:.\Generated_Source\PSoC4/CyFlash.c **** *******************************************************************************/
 452:.\Generated_Source\PSoC4/CyFlash.c **** static cystatus CySysFlashClockRestore(void)
 453:.\Generated_Source\PSoC4/CyFlash.c **** {
  52              		.loc 1 453 0
  53              		.cfi_startproc
  54              	.LVL1:
 454:.\Generated_Source\PSoC4/CyFlash.c ****     cystatus retValue = CY_SYS_FLASH_SUCCESS;
 455:.\Generated_Source\PSoC4/CyFlash.c **** #if(!CY_IP_FM)
 456:.\Generated_Source\PSoC4/CyFlash.c ****     #if !(CY_PSOC4_4000)
 457:.\Generated_Source\PSoC4/CyFlash.c ****         volatile uint32   parameters[2u];
 458:.\Generated_Source\PSoC4/CyFlash.c ****     #endif  /* !(CY_PSOC4_4000) */
 459:.\Generated_Source\PSoC4/CyFlash.c **** #endif  /* (!CY_IP_FM) */
ARM GAS  C:\Users\Jarik\AppData\Local\Temp\ccb2seiw.s 			page 10


 460:.\Generated_Source\PSoC4/CyFlash.c **** 
 461:.\Generated_Source\PSoC4/CyFlash.c **** #if(CY_IP_FM)
 462:.\Generated_Source\PSoC4/CyFlash.c **** 
 463:.\Generated_Source\PSoC4/CyFlash.c ****     /***************************************************************
 464:.\Generated_Source\PSoC4/CyFlash.c ****     * Restore IMO configuration that could be changed during
 465:.\Generated_Source\PSoC4/CyFlash.c ****     * system call execution (Cypress ID #150448).
 466:.\Generated_Source\PSoC4/CyFlash.c ****     ***************************************************************/
 467:.\Generated_Source\PSoC4/CyFlash.c ****     CY_SYS_CLK_IMO_CONFIG_REG = cySysFlashBackup.imoConfigReg;
  55              		.loc 1 467 0
  56 0000 024B     		ldr	r3, .L5
  57 0002 1A68     		ldr	r2, [r3]
  58 0004 024B     		ldr	r3, .L5+4
  59 0006 1A60     		str	r2, [r3]
 468:.\Generated_Source\PSoC4/CyFlash.c **** 
 469:.\Generated_Source\PSoC4/CyFlash.c **** #else
 470:.\Generated_Source\PSoC4/CyFlash.c **** 
 471:.\Generated_Source\PSoC4/CyFlash.c ****     #if (CY_PSOC4_4000)
 472:.\Generated_Source\PSoC4/CyFlash.c **** 
 473:.\Generated_Source\PSoC4/CyFlash.c ****         /***************************************************************************
 474:.\Generated_Source\PSoC4/CyFlash.c ****         * Perform firmware clock settings restore for the PSOC4 4000 devices (the
 475:.\Generated_Source\PSoC4/CyFlash.c ****         * corresponding system call is not available).
 476:.\Generated_Source\PSoC4/CyFlash.c ****         ***************************************************************************/
 477:.\Generated_Source\PSoC4/CyFlash.c **** 
 478:.\Generated_Source\PSoC4/CyFlash.c ****         /* Restore clock settings */
 479:.\Generated_Source\PSoC4/CyFlash.c ****         if ((cySysFlashBackup.clkImoFreq != 48u) ||
 480:.\Generated_Source\PSoC4/CyFlash.c ****             ((cySysFlashBackup.clkSelectReg & CY_SYS_CLK_SELECT_DIRECT_SEL_MASK) != CY_SYS_CLK_HFCL
 481:.\Generated_Source\PSoC4/CyFlash.c ****             (((cySysFlashBackup.clkSelectReg >> CY_SYS_CLK_SELECT_PUMP_SEL_SHIFT) & CY_SYS_CLK_SELE
 482:.\Generated_Source\PSoC4/CyFlash.c ****                 CY_SYS_CLK_SELECT_PUMP_SEL_IMO))
 483:.\Generated_Source\PSoC4/CyFlash.c ****         {
 484:.\Generated_Source\PSoC4/CyFlash.c ****             /* Restore IMO frequency if needed */
 485:.\Generated_Source\PSoC4/CyFlash.c ****             if (cySysFlashBackup.clkImoFreq != 48u)
 486:.\Generated_Source\PSoC4/CyFlash.c ****             {
 487:.\Generated_Source\PSoC4/CyFlash.c ****                 CySysClkWriteImoFreq(cySysFlashBackup.clkImoFreq);
 488:.\Generated_Source\PSoC4/CyFlash.c ****             }
 489:.\Generated_Source\PSoC4/CyFlash.c **** 
 490:.\Generated_Source\PSoC4/CyFlash.c ****             /* Restore HFCLK clock source */
 491:.\Generated_Source\PSoC4/CyFlash.c ****             CySysClkWriteHfclkDirect(cySysFlashBackup.clkSelectReg & CY_SYS_CLK_SELECT_DIRECT_SEL_M
 492:.\Generated_Source\PSoC4/CyFlash.c **** 
 493:.\Generated_Source\PSoC4/CyFlash.c ****             /* Restore HFCLK divider and source for pump  */
 494:.\Generated_Source\PSoC4/CyFlash.c ****             CY_SYS_CLK_SELECT_REG = cySysFlashBackup.clkSelectReg;
 495:.\Generated_Source\PSoC4/CyFlash.c **** 
 496:.\Generated_Source\PSoC4/CyFlash.c ****             /* Stop IMO if needed */
 497:.\Generated_Source\PSoC4/CyFlash.c ****             if (0u == cySysFlashBackup.clkImoEna)
 498:.\Generated_Source\PSoC4/CyFlash.c ****             {
 499:.\Generated_Source\PSoC4/CyFlash.c ****                 CySysClkImoStop();
 500:.\Generated_Source\PSoC4/CyFlash.c ****             }
 501:.\Generated_Source\PSoC4/CyFlash.c ****         }
 502:.\Generated_Source\PSoC4/CyFlash.c **** 
 503:.\Generated_Source\PSoC4/CyFlash.c ****     #else
 504:.\Generated_Source\PSoC4/CyFlash.c **** 
 505:.\Generated_Source\PSoC4/CyFlash.c ****         /* FM-Lite Clock Restore */
 506:.\Generated_Source\PSoC4/CyFlash.c ****         parameters[0u] = (uint32) ((CY_FLASH_KEY_TWO(CY_FLASH_API_OPCODE_CLK_RESTORE) <<  CY_FLASH_
 507:.\Generated_Source\PSoC4/CyFlash.c ****         parameters[1u] = (uint32) &cySysFlashBackup.clockSettings[0u];
 508:.\Generated_Source\PSoC4/CyFlash.c ****         CY_FLASH_CPUSS_SYSARG_REG = (uint32) &parameters[0u];
 509:.\Generated_Source\PSoC4/CyFlash.c ****         CY_FLASH_CPUSS_SYSREQ_REG = CY_FLASH_CPUSS_REQ_START | CY_FLASH_API_OPCODE_CLK_RESTORE;
 510:.\Generated_Source\PSoC4/CyFlash.c ****         retValue = CY_FLASH_API_RETURN;
 511:.\Generated_Source\PSoC4/CyFlash.c **** 
ARM GAS  C:\Users\Jarik\AppData\Local\Temp\ccb2seiw.s 			page 11


 512:.\Generated_Source\PSoC4/CyFlash.c ****     #endif  /* (CY_PSOC4_4000) */
 513:.\Generated_Source\PSoC4/CyFlash.c **** 
 514:.\Generated_Source\PSoC4/CyFlash.c **** #endif  /* (CY_IP_FM) */
 515:.\Generated_Source\PSoC4/CyFlash.c **** 
 516:.\Generated_Source\PSoC4/CyFlash.c ****     return (retValue);
 517:.\Generated_Source\PSoC4/CyFlash.c **** }
  60              		.loc 1 517 0
  61 0008 0020     		mov	r0, #0
  62              		@ sp needed
  63 000a 7047     		bx	lr
  64              	.L6:
  65              		.align	2
  66              	.L5:
  67 000c 00000000 		.word	.LANCHOR0
  68 0010 08010B40 		.word	1074462984
  69              		.cfi_endproc
  70              	.LFE3:
  71              		.size	CySysFlashClockRestore, .-CySysFlashClockRestore
  72              		.section	.text.CySysFlashWriteRow,"ax",%progbits
  73              		.align	2
  74              		.global	CySysFlashWriteRow
  75              		.code	16
  76              		.thumb_func
  77              		.type	CySysFlashWriteRow, %function
  78              	CySysFlashWriteRow:
  79              	.LFB0:
  74:.\Generated_Source\PSoC4/CyFlash.c ****     volatile uint32 retValue = CY_SYS_FLASH_SUCCESS;
  80              		.loc 1 74 0
  81              		.cfi_startproc
  82              	.LVL2:
  83 0000 F0B5     		push	{r4, r5, r6, r7, lr}
  84              		.cfi_def_cfa_offset 20
  85              		.cfi_offset 4, -20
  86              		.cfi_offset 5, -16
  87              		.cfi_offset 6, -12
  88              		.cfi_offset 7, -8
  89              		.cfi_offset 14, -4
  90 0002 C7B0     		sub	sp, sp, #284
  91              		.cfi_def_cfa_offset 304
  75:.\Generated_Source\PSoC4/CyFlash.c ****     volatile uint32 clkCnfRetValue = CY_SYS_FLASH_SUCCESS;
  92              		.loc 1 75 0
  93 0004 0023     		mov	r3, #0
  94 0006 4593     		str	r3, [sp, #276]
  76:.\Generated_Source\PSoC4/CyFlash.c ****     volatile uint32   parameters[(CY_FLASH_SIZEOF_ROW + CY_FLASH_SRAM_ROM_DATA)/4u];
  95              		.loc 1 76 0
  96 0008 4493     		str	r3, [sp, #272]
  97              	.LVL3:
  91:.\Generated_Source\PSoC4/CyFlash.c ****     {
  98              		.loc 1 91 0
  99 000a FF28     		cmp	r0, #255
 100 000c 00D9     		bls	.LCB72
 101 000e AFE0     		b	.L8	@long jump
 102              	.LCB72:
  91:.\Generated_Source\PSoC4/CyFlash.c ****     {
 103              		.loc 1 91 0 is_stmt 0 discriminator 1
 104 0010 0029     		cmp	r1, #0
 105 0012 00D1     		bne	.LCB74
ARM GAS  C:\Users\Jarik\AppData\Local\Temp\ccb2seiw.s 			page 12


 106 0014 ACE0     		b	.L8	@long jump
 107              	.LCB74:
 108 0016 0090     		str	r0, [sp]
  95:.\Generated_Source\PSoC4/CyFlash.c **** 
 109              		.loc 1 95 0 is_stmt 1
 110 0018 02A8     		add	r0, sp, #8
 111              	.LVL4:
 112 001a 8022     		mov	r2, #128
 113 001c FFF7FEFF 		bl	memcpy
 114              	.LVL5:
  97:.\Generated_Source\PSoC4/CyFlash.c ****             {
 115              		.loc 1 97 0
 116 0020 0023     		mov	r3, #0
  87:.\Generated_Source\PSoC4/CyFlash.c ****         uint32 i;
 117              		.loc 1 87 0
 118 0022 0020     		mov	r0, #0
  86:.\Generated_Source\PSoC4/CyFlash.c ****         uint32 bits = 0u;
 119              		.loc 1 86 0
 120 0024 0021     		mov	r1, #0
  84:.\Generated_Source\PSoC4/CyFlash.c ****         uint32 savedValue = 0u;
 121              		.loc 1 84 0
 122 0026 0024     		mov	r4, #0
  97:.\Generated_Source\PSoC4/CyFlash.c ****             {
 123              		.loc 1 97 0
 124 0028 08E0     		b	.L9
 125              	.LVL6:
 126              	.L11:
 127              	.LBB2:
  99:.\Generated_Source\PSoC4/CyFlash.c ****                 if (tmp != 0u)
 128              		.loc 1 99 0
 129 002a 9A00     		lsl	r2, r3, #2
 130 002c 02AD     		add	r5, sp, #8
 131 002e 5259     		ldr	r2, [r2, r5]
 132              	.LVL7:
 100:.\Generated_Source\PSoC4/CyFlash.c ****                 {
 133              		.loc 1 100 0
 134 0030 002A     		cmp	r2, #0
 135 0032 02D0     		beq	.L10
 102:.\Generated_Source\PSoC4/CyFlash.c ****                     bits |= tmp;
 136              		.loc 1 102 0
 137 0034 8918     		add	r1, r1, r2
 138              	.LVL8:
 103:.\Generated_Source\PSoC4/CyFlash.c ****                     savedIndex = i;
 139              		.loc 1 103 0
 140 0036 1043     		orr	r0, r2
 141              	.LVL9:
 104:.\Generated_Source\PSoC4/CyFlash.c ****                 }
 142              		.loc 1 104 0
 143 0038 1C1C     		mov	r4, r3
 144              	.LVL10:
 145              	.L10:
 146              	.LBE2:
  97:.\Generated_Source\PSoC4/CyFlash.c ****             {
 147              		.loc 1 97 0 discriminator 2
 148 003a 0133     		add	r3, r3, #1
 149              	.LVL11:
 150              	.L9:
ARM GAS  C:\Users\Jarik\AppData\Local\Temp\ccb2seiw.s 			page 13


  97:.\Generated_Source\PSoC4/CyFlash.c ****             {
 151              		.loc 1 97 0 is_stmt 0 discriminator 1
 152 003c 1F2B     		cmp	r3, #31
 153 003e F4D9     		bls	.L11
 108:.\Generated_Source\PSoC4/CyFlash.c ****             if (needChecksumWorkaround != 0u)
 154              		.loc 1 108 0 is_stmt 1
 155 0040 0029     		cmp	r1, #0
 156 0042 03D1     		bne	.L22
 108:.\Generated_Source\PSoC4/CyFlash.c ****             if (needChecksumWorkaround != 0u)
 157              		.loc 1 108 0 is_stmt 0 discriminator 1
 158 0044 0028     		cmp	r0, #0
 159 0046 03D1     		bne	.L23
 108:.\Generated_Source\PSoC4/CyFlash.c ****             if (needChecksumWorkaround != 0u)
 160              		.loc 1 108 0
 161 0048 0025     		mov	r5, #0
 162 004a 02E0     		b	.L12
 163              	.L22:
 164 004c 0025     		mov	r5, #0
 165 004e 00E0     		b	.L12
 166              	.L23:
 167 0050 0125     		mov	r5, #1
 168              	.L12:
 169              	.LVL12:
 109:.\Generated_Source\PSoC4/CyFlash.c ****             {
 170              		.loc 1 109 0 is_stmt 1 discriminator 6
 171 0052 002D     		cmp	r5, #0
 172 0054 06D0     		beq	.L24
 111:.\Generated_Source\PSoC4/CyFlash.c ****                 rowDataTmp[savedIndex] = 0u;
 173              		.loc 1 111 0
 174 0056 A300     		lsl	r3, r4, #2
 175              	.LVL13:
 176 0058 02AA     		add	r2, sp, #8
 177 005a 9F58     		ldr	r7, [r3, r2]
 178              	.LVL14:
 112:.\Generated_Source\PSoC4/CyFlash.c ****             }
 179              		.loc 1 112 0
 180 005c 0022     		mov	r2, #0
 181 005e 02A9     		add	r1, sp, #8
 182              	.LVL15:
 183 0060 5A50     		str	r2, [r3, r1]
 184 0062 00E0     		b	.L13
 185              	.LVL16:
 186              	.L24:
  85:.\Generated_Source\PSoC4/CyFlash.c ****         uint32 checksum = 0u;
 187              		.loc 1 85 0
 188 0064 0027     		mov	r7, #0
 189              	.LVL17:
 190              	.L13:
 117:.\Generated_Source\PSoC4/CyFlash.c ****                          (uint32) (CY_FLASH_PAGE_LATCH_START_ADDR             << CY_FLASH_PARAM_ADD
 191              		.loc 1 117 0
 192 0066 22AE     		add	r6, sp, #136
 193 0068 444B     		ldr	r3, .L26
 194 006a 2293     		str	r3, [sp, #136]
 121:.\Generated_Source\PSoC4/CyFlash.c ****     #if (CY_PSOC4_4000 || CY_PSOC4_4100 || CY_PSOC4_4200)
 195              		.loc 1 121 0
 196 006c 7F23     		mov	r3, #127
 197 006e 2393     		str	r3, [sp, #140]
ARM GAS  C:\Users\Jarik\AppData\Local\Temp\ccb2seiw.s 			page 14


 123:.\Generated_Source\PSoC4/CyFlash.c ****     #else
 198              		.loc 1 123 0
 199 0070 24A8     		add	r0, sp, #144
 200              	.LVL18:
 201 0072 02A9     		add	r1, sp, #8
 202 0074 8022     		mov	r2, #128
 203 0076 FFF7FEFF 		bl	memcpy
 204              	.LVL19:
 127:.\Generated_Source\PSoC4/CyFlash.c ****         CY_FLASH_CPUSS_SYSREQ_REG = CY_FLASH_CPUSS_REQ_START | CY_FLASH_API_OPCODE_LOAD;
 205              		.loc 1 127 0
 206 007a 414B     		ldr	r3, .L26+4
 207 007c 1E60     		str	r6, [r3]
 208              	.LVL20:
 128:.\Generated_Source\PSoC4/CyFlash.c ****         retValue = CY_FLASH_API_RETURN;
 209              		.loc 1 128 0
 210 007e 4149     		ldr	r1, .L26+8
 211 0080 414A     		ldr	r2, .L26+12
 212 0082 1160     		str	r1, [r2]
 129:.\Generated_Source\PSoC4/CyFlash.c **** 
 213              		.loc 1 129 0
 214 0084 1B68     		ldr	r3, [r3]
 215 0086 1B0F     		lsr	r3, r3, #28
 216 0088 0A2B     		cmp	r3, #10
 217 008a 04D0     		beq	.L25
 129:.\Generated_Source\PSoC4/CyFlash.c **** 
 218              		.loc 1 129 0 is_stmt 0 discriminator 1
 219 008c 3C4B     		ldr	r3, .L26+4
 220 008e 1B68     		ldr	r3, [r3]
 221 0090 0F22     		mov	r2, #15
 222 0092 1340     		and	r3, r2
 223 0094 00E0     		b	.L14
 224              	.L25:
 129:.\Generated_Source\PSoC4/CyFlash.c **** 
 225              		.loc 1 129 0
 226 0096 0023     		mov	r3, #0
 227              	.L14:
 129:.\Generated_Source\PSoC4/CyFlash.c **** 
 228              		.loc 1 129 0 discriminator 4
 229 0098 4593     		str	r3, [sp, #276]
 131:.\Generated_Source\PSoC4/CyFlash.c ****         {
 230              		.loc 1 131 0 is_stmt 1 discriminator 4
 231 009a 459B     		ldr	r3, [sp, #276]
 232 009c 002B     		cmp	r3, #0
 233 009e 69D1     		bne	.L15
 139:.\Generated_Source\PSoC4/CyFlash.c **** 
 234              		.loc 1 139 0
 235 00a0 FFF7FEFF 		bl	CyEnterCriticalSection
 236              	.LVL21:
 237 00a4 0190     		str	r0, [sp, #4]
 238              	.LVL22:
 141:.\Generated_Source\PSoC4/CyFlash.c **** 
 239              		.loc 1 141 0
 240 00a6 FFF7FEFF 		bl	CySysFlashClockBackup
 241              	.LVL23:
 242 00aa 4490     		str	r0, [sp, #272]
 150:.\Generated_Source\PSoC4/CyFlash.c ****             {
 243              		.loc 1 150 0
ARM GAS  C:\Users\Jarik\AppData\Local\Temp\ccb2seiw.s 			page 15


 244 00ac 459B     		ldr	r3, [sp, #276]
 245 00ae 002B     		cmp	r3, #0
 246 00b0 15D1     		bne	.L16
 153:.\Generated_Source\PSoC4/CyFlash.c ****                 parameters[0u] |= (uint32)(rowNum << 16u);
 247              		.loc 1 153 0
 248 00b2 364A     		ldr	r2, .L26+16
 249 00b4 2292     		str	r2, [sp, #136]
 154:.\Generated_Source\PSoC4/CyFlash.c **** 
 250              		.loc 1 154 0
 251 00b6 2299     		ldr	r1, [sp, #136]
 252 00b8 009A     		ldr	r2, [sp]
 253 00ba 1204     		lsl	r2, r2, #16
 254 00bc 0A43     		orr	r2, r1
 255 00be 2292     		str	r2, [sp, #136]
 156:.\Generated_Source\PSoC4/CyFlash.c ****                 CY_FLASH_CPUSS_SYSREQ_REG = CY_FLASH_CPUSS_REQ_START | CY_FLASH_API_OPCODE_WRITE_RO
 256              		.loc 1 156 0
 257 00c0 2F4A     		ldr	r2, .L26+4
 258 00c2 22A9     		add	r1, sp, #136
 259 00c4 1160     		str	r1, [r2]
 260              	.LVL24:
 157:.\Generated_Source\PSoC4/CyFlash.c ****                 retValue = CY_FLASH_API_RETURN;
 261              		.loc 1 157 0
 262 00c6 3248     		ldr	r0, .L26+20
 263 00c8 2F49     		ldr	r1, .L26+12
 264 00ca 0860     		str	r0, [r1]
 158:.\Generated_Source\PSoC4/CyFlash.c ****             }
 265              		.loc 1 158 0
 266 00cc 1268     		ldr	r2, [r2]
 267 00ce 120F     		lsr	r2, r2, #28
 268 00d0 0A2A     		cmp	r2, #10
 269 00d2 03D0     		beq	.L17
 158:.\Generated_Source\PSoC4/CyFlash.c ****             }
 270              		.loc 1 158 0 is_stmt 0 discriminator 1
 271 00d4 2A4B     		ldr	r3, .L26+4
 272 00d6 1B68     		ldr	r3, [r3]
 273 00d8 0F22     		mov	r2, #15
 274 00da 1340     		and	r3, r2
 275              	.L17:
 158:.\Generated_Source\PSoC4/CyFlash.c ****             }
 276              		.loc 1 158 0 discriminator 4
 277 00dc 4593     		str	r3, [sp, #276]
 278              	.L16:
 163:.\Generated_Source\PSoC4/CyFlash.c ****                 {
 279              		.loc 1 163 0 is_stmt 1
 280 00de 459E     		ldr	r6, [sp, #276]
 281 00e0 002E     		cmp	r6, #0
 282 00e2 3BD1     		bne	.L18
 163:.\Generated_Source\PSoC4/CyFlash.c ****                 {
 283              		.loc 1 163 0 is_stmt 0 discriminator 1
 284 00e4 002D     		cmp	r5, #0
 285 00e6 39D0     		beq	.L18
 165:.\Generated_Source\PSoC4/CyFlash.c ****                     rowDataTmp[savedIndex] = savedValue;
 286              		.loc 1 165 0 is_stmt 1
 287 00e8 02A8     		add	r0, sp, #8
 288 00ea 0021     		mov	r1, #0
 289 00ec 8022     		mov	r2, #128
 290 00ee FFF7FEFF 		bl	memset
ARM GAS  C:\Users\Jarik\AppData\Local\Temp\ccb2seiw.s 			page 16


 291              	.LVL25:
 166:.\Generated_Source\PSoC4/CyFlash.c **** 
 292              		.loc 1 166 0
 293 00f2 A400     		lsl	r4, r4, #2
 294              	.LVL26:
 295 00f4 02AB     		add	r3, sp, #8
 296 00f6 E750     		str	r7, [r4, r3]
 169:.\Generated_Source\PSoC4/CyFlash.c ****                                      (uint32) (CY_FLASH_PAGE_LATCH_START_ADDR             << CY_FLA
 297              		.loc 1 169 0
 298 00f8 22AC     		add	r4, sp, #136
 299 00fa 204B     		ldr	r3, .L26
 300 00fc 2293     		str	r3, [sp, #136]
 173:.\Generated_Source\PSoC4/CyFlash.c ****                     (void)memcpy((void *)&parameters[2u], rowDataTmp, CY_FLASH_SIZEOF_ROW);
 301              		.loc 1 173 0
 302 00fe 7F23     		mov	r3, #127
 303 0100 2393     		str	r3, [sp, #140]
 174:.\Generated_Source\PSoC4/CyFlash.c ****                     CY_FLASH_CPUSS_SYSARG_REG = (uint32) &parameters[0u];
 304              		.loc 1 174 0
 305 0102 24A8     		add	r0, sp, #144
 306 0104 02A9     		add	r1, sp, #8
 307 0106 8022     		mov	r2, #128
 308 0108 FFF7FEFF 		bl	memcpy
 309              	.LVL27:
 175:.\Generated_Source\PSoC4/CyFlash.c ****                     CY_FLASH_CPUSS_SYSREQ_REG = CY_FLASH_CPUSS_REQ_START | CY_FLASH_API_OPCODE_LOAD
 310              		.loc 1 175 0
 311 010c 1C4B     		ldr	r3, .L26+4
 312 010e 1C60     		str	r4, [r3]
 176:.\Generated_Source\PSoC4/CyFlash.c ****                     retValue = CY_FLASH_API_RETURN;
 313              		.loc 1 176 0
 314 0110 1C49     		ldr	r1, .L26+8
 315 0112 1D4A     		ldr	r2, .L26+12
 316 0114 1160     		str	r1, [r2]
 177:.\Generated_Source\PSoC4/CyFlash.c **** 
 317              		.loc 1 177 0
 318 0116 1B68     		ldr	r3, [r3]
 319 0118 1B0F     		lsr	r3, r3, #28
 320 011a 0A2B     		cmp	r3, #10
 321 011c 04D0     		beq	.L19
 177:.\Generated_Source\PSoC4/CyFlash.c **** 
 322              		.loc 1 177 0 is_stmt 0 discriminator 1
 323 011e 184B     		ldr	r3, .L26+4
 324 0120 1B68     		ldr	r3, [r3]
 325 0122 0F22     		mov	r2, #15
 326 0124 1A40     		and	r2, r3
 327 0126 161C     		mov	r6, r2
 328              	.L19:
 177:.\Generated_Source\PSoC4/CyFlash.c **** 
 329              		.loc 1 177 0 discriminator 4
 330 0128 4596     		str	r6, [sp, #276]
 180:.\Generated_Source\PSoC4/CyFlash.c ****                     {
 331              		.loc 1 180 0 is_stmt 1 discriminator 4
 332 012a 459B     		ldr	r3, [sp, #276]
 333 012c 002B     		cmp	r3, #0
 334 012e 15D1     		bne	.L18
 183:.\Generated_Source\PSoC4/CyFlash.c ****                         parameters[0u] |= (uint32)(rowNum << 16u);
 335              		.loc 1 183 0
 336 0130 184A     		ldr	r2, .L26+24
ARM GAS  C:\Users\Jarik\AppData\Local\Temp\ccb2seiw.s 			page 17


 337 0132 2292     		str	r2, [sp, #136]
 184:.\Generated_Source\PSoC4/CyFlash.c **** 
 338              		.loc 1 184 0
 339 0134 229A     		ldr	r2, [sp, #136]
 340 0136 0099     		ldr	r1, [sp]
 341 0138 0D04     		lsl	r5, r1, #16
 342              	.LVL28:
 343 013a 1543     		orr	r5, r2
 344 013c 2295     		str	r5, [sp, #136]
 186:.\Generated_Source\PSoC4/CyFlash.c ****                         CY_FLASH_CPUSS_SYSREQ_REG = CY_FLASH_CPUSS_REQ_START | CY_FLASH_API_OPCODE_
 345              		.loc 1 186 0
 346 013e 104A     		ldr	r2, .L26+4
 347 0140 22A9     		add	r1, sp, #136
 348 0142 1160     		str	r1, [r2]
 187:.\Generated_Source\PSoC4/CyFlash.c ****                         retValue = CY_FLASH_API_RETURN;
 349              		.loc 1 187 0
 350 0144 1448     		ldr	r0, .L26+28
 351 0146 1049     		ldr	r1, .L26+12
 352 0148 0860     		str	r0, [r1]
 188:.\Generated_Source\PSoC4/CyFlash.c ****                     }
 353              		.loc 1 188 0
 354 014a 1268     		ldr	r2, [r2]
 355 014c 120F     		lsr	r2, r2, #28
 356 014e 0A2A     		cmp	r2, #10
 357 0150 03D0     		beq	.L20
 188:.\Generated_Source\PSoC4/CyFlash.c ****                     }
 358              		.loc 1 188 0 is_stmt 0 discriminator 1
 359 0152 0B4B     		ldr	r3, .L26+4
 360 0154 1B68     		ldr	r3, [r3]
 361 0156 0F22     		mov	r2, #15
 362 0158 1340     		and	r3, r2
 363              	.L20:
 188:.\Generated_Source\PSoC4/CyFlash.c ****                     }
 364              		.loc 1 188 0 discriminator 4
 365 015a 4593     		str	r3, [sp, #276]
 366              	.L18:
 193:.\Generated_Source\PSoC4/CyFlash.c ****             {
 367              		.loc 1 193 0 is_stmt 1
 368 015c 449B     		ldr	r3, [sp, #272]
 369 015e 002B     		cmp	r3, #0
 370 0160 02D1     		bne	.L21
 195:.\Generated_Source\PSoC4/CyFlash.c ****             }
 371              		.loc 1 195 0
 372 0162 FFF7FEFF 		bl	CySysFlashClockRestore
 373              	.LVL29:
 374 0166 4490     		str	r0, [sp, #272]
 375              	.L21:
 198:.\Generated_Source\PSoC4/CyFlash.c ****         }
 376              		.loc 1 198 0
 377 0168 0198     		ldr	r0, [sp, #4]
 378 016a FFF7FEFF 		bl	CyExitCriticalSection
 379              	.LVL30:
 380 016e 01E0     		b	.L15
 381              	.LVL31:
 382              	.L8:
 203:.\Generated_Source\PSoC4/CyFlash.c ****     }
 383              		.loc 1 203 0
ARM GAS  C:\Users\Jarik\AppData\Local\Temp\ccb2seiw.s 			page 18


 384 0170 0423     		mov	r3, #4
 385 0172 4593     		str	r3, [sp, #276]
 386              	.LVL32:
 387              	.L15:
 206:.\Generated_Source\PSoC4/CyFlash.c **** }
 388              		.loc 1 206 0
 389 0174 4598     		ldr	r0, [sp, #276]
 207:.\Generated_Source\PSoC4/CyFlash.c **** 
 390              		.loc 1 207 0
 391 0176 47B0     		add	sp, sp, #284
 392              		@ sp needed
 393 0178 F0BD     		pop	{r4, r5, r6, r7, pc}
 394              	.L27:
 395 017a C046     		.align	2
 396              	.L26:
 397 017c B6D70000 		.word	55222
 398 0180 08000040 		.word	1073741832
 399 0184 04000080 		.word	-2147483644
 400 0188 04000040 		.word	1073741828
 401 018c B6D80000 		.word	55478
 402 0190 05000080 		.word	-2147483643
 403 0194 B6D90000 		.word	55734
 404 0198 06000080 		.word	-2147483642
 405              		.cfi_endproc
 406              	.LFE0:
 407              		.size	CySysFlashWriteRow, .-CySysFlashWriteRow
 408              		.section	.text.CySysFlashSetWaitCycles,"ax",%progbits
 409              		.align	2
 410              		.global	CySysFlashSetWaitCycles
 411              		.code	16
 412              		.thumb_func
 413              		.type	CySysFlashSetWaitCycles, %function
 414              	CySysFlashSetWaitCycles:
 415              	.LFB1:
 233:.\Generated_Source\PSoC4/CyFlash.c ****     uint8  interruptState;
 416              		.loc 1 233 0
 417              		.cfi_startproc
 418              	.LVL33:
 419 0000 10B5     		push	{r4, lr}
 420              		.cfi_def_cfa_offset 8
 421              		.cfi_offset 4, -8
 422              		.cfi_offset 14, -4
 423 0002 041C     		mov	r4, r0
 238:.\Generated_Source\PSoC4/CyFlash.c **** 
 424              		.loc 1 238 0
 425 0004 FFF7FEFF 		bl	CyEnterCriticalSection
 426              	.LVL34:
 240:.\Generated_Source\PSoC4/CyFlash.c ****         {
 427              		.loc 1 240 0
 428 0008 182C     		cmp	r4, #24
 429 000a 05D8     		bhi	.L29
 242:.\Generated_Source\PSoC4/CyFlash.c ****         }
 430              		.loc 1 242 0
 431 000c 074A     		ldr	r2, .L31
 432 000e 1168     		ldr	r1, [r2]
 433 0010 074B     		ldr	r3, .L31+4
 434 0012 0B40     		and	r3, r1
ARM GAS  C:\Users\Jarik\AppData\Local\Temp\ccb2seiw.s 			page 19


 435 0014 1360     		str	r3, [r2]
 436 0016 05E0     		b	.L30
 437              	.L29:
 246:.\Generated_Source\PSoC4/CyFlash.c ****         }
 438              		.loc 1 246 0
 439 0018 044A     		ldr	r2, .L31
 440 001a 1368     		ldr	r3, [r2]
 441 001c 8021     		mov	r1, #128
 442 001e C902     		lsl	r1, r1, #11
 443 0020 0B43     		orr	r3, r1
 444 0022 1360     		str	r3, [r2]
 445              	.L30:
 249:.\Generated_Source\PSoC4/CyFlash.c **** 
 446              		.loc 1 249 0
 447 0024 FFF7FEFF 		bl	CyExitCriticalSection
 448              	.LVL35:
 277:.\Generated_Source\PSoC4/CyFlash.c **** 
 449              		.loc 1 277 0
 450              		@ sp needed
 451              	.LVL36:
 452 0028 10BD     		pop	{r4, pc}
 453              	.L32:
 454 002a C046     		.align	2
 455              	.L31:
 456 002c 00010B40 		.word	1074462976
 457 0030 FFFFFBFF 		.word	-262145
 458              		.cfi_endproc
 459              	.LFE1:
 460              		.size	CySysFlashSetWaitCycles, .-CySysFlashSetWaitCycles
 461              		.bss
 462              		.align	2
 463              		.set	.LANCHOR0,. + 0
 464              		.type	cySysFlashBackup, %object
 465              		.size	cySysFlashBackup, 4
 466              	cySysFlashBackup:
 467 0000 00000000 		.space	4
 468              		.text
 469              	.Letext0:
 470              		.file 2 ".\\Generated_Source\\PSoC4\\cytypes.h"
 471              		.file 3 ".\\Generated_Source\\PSoC4\\CyFlash.h"
 472              		.file 4 ".\\Generated_Source\\PSoC4\\CyLib.h"