ARM GAS  C:\Users\Jarik\AppData\Local\Temp\ccuZrN4M.s 			page 1


   1              		.cpu cortex-m0
   2              		.fpu softvfp
   3              		.eabi_attribute 20, 1
   4              		.eabi_attribute 21, 1
   5              		.eabi_attribute 23, 3
   6              		.eabi_attribute 24, 1
   7              		.eabi_attribute 25, 1
   8              		.eabi_attribute 26, 1
   9              		.eabi_attribute 30, 1
  10              		.eabi_attribute 34, 0
  11              		.eabi_attribute 18, 4
  12              		.code	16
  13              		.file	"sdmm.c"
  14              		.text
  15              	.Ltext0:
  16              		.cfi_sections	.debug_frame
  17              		.section	.text.rcvr_mmc,"ax",%progbits
  18              		.align	2
  19              		.code	16
  20              		.thumb_func
  21              		.type	rcvr_mmc, %function
  22              	rcvr_mmc:
  23              	.LFB34:
  24              		.file 1 ".\\sd\\sdmm.c"
   1:.\sd/sdmm.c   **** /*------------------------------------------------------------------------/
   2:.\sd/sdmm.c   **** /  Foolproof MMCv3/SDv1/SDv2 (in SPI mode) control module
   3:.\sd/sdmm.c   **** /-------------------------------------------------------------------------/
   4:.\sd/sdmm.c   **** /
   5:.\sd/sdmm.c   **** /  Copyright (C) 2013, ChaN, all right reserved.
   6:.\sd/sdmm.c   **** /
   7:.\sd/sdmm.c   **** / * This software is a free software and there is NO WARRANTY.
   8:.\sd/sdmm.c   **** / * No restriction on use. You can use, modify and redistribute it for
   9:.\sd/sdmm.c   **** /   personal, non-profit or commercial products UNDER YOUR RESPONSIBILITY.
  10:.\sd/sdmm.c   **** / * Redistributions of source code must retain the above copyright notice.
  11:.\sd/sdmm.c   **** /
  12:.\sd/sdmm.c   **** /-------------------------------------------------------------------------/
  13:.\sd/sdmm.c   ****   Features and Limitations:
  14:.\sd/sdmm.c   **** 
  15:.\sd/sdmm.c   ****  
  16:.\sd/sdmm.c   **** 
  17:.\sd/sdmm.c   **** /-------------------------------------------------------------------------*/
  18:.\sd/sdmm.c   **** 
  19:.\sd/sdmm.c   **** 
  20:.\sd/sdmm.c   **** #include "sd/diskio.h"		/* Common include file for FatFs and disk I/O layer */
  21:.\sd/sdmm.c   **** #include "sd/SPI_routines.h"
  22:.\sd/sdmm.c   **** #include <project.h>
  23:.\sd/sdmm.c   **** 
  24:.\sd/sdmm.c   **** /*-------------------------------------------------------------------------*/
  25:.\sd/sdmm.c   **** /* Platform dependent macros and functions needed to be modified           */
  26:.\sd/sdmm.c   **** /*-------------------------------------------------------------------------*/
  27:.\sd/sdmm.c   **** 
  28:.\sd/sdmm.c   **** 
  29:.\sd/sdmm.c   **** 
  30:.\sd/sdmm.c   **** 
  31:.\sd/sdmm.c   **** 
  32:.\sd/sdmm.c   **** /*--------------------------------------------------------------------------
  33:.\sd/sdmm.c   **** 
ARM GAS  C:\Users\Jarik\AppData\Local\Temp\ccuZrN4M.s 			page 2


  34:.\sd/sdmm.c   ****    Module Private Functions
  35:.\sd/sdmm.c   **** 
  36:.\sd/sdmm.c   **** ---------------------------------------------------------------------------*/
  37:.\sd/sdmm.c   **** 
  38:.\sd/sdmm.c   **** /* MMC/SD command (SPI mode) */
  39:.\sd/sdmm.c   **** #define CMD0	(0)			/* GO_IDLE_STATE */
  40:.\sd/sdmm.c   **** #define CMD1	(1)			/* SEND_OP_COND */
  41:.\sd/sdmm.c   **** #define	ACMD41	(0x80+41)	/* SEND_OP_COND (SDC) */
  42:.\sd/sdmm.c   **** #define CMD8	(8)			/* SEND_IF_COND */
  43:.\sd/sdmm.c   **** #define CMD9	(9)			/* SEND_CSD */
  44:.\sd/sdmm.c   **** #define CMD10	(10)		/* SEND_CID */
  45:.\sd/sdmm.c   **** #define CMD12	(12)		/* STOP_TRANSMISSION */
  46:.\sd/sdmm.c   **** #define CMD13	(13)		/* SEND_STATUS */
  47:.\sd/sdmm.c   **** #define ACMD13	(0x80+13)	/* SD_STATUS (SDC) */
  48:.\sd/sdmm.c   **** #define CMD16	(16)		/* SET_BLOCKLEN */
  49:.\sd/sdmm.c   **** #define CMD17	(17)		/* READ_SINGLE_BLOCK */
  50:.\sd/sdmm.c   **** #define CMD18	(18)		/* READ_MULTIPLE_BLOCK */
  51:.\sd/sdmm.c   **** #define CMD23	(23)		/* SET_BLOCK_COUNT */
  52:.\sd/sdmm.c   **** #define	ACMD23	(0x80+23)	/* SET_WR_BLK_ERASE_COUNT (SDC) */
  53:.\sd/sdmm.c   **** #define CMD24	(24)		/* WRITE_BLOCK */
  54:.\sd/sdmm.c   **** #define CMD25	(25)		/* WRITE_MULTIPLE_BLOCK */
  55:.\sd/sdmm.c   **** #define CMD32	(32)		/* ERASE_ER_BLK_START */
  56:.\sd/sdmm.c   **** #define CMD33	(33)		/* ERASE_ER_BLK_END */
  57:.\sd/sdmm.c   **** #define CMD38	(38)		/* ERASE */
  58:.\sd/sdmm.c   **** #define CMD55	(55)		/* APP_CMD */
  59:.\sd/sdmm.c   **** #define CMD58	(58)		/* READ_OCR */
  60:.\sd/sdmm.c   **** 
  61:.\sd/sdmm.c   **** #define CS_L SPI_CS_Write(0)
  62:.\sd/sdmm.c   **** #define CS_H SPI_CS_Write(1)
  63:.\sd/sdmm.c   **** #define dly_us(T) CyDelayUs(T)
  64:.\sd/sdmm.c   **** 
  65:.\sd/sdmm.c   **** 
  66:.\sd/sdmm.c   **** 
  67:.\sd/sdmm.c   **** static
  68:.\sd/sdmm.c   **** DSTATUS Stat = STA_NOINIT;	/* Disk status */
  69:.\sd/sdmm.c   **** 
  70:.\sd/sdmm.c   **** static
  71:.\sd/sdmm.c   **** BYTE CardType;			/* b0:MMC, b1:SDv1, b2:SDv2, b3:Block addressing */
  72:.\sd/sdmm.c   **** 
  73:.\sd/sdmm.c   **** 
  74:.\sd/sdmm.c   **** 
  75:.\sd/sdmm.c   **** /*-----------------------------------------------------------------------*/
  76:.\sd/sdmm.c   **** /* Transmit bytes to the card (bitbanging)                               */
  77:.\sd/sdmm.c   **** /*-----------------------------------------------------------------------*/
  78:.\sd/sdmm.c   **** 
  79:.\sd/sdmm.c   **** static
  80:.\sd/sdmm.c   **** void xmit_mmc (
  81:.\sd/sdmm.c   **** 	const BYTE* buff,	/* Data to be sent */
  82:.\sd/sdmm.c   **** 	UINT bc				/* Number of bytes to send */
  83:.\sd/sdmm.c   **** )
  84:.\sd/sdmm.c   **** {
  85:.\sd/sdmm.c   **** 	BYTE d;
  86:.\sd/sdmm.c   **** 
  87:.\sd/sdmm.c   **** 
  88:.\sd/sdmm.c   **** 	do {
  89:.\sd/sdmm.c   **** 		d = *buff++;	/* Get a byte to be sent */
  90:.\sd/sdmm.c   **** 		SPI_transmit(d);
ARM GAS  C:\Users\Jarik\AppData\Local\Temp\ccuZrN4M.s 			page 3


  91:.\sd/sdmm.c   **** 	} while (--bc);
  92:.\sd/sdmm.c   **** }
  93:.\sd/sdmm.c   **** 
  94:.\sd/sdmm.c   **** 
  95:.\sd/sdmm.c   **** 
  96:.\sd/sdmm.c   **** /*-----------------------------------------------------------------------*/
  97:.\sd/sdmm.c   **** /* Receive bytes from the card (bitbanging)                              */
  98:.\sd/sdmm.c   **** /*-----------------------------------------------------------------------*/
  99:.\sd/sdmm.c   **** 
 100:.\sd/sdmm.c   **** static
 101:.\sd/sdmm.c   **** void rcvr_mmc (
 102:.\sd/sdmm.c   **** 	BYTE *buff,	/* Pointer to read buffer */
 103:.\sd/sdmm.c   **** 	UINT bc		/* Number of bytes to receive */
 104:.\sd/sdmm.c   **** )
 105:.\sd/sdmm.c   **** {
  25              		.loc 1 105 0
  26              		.cfi_startproc
  27              	.LVL0:
  28 0000 38B5     		push	{r3, r4, r5, lr}
  29              		.cfi_def_cfa_offset 16
  30              		.cfi_offset 3, -16
  31              		.cfi_offset 4, -12
  32              		.cfi_offset 5, -8
  33              		.cfi_offset 14, -4
  34 0002 051C     		mov	r5, r0
  35 0004 0C1C     		mov	r4, r1
  36              	.LVL1:
  37              	.L2:
 106:.\sd/sdmm.c   **** 	BYTE r;
 107:.\sd/sdmm.c   **** 
 108:.\sd/sdmm.c   **** 
 109:.\sd/sdmm.c   **** 	
 110:.\sd/sdmm.c   **** 
 111:.\sd/sdmm.c   **** 	do {
 112:.\sd/sdmm.c   **** 		r= SPI_receive();
  38              		.loc 1 112 0 discriminator 1
  39 0006 FFF7FEFF 		bl	SPI_receive
  40              	.LVL2:
 113:.\sd/sdmm.c   **** 		*buff++ = r;			/* Store a received byte */
  41              		.loc 1 113 0 discriminator 1
  42 000a 2870     		strb	r0, [r5]
 114:.\sd/sdmm.c   **** 	} while (--bc);
  43              		.loc 1 114 0 discriminator 1
  44 000c 013C     		sub	r4, r4, #1
  45              	.LVL3:
 113:.\sd/sdmm.c   **** 		*buff++ = r;			/* Store a received byte */
  46              		.loc 1 113 0 discriminator 1
  47 000e 0135     		add	r5, r5, #1
  48              	.LVL4:
  49              		.loc 1 114 0 discriminator 1
  50 0010 002C     		cmp	r4, #0
  51 0012 F8D1     		bne	.L2
 115:.\sd/sdmm.c   **** }
  52              		.loc 1 115 0
  53              		@ sp needed
  54              	.LVL5:
  55              	.LVL6:
ARM GAS  C:\Users\Jarik\AppData\Local\Temp\ccuZrN4M.s 			page 4


  56 0014 38BD     		pop	{r3, r4, r5, pc}
  57              		.cfi_endproc
  58              	.LFE34:
  59              		.size	rcvr_mmc, .-rcvr_mmc
  60 0016 C046     		.section	.text.wait_ready,"ax",%progbits
  61              		.align	2
  62              		.code	16
  63              		.thumb_func
  64              		.type	wait_ready, %function
  65              	wait_ready:
  66              	.LFB35:
 116:.\sd/sdmm.c   **** 
 117:.\sd/sdmm.c   **** 
 118:.\sd/sdmm.c   **** 
 119:.\sd/sdmm.c   **** /*-----------------------------------------------------------------------*/
 120:.\sd/sdmm.c   **** /* Wait for card ready                                                   */
 121:.\sd/sdmm.c   **** /*-----------------------------------------------------------------------*/
 122:.\sd/sdmm.c   **** 
 123:.\sd/sdmm.c   **** static
 124:.\sd/sdmm.c   **** int wait_ready (void)	/* 1:OK, 0:Timeout */
 125:.\sd/sdmm.c   **** {
  67              		.loc 1 125 0
  68              		.cfi_startproc
  69 0000 30B5     		push	{r4, r5, lr}
  70              		.cfi_def_cfa_offset 12
  71              		.cfi_offset 4, -12
  72              		.cfi_offset 5, -8
  73              		.cfi_offset 14, -4
  74 0002 83B0     		sub	sp, sp, #12
  75              		.cfi_def_cfa_offset 24
  76              	.LVL7:
 126:.\sd/sdmm.c   **** 	BYTE d;
 127:.\sd/sdmm.c   **** 	UINT tmr;
 128:.\sd/sdmm.c   **** 
 129:.\sd/sdmm.c   **** 
 130:.\sd/sdmm.c   **** 	for (tmr = 5000; tmr; tmr--) {	/* Wait for ready in timeout of 500ms */
  77              		.loc 1 130 0
  78 0004 0A4C     		ldr	r4, .L7
  79 0006 0CE0     		b	.L4
  80              	.LVL8:
  81              	.L6:
 131:.\sd/sdmm.c   **** 		rcvr_mmc(&d, 1);
  82              		.loc 1 131 0
  83 0008 6B46     		mov	r3, sp
  84 000a DD1D     		add	r5, r3, #7
  85 000c 281C     		mov	r0, r5
  86 000e 0121     		mov	r1, #1
  87 0010 FFF7FEFF 		bl	rcvr_mmc
  88              	.LVL9:
 132:.\sd/sdmm.c   **** 		if (d == 0xFF) break;
  89              		.loc 1 132 0
  90 0014 2B78     		ldrb	r3, [r5]
  91 0016 FF2B     		cmp	r3, #255
  92 0018 05D0     		beq	.L5
 133:.\sd/sdmm.c   **** 		dly_us(100);
  93              		.loc 1 133 0 discriminator 2
  94 001a 6420     		mov	r0, #100
ARM GAS  C:\Users\Jarik\AppData\Local\Temp\ccuZrN4M.s 			page 5


  95 001c FFF7FEFF 		bl	CyDelayUs
  96              	.LVL10:
 130:.\sd/sdmm.c   **** 		rcvr_mmc(&d, 1);
  97              		.loc 1 130 0 discriminator 2
  98 0020 013C     		sub	r4, r4, #1
  99              	.LVL11:
 100              	.L4:
 130:.\sd/sdmm.c   **** 		rcvr_mmc(&d, 1);
 101              		.loc 1 130 0 is_stmt 0 discriminator 1
 102 0022 002C     		cmp	r4, #0
 103 0024 F0D1     		bne	.L6
 104              	.L5:
 134:.\sd/sdmm.c   **** 	}
 135:.\sd/sdmm.c   **** 
 136:.\sd/sdmm.c   **** 	return tmr ? 1 : 0;
 105              		.loc 1 136 0 is_stmt 1
 106 0026 601E     		sub	r0, r4, #1
 107 0028 8441     		sbc	r4, r4, r0
 108              	.LVL12:
 109 002a E0B2     		uxtb	r0, r4
 137:.\sd/sdmm.c   **** }
 110              		.loc 1 137 0
 111 002c 03B0     		add	sp, sp, #12
 112              		@ sp needed
 113 002e 30BD     		pop	{r4, r5, pc}
 114              	.L8:
 115              		.align	2
 116              	.L7:
 117 0030 88130000 		.word	5000
 118              		.cfi_endproc
 119              	.LFE35:
 120              		.size	wait_ready, .-wait_ready
 121              		.section	.text.rcvr_datablock,"ax",%progbits
 122              		.align	2
 123              		.code	16
 124              		.thumb_func
 125              		.type	rcvr_datablock, %function
 126              	rcvr_datablock:
 127              	.LFB38:
 138:.\sd/sdmm.c   **** 
 139:.\sd/sdmm.c   **** 
 140:.\sd/sdmm.c   **** 
 141:.\sd/sdmm.c   **** /*-----------------------------------------------------------------------*/
 142:.\sd/sdmm.c   **** /* Deselect the card and release SPI bus                                 */
 143:.\sd/sdmm.c   **** /*-----------------------------------------------------------------------*/
 144:.\sd/sdmm.c   **** 
 145:.\sd/sdmm.c   **** static
 146:.\sd/sdmm.c   **** void deselect (void)
 147:.\sd/sdmm.c   **** {
 148:.\sd/sdmm.c   **** 	BYTE d;
 149:.\sd/sdmm.c   **** 
 150:.\sd/sdmm.c   **** 	CS_H;				/* Set CS# high */
 151:.\sd/sdmm.c   **** 	rcvr_mmc(&d, 1);	/* Dummy clock (force DO hi-z for multiple slave SPI) */
 152:.\sd/sdmm.c   **** }
 153:.\sd/sdmm.c   **** 
 154:.\sd/sdmm.c   **** 
 155:.\sd/sdmm.c   **** 
ARM GAS  C:\Users\Jarik\AppData\Local\Temp\ccuZrN4M.s 			page 6


 156:.\sd/sdmm.c   **** /*-----------------------------------------------------------------------*/
 157:.\sd/sdmm.c   **** /* Select the card and wait for ready                                    */
 158:.\sd/sdmm.c   **** /*-----------------------------------------------------------------------*/
 159:.\sd/sdmm.c   **** 
 160:.\sd/sdmm.c   **** static
 161:.\sd/sdmm.c   **** int select (void)	/* 1:OK, 0:Timeout */
 162:.\sd/sdmm.c   **** {
 163:.\sd/sdmm.c   **** 	BYTE d;
 164:.\sd/sdmm.c   **** 
 165:.\sd/sdmm.c   **** 	CS_L;				/* Set CS# low */
 166:.\sd/sdmm.c   **** 	rcvr_mmc(&d, 1);	/* Dummy clock (force DO enabled) */
 167:.\sd/sdmm.c   **** 	if (wait_ready()) return 1;	/* Wait for card ready */
 168:.\sd/sdmm.c   **** 
 169:.\sd/sdmm.c   **** 	deselect();
 170:.\sd/sdmm.c   **** 	return 0;			/* Failed */
 171:.\sd/sdmm.c   **** }
 172:.\sd/sdmm.c   **** 
 173:.\sd/sdmm.c   **** 
 174:.\sd/sdmm.c   **** 
 175:.\sd/sdmm.c   **** /*-----------------------------------------------------------------------*/
 176:.\sd/sdmm.c   **** /* Receive a data packet from the card                                   */
 177:.\sd/sdmm.c   **** /*-----------------------------------------------------------------------*/
 178:.\sd/sdmm.c   **** 
 179:.\sd/sdmm.c   **** static
 180:.\sd/sdmm.c   **** int rcvr_datablock (	/* 1:OK, 0:Failed */
 181:.\sd/sdmm.c   **** 	BYTE *buff,			/* Data buffer to store received data */
 182:.\sd/sdmm.c   **** 	UINT btr			/* Byte count */
 183:.\sd/sdmm.c   **** )
 184:.\sd/sdmm.c   **** {
 128              		.loc 1 184 0
 129              		.cfi_startproc
 130              	.LVL13:
 131 0000 F0B5     		push	{r4, r5, r6, r7, lr}
 132              		.cfi_def_cfa_offset 20
 133              		.cfi_offset 4, -20
 134              		.cfi_offset 5, -16
 135              		.cfi_offset 6, -12
 136              		.cfi_offset 7, -8
 137              		.cfi_offset 14, -4
 138 0002 83B0     		sub	sp, sp, #12
 139              		.cfi_def_cfa_offset 32
 140 0004 071C     		mov	r7, r0
 141 0006 0E1C     		mov	r6, r1
 142              	.LVL14:
 185:.\sd/sdmm.c   **** 	BYTE d[2];
 186:.\sd/sdmm.c   **** 	UINT tmr;
 187:.\sd/sdmm.c   **** 
 188:.\sd/sdmm.c   **** 
 189:.\sd/sdmm.c   **** 	for (tmr = 1000; tmr; tmr--) {	/* Wait for data packet in timeout of 100ms */
 143              		.loc 1 189 0
 144 0008 FA25     		mov	r5, #250
 145 000a AD00     		lsl	r5, r5, #2
 146 000c 0BE0     		b	.L10
 147              	.LVL15:
 148              	.L12:
 190:.\sd/sdmm.c   **** 		rcvr_mmc(d, 1);
 149              		.loc 1 190 0
ARM GAS  C:\Users\Jarik\AppData\Local\Temp\ccuZrN4M.s 			page 7


 150 000e 01AC     		add	r4, sp, #4
 151 0010 201C     		mov	r0, r4
 152 0012 0121     		mov	r1, #1
 153 0014 FFF7FEFF 		bl	rcvr_mmc
 154              	.LVL16:
 191:.\sd/sdmm.c   **** 		if (d[0] != 0xFF) break;
 155              		.loc 1 191 0
 156 0018 2378     		ldrb	r3, [r4]
 157 001a FF2B     		cmp	r3, #255
 158 001c 05D1     		bne	.L11
 192:.\sd/sdmm.c   **** 		dly_us(100);
 159              		.loc 1 192 0 discriminator 2
 160 001e 6420     		mov	r0, #100
 161 0020 FFF7FEFF 		bl	CyDelayUs
 162              	.LVL17:
 189:.\sd/sdmm.c   **** 		rcvr_mmc(d, 1);
 163              		.loc 1 189 0 discriminator 2
 164 0024 013D     		sub	r5, r5, #1
 165              	.LVL18:
 166              	.L10:
 189:.\sd/sdmm.c   **** 		rcvr_mmc(d, 1);
 167              		.loc 1 189 0 is_stmt 0 discriminator 1
 168 0026 002D     		cmp	r5, #0
 169 0028 F1D1     		bne	.L12
 170              	.L11:
 193:.\sd/sdmm.c   **** 	}
 194:.\sd/sdmm.c   **** 	if (d[0] != 0xFE) return 0;		/* If not valid data token, return with error */
 171              		.loc 1 194 0 is_stmt 1
 172 002a 01AB     		add	r3, sp, #4
 173 002c 1B78     		ldrb	r3, [r3]
 174 002e FE2B     		cmp	r3, #254
 175 0030 09D1     		bne	.L14
 195:.\sd/sdmm.c   **** 
 196:.\sd/sdmm.c   **** 	rcvr_mmc(buff, btr);			/* Receive the data block into buffer */
 176              		.loc 1 196 0
 177 0032 381C     		mov	r0, r7
 178 0034 311C     		mov	r1, r6
 179 0036 FFF7FEFF 		bl	rcvr_mmc
 180              	.LVL19:
 197:.\sd/sdmm.c   **** 	rcvr_mmc(d, 2);					/* Discard CRC */
 181              		.loc 1 197 0
 182 003a 01A8     		add	r0, sp, #4
 183 003c 0221     		mov	r1, #2
 184 003e FFF7FEFF 		bl	rcvr_mmc
 185              	.LVL20:
 198:.\sd/sdmm.c   **** 
 199:.\sd/sdmm.c   **** 	return 1;						/* Return with success */
 186              		.loc 1 199 0
 187 0042 0120     		mov	r0, #1
 188 0044 00E0     		b	.L13
 189              	.L14:
 194:.\sd/sdmm.c   **** 
 190              		.loc 1 194 0
 191 0046 0020     		mov	r0, #0
 192              	.L13:
 200:.\sd/sdmm.c   **** }
 193              		.loc 1 200 0
ARM GAS  C:\Users\Jarik\AppData\Local\Temp\ccuZrN4M.s 			page 8


 194 0048 03B0     		add	sp, sp, #12
 195              		@ sp needed
 196              	.LVL21:
 197              	.LVL22:
 198              	.LVL23:
 199 004a F0BD     		pop	{r4, r5, r6, r7, pc}
 200              		.cfi_endproc
 201              	.LFE38:
 202              		.size	rcvr_datablock, .-rcvr_datablock
 203              		.section	.text.deselect,"ax",%progbits
 204              		.align	2
 205              		.code	16
 206              		.thumb_func
 207              		.type	deselect, %function
 208              	deselect:
 209              	.LFB36:
 147:.\sd/sdmm.c   **** 	BYTE d;
 210              		.loc 1 147 0
 211              		.cfi_startproc
 212 0000 00B5     		push	{lr}
 213              		.cfi_def_cfa_offset 4
 214              		.cfi_offset 14, -4
 215 0002 83B0     		sub	sp, sp, #12
 216              		.cfi_def_cfa_offset 16
 150:.\sd/sdmm.c   **** 	rcvr_mmc(&d, 1);	/* Dummy clock (force DO hi-z for multiple slave SPI) */
 217              		.loc 1 150 0
 218 0004 0120     		mov	r0, #1
 219 0006 FFF7FEFF 		bl	SPI_CS_Write
 220              	.LVL24:
 151:.\sd/sdmm.c   **** }
 221              		.loc 1 151 0
 222 000a 6B46     		mov	r3, sp
 223 000c D81D     		add	r0, r3, #7
 224 000e 0121     		mov	r1, #1
 225 0010 FFF7FEFF 		bl	rcvr_mmc
 226              	.LVL25:
 152:.\sd/sdmm.c   **** 
 227              		.loc 1 152 0
 228 0014 03B0     		add	sp, sp, #12
 229              		@ sp needed
 230 0016 00BD     		pop	{pc}
 231              		.cfi_endproc
 232              	.LFE36:
 233              		.size	deselect, .-deselect
 234              		.section	.text.select,"ax",%progbits
 235              		.align	2
 236              		.code	16
 237              		.thumb_func
 238              		.type	select, %function
 239              	select:
 240              	.LFB37:
 162:.\sd/sdmm.c   **** 	BYTE d;
 241              		.loc 1 162 0
 242              		.cfi_startproc
 243 0000 10B5     		push	{r4, lr}
 244              		.cfi_def_cfa_offset 8
 245              		.cfi_offset 4, -8
ARM GAS  C:\Users\Jarik\AppData\Local\Temp\ccuZrN4M.s 			page 9


 246              		.cfi_offset 14, -4
 247 0002 82B0     		sub	sp, sp, #8
 248              		.cfi_def_cfa_offset 16
 165:.\sd/sdmm.c   **** 	rcvr_mmc(&d, 1);	/* Dummy clock (force DO enabled) */
 249              		.loc 1 165 0
 250 0004 0020     		mov	r0, #0
 251 0006 FFF7FEFF 		bl	SPI_CS_Write
 252              	.LVL26:
 166:.\sd/sdmm.c   **** 	if (wait_ready()) return 1;	/* Wait for card ready */
 253              		.loc 1 166 0
 254 000a 6B46     		mov	r3, sp
 255 000c D81D     		add	r0, r3, #7
 256 000e 0121     		mov	r1, #1
 257 0010 FFF7FEFF 		bl	rcvr_mmc
 258              	.LVL27:
 167:.\sd/sdmm.c   **** 
 259              		.loc 1 167 0
 260 0014 FFF7FEFF 		bl	wait_ready
 261              	.LVL28:
 262 0018 041E     		sub	r4, r0, #0
 263 001a 02D1     		bne	.L18
 169:.\sd/sdmm.c   **** 	return 0;			/* Failed */
 264              		.loc 1 169 0
 265 001c FFF7FEFF 		bl	deselect
 266              	.LVL29:
 170:.\sd/sdmm.c   **** }
 267              		.loc 1 170 0
 268 0020 00E0     		b	.L17
 269              	.L18:
 167:.\sd/sdmm.c   **** 
 270              		.loc 1 167 0
 271 0022 0124     		mov	r4, #1
 272              	.L17:
 171:.\sd/sdmm.c   **** 
 273              		.loc 1 171 0
 274 0024 201C     		mov	r0, r4
 275 0026 02B0     		add	sp, sp, #8
 276              		@ sp needed
 277 0028 10BD     		pop	{r4, pc}
 278              		.cfi_endproc
 279              	.LFE37:
 280              		.size	select, .-select
 281 002a C046     		.section	.text.xmit_mmc,"ax",%progbits
 282              		.align	2
 283              		.code	16
 284              		.thumb_func
 285              		.type	xmit_mmc, %function
 286              	xmit_mmc:
 287              	.LFB33:
  84:.\sd/sdmm.c   **** 	BYTE d;
 288              		.loc 1 84 0
 289              		.cfi_startproc
 290              	.LVL30:
 291 0000 38B5     		push	{r3, r4, r5, lr}
 292              		.cfi_def_cfa_offset 16
 293              		.cfi_offset 3, -16
 294              		.cfi_offset 4, -12
ARM GAS  C:\Users\Jarik\AppData\Local\Temp\ccuZrN4M.s 			page 10


 295              		.cfi_offset 5, -8
 296              		.cfi_offset 14, -4
 297 0002 0C1C     		mov	r4, r1
 298              	.LVL31:
 299              	.L20:
  89:.\sd/sdmm.c   **** 		SPI_transmit(d);
 300              		.loc 1 89 0 discriminator 1
 301 0004 451C     		add	r5, r0, #1
 302              	.LVL32:
 303 0006 0078     		ldrb	r0, [r0]
 304              	.LVL33:
  90:.\sd/sdmm.c   **** 	} while (--bc);
 305              		.loc 1 90 0 discriminator 1
 306 0008 FFF7FEFF 		bl	SPI_transmit
 307              	.LVL34:
  91:.\sd/sdmm.c   **** }
 308              		.loc 1 91 0 discriminator 1
 309 000c 013C     		sub	r4, r4, #1
 310              	.LVL35:
  89:.\sd/sdmm.c   **** 		SPI_transmit(d);
 311              		.loc 1 89 0 discriminator 1
 312 000e 281C     		mov	r0, r5
  91:.\sd/sdmm.c   **** }
 313              		.loc 1 91 0 discriminator 1
 314 0010 002C     		cmp	r4, #0
 315 0012 F7D1     		bne	.L20
  92:.\sd/sdmm.c   **** 
 316              		.loc 1 92 0
 317              		@ sp needed
 318              	.LVL36:
 319              	.LVL37:
 320 0014 38BD     		pop	{r3, r4, r5, pc}
 321              		.cfi_endproc
 322              	.LFE33:
 323              		.size	xmit_mmc, .-xmit_mmc
 324 0016 C046     		.section	.text.send_cmd,"ax",%progbits
 325              		.align	2
 326              		.code	16
 327              		.thumb_func
 328              		.type	send_cmd, %function
 329              	send_cmd:
 330              	.LFB40:
 201:.\sd/sdmm.c   **** 
 202:.\sd/sdmm.c   **** 
 203:.\sd/sdmm.c   **** 
 204:.\sd/sdmm.c   **** /*-----------------------------------------------------------------------*/
 205:.\sd/sdmm.c   **** /* Send a data packet to the card                                        */
 206:.\sd/sdmm.c   **** /*-----------------------------------------------------------------------*/
 207:.\sd/sdmm.c   **** 
 208:.\sd/sdmm.c   **** static
 209:.\sd/sdmm.c   **** int xmit_datablock (	/* 1:OK, 0:Failed */
 210:.\sd/sdmm.c   **** 	const BYTE *buff,	/* 512 byte data block to be transmitted */
 211:.\sd/sdmm.c   **** 	BYTE token			/* Data/Stop token */
 212:.\sd/sdmm.c   **** )
 213:.\sd/sdmm.c   **** {
 214:.\sd/sdmm.c   **** 	BYTE d[2];
 215:.\sd/sdmm.c   **** 
ARM GAS  C:\Users\Jarik\AppData\Local\Temp\ccuZrN4M.s 			page 11


 216:.\sd/sdmm.c   **** 
 217:.\sd/sdmm.c   **** 	if (!wait_ready()) return 0;
 218:.\sd/sdmm.c   **** 
 219:.\sd/sdmm.c   **** 	d[0] = token;
 220:.\sd/sdmm.c   **** 	xmit_mmc(d, 1);				/* Xmit a token */
 221:.\sd/sdmm.c   **** 	if (token != 0xFD) {		/* Is it data token? */
 222:.\sd/sdmm.c   **** 		xmit_mmc(buff, 512);	/* Xmit the 512 byte data block to MMC */
 223:.\sd/sdmm.c   **** 		rcvr_mmc(d, 2);			/* Xmit dummy CRC (0xFF,0xFF) */
 224:.\sd/sdmm.c   **** 		rcvr_mmc(d, 1);			/* Receive data response */
 225:.\sd/sdmm.c   **** 		if ((d[0] & 0x1F) != 0x05)	/* If not accepted, return with error */
 226:.\sd/sdmm.c   **** 			return 0;
 227:.\sd/sdmm.c   **** 	}
 228:.\sd/sdmm.c   **** 
 229:.\sd/sdmm.c   **** 	return 1;
 230:.\sd/sdmm.c   **** }
 231:.\sd/sdmm.c   **** 
 232:.\sd/sdmm.c   **** 
 233:.\sd/sdmm.c   **** 
 234:.\sd/sdmm.c   **** /*-----------------------------------------------------------------------*/
 235:.\sd/sdmm.c   **** /* Send a command packet to the card                                     */
 236:.\sd/sdmm.c   **** /*-----------------------------------------------------------------------*/
 237:.\sd/sdmm.c   **** 
 238:.\sd/sdmm.c   **** static
 239:.\sd/sdmm.c   **** BYTE send_cmd (		/* Returns command response (bit7==1:Send failed)*/
 240:.\sd/sdmm.c   **** 	BYTE cmd,		/* Command byte */
 241:.\sd/sdmm.c   **** 	DWORD arg		/* Argument */
 242:.\sd/sdmm.c   **** )
 243:.\sd/sdmm.c   **** {
 331              		.loc 1 243 0
 332              		.cfi_startproc
 333              	.LVL38:
 334 0000 30B5     		push	{r4, r5, lr}
 335              		.cfi_def_cfa_offset 12
 336              		.cfi_offset 4, -12
 337              		.cfi_offset 5, -8
 338              		.cfi_offset 14, -4
 339 0002 83B0     		sub	sp, sp, #12
 340              		.cfi_def_cfa_offset 24
 341 0004 041C     		mov	r4, r0
 342 0006 0D1C     		mov	r5, r1
 244:.\sd/sdmm.c   **** 	BYTE n, d, buf[6];
 245:.\sd/sdmm.c   **** 
 246:.\sd/sdmm.c   **** 
 247:.\sd/sdmm.c   **** 	if (cmd & 0x80) {	/* ACMD<n> is the command sequense of CMD55-CMD<n> */
 343              		.loc 1 247 0
 344 0008 43B2     		sxtb	r3, r0
 345 000a 002B     		cmp	r3, #0
 346 000c 07DA     		bge	.L22
 248:.\sd/sdmm.c   **** 		cmd &= 0x7F;
 347              		.loc 1 248 0
 348 000e 7F23     		mov	r3, #127
 349 0010 1C40     		and	r4, r3
 350              	.LVL39:
 249:.\sd/sdmm.c   **** 		n = send_cmd(CMD55, 0);
 351              		.loc 1 249 0
 352 0012 3720     		mov	r0, #55
 353 0014 0021     		mov	r1, #0
ARM GAS  C:\Users\Jarik\AppData\Local\Temp\ccuZrN4M.s 			page 12


 354              	.LVL40:
 355 0016 FFF7F3FF 		bl	send_cmd
 356              	.LVL41:
 250:.\sd/sdmm.c   **** 		if (n > 1) return n;
 357              		.loc 1 250 0
 358 001a 0128     		cmp	r0, #1
 359 001c 38D8     		bhi	.L23
 360              	.LVL42:
 361              	.L22:
 251:.\sd/sdmm.c   **** 	}
 252:.\sd/sdmm.c   **** 
 253:.\sd/sdmm.c   **** 	/* Select the card and wait for ready except to stop multiple block read */
 254:.\sd/sdmm.c   **** 	if ((cmd != CMD12)) {
 362              		.loc 1 254 0
 363 001e 0C2C     		cmp	r4, #12
 364 0020 05D0     		beq	.L24
 255:.\sd/sdmm.c   **** 		deselect();
 365              		.loc 1 255 0
 366 0022 FFF7FEFF 		bl	deselect
 367              	.LVL43:
 256:.\sd/sdmm.c   **** 		if (!select()) return 0xFF;
 368              		.loc 1 256 0
 369 0026 FFF7FEFF 		bl	select
 370              	.LVL44:
 371 002a 0028     		cmp	r0, #0
 372 002c 2FD0     		beq	.L31
 373              	.L24:
 257:.\sd/sdmm.c   **** 	}
 258:.\sd/sdmm.c   ****   
 259:.\sd/sdmm.c   **** 
 260:.\sd/sdmm.c   **** 	/* Send a command packet */
 261:.\sd/sdmm.c   **** 	buf[0] = 0x40 | cmd;			/* Start + Command index */
 374              		.loc 1 261 0
 375 002e 4023     		mov	r3, #64
 376 0030 2343     		orr	r3, r4
 377 0032 6A46     		mov	r2, sp
 378 0034 1370     		strb	r3, [r2]
 262:.\sd/sdmm.c   **** 	buf[1] = (BYTE)(arg >> 24);		/* Argument[31..24] */
 379              		.loc 1 262 0
 380 0036 2B0E     		lsr	r3, r5, #24
 381 0038 5370     		strb	r3, [r2, #1]
 263:.\sd/sdmm.c   **** 	buf[2] = (BYTE)(arg >> 16);		/* Argument[23..16] */
 382              		.loc 1 263 0
 383 003a 2B0C     		lsr	r3, r5, #16
 384 003c 9370     		strb	r3, [r2, #2]
 264:.\sd/sdmm.c   **** 	buf[3] = (BYTE)(arg >> 8);		/* Argument[15..8] */
 385              		.loc 1 264 0
 386 003e 2B0A     		lsr	r3, r5, #8
 387 0040 D370     		strb	r3, [r2, #3]
 265:.\sd/sdmm.c   **** 	buf[4] = (BYTE)arg;				/* Argument[7..0] */
 388              		.loc 1 265 0
 389 0042 1571     		strb	r5, [r2, #4]
 390              	.LVL45:
 266:.\sd/sdmm.c   **** 	n = 0x01;						/* Dummy CRC + Stop */
 267:.\sd/sdmm.c   **** 	if (cmd == CMD0) n = 0x95;		/* (valid CRC for CMD0(0)) */
 391              		.loc 1 267 0
 392 0044 002C     		cmp	r4, #0
ARM GAS  C:\Users\Jarik\AppData\Local\Temp\ccuZrN4M.s 			page 13


 393 0046 01D0     		beq	.L32
 266:.\sd/sdmm.c   **** 	n = 0x01;						/* Dummy CRC + Stop */
 394              		.loc 1 266 0
 395 0048 0123     		mov	r3, #1
 396 004a 00E0     		b	.L25
 397              	.L32:
 398              		.loc 1 267 0
 399 004c 9523     		mov	r3, #149
 400              	.L25:
 401              	.LVL46:
 268:.\sd/sdmm.c   **** 	if (cmd == CMD8) n = 0x87;		/* (valid CRC for CMD8(0x1AA)) */
 402              		.loc 1 268 0
 403 004e 082C     		cmp	r4, #8
 404 0050 00D1     		bne	.L26
 405 0052 8723     		mov	r3, #135
 406              	.LVL47:
 407              	.L26:
 269:.\sd/sdmm.c   **** 	buf[5] = n;
 408              		.loc 1 269 0
 409 0054 6A46     		mov	r2, sp
 410 0056 5371     		strb	r3, [r2, #5]
 270:.\sd/sdmm.c   **** 	xmit_mmc(buf, 6);
 411              		.loc 1 270 0
 412 0058 6846     		mov	r0, sp
 413 005a 0621     		mov	r1, #6
 414 005c FFF7FEFF 		bl	xmit_mmc
 415              	.LVL48:
 271:.\sd/sdmm.c   **** 
 272:.\sd/sdmm.c   **** 	/* Receive command response */
 273:.\sd/sdmm.c   **** 	if (cmd == CMD12) rcvr_mmc(&d, 1);	/* Skip a stuff byte when stop reading */
 416              		.loc 1 273 0
 417 0060 0C2C     		cmp	r4, #12
 418 0062 04D1     		bne	.L27
 419              		.loc 1 273 0 is_stmt 0 discriminator 1
 420 0064 6B46     		mov	r3, sp
 421 0066 D81D     		add	r0, r3, #7
 422 0068 0121     		mov	r1, #1
 423 006a FFF7FEFF 		bl	rcvr_mmc
 424              	.LVL49:
 425              	.L27:
 268:.\sd/sdmm.c   **** 	buf[5] = n;
 426              		.loc 1 268 0 is_stmt 1 discriminator 2
 427 006e 0A24     		mov	r4, #10
 428              	.LVL50:
 429              	.L29:
 274:.\sd/sdmm.c   **** 	n = 10;								/* Wait for a valid response in timeout of 10 attempts */
 275:.\sd/sdmm.c   **** 	do
 276:.\sd/sdmm.c   **** 		rcvr_mmc(&d, 1);
 430              		.loc 1 276 0 discriminator 2
 431 0070 6B46     		mov	r3, sp
 432 0072 DD1D     		add	r5, r3, #7
 433 0074 281C     		mov	r0, r5
 434 0076 0121     		mov	r1, #1
 435 0078 FFF7FEFF 		bl	rcvr_mmc
 436              	.LVL51:
 277:.\sd/sdmm.c   **** 	while ((d & 0x80) && --n);
 437              		.loc 1 277 0 discriminator 2
ARM GAS  C:\Users\Jarik\AppData\Local\Temp\ccuZrN4M.s 			page 14


 438 007c 2878     		ldrb	r0, [r5]
 439 007e 43B2     		sxtb	r3, r0
 440 0080 002B     		cmp	r3, #0
 441 0082 05DA     		bge	.L23
 442              		.loc 1 277 0 is_stmt 0 discriminator 1
 443 0084 013C     		sub	r4, r4, #1
 444              	.LVL52:
 445 0086 E4B2     		uxtb	r4, r4
 446              	.LVL53:
 447 0088 002C     		cmp	r4, #0
 448 008a F1D1     		bne	.L29
 449 008c 00E0     		b	.L23
 450              	.LVL54:
 451              	.L31:
 256:.\sd/sdmm.c   **** 	}
 452              		.loc 1 256 0 is_stmt 1
 453 008e FF20     		mov	r0, #255
 454              	.LVL55:
 455              	.L23:
 278:.\sd/sdmm.c   **** 
 279:.\sd/sdmm.c   **** 	return d;			/* Return with the response value */
 280:.\sd/sdmm.c   **** }
 456              		.loc 1 280 0
 457 0090 03B0     		add	sp, sp, #12
 458              		@ sp needed
 459 0092 30BD     		pop	{r4, r5, pc}
 460              		.cfi_endproc
 461              	.LFE40:
 462              		.size	send_cmd, .-send_cmd
 463              		.section	.text.xmit_datablock,"ax",%progbits
 464              		.align	2
 465              		.code	16
 466              		.thumb_func
 467              		.type	xmit_datablock, %function
 468              	xmit_datablock:
 469              	.LFB39:
 213:.\sd/sdmm.c   **** 	BYTE d[2];
 470              		.loc 1 213 0
 471              		.cfi_startproc
 472              	.LVL56:
 473 0000 30B5     		push	{r4, r5, lr}
 474              		.cfi_def_cfa_offset 12
 475              		.cfi_offset 4, -12
 476              		.cfi_offset 5, -8
 477              		.cfi_offset 14, -4
 478 0002 83B0     		sub	sp, sp, #12
 479              		.cfi_def_cfa_offset 24
 480 0004 051C     		mov	r5, r0
 481 0006 0C1C     		mov	r4, r1
 217:.\sd/sdmm.c   **** 
 482              		.loc 1 217 0
 483 0008 FFF7FEFF 		bl	wait_ready
 484              	.LVL57:
 485 000c 0028     		cmp	r0, #0
 486 000e 1ED0     		beq	.L35
 219:.\sd/sdmm.c   **** 	xmit_mmc(d, 1);				/* Xmit a token */
 487              		.loc 1 219 0
ARM GAS  C:\Users\Jarik\AppData\Local\Temp\ccuZrN4M.s 			page 15


 488 0010 01A8     		add	r0, sp, #4
 489 0012 0470     		strb	r4, [r0]
 220:.\sd/sdmm.c   **** 	if (token != 0xFD) {		/* Is it data token? */
 490              		.loc 1 220 0
 491 0014 0121     		mov	r1, #1
 492 0016 FFF7FEFF 		bl	xmit_mmc
 493              	.LVL58:
 221:.\sd/sdmm.c   **** 		xmit_mmc(buff, 512);	/* Xmit the 512 byte data block to MMC */
 494              		.loc 1 221 0
 495 001a FD2C     		cmp	r4, #253
 496 001c 14D0     		beq	.L36
 222:.\sd/sdmm.c   **** 		rcvr_mmc(d, 2);			/* Xmit dummy CRC (0xFF,0xFF) */
 497              		.loc 1 222 0
 498 001e 281C     		mov	r0, r5
 499 0020 8021     		mov	r1, #128
 500 0022 8900     		lsl	r1, r1, #2
 501 0024 FFF7FEFF 		bl	xmit_mmc
 502              	.LVL59:
 223:.\sd/sdmm.c   **** 		rcvr_mmc(d, 1);			/* Receive data response */
 503              		.loc 1 223 0
 504 0028 01AC     		add	r4, sp, #4
 505 002a 201C     		mov	r0, r4
 506 002c 0221     		mov	r1, #2
 507 002e FFF7FEFF 		bl	rcvr_mmc
 508              	.LVL60:
 224:.\sd/sdmm.c   **** 		if ((d[0] & 0x1F) != 0x05)	/* If not accepted, return with error */
 509              		.loc 1 224 0
 510 0032 201C     		mov	r0, r4
 511 0034 0121     		mov	r1, #1
 512 0036 FFF7FEFF 		bl	rcvr_mmc
 513              	.LVL61:
 225:.\sd/sdmm.c   **** 			return 0;
 514              		.loc 1 225 0
 515 003a 2378     		ldrb	r3, [r4]
 516 003c 1F22     		mov	r2, #31
 517 003e 1340     		and	r3, r2
 518 0040 052B     		cmp	r3, #5
 519 0042 03D0     		beq	.L37
 226:.\sd/sdmm.c   **** 	}
 520              		.loc 1 226 0
 521 0044 0020     		mov	r0, #0
 522 0046 02E0     		b	.L35
 523              	.L36:
 229:.\sd/sdmm.c   **** }
 524              		.loc 1 229 0
 525 0048 0120     		mov	r0, #1
 526 004a 00E0     		b	.L35
 527              	.L37:
 528 004c 0120     		mov	r0, #1
 529              	.L35:
 230:.\sd/sdmm.c   **** 
 530              		.loc 1 230 0
 531 004e 03B0     		add	sp, sp, #12
 532              		@ sp needed
 533              	.LVL62:
 534 0050 30BD     		pop	{r4, r5, pc}
 535              		.cfi_endproc
ARM GAS  C:\Users\Jarik\AppData\Local\Temp\ccuZrN4M.s 			page 16


 536              	.LFE39:
 537              		.size	xmit_datablock, .-xmit_datablock
 538 0052 C046     		.section	.text.disk_status,"ax",%progbits
 539              		.align	2
 540              		.global	disk_status
 541              		.code	16
 542              		.thumb_func
 543              		.type	disk_status, %function
 544              	disk_status:
 545              	.LFB41:
 281:.\sd/sdmm.c   **** 
 282:.\sd/sdmm.c   **** 
 283:.\sd/sdmm.c   **** 
 284:.\sd/sdmm.c   **** /*--------------------------------------------------------------------------
 285:.\sd/sdmm.c   **** 
 286:.\sd/sdmm.c   ****    Public Functions
 287:.\sd/sdmm.c   **** 
 288:.\sd/sdmm.c   **** ---------------------------------------------------------------------------*/
 289:.\sd/sdmm.c   **** 
 290:.\sd/sdmm.c   **** 
 291:.\sd/sdmm.c   **** /*-----------------------------------------------------------------------*/
 292:.\sd/sdmm.c   **** /* Get Disk Status                                                       */
 293:.\sd/sdmm.c   **** /*-----------------------------------------------------------------------*/
 294:.\sd/sdmm.c   **** 
 295:.\sd/sdmm.c   **** DSTATUS disk_status (
 296:.\sd/sdmm.c   **** 	BYTE drv			/* Drive number (always 0) */
 297:.\sd/sdmm.c   **** )
 298:.\sd/sdmm.c   **** {
 546              		.loc 1 298 0
 547              		.cfi_startproc
 548              	.LVL63:
 299:.\sd/sdmm.c   **** 	if (drv) return STA_NOINIT;
 549              		.loc 1 299 0
 550 0000 0028     		cmp	r0, #0
 551 0002 02D1     		bne	.L40
 300:.\sd/sdmm.c   **** 
 301:.\sd/sdmm.c   **** 	return Stat;
 552              		.loc 1 301 0
 553 0004 024B     		ldr	r3, .L41
 554 0006 1878     		ldrb	r0, [r3]
 555              	.LVL64:
 556 0008 00E0     		b	.L39
 557              	.LVL65:
 558              	.L40:
 299:.\sd/sdmm.c   **** 	if (drv) return STA_NOINIT;
 559              		.loc 1 299 0
 560 000a 0120     		mov	r0, #1
 561              	.LVL66:
 562              	.L39:
 302:.\sd/sdmm.c   **** }
 563              		.loc 1 302 0
 564              		@ sp needed
 565 000c 7047     		bx	lr
 566              	.L42:
 567 000e C046     		.align	2
 568              	.L41:
 569 0010 00000000 		.word	.LANCHOR0
ARM GAS  C:\Users\Jarik\AppData\Local\Temp\ccuZrN4M.s 			page 17


 570              		.cfi_endproc
 571              	.LFE41:
 572              		.size	disk_status, .-disk_status
 573              		.section	.text.disk_initialize,"ax",%progbits
 574              		.align	2
 575              		.global	disk_initialize
 576              		.code	16
 577              		.thumb_func
 578              		.type	disk_initialize, %function
 579              	disk_initialize:
 580              	.LFB42:
 303:.\sd/sdmm.c   **** 
 304:.\sd/sdmm.c   **** 
 305:.\sd/sdmm.c   **** 
 306:.\sd/sdmm.c   **** /*-----------------------------------------------------------------------*/
 307:.\sd/sdmm.c   **** /* Initialize Disk Drive                                                 */
 308:.\sd/sdmm.c   **** /*-----------------------------------------------------------------------*/
 309:.\sd/sdmm.c   **** 
 310:.\sd/sdmm.c   **** DSTATUS disk_initialize (
 311:.\sd/sdmm.c   **** 	BYTE drv		/* Physical drive nmuber (0) */
 312:.\sd/sdmm.c   **** )
 313:.\sd/sdmm.c   **** {
 581              		.loc 1 313 0
 582              		.cfi_startproc
 583              	.LVL67:
 584 0000 70B5     		push	{r4, r5, r6, lr}
 585              		.cfi_def_cfa_offset 16
 586              		.cfi_offset 4, -16
 587              		.cfi_offset 5, -12
 588              		.cfi_offset 6, -8
 589              		.cfi_offset 14, -4
 590 0002 84B0     		sub	sp, sp, #16
 591              		.cfi_def_cfa_offset 32
 314:.\sd/sdmm.c   **** 	BYTE n, ty, cmd, buf[12];
 315:.\sd/sdmm.c   **** 	UINT tmr;
 316:.\sd/sdmm.c   **** 	DSTATUS s;
 317:.\sd/sdmm.c   **** 
 318:.\sd/sdmm.c   **** 
 319:.\sd/sdmm.c   **** 	if (drv) return RES_NOTRDY;
 592              		.loc 1 319 0
 593 0004 0028     		cmp	r0, #0
 594 0006 00D0     		beq	.LCB554
 595 0008 84E0     		b	.L57	@long jump
 596              	.LCB554:
 320:.\sd/sdmm.c   ****     spi_init();
 597              		.loc 1 320 0
 598 000a FFF7FEFF 		bl	spi_init
 599              	.LVL68:
 321:.\sd/sdmm.c   **** 
 322:.\sd/sdmm.c   **** 	for (n = 20; n; n--) SPI_receive();	/* Apply 160 dummy clocks and the card gets ready to receive c
 600              		.loc 1 322 0
 601 000e 1424     		mov	r4, #20
 602 0010 03E0     		b	.L45
 603              	.LVL69:
 604              	.L46:
 605              		.loc 1 322 0 is_stmt 0 discriminator 3
 606 0012 FFF7FEFF 		bl	SPI_receive
ARM GAS  C:\Users\Jarik\AppData\Local\Temp\ccuZrN4M.s 			page 18


 607              	.LVL70:
 608 0016 013C     		sub	r4, r4, #1
 609              	.LVL71:
 610 0018 E4B2     		uxtb	r4, r4
 611              	.LVL72:
 612              	.L45:
 613              		.loc 1 322 0 discriminator 1
 614 001a 002C     		cmp	r4, #0
 615 001c F9D1     		bne	.L46
 616              	.LVL73:
 323:.\sd/sdmm.c   **** 
 324:.\sd/sdmm.c   **** 	ty = 0;
 325:.\sd/sdmm.c   **** 	if (send_cmd(CMD0, 0) == 1) {			/* Enter Idle state */
 617              		.loc 1 325 0 is_stmt 1
 618 001e 0020     		mov	r0, #0
 619 0020 0021     		mov	r1, #0
 620 0022 FFF7FEFF 		bl	send_cmd
 621              	.LVL74:
 622 0026 0128     		cmp	r0, #1
 623 0028 5ED1     		bne	.L58
 326:.\sd/sdmm.c   **** 		if (send_cmd(CMD8, 0x1AA) == 1) {	/* SDv2? */
 624              		.loc 1 326 0
 625 002a 0730     		add	r0, r0, #7
 626 002c D521     		mov	r1, #213
 627 002e 4900     		lsl	r1, r1, #1
 628 0030 FFF7FEFF 		bl	send_cmd
 629              	.LVL75:
 630 0034 0128     		cmp	r0, #1
 631 0036 32D1     		bne	.L48
 327:.\sd/sdmm.c   **** 			rcvr_mmc(buf, 4);							/* Get trailing return value of R7 resp */
 632              		.loc 1 327 0
 633 0038 01AC     		add	r4, sp, #4
 634              	.LVL76:
 635 003a 201C     		mov	r0, r4
 636 003c 0421     		mov	r1, #4
 637 003e FFF7FEFF 		bl	rcvr_mmc
 638              	.LVL77:
 328:.\sd/sdmm.c   **** 			if (buf[2] == 0x01 && buf[3] == 0xAA) {		/* The card can work at vdd range of 2.7-3.6V */
 639              		.loc 1 328 0
 640 0042 A378     		ldrb	r3, [r4, #2]
 641 0044 012B     		cmp	r3, #1
 642 0046 51D1     		bne	.L59
 643              		.loc 1 328 0 is_stmt 0 discriminator 1
 644 0048 01AB     		add	r3, sp, #4
 645 004a DB78     		ldrb	r3, [r3, #3]
 646 004c AA2B     		cmp	r3, #170
 647 004e 0ED0     		beq	.L60
 324:.\sd/sdmm.c   **** 	if (send_cmd(CMD0, 0) == 1) {			/* Enter Idle state */
 648              		.loc 1 324 0 is_stmt 1
 649 0050 0024     		mov	r4, #0
 650 0052 54E0     		b	.L47
 651              	.LVL78:
 652              	.L51:
 329:.\sd/sdmm.c   **** 				for (tmr = 1000; tmr; tmr--) {			/* Wait for leaving idle state (ACMD41 with HCS bit) */
 330:.\sd/sdmm.c   **** 					if (send_cmd(ACMD41, 1UL << 30) == 0) break;
 653              		.loc 1 330 0
 654 0054 A920     		mov	r0, #169
ARM GAS  C:\Users\Jarik\AppData\Local\Temp\ccuZrN4M.s 			page 19


 655 0056 8021     		mov	r1, #128
 656 0058 C905     		lsl	r1, r1, #23
 657 005a FFF7FEFF 		bl	send_cmd
 658              	.LVL79:
 659 005e 0028     		cmp	r0, #0
 660 0060 09D0     		beq	.L50
 331:.\sd/sdmm.c   **** 					dly_us(1000);
 661              		.loc 1 331 0 discriminator 2
 662 0062 FA20     		mov	r0, #250
 663 0064 8000     		lsl	r0, r0, #2
 664 0066 FFF7FEFF 		bl	CyDelayUs
 665              	.LVL80:
 329:.\sd/sdmm.c   **** 				for (tmr = 1000; tmr; tmr--) {			/* Wait for leaving idle state (ACMD41 with HCS bit) */
 666              		.loc 1 329 0 discriminator 2
 667 006a 013C     		sub	r4, r4, #1
 668              	.LVL81:
 669 006c 01E0     		b	.L49
 670              	.LVL82:
 671              	.L60:
 672 006e FA24     		mov	r4, #250
 673 0070 A400     		lsl	r4, r4, #2
 674              	.L49:
 675              	.LVL83:
 329:.\sd/sdmm.c   **** 				for (tmr = 1000; tmr; tmr--) {			/* Wait for leaving idle state (ACMD41 with HCS bit) */
 676              		.loc 1 329 0 is_stmt 0 discriminator 1
 677 0072 002C     		cmp	r4, #0
 678 0074 EED1     		bne	.L51
 679              	.L50:
 332:.\sd/sdmm.c   **** 				}
 333:.\sd/sdmm.c   **** 				if (tmr && send_cmd(CMD58, 0) == 0) {	/* Check CCS bit in the OCR */
 680              		.loc 1 333 0 is_stmt 1
 681 0076 002C     		cmp	r4, #0
 682 0078 3AD0     		beq	.L61
 683              		.loc 1 333 0 is_stmt 0 discriminator 1
 684 007a 3A20     		mov	r0, #58
 685 007c 0021     		mov	r1, #0
 686 007e FFF7FEFF 		bl	send_cmd
 687              	.LVL84:
 688 0082 0028     		cmp	r0, #0
 689 0084 36D1     		bne	.L62
 334:.\sd/sdmm.c   **** 					rcvr_mmc(buf, 4);
 690              		.loc 1 334 0 is_stmt 1
 691 0086 01AC     		add	r4, sp, #4
 692              	.LVL85:
 693 0088 201C     		mov	r0, r4
 694 008a 0421     		mov	r1, #4
 695 008c FFF7FEFF 		bl	rcvr_mmc
 696              	.LVL86:
 335:.\sd/sdmm.c   **** 					ty = (buf[0] & 0x40) ? CT_SD2 | CT_BLOCK : CT_SD2;	/* SDv2 */
 697              		.loc 1 335 0
 698 0090 2378     		ldrb	r3, [r4]
 699 0092 5B06     		lsl	r3, r3, #25
 700 0094 01D5     		bpl	.L63
 701 0096 0C24     		mov	r4, #12
 702 0098 31E0     		b	.L47
 703              	.L63:
 704 009a 0424     		mov	r4, #4
ARM GAS  C:\Users\Jarik\AppData\Local\Temp\ccuZrN4M.s 			page 20


 705              	.LVL87:
 706 009c 2FE0     		b	.L47
 707              	.LVL88:
 708              	.L48:
 336:.\sd/sdmm.c   **** 				}
 337:.\sd/sdmm.c   **** 			}
 338:.\sd/sdmm.c   **** 		} else {							/* SDv1 or MMCv3 */
 339:.\sd/sdmm.c   **** 			if (send_cmd(ACMD41, 0) <= 1) 	{
 709              		.loc 1 339 0
 710 009e A920     		mov	r0, #169
 711 00a0 0021     		mov	r1, #0
 712 00a2 FFF7FEFF 		bl	send_cmd
 713              	.LVL89:
 714 00a6 0128     		cmp	r0, #1
 715 00a8 02D8     		bhi	.L64
 340:.\sd/sdmm.c   **** 				ty = CT_SD1; cmd = ACMD41;	/* SDv1 */
 716              		.loc 1 340 0
 717 00aa A926     		mov	r6, #169
 718 00ac 0224     		mov	r4, #2
 719              	.LVL90:
 720 00ae 01E0     		b	.L53
 721              	.LVL91:
 722              	.L64:
 341:.\sd/sdmm.c   **** 			} else {
 342:.\sd/sdmm.c   **** 				ty = CT_MMC; cmd = CMD1;	/* MMCv3 */
 723              		.loc 1 342 0
 724 00b0 0126     		mov	r6, #1
 725 00b2 0124     		mov	r4, #1
 726              	.LVL92:
 727              	.L53:
 343:.\sd/sdmm.c   **** 			}
 344:.\sd/sdmm.c   **** 			for (tmr = 1000; tmr; tmr--) {			/* Wait for leaving idle state */
 728              		.loc 1 344 0
 729 00b4 FA25     		mov	r5, #250
 730 00b6 AD00     		lsl	r5, r5, #2
 731 00b8 0AE0     		b	.L54
 732              	.LVL93:
 733              	.L56:
 345:.\sd/sdmm.c   **** 				if (send_cmd(cmd, 0) == 0) break;
 734              		.loc 1 345 0
 735 00ba 301C     		mov	r0, r6
 736 00bc 0021     		mov	r1, #0
 737 00be FFF7FEFF 		bl	send_cmd
 738              	.LVL94:
 739 00c2 0028     		cmp	r0, #0
 740 00c4 06D0     		beq	.L55
 346:.\sd/sdmm.c   **** 				dly_us(1000);
 741              		.loc 1 346 0 discriminator 2
 742 00c6 FA20     		mov	r0, #250
 743 00c8 8000     		lsl	r0, r0, #2
 744 00ca FFF7FEFF 		bl	CyDelayUs
 745              	.LVL95:
 344:.\sd/sdmm.c   **** 				if (send_cmd(cmd, 0) == 0) break;
 746              		.loc 1 344 0 discriminator 2
 747 00ce 013D     		sub	r5, r5, #1
 748              	.LVL96:
 749              	.L54:
ARM GAS  C:\Users\Jarik\AppData\Local\Temp\ccuZrN4M.s 			page 21


 344:.\sd/sdmm.c   **** 				if (send_cmd(cmd, 0) == 0) break;
 750              		.loc 1 344 0 is_stmt 0 discriminator 1
 751 00d0 002D     		cmp	r5, #0
 752 00d2 F2D1     		bne	.L56
 753              	.L55:
 347:.\sd/sdmm.c   **** 			}
 348:.\sd/sdmm.c   **** 			if (!tmr || send_cmd(CMD16, 512) != 0)	/* Set R/W block length to 512 */
 754              		.loc 1 348 0 is_stmt 1
 755 00d4 002D     		cmp	r5, #0
 756 00d6 0FD0     		beq	.L65
 757              		.loc 1 348 0 is_stmt 0 discriminator 1
 758 00d8 1020     		mov	r0, #16
 759 00da 8021     		mov	r1, #128
 760 00dc 8900     		lsl	r1, r1, #2
 761 00de FFF7FEFF 		bl	send_cmd
 762              	.LVL97:
 763 00e2 0028     		cmp	r0, #0
 764 00e4 0AD1     		bne	.L66
 765 00e6 0AE0     		b	.L47
 766              	.LVL98:
 767              	.L58:
 324:.\sd/sdmm.c   **** 	if (send_cmd(CMD0, 0) == 1) {			/* Enter Idle state */
 768              		.loc 1 324 0 is_stmt 1
 769 00e8 0024     		mov	r4, #0
 770              	.LVL99:
 771 00ea 08E0     		b	.L47
 772              	.L59:
 773 00ec 0024     		mov	r4, #0
 774 00ee 06E0     		b	.L47
 775              	.LVL100:
 776              	.L61:
 777 00f0 0024     		mov	r4, #0
 778              	.LVL101:
 779 00f2 04E0     		b	.L47
 780              	.LVL102:
 781              	.L62:
 782 00f4 0024     		mov	r4, #0
 783              	.LVL103:
 784 00f6 02E0     		b	.L47
 785              	.LVL104:
 786              	.L65:
 349:.\sd/sdmm.c   **** 				ty = 0;
 787              		.loc 1 349 0
 788 00f8 0024     		mov	r4, #0
 789              	.LVL105:
 790 00fa 00E0     		b	.L47
 791              	.LVL106:
 792              	.L66:
 793 00fc 0024     		mov	r4, #0
 794              	.LVL107:
 795              	.L47:
 350:.\sd/sdmm.c   **** 		}
 351:.\sd/sdmm.c   **** 	}
 352:.\sd/sdmm.c   **** 	CardType = ty;
 796              		.loc 1 352 0
 797 00fe 074B     		ldr	r3, .L67
 798 0100 1C70     		strb	r4, [r3]
ARM GAS  C:\Users\Jarik\AppData\Local\Temp\ccuZrN4M.s 			page 22


 353:.\sd/sdmm.c   **** 	s = ty ? 0 : STA_NOINIT;
 799              		.loc 1 353 0
 800 0102 6042     		neg	r0, r4
 801 0104 6041     		adc	r0, r0, r4
 802              	.LVL108:
 803 0106 C4B2     		uxtb	r4, r0
 804              	.LVL109:
 354:.\sd/sdmm.c   **** 	Stat = s;
 805              		.loc 1 354 0
 806 0108 054B     		ldr	r3, .L67+4
 807 010a 1C70     		strb	r4, [r3]
 355:.\sd/sdmm.c   **** 
 356:.\sd/sdmm.c   **** 	deselect();
 808              		.loc 1 356 0
 809 010c FFF7FEFF 		bl	deselect
 810              	.LVL110:
 357:.\sd/sdmm.c   **** 
 358:.\sd/sdmm.c   **** 	return s;
 811              		.loc 1 358 0
 812 0110 201C     		mov	r0, r4
 813 0112 00E0     		b	.L44
 814              	.LVL111:
 815              	.L57:
 319:.\sd/sdmm.c   ****     spi_init();
 816              		.loc 1 319 0
 817 0114 0320     		mov	r0, #3
 818              	.LVL112:
 819              	.L44:
 359:.\sd/sdmm.c   **** }
 820              		.loc 1 359 0
 821 0116 04B0     		add	sp, sp, #16
 822              		@ sp needed
 823 0118 70BD     		pop	{r4, r5, r6, pc}
 824              	.L68:
 825 011a C046     		.align	2
 826              	.L67:
 827 011c 00000000 		.word	.LANCHOR1
 828 0120 00000000 		.word	.LANCHOR0
 829              		.cfi_endproc
 830              	.LFE42:
 831              		.size	disk_initialize, .-disk_initialize
 832              		.section	.text.disk_read,"ax",%progbits
 833              		.align	2
 834              		.global	disk_read
 835              		.code	16
 836              		.thumb_func
 837              		.type	disk_read, %function
 838              	disk_read:
 839              	.LFB43:
 360:.\sd/sdmm.c   **** 
 361:.\sd/sdmm.c   **** 
 362:.\sd/sdmm.c   **** 
 363:.\sd/sdmm.c   **** /*-----------------------------------------------------------------------*/
 364:.\sd/sdmm.c   **** /* Read Sector(s)                                                        */
 365:.\sd/sdmm.c   **** /*-----------------------------------------------------------------------*/
 366:.\sd/sdmm.c   **** 
 367:.\sd/sdmm.c   **** DRESULT disk_read (
ARM GAS  C:\Users\Jarik\AppData\Local\Temp\ccuZrN4M.s 			page 23


 368:.\sd/sdmm.c   **** 	BYTE drv,			/* Physical drive nmuber (0) */
 369:.\sd/sdmm.c   **** 	BYTE *buff,			/* Pointer to the data buffer to store read data */
 370:.\sd/sdmm.c   **** 	DWORD sector,		/* Start sector number (LBA) */
 371:.\sd/sdmm.c   **** 	UINT count			/* Sector count (1..128) */
 372:.\sd/sdmm.c   **** )
 373:.\sd/sdmm.c   **** {
 840              		.loc 1 373 0
 841              		.cfi_startproc
 842              	.LVL113:
 843 0000 F8B5     		push	{r3, r4, r5, r6, r7, lr}
 844              		.cfi_def_cfa_offset 24
 845              		.cfi_offset 3, -24
 846              		.cfi_offset 4, -20
 847              		.cfi_offset 5, -16
 848              		.cfi_offset 6, -12
 849              		.cfi_offset 7, -8
 850              		.cfi_offset 14, -4
 851 0002 0D1C     		mov	r5, r1
 852 0004 171C     		mov	r7, r2
 853 0006 1C1C     		mov	r4, r3
 374:.\sd/sdmm.c   **** 	BYTE cmd;
 375:.\sd/sdmm.c   **** 
 376:.\sd/sdmm.c   **** 
 377:.\sd/sdmm.c   **** 	if (disk_status(drv) & STA_NOINIT) return RES_NOTRDY;
 854              		.loc 1 377 0
 855 0008 FFF7FEFF 		bl	disk_status
 856              	.LVL114:
 857 000c C307     		lsl	r3, r0, #31
 858 000e 29D4     		bmi	.L76
 378:.\sd/sdmm.c   **** 	if (!(CardType & CT_BLOCK)) sector *= 512;	/* Convert LBA to byte address if needed */
 859              		.loc 1 378 0
 860 0010 154B     		ldr	r3, .L78
 861 0012 1B78     		ldrb	r3, [r3]
 862 0014 1B07     		lsl	r3, r3, #28
 863 0016 00D4     		bmi	.L71
 864              		.loc 1 378 0 is_stmt 0 discriminator 1
 865 0018 7F02     		lsl	r7, r7, #9
 866              	.LVL115:
 867              	.L71:
 379:.\sd/sdmm.c   **** 
 380:.\sd/sdmm.c   **** 	cmd = count > 1 ? CMD18 : CMD17;			/*  READ_MULTIPLE_BLOCK : READ_SINGLE_BLOCK */
 868              		.loc 1 380 0 is_stmt 1
 869 001a 012C     		cmp	r4, #1
 870 001c 01D9     		bls	.L77
 871 001e 1226     		mov	r6, #18
 872 0020 00E0     		b	.L72
 873              	.L77:
 874 0022 1126     		mov	r6, #17
 875              	.L72:
 876              	.LVL116:
 381:.\sd/sdmm.c   **** 	if (send_cmd(cmd, sector) == 0) {
 877              		.loc 1 381 0 discriminator 4
 878 0024 301C     		mov	r0, r6
 879 0026 391C     		mov	r1, r7
 880 0028 FFF7FEFF 		bl	send_cmd
 881              	.LVL117:
 882 002c 0028     		cmp	r0, #0
ARM GAS  C:\Users\Jarik\AppData\Local\Temp\ccuZrN4M.s 			page 24


 883 002e 13D1     		bne	.L73
 884              	.L75:
 382:.\sd/sdmm.c   **** 		do {
 383:.\sd/sdmm.c   **** 			if (!rcvr_datablock(buff, 512)) break;
 885              		.loc 1 383 0
 886 0030 281C     		mov	r0, r5
 887 0032 8021     		mov	r1, #128
 888 0034 8900     		lsl	r1, r1, #2
 889 0036 FFF7FEFF 		bl	rcvr_datablock
 890              	.LVL118:
 891 003a 0028     		cmp	r0, #0
 892 003c 06D0     		beq	.L74
 384:.\sd/sdmm.c   **** 			buff += 512;
 893              		.loc 1 384 0
 894 003e 8023     		mov	r3, #128
 895 0040 9B00     		lsl	r3, r3, #2
 896 0042 9C46     		mov	ip, r3
 897 0044 6544     		add	r5, r5, ip
 898              	.LVL119:
 385:.\sd/sdmm.c   **** 		} while (--count);
 899              		.loc 1 385 0
 900 0046 013C     		sub	r4, r4, #1
 901              	.LVL120:
 902 0048 002C     		cmp	r4, #0
 903 004a F1D1     		bne	.L75
 904              	.L74:
 386:.\sd/sdmm.c   **** 		if (cmd == CMD18) send_cmd(CMD12, 0);	/* STOP_TRANSMISSION */
 905              		.loc 1 386 0
 906 004c 122E     		cmp	r6, #18
 907 004e 03D1     		bne	.L73
 908              		.loc 1 386 0 is_stmt 0 discriminator 1
 909 0050 0C20     		mov	r0, #12
 910 0052 0021     		mov	r1, #0
 911 0054 FFF7FEFF 		bl	send_cmd
 912              	.LVL121:
 913              	.L73:
 387:.\sd/sdmm.c   **** 	}
 388:.\sd/sdmm.c   **** 	deselect();
 914              		.loc 1 388 0 is_stmt 1
 915 0058 FFF7FEFF 		bl	deselect
 916              	.LVL122:
 389:.\sd/sdmm.c   **** 
 390:.\sd/sdmm.c   **** 	return count ? RES_ERROR : RES_OK;
 917              		.loc 1 390 0
 918 005c 601E     		sub	r0, r4, #1
 919 005e 8441     		sbc	r4, r4, r0
 920              	.LVL123:
 921 0060 E0B2     		uxtb	r0, r4
 922 0062 00E0     		b	.L70
 923              	.LVL124:
 924              	.L76:
 377:.\sd/sdmm.c   **** 	if (!(CardType & CT_BLOCK)) sector *= 512;	/* Convert LBA to byte address if needed */
 925              		.loc 1 377 0
 926 0064 0320     		mov	r0, #3
 927              	.LVL125:
 928              	.L70:
 391:.\sd/sdmm.c   **** }
ARM GAS  C:\Users\Jarik\AppData\Local\Temp\ccuZrN4M.s 			page 25


 929              		.loc 1 391 0
 930              		@ sp needed
 931              	.LVL126:
 932              	.LVL127:
 933 0066 F8BD     		pop	{r3, r4, r5, r6, r7, pc}
 934              	.L79:
 935              		.align	2
 936              	.L78:
 937 0068 00000000 		.word	.LANCHOR1
 938              		.cfi_endproc
 939              	.LFE43:
 940              		.size	disk_read, .-disk_read
 941              		.section	.text.disk_write,"ax",%progbits
 942              		.align	2
 943              		.global	disk_write
 944              		.code	16
 945              		.thumb_func
 946              		.type	disk_write, %function
 947              	disk_write:
 948              	.LFB44:
 392:.\sd/sdmm.c   **** 
 393:.\sd/sdmm.c   **** 
 394:.\sd/sdmm.c   **** 
 395:.\sd/sdmm.c   **** /*-----------------------------------------------------------------------*/
 396:.\sd/sdmm.c   **** /* Write Sector(s)                                                       */
 397:.\sd/sdmm.c   **** /*-----------------------------------------------------------------------*/
 398:.\sd/sdmm.c   **** 
 399:.\sd/sdmm.c   **** DRESULT disk_write (
 400:.\sd/sdmm.c   **** 	BYTE drv,			/* Physical drive nmuber (0) */
 401:.\sd/sdmm.c   **** 	const BYTE *buff,	/* Pointer to the data to be written */
 402:.\sd/sdmm.c   **** 	DWORD sector,		/* Start sector number (LBA) */
 403:.\sd/sdmm.c   **** 	UINT count			/* Sector count (1..128) */
 404:.\sd/sdmm.c   **** )
 405:.\sd/sdmm.c   **** {
 949              		.loc 1 405 0
 950              		.cfi_startproc
 951              	.LVL128:
 952 0000 70B5     		push	{r4, r5, r6, lr}
 953              		.cfi_def_cfa_offset 16
 954              		.cfi_offset 4, -16
 955              		.cfi_offset 5, -12
 956              		.cfi_offset 6, -8
 957              		.cfi_offset 14, -4
 958 0002 0D1C     		mov	r5, r1
 959 0004 161C     		mov	r6, r2
 960 0006 1C1C     		mov	r4, r3
 406:.\sd/sdmm.c   **** 	if (disk_status(drv) & STA_NOINIT) return RES_NOTRDY;
 961              		.loc 1 406 0
 962 0008 FFF7FEFF 		bl	disk_status
 963              	.LVL129:
 964 000c C307     		lsl	r3, r0, #31
 965 000e 3DD4     		bmi	.L88
 407:.\sd/sdmm.c   **** 	if (!(CardType & CT_BLOCK)) sector *= 512;	/* Convert LBA to byte address if needed */
 966              		.loc 1 407 0
 967 0010 1F4B     		ldr	r3, .L91
 968 0012 1B78     		ldrb	r3, [r3]
 969 0014 1A07     		lsl	r2, r3, #28
ARM GAS  C:\Users\Jarik\AppData\Local\Temp\ccuZrN4M.s 			page 26


 970 0016 00D4     		bmi	.L82
 971              		.loc 1 407 0 is_stmt 0 discriminator 1
 972 0018 7602     		lsl	r6, r6, #9
 973              	.LVL130:
 974              	.L82:
 408:.\sd/sdmm.c   **** 
 409:.\sd/sdmm.c   **** 	if (count == 1) {	/* Single block write */
 975              		.loc 1 409 0 is_stmt 1
 976 001a 012C     		cmp	r4, #1
 977 001c 0CD1     		bne	.L83
 410:.\sd/sdmm.c   **** 		if ((send_cmd(CMD24, sector) == 0)	/* WRITE_BLOCK */
 978              		.loc 1 410 0
 979 001e 1820     		mov	r0, #24
 980 0020 311C     		mov	r1, r6
 981 0022 FFF7FEFF 		bl	send_cmd
 982              	.LVL131:
 983 0026 0028     		cmp	r0, #0
 984 0028 2AD1     		bne	.L84
 411:.\sd/sdmm.c   **** 			&& xmit_datablock(buff, 0xFE))
 985              		.loc 1 411 0
 986 002a 281C     		mov	r0, r5
 987 002c FE21     		mov	r1, #254
 988 002e FFF7FEFF 		bl	xmit_datablock
 989              	.LVL132:
 990 0032 0028     		cmp	r0, #0
 991 0034 21D1     		bne	.L89
 992 0036 23E0     		b	.L84
 993              	.L83:
 412:.\sd/sdmm.c   **** 			count = 0;
 413:.\sd/sdmm.c   **** 	}
 414:.\sd/sdmm.c   **** 	else {				/* Multiple block write */
 415:.\sd/sdmm.c   **** 		if (CardType & CT_SDC) send_cmd(ACMD23, count);
 994              		.loc 1 415 0
 995 0038 0622     		mov	r2, #6
 996 003a 1A42     		tst	r2, r3
 997 003c 03D0     		beq	.L85
 998              		.loc 1 415 0 is_stmt 0 discriminator 1
 999 003e 9720     		mov	r0, #151
 1000 0040 211C     		mov	r1, r4
 1001 0042 FFF7FEFF 		bl	send_cmd
 1002              	.LVL133:
 1003              	.L85:
 416:.\sd/sdmm.c   **** 		if (send_cmd(CMD25, sector) == 0) {	/* WRITE_MULTIPLE_BLOCK */
 1004              		.loc 1 416 0 is_stmt 1
 1005 0046 1920     		mov	r0, #25
 1006 0048 311C     		mov	r1, r6
 1007 004a FFF7FEFF 		bl	send_cmd
 1008              	.LVL134:
 1009 004e 0028     		cmp	r0, #0
 1010 0050 16D1     		bne	.L84
 1011              	.L87:
 417:.\sd/sdmm.c   **** 			do {
 418:.\sd/sdmm.c   **** 				if (!xmit_datablock(buff, 0xFC)) break;
 1012              		.loc 1 418 0
 1013 0052 281C     		mov	r0, r5
 1014 0054 FC21     		mov	r1, #252
 1015 0056 FFF7FEFF 		bl	xmit_datablock
ARM GAS  C:\Users\Jarik\AppData\Local\Temp\ccuZrN4M.s 			page 27


 1016              	.LVL135:
 1017 005a 0028     		cmp	r0, #0
 1018 005c 06D0     		beq	.L86
 419:.\sd/sdmm.c   **** 				buff += 512;
 1019              		.loc 1 419 0
 1020 005e 8023     		mov	r3, #128
 1021 0060 9B00     		lsl	r3, r3, #2
 1022 0062 9C46     		mov	ip, r3
 1023 0064 6544     		add	r5, r5, ip
 1024              	.LVL136:
 420:.\sd/sdmm.c   **** 			} while (--count);
 1025              		.loc 1 420 0
 1026 0066 013C     		sub	r4, r4, #1
 1027              	.LVL137:
 1028 0068 002C     		cmp	r4, #0
 1029 006a F2D1     		bne	.L87
 1030              	.L86:
 421:.\sd/sdmm.c   **** 			if (!xmit_datablock(0, 0xFD))	/* STOP_TRAN token */
 1031              		.loc 1 421 0
 1032 006c 0020     		mov	r0, #0
 1033 006e FD21     		mov	r1, #253
 1034 0070 FFF7FEFF 		bl	xmit_datablock
 1035              	.LVL138:
 1036 0074 0028     		cmp	r0, #0
 1037 0076 02D0     		beq	.L90
 1038 0078 02E0     		b	.L84
 1039              	.L89:
 412:.\sd/sdmm.c   **** 	}
 1040              		.loc 1 412 0
 1041 007a 0024     		mov	r4, #0
 1042              	.LVL139:
 1043 007c 00E0     		b	.L84
 1044              	.LVL140:
 1045              	.L90:
 422:.\sd/sdmm.c   **** 				count = 1;
 1046              		.loc 1 422 0
 1047 007e 0124     		mov	r4, #1
 1048              	.LVL141:
 1049              	.L84:
 423:.\sd/sdmm.c   **** 		}
 424:.\sd/sdmm.c   **** 	}
 425:.\sd/sdmm.c   **** 	deselect();
 1050              		.loc 1 425 0
 1051 0080 FFF7FEFF 		bl	deselect
 1052              	.LVL142:
 426:.\sd/sdmm.c   **** 
 427:.\sd/sdmm.c   **** 	return count ? RES_ERROR : RES_OK;
 1053              		.loc 1 427 0
 1054 0084 601E     		sub	r0, r4, #1
 1055 0086 8441     		sbc	r4, r4, r0
 1056              	.LVL143:
 1057 0088 E0B2     		uxtb	r0, r4
 1058 008a 00E0     		b	.L81
 1059              	.LVL144:
 1060              	.L88:
 406:.\sd/sdmm.c   **** 	if (!(CardType & CT_BLOCK)) sector *= 512;	/* Convert LBA to byte address if needed */
 1061              		.loc 1 406 0
ARM GAS  C:\Users\Jarik\AppData\Local\Temp\ccuZrN4M.s 			page 28


 1062 008c 0320     		mov	r0, #3
 1063              	.LVL145:
 1064              	.L81:
 428:.\sd/sdmm.c   **** }
 1065              		.loc 1 428 0
 1066              		@ sp needed
 1067              	.LVL146:
 1068              	.LVL147:
 1069 008e 70BD     		pop	{r4, r5, r6, pc}
 1070              	.L92:
 1071              		.align	2
 1072              	.L91:
 1073 0090 00000000 		.word	.LANCHOR1
 1074              		.cfi_endproc
 1075              	.LFE44:
 1076              		.size	disk_write, .-disk_write
 1077              		.section	.text.disk_ioctl,"ax",%progbits
 1078              		.align	2
 1079              		.global	disk_ioctl
 1080              		.code	16
 1081              		.thumb_func
 1082              		.type	disk_ioctl, %function
 1083              	disk_ioctl:
 1084              	.LFB45:
 429:.\sd/sdmm.c   **** 
 430:.\sd/sdmm.c   **** 
 431:.\sd/sdmm.c   **** /*-----------------------------------------------------------------------*/
 432:.\sd/sdmm.c   **** /* Miscellaneous Functions                                               */
 433:.\sd/sdmm.c   **** /*-----------------------------------------------------------------------*/
 434:.\sd/sdmm.c   **** 
 435:.\sd/sdmm.c   **** DRESULT disk_ioctl (
 436:.\sd/sdmm.c   **** 	BYTE drv,		/* Physical drive nmuber (0) */
 437:.\sd/sdmm.c   **** 	BYTE ctrl,		/* Control code */
 438:.\sd/sdmm.c   **** 	void *buff		/* Buffer to send/receive control data */
 439:.\sd/sdmm.c   **** )
 440:.\sd/sdmm.c   **** {
 1085              		.loc 1 440 0
 1086              		.cfi_startproc
 1087              	.LVL148:
 1088 0000 30B5     		push	{r4, r5, lr}
 1089              		.cfi_def_cfa_offset 12
 1090              		.cfi_offset 4, -12
 1091              		.cfi_offset 5, -8
 1092              		.cfi_offset 14, -4
 1093 0002 85B0     		sub	sp, sp, #20
 1094              		.cfi_def_cfa_offset 32
 1095 0004 0C1C     		mov	r4, r1
 1096 0006 151C     		mov	r5, r2
 441:.\sd/sdmm.c   **** 	DRESULT res;
 442:.\sd/sdmm.c   **** 	BYTE n, csd[16];
 443:.\sd/sdmm.c   **** 	DWORD cs;
 444:.\sd/sdmm.c   **** 
 445:.\sd/sdmm.c   **** 
 446:.\sd/sdmm.c   **** 	if (disk_status(drv) & STA_NOINIT) return RES_NOTRDY;	/* Check if card is in the socket */
 1097              		.loc 1 446 0
 1098 0008 FFF7FEFF 		bl	disk_status
 1099              	.LVL149:
ARM GAS  C:\Users\Jarik\AppData\Local\Temp\ccuZrN4M.s 			page 29


 1100 000c C307     		lsl	r3, r0, #31
 1101 000e 5BD4     		bmi	.L100
 1102              	.LVL150:
 447:.\sd/sdmm.c   **** 
 448:.\sd/sdmm.c   **** 	res = RES_ERROR;
 449:.\sd/sdmm.c   **** 	switch (ctrl) {
 1103              		.loc 1 449 0
 1104 0010 012C     		cmp	r4, #1
 1105 0012 0AD0     		beq	.L96
 1106 0014 002C     		cmp	r4, #0
 1107 0016 02D0     		beq	.L97
 1108 0018 032C     		cmp	r4, #3
 1109 001a 46D0     		beq	.L98
 1110 001c 49E0     		b	.L105
 1111              	.L97:
 450:.\sd/sdmm.c   **** 		case CTRL_SYNC :		/* Make sure that no pending write process */
 451:.\sd/sdmm.c   **** 			if (select()) res = RES_OK;
 1112              		.loc 1 451 0
 1113 001e FFF7FEFF 		bl	select
 1114              	.LVL151:
 1115 0022 0028     		cmp	r0, #0
 1116 0024 47D1     		bne	.L102
 448:.\sd/sdmm.c   **** 	switch (ctrl) {
 1117              		.loc 1 448 0
 1118 0026 0124     		mov	r4, #1
 1119 0028 4AE0     		b	.L95
 1120              	.L96:
 452:.\sd/sdmm.c   **** 			break;
 453:.\sd/sdmm.c   **** 
 454:.\sd/sdmm.c   **** 		case GET_SECTOR_COUNT :	/* Get number of sectors on the disk (DWORD) */
 455:.\sd/sdmm.c   **** 			if ((send_cmd(CMD9, 0) == 0) && rcvr_datablock(csd, 16)) {
 1121              		.loc 1 455 0
 1122 002a 0920     		mov	r0, #9
 1123 002c 0021     		mov	r1, #0
 1124 002e FFF7FEFF 		bl	send_cmd
 1125              	.LVL152:
 1126 0032 0028     		cmp	r0, #0
 1127 0034 41D1     		bne	.L103
 1128              		.loc 1 455 0 is_stmt 0 discriminator 1
 1129 0036 6846     		mov	r0, sp
 1130 0038 1021     		mov	r1, #16
 1131 003a FFF7FEFF 		bl	rcvr_datablock
 1132              	.LVL153:
 1133 003e 0028     		cmp	r0, #0
 1134 0040 3DD0     		beq	.L104
 456:.\sd/sdmm.c   **** 				if ((csd[0] >> 6) == 1) {	/* SDC ver 2.00 */
 1135              		.loc 1 456 0 is_stmt 1
 1136 0042 6B46     		mov	r3, sp
 1137 0044 1B78     		ldrb	r3, [r3]
 1138 0046 9B09     		lsr	r3, r3, #6
 1139 0048 012B     		cmp	r3, #1
 1140 004a 0FD1     		bne	.L99
 457:.\sd/sdmm.c   **** 					cs = csd[9] + ((WORD)csd[8] << 8) + ((DWORD)(csd[7] & 63) << 16) + 1;
 1141              		.loc 1 457 0
 1142 004c 6B46     		mov	r3, sp
 1143 004e 597A     		ldrb	r1, [r3, #9]
 1144 0050 1B7A     		ldrb	r3, [r3, #8]
ARM GAS  C:\Users\Jarik\AppData\Local\Temp\ccuZrN4M.s 			page 30


 1145 0052 1B02     		lsl	r3, r3, #8
 1146 0054 C918     		add	r1, r1, r3
 1147 0056 6B46     		mov	r3, sp
 1148 0058 DA79     		ldrb	r2, [r3, #7]
 1149 005a 3F23     		mov	r3, #63
 1150 005c 1340     		and	r3, r2
 1151 005e 1B04     		lsl	r3, r3, #16
 1152 0060 CB18     		add	r3, r1, r3
 1153 0062 0133     		add	r3, r3, #1
 1154              	.LVL154:
 458:.\sd/sdmm.c   **** 					*(DWORD*)buff = cs << 10;
 1155              		.loc 1 458 0
 1156 0064 9B02     		lsl	r3, r3, #10
 1157              	.LVL155:
 1158 0066 2B60     		str	r3, [r5]
 459:.\sd/sdmm.c   **** 				} else {					/* SDC ver 1.XX or MMC */
 460:.\sd/sdmm.c   **** 					n = (csd[5] & 15) + ((csd[10] & 128) >> 7) + ((csd[9] & 3) << 1) + 2;
 461:.\sd/sdmm.c   **** 					cs = (csd[8] >> 6) + ((WORD)csd[7] << 2) + ((WORD)(csd[6] & 3) << 10) + 1;
 462:.\sd/sdmm.c   **** 					*(DWORD*)buff = cs << (n - 9);
 463:.\sd/sdmm.c   **** 				}
 464:.\sd/sdmm.c   **** 				res = RES_OK;
 1159              		.loc 1 464 0
 1160 0068 0024     		mov	r4, #0
 1161 006a 29E0     		b	.L95
 1162              	.LVL156:
 1163              	.L99:
 460:.\sd/sdmm.c   **** 					cs = (csd[8] >> 6) + ((WORD)csd[7] << 2) + ((WORD)(csd[6] & 3) << 10) + 1;
 1164              		.loc 1 460 0
 1165 006c 6B46     		mov	r3, sp
 1166 006e 5A79     		ldrb	r2, [r3, #5]
 1167 0070 997A     		ldrb	r1, [r3, #10]
 1168 0072 C809     		lsr	r0, r1, #7
 1169 0074 5B7A     		ldrb	r3, [r3, #9]
 1170 0076 0F21     		mov	r1, #15
 1171 0078 1140     		and	r1, r2
 1172 007a 4118     		add	r1, r0, r1
 1173 007c 0322     		mov	r2, #3
 1174 007e 1340     		and	r3, r2
 1175 0080 5B00     		lsl	r3, r3, #1
 1176 0082 CB18     		add	r3, r1, r3
 1177 0084 0233     		add	r3, r3, #2
 1178 0086 DBB2     		uxtb	r3, r3
 1179              	.LVL157:
 461:.\sd/sdmm.c   **** 					*(DWORD*)buff = cs << (n - 9);
 1180              		.loc 1 461 0
 1181 0088 6946     		mov	r1, sp
 1182 008a 087A     		ldrb	r0, [r1, #8]
 1183 008c 8409     		lsr	r4, r0, #6
 1184 008e C879     		ldrb	r0, [r1, #7]
 1185 0090 8100     		lsl	r1, r0, #2
 1186 0092 6018     		add	r0, r4, r1
 1187 0094 6946     		mov	r1, sp
 1188 0096 8979     		ldrb	r1, [r1, #6]
 1189 0098 0A40     		and	r2, r1
 1190 009a 9202     		lsl	r2, r2, #10
 1191 009c 8218     		add	r2, r0, r2
 1192 009e 0132     		add	r2, r2, #1
ARM GAS  C:\Users\Jarik\AppData\Local\Temp\ccuZrN4M.s 			page 31


 1193              	.LVL158:
 462:.\sd/sdmm.c   **** 				}
 1194              		.loc 1 462 0
 1195 00a0 093B     		sub	r3, r3, #9
 1196              	.LVL159:
 1197 00a2 9A40     		lsl	r2, r2, r3
 1198              	.LVL160:
 1199 00a4 2A60     		str	r2, [r5]
 1200              		.loc 1 464 0
 1201 00a6 0024     		mov	r4, #0
 1202 00a8 0AE0     		b	.L95
 1203              	.LVL161:
 1204              	.L98:
 465:.\sd/sdmm.c   **** 			}
 466:.\sd/sdmm.c   **** 			break;
 467:.\sd/sdmm.c   **** 
 468:.\sd/sdmm.c   **** 		case GET_BLOCK_SIZE :	/* Get erase block size in unit of sector (DWORD) */
 469:.\sd/sdmm.c   **** 			*(DWORD*)buff = 128;
 1205              		.loc 1 469 0
 1206 00aa 8023     		mov	r3, #128
 1207 00ac 2B60     		str	r3, [r5]
 1208              	.LVL162:
 470:.\sd/sdmm.c   **** 			res = RES_OK;
 1209              		.loc 1 470 0
 1210 00ae 0024     		mov	r4, #0
 471:.\sd/sdmm.c   **** 			break;
 1211              		.loc 1 471 0
 1212 00b0 06E0     		b	.L95
 1213              	.LVL163:
 1214              	.L105:
 472:.\sd/sdmm.c   **** 
 473:.\sd/sdmm.c   **** 		default:
 474:.\sd/sdmm.c   **** 			res = RES_PARERR;
 1215              		.loc 1 474 0
 1216 00b2 0424     		mov	r4, #4
 1217 00b4 04E0     		b	.L95
 1218              	.L102:
 451:.\sd/sdmm.c   **** 			break;
 1219              		.loc 1 451 0
 1220 00b6 0024     		mov	r4, #0
 1221 00b8 02E0     		b	.L95
 1222              	.L103:
 448:.\sd/sdmm.c   **** 	switch (ctrl) {
 1223              		.loc 1 448 0
 1224 00ba 0124     		mov	r4, #1
 1225 00bc 00E0     		b	.L95
 1226              	.L104:
 1227 00be 0124     		mov	r4, #1
 1228              	.LVL164:
 1229              	.L95:
 475:.\sd/sdmm.c   **** 	}
 476:.\sd/sdmm.c   **** 
 477:.\sd/sdmm.c   **** 	deselect();
 1230              		.loc 1 477 0
 1231 00c0 FFF7FEFF 		bl	deselect
 1232              	.LVL165:
 478:.\sd/sdmm.c   **** 
ARM GAS  C:\Users\Jarik\AppData\Local\Temp\ccuZrN4M.s 			page 32


 479:.\sd/sdmm.c   **** 	return res;
 1233              		.loc 1 479 0
 1234 00c4 201C     		mov	r0, r4
 1235 00c6 00E0     		b	.L94
 1236              	.LVL166:
 1237              	.L100:
 446:.\sd/sdmm.c   **** 
 1238              		.loc 1 446 0
 1239 00c8 0320     		mov	r0, #3
 1240              	.L94:
 480:.\sd/sdmm.c   **** }
 1241              		.loc 1 480 0
 1242 00ca 05B0     		add	sp, sp, #20
 1243              		@ sp needed
 1244              	.LVL167:
 1245 00cc 30BD     		pop	{r4, r5, pc}
 1246              		.cfi_endproc
 1247              	.LFE45:
 1248              		.size	disk_ioctl, .-disk_ioctl
 1249 00ce C046     		.section	.text.get_fattime,"ax",%progbits
 1250              		.align	2
 1251              		.global	get_fattime
 1252              		.code	16
 1253              		.thumb_func
 1254              		.type	get_fattime, %function
 1255              	get_fattime:
 1256              	.LFB46:
 481:.\sd/sdmm.c   **** DWORD get_fattime(void)
 482:.\sd/sdmm.c   **** {
 1257              		.loc 1 482 0
 1258              		.cfi_startproc
 483:.\sd/sdmm.c   ****     return 0b01000000100011110000001100100001;
 484:.\sd/sdmm.c   **** }
 1259              		.loc 1 484 0
 1260 0000 0048     		ldr	r0, .L107
 1261              		@ sp needed
 1262 0002 7047     		bx	lr
 1263              	.L108:
 1264              		.align	2
 1265              	.L107:
 1266 0004 21038F40 		.word	1083114273
 1267              		.cfi_endproc
 1268              	.LFE46:
 1269              		.size	get_fattime, .-get_fattime
 1270              		.section	.text.disk_init,"ax",%progbits
 1271              		.align	2
 1272              		.global	disk_init
 1273              		.code	16
 1274              		.thumb_func
 1275              		.type	disk_init, %function
 1276              	disk_init:
 1277              	.LFB47:
 485:.\sd/sdmm.c   **** 
 486:.\sd/sdmm.c   **** void disk_init(void)
 487:.\sd/sdmm.c   **** {
 1278              		.loc 1 487 0
 1279              		.cfi_startproc
ARM GAS  C:\Users\Jarik\AppData\Local\Temp\ccuZrN4M.s 			page 33


 1280 0000 08B5     		push	{r3, lr}
 1281              		.cfi_def_cfa_offset 8
 1282              		.cfi_offset 3, -8
 1283              		.cfi_offset 14, -4
 488:.\sd/sdmm.c   ****     disk_initialize (0);		/* Physical drive nmuber (0) */
 1284              		.loc 1 488 0
 1285 0002 0020     		mov	r0, #0
 1286 0004 FFF7FEFF 		bl	disk_initialize
 1287              	.LVL168:
 489:.\sd/sdmm.c   **** }...
 1288              		.loc 1 489 0
 1289              		@ sp needed
 1290 0008 08BD     		pop	{r3, pc}
 1291              		.cfi_endproc
 1292              	.LFE47:
 1293              		.size	disk_init, .-disk_init
 1294 000a C046     		.data
 1295              		.set	.LANCHOR0,. + 0
 1296              		.type	Stat, %object
 1297              		.size	Stat, 1
 1298              	Stat:
 1299 0000 01       		.byte	1
 1300              		.bss
 1301              		.set	.LANCHOR1,. + 0
 1302              		.type	CardType, %object
 1303              		.size	CardType, 1
 1304              	CardType:
 1305 0000 00       		.space	1
 1306              		.text
 1307              	.Letext0:
 1308              		.file 2 "c:\\program files\\cypress\\psoc creator\\3.3\\psoc creator\\import\\gnu\\arm\\4.9.3\\arm
 1309              		.file 3 "c:\\program files\\cypress\\psoc creator\\3.3\\psoc creator\\import\\gnu\\arm\\4.9.3\\arm
 1310              		.file 4 "./sd/integer.h"
 1311              		.file 5 "./sd/diskio.h"
 1312              		.file 6 "Generated_Source\\PSoC4/cytypes.h"
 1313              		.file 7 "Generated_Source\\PSoC4/CyLib.h"
 1314              		.file 8 "Generated_Source\\PSoC4/SPI_CS.h"
 1315              		.file 9 "./sd/SPI_routines.h"