ARM GAS  C:\Users\Jarik\AppData\Local\Temp\ccYCP5ho.s 			page 1


   1              		.cpu cortex-m0
   2              		.fpu softvfp
   3              		.eabi_attribute 20, 1
   4              		.eabi_attribute 21, 1
   5              		.eabi_attribute 23, 3
   6              		.eabi_attribute 24, 1
   7              		.eabi_attribute 25, 1
   8              		.eabi_attribute 26, 1
   9              		.eabi_attribute 30, 1
  10              		.eabi_attribute 34, 0
  11              		.eabi_attribute 18, 4
  12              		.code	16
  13              		.file	"cmd.c"
  14              		.text
  15              	.Ltext0:
  16              		.cfi_sections	.debug_frame
  17              		.section	.text.ls_files,"ax",%progbits
  18              		.align	2
  19              		.global	ls_files
  20              		.code	16
  21              		.thumb_func
  22              		.type	ls_files, %function
  23              	ls_files:
  24              	.LFB33:
  25              		.file 1 ".\\cmd.c"
   1:.\cmd.c       **** /* ========================================
   2:.\cmd.c       ****  *
   3:.\cmd.c       ****  * Copyright YOUR COMPANY, THE YEAR
   4:.\cmd.c       ****  * All Rights Reserved
   5:.\cmd.c       ****  * UNPUBLISHED, LICENSED SOFTWARE.
   6:.\cmd.c       ****  *
   7:.\cmd.c       ****  * CONFIDENTIAL AND PROPRIETARY INFORMATION
   8:.\cmd.c       ****  * WHICH IS THE PROPERTY OF your company.
   9:.\cmd.c       ****  *
  10:.\cmd.c       ****  * ========================================
  11:.\cmd.c       **** */
  12:.\cmd.c       **** #include <stdint.h>
  13:.\cmd.c       **** #include <project.h>
  14:.\cmd.c       **** #include "sd/ff.h"
  15:.\cmd.c       **** 
  16:.\cmd.c       **** FRESULT f_closedir (
  17:.\cmd.c       ****   DIR* dp     /* [IN] Pointer to the directory object */
  18:.\cmd.c       **** );
  19:.\cmd.c       **** uint16_t sector_size=512;
  20:.\cmd.c       **** FIL disk;
  21:.\cmd.c       **** extern FIL log_file;
  22:.\cmd.c       **** void reinit_fs(void);
  23:.\cmd.c       **** void write_map(void);
  24:.\cmd.c       **** void fatal_error(void);
  25:.\cmd.c       **** char oct_buf[10];
  26:.\cmd.c       **** FRESULT map_image(uint8_t disk_n, FIL *img_file);
  27:.\cmd.c       **** void read_map(void);
  28:.\cmd.c       **** #define logging 1
  29:.\cmd.c       **** 
  30:.\cmd.c       **** 
  31:.\cmd.c       **** void ls_files(uint8_t *buf, int file_number, int files)
  32:.\cmd.c       **** {
ARM GAS  C:\Users\Jarik\AppData\Local\Temp\ccYCP5ho.s 			page 2


  26              		.loc 1 32 0
  27              		.cfi_startproc
  28              	.LVL0:
  29 0000 F0B5     		push	{r4, r5, r6, r7, lr}
  30              		.cfi_def_cfa_offset 20
  31              		.cfi_offset 4, -20
  32              		.cfi_offset 5, -16
  33              		.cfi_offset 6, -12
  34              		.cfi_offset 7, -8
  35              		.cfi_offset 14, -4
  36 0002 5746     		mov	r7, r10
  37 0004 4E46     		mov	r6, r9
  38 0006 4546     		mov	r5, r8
  39 0008 E0B4     		push	{r5, r6, r7}
  40              		.cfi_def_cfa_offset 32
  41              		.cfi_offset 8, -32
  42              		.cfi_offset 9, -28
  43              		.cfi_offset 10, -24
  44 000a 8EB0     		sub	sp, sp, #56
  45              		.cfi_def_cfa_offset 88
  46 000c 071C     		mov	r7, r0
  47 000e 8846     		mov	r8, r1
  48 0010 9246     		mov	r10, r2
  49              	.LVL1:
  33:.\cmd.c       ****     FRESULT res;
  34:.\cmd.c       ****     FILINFO fno;
  35:.\cmd.c       ****     DIR dir;
  36:.\cmd.c       ****     char *fn; 
  37:.\cmd.c       ****     int f_counter=0;
  38:.\cmd.c       ****     int length=0;
  39:.\cmd.c       ****     res = f_opendir(&dir, "/disks"); 
  50              		.loc 1 39 0
  51 0012 01A8     		add	r0, sp, #4
  52              	.LVL2:
  53 0014 1A49     		ldr	r1, .L10
  54              	.LVL3:
  55 0016 FFF7FEFF 		bl	f_opendir
  56              	.LVL4:
  40:.\cmd.c       ****     if(res!=FR_OK) fatal_error();
  57              		.loc 1 40 0
  58 001a 0028     		cmp	r0, #0
  59 001c 01D0     		beq	.L2
  60              		.loc 1 40 0 is_stmt 0 discriminator 1
  61 001e FFF7FEFF 		bl	fatal_error
  62              	.LVL5:
  63              	.L2:
  32:.\cmd.c       **** {
  64              		.loc 1 32 0 is_stmt 1
  65 0022 0024     		mov	r4, #0
  66 0024 0025     		mov	r5, #0
  41:.\cmd.c       ****     for (;;) {
  42:.\cmd.c       ****                 res = f_readdir(&dir, &fno);                   /* Read a directory item */
  67              		.loc 1 42 0
  68 0026 08AE     		add	r6, sp, #32
  43:.\cmd.c       ****                 if (res != FR_OK || fno.fname[0] == 0) break;  /* Break on error or end of dir */
  44:.\cmd.c       ****                 if (fno.fname[0] == '.') continue;             /* Ignore dot entry */
  45:.\cmd.c       ****                 fn = fno.fname;
ARM GAS  C:\Users\Jarik\AppData\Local\Temp\ccYCP5ho.s 			page 3


  46:.\cmd.c       ****                 if((f_counter>=file_number) && (f_counter<(file_number+files)) && (files>0))
  69              		.loc 1 46 0
  70 0028 C146     		mov	r9, r8
  71 002a D144     		add	r9, r9, r10
  72              	.LVL6:
  73              	.L9:
  42:.\cmd.c       ****                 res = f_readdir(&dir, &fno);                   /* Read a directory item */
  74              		.loc 1 42 0
  75 002c 01A8     		add	r0, sp, #4
  76 002e 311C     		mov	r1, r6
  77 0030 FFF7FEFF 		bl	f_readdir
  78              	.LVL7:
  43:.\cmd.c       ****                 if (res != FR_OK || fno.fname[0] == 0) break;  /* Break on error or end of dir */
  79              		.loc 1 43 0
  80 0034 0028     		cmp	r0, #0
  81 0036 17D1     		bne	.L4
  43:.\cmd.c       ****                 if (res != FR_OK || fno.fname[0] == 0) break;  /* Break on error or end of dir */
  82              		.loc 1 43 0 is_stmt 0 discriminator 1
  83 0038 737A     		ldrb	r3, [r6, #9]
  84 003a 002B     		cmp	r3, #0
  85 003c 14D0     		beq	.L4
  44:.\cmd.c       ****                 if (fno.fname[0] == '.') continue;             /* Ignore dot entry */
  86              		.loc 1 44 0 is_stmt 1
  87 003e 2E2B     		cmp	r3, #46
  88 0040 F4D0     		beq	.L9
  89              	.LVL8:
  90              		.loc 1 46 0
  91 0042 4545     		cmp	r5, r8
  92 0044 0EDB     		blt	.L6
  93              		.loc 1 46 0 is_stmt 0 discriminator 1
  94 0046 A945     		cmp	r9, r5
  95 0048 0CDD     		ble	.L6
  96 004a 5346     		mov	r3, r10
  97 004c 002B     		cmp	r3, #0
  98 004e 09DD     		ble	.L6
  99              	.LVL9:
 100 0050 6B46     		mov	r3, sp
 101              	.LVL10:
 102 0052 2933     		add	r3, r3, #41
 103              	.LVL11:
 104              	.L7:
  47:.\cmd.c       ****                 {
  48:.\cmd.c       ****                     do
  49:.\cmd.c       ****                     {
  50:.\cmd.c       ****                         buf[4+length++]=*fn;
 105              		.loc 1 50 0 is_stmt 1 discriminator 1
 106 0054 611C     		add	r1, r4, #1
 107              	.LVL12:
 108 0056 0434     		add	r4, r4, #4
 109 0058 1A78     		ldrb	r2, [r3]
 110 005a 3A55     		strb	r2, [r7, r4]
  51:.\cmd.c       ****                     }while(*fn++);
 111              		.loc 1 51 0 discriminator 1
 112 005c 0133     		add	r3, r3, #1
 113              	.LVL13:
  50:.\cmd.c       ****                         buf[4+length++]=*fn;
 114              		.loc 1 50 0 discriminator 1
ARM GAS  C:\Users\Jarik\AppData\Local\Temp\ccYCP5ho.s 			page 4


 115 005e 0C1C     		mov	r4, r1
 116              		.loc 1 51 0 discriminator 1
 117 0060 002A     		cmp	r2, #0
 118 0062 F7D1     		bne	.L7
 119              	.LVL14:
 120              	.L6:
  52:.\cmd.c       ****                 }
  53:.\cmd.c       ****                 f_counter++;
 121              		.loc 1 53 0
 122 0064 0135     		add	r5, r5, #1
 123              	.LVL15:
 124 0066 E1E7     		b	.L9
 125              	.L4:
  54:.\cmd.c       ****                 
  55:.\cmd.c       ****             }
  56:.\cmd.c       ****     buf[0]=length & 0xff;
 126              		.loc 1 56 0
 127 0068 3C70     		strb	r4, [r7]
  57:.\cmd.c       ****     buf[1]=(length>>8) & 0xff;
 128              		.loc 1 57 0
 129 006a 2412     		asr	r4, r4, #8
 130              	.LVL16:
 131 006c 7C70     		strb	r4, [r7, #1]
  58:.\cmd.c       ****     buf[2]=f_counter & 0xff;
 132              		.loc 1 58 0
 133 006e BD70     		strb	r5, [r7, #2]
  59:.\cmd.c       ****     buf[3]=(f_counter>>8) & 0xff;
 134              		.loc 1 59 0
 135 0070 2D12     		asr	r5, r5, #8
 136              	.LVL17:
 137 0072 FD70     		strb	r5, [r7, #3]
  60:.\cmd.c       **** //    f_closedir(&dir);
  61:.\cmd.c       ****         
  62:.\cmd.c       **** }
 138              		.loc 1 62 0
 139 0074 0EB0     		add	sp, sp, #56
 140              		@ sp needed
 141              	.LVL18:
 142              	.LVL19:
 143              	.LVL20:
 144 0076 1CBC     		pop	{r2, r3, r4}
 145 0078 9046     		mov	r8, r2
 146 007a 9946     		mov	r9, r3
 147 007c A246     		mov	r10, r4
 148 007e F0BD     		pop	{r4, r5, r6, r7, pc}
 149              	.L11:
 150              		.align	2
 151              	.L10:
 152 0080 00000000 		.word	.LC0
 153              		.cfi_endproc
 154              	.LFE33:
 155              		.size	ls_files, .-ls_files
 156              		.section	.text.print_oct,"ax",%progbits
 157              		.align	2
 158              		.global	print_oct
 159              		.code	16
 160              		.thumb_func
ARM GAS  C:\Users\Jarik\AppData\Local\Temp\ccYCP5ho.s 			page 5


 161              		.type	print_oct, %function
 162              	print_oct:
 163              	.LFB34:
  63:.\cmd.c       **** 
  64:.\cmd.c       **** void print_oct(uint16_t num)
  65:.\cmd.c       **** {
 164              		.loc 1 65 0
 165              		.cfi_startproc
 166              	.LVL21:
 167 0000 30B5     		push	{r4, r5, lr}
 168              		.cfi_def_cfa_offset 12
 169              		.cfi_offset 4, -12
 170              		.cfi_offset 5, -8
 171              		.cfi_offset 14, -4
 172              	.LVL22:
  66:.\cmd.c       ****     uint8_t i;
  67:.\cmd.c       ****     uint16_t s=num;
  68:.\cmd.c       ****     
  69:.\cmd.c       ****     for(i=0;i<6;i++) oct_buf[i]=32;
 173              		.loc 1 69 0
 174 0002 0023     		mov	r3, #0
 175 0004 0D49     		ldr	r1, .L17
 176 0006 2022     		mov	r2, #32
 177 0008 02E0     		b	.L13
 178              	.LVL23:
 179              	.L14:
 180              		.loc 1 69 0 is_stmt 0 discriminator 2
 181 000a CA54     		strb	r2, [r1, r3]
 182 000c 0133     		add	r3, r3, #1
 183              	.LVL24:
 184 000e DBB2     		uxtb	r3, r3
 185              	.LVL25:
 186              	.L13:
 187              		.loc 1 69 0 discriminator 1
 188 0010 052B     		cmp	r3, #5
 189 0012 FAD9     		bls	.L14
 190              	.LVL26:
  70:.\cmd.c       ****     i=5;
  71:.\cmd.c       ****     oct_buf[i+2]=0;
 191              		.loc 1 71 0 is_stmt 1
 192 0014 094B     		ldr	r3, .L17
 193 0016 0022     		mov	r2, #0
 194 0018 DA71     		strb	r2, [r3, #7]
  72:.\cmd.c       ****     oct_buf[i+1]='\n';
 195              		.loc 1 72 0
 196 001a 0A22     		mov	r2, #10
 197 001c 9A71     		strb	r2, [r3, #6]
  70:.\cmd.c       ****     i=5;
 198              		.loc 1 70 0
 199 001e 0523     		mov	r3, #5
  73:.\cmd.c       ****     while(s)
  74:.\cmd.c       ****     {
  75:.\cmd.c       ****         oct_buf[i--]=48+(s & 0x07);
 200              		.loc 1 75 0
 201 0020 064D     		ldr	r5, .L17
 202 0022 0724     		mov	r4, #7
  73:.\cmd.c       ****     while(s)
ARM GAS  C:\Users\Jarik\AppData\Local\Temp\ccYCP5ho.s 			page 6


 203              		.loc 1 73 0
 204 0024 06E0     		b	.L15
 205              	.LVL27:
 206              	.L16:
 207              		.loc 1 75 0
 208 0026 5A1E     		sub	r2, r3, #1
 209              	.LVL28:
 210 0028 211C     		mov	r1, r4
 211 002a 0140     		and	r1, r0
 212 002c 3031     		add	r1, r1, #48
 213 002e E954     		strb	r1, [r5, r3]
  76:.\cmd.c       ****         s=s>>3;
 214              		.loc 1 76 0
 215 0030 C008     		lsr	r0, r0, #3
 216              	.LVL29:
  75:.\cmd.c       ****         oct_buf[i--]=48+(s & 0x07);
 217              		.loc 1 75 0
 218 0032 D3B2     		uxtb	r3, r2
 219              	.LVL30:
 220              	.L15:
  73:.\cmd.c       ****     while(s)
 221              		.loc 1 73 0 discriminator 1
 222 0034 0028     		cmp	r0, #0
 223 0036 F6D1     		bne	.L16
  77:.\cmd.c       ****     }
  78:.\cmd.c       **** }
 224              		.loc 1 78 0
 225              		@ sp needed
 226 0038 30BD     		pop	{r4, r5, pc}
 227              	.L18:
 228 003a C046     		.align	2
 229              	.L17:
 230 003c 00000000 		.word	oct_buf
 231              		.cfi_endproc
 232              	.LFE34:
 233              		.size	print_oct, .-print_oct
 234              		.global	__aeabi_uidiv
 235              		.section	.text.execute_cmd,"ax",%progbits
 236              		.align	2
 237              		.global	execute_cmd
 238              		.code	16
 239              		.thumb_func
 240              		.type	execute_cmd, %function
 241              	execute_cmd:
 242              	.LFB35:
  79:.\cmd.c       **** 
  80:.\cmd.c       **** void execute_cmd(uint8_t *buf)
  81:.\cmd.c       **** {
 243              		.loc 1 81 0
 244              		.cfi_startproc
 245              	.LVL31:
 246 0000 F0B5     		push	{r4, r5, r6, r7, lr}
 247              		.cfi_def_cfa_offset 20
 248              		.cfi_offset 4, -20
 249              		.cfi_offset 5, -16
 250              		.cfi_offset 6, -12
 251              		.cfi_offset 7, -8
ARM GAS  C:\Users\Jarik\AppData\Local\Temp\ccYCP5ho.s 			page 7


 252              		.cfi_offset 14, -4
 253 0002 5746     		mov	r7, r10
 254 0004 4E46     		mov	r6, r9
 255 0006 4546     		mov	r5, r8
 256 0008 E0B4     		push	{r5, r6, r7}
 257              		.cfi_def_cfa_offset 32
 258              		.cfi_offset 8, -32
 259              		.cfi_offset 9, -28
 260              		.cfi_offset 10, -24
 261 000a 82B0     		sub	sp, sp, #8
 262              		.cfi_def_cfa_offset 40
 263 000c 041C     		mov	r4, r0
 264              	.LVL32:
  82:.\cmd.c       **** FRESULT rc;
  83:.\cmd.c       **** 
  84:.\cmd.c       **** #define RESPONCE buf[0]
  85:.\cmd.c       **** #define D_TYPE buf[2]
  86:.\cmd.c       **** #define DISK_N (buf[3] & 0x7f)
  87:.\cmd.c       **** #define SIDE    (buf[3] & 0x80)
  88:.\cmd.c       **** #define TRACK   buf[4]
  89:.\cmd.c       **** #define SECTOR  buf[5]
  90:.\cmd.c       **** #define CMD     buf[1022]
  91:.\cmd.c       ****     uint8_t spt,sides;
  92:.\cmd.c       ****     uint32_t img_size,file_size,offset,readed;
  93:.\cmd.c       ****     uint16_t tracks,i;
  94:.\cmd.c       ****     spt=10;
  95:.\cmd.c       ****     sides=1;
  96:.\cmd.c       ****     tracks=80;
  97:.\cmd.c       ****     static int log_N;
  98:.\cmd.c       ****     if(CMD==0)
 265              		.loc 1 98 0
 266 000e C04B     		ldr	r3, .L65
 267 0010 C35C     		ldrb	r3, [r0, r3]
 268 0012 002B     		cmp	r3, #0
 269 0014 02D1     		bne	.L20
  99:.\cmd.c       ****     {
 100:.\cmd.c       ****         reinit_fs();
 270              		.loc 1 100 0
 271 0016 FFF7FEFF 		bl	reinit_fs
 272              	.LVL33:
 101:.\cmd.c       ****         return;
 273              		.loc 1 101 0
 274 001a B8E1     		b	.L19
 275              	.LVL34:
 276              	.L20:
 102:.\cmd.c       ****     }
 103:.\cmd.c       ****     if(CMD==5)
 277              		.loc 1 103 0
 278 001c 052B     		cmp	r3, #5
 279 001e 04D1     		bne	.L22
 104:.\cmd.c       ****     {
 105:.\cmd.c       ****         CyDelayUs(1000);
 280              		.loc 1 105 0
 281 0020 FA20     		mov	r0, #250
 282              	.LVL35:
 283 0022 8000     		lsl	r0, r0, #2
 284 0024 FFF7FEFF 		bl	CyDelayUs
ARM GAS  C:\Users\Jarik\AppData\Local\Temp\ccYCP5ho.s 			page 8


 285              	.LVL36:
 106:.\cmd.c       ****         return;
 286              		.loc 1 106 0
 287 0028 B1E1     		b	.L19
 288              	.LVL37:
 289              	.L22:
 107:.\cmd.c       ****     }
 108:.\cmd.c       ****     if(CMD==4)
 290              		.loc 1 108 0
 291 002a 042B     		cmp	r3, #4
 292 002c 5DD1     		bne	.L23
 109:.\cmd.c       ****         {
 110:.\cmd.c       ****             if(D_TYPE>0)
 293              		.loc 1 110 0
 294 002e 8378     		ldrb	r3, [r0, #2]
 295 0030 002B     		cmp	r3, #0
 296 0032 08D1     		bne	.L61
 297 0034 ABE1     		b	.L19
 298              	.LVL38:
 299              	.L25:
 111:.\cmd.c       ****             {
 112:.\cmd.c       **** #ifdef  logging
 113:.\cmd.c       ****                 for(i=0;i<11;i++) buf[512+i]="Log entry:"[i];
 300              		.loc 1 113 0 discriminator 2
 301 0036 8021     		mov	r1, #128
 302 0038 8900     		lsl	r1, r1, #2
 303 003a 5A18     		add	r2, r3, r1
 304 003c C15C     		ldrb	r1, [r0, r3]
 305 003e A154     		strb	r1, [r4, r2]
 306 0040 0133     		add	r3, r3, #1
 307              	.LVL39:
 308 0042 9BB2     		uxth	r3, r3
 309              	.LVL40:
 310 0044 01E0     		b	.L24
 311              	.LVL41:
 312              	.L61:
 313 0046 0023     		mov	r3, #0
 314              		.loc 1 113 0 is_stmt 0
 315 0048 B248     		ldr	r0, .L65+4
 316              	.LVL42:
 317              	.L24:
 318              		.loc 1 113 0 discriminator 1
 319 004a 0A2B     		cmp	r3, #10
 320 004c F3D9     		bls	.L25
 114:.\cmd.c       ****                 rc=f_open(&log_file,"/log.txt",FA_WRITE | FA_READ);
 321              		.loc 1 114 0 is_stmt 1
 322 004e B24D     		ldr	r5, .L65+8
 323 0050 281C     		mov	r0, r5
 324 0052 B249     		ldr	r1, .L65+12
 325 0054 0322     		mov	r2, #3
 326 0056 FFF7FEFF 		bl	f_open
 327              	.LVL43:
 115:.\cmd.c       ****                 rc=f_lseek(&log_file,f_size(&log_file));
 328              		.loc 1 115 0
 329 005a 281C     		mov	r0, r5
 330 005c E968     		ldr	r1, [r5, #12]
 331 005e FFF7FEFF 		bl	f_lseek
ARM GAS  C:\Users\Jarik\AppData\Local\Temp\ccYCP5ho.s 			page 9


 332              	.LVL44:
 116:.\cmd.c       ****                 rc=f_write(&log_file,&buf[512],10,&readed);
 333              		.loc 1 116 0
 334 0062 8022     		mov	r2, #128
 335 0064 9200     		lsl	r2, r2, #2
 336 0066 A118     		add	r1, r4, r2
 337 0068 281C     		mov	r0, r5
 338 006a 0A22     		mov	r2, #10
 339 006c 01AB     		add	r3, sp, #4
 340 006e FFF7FEFF 		bl	f_write
 341              	.LVL45:
 117:.\cmd.c       ****                 if (rc!=FR_OK) RESPONCE=2;
 342              		.loc 1 117 0
 343 0072 0028     		cmp	r0, #0
 344 0074 01D0     		beq	.L26
 345              		.loc 1 117 0 is_stmt 0 discriminator 1
 346 0076 0223     		mov	r3, #2
 347 0078 2370     		strb	r3, [r4]
 348              	.L26:
 118:.\cmd.c       ****                 print_oct(log_N++);
 349              		.loc 1 118 0 is_stmt 1
 350 007a A94B     		ldr	r3, .L65+16
 351 007c 1868     		ldr	r0, [r3]
 352              	.LVL46:
 353 007e 421C     		add	r2, r0, #1
 354 0080 1A60     		str	r2, [r3]
 355 0082 80B2     		uxth	r0, r0
 356 0084 FFF7FEFF 		bl	print_oct
 357              	.LVL47:
 119:.\cmd.c       ****                 rc=f_write(&log_file,oct_buf,7,&readed);
 358              		.loc 1 119 0
 359 0088 A348     		ldr	r0, .L65+8
 360 008a A649     		ldr	r1, .L65+20
 361 008c 0722     		mov	r2, #7
 362 008e 01AB     		add	r3, sp, #4
 363 0090 FFF7FEFF 		bl	f_write
 364              	.LVL48:
 120:.\cmd.c       ****                 if (rc!=FR_OK) RESPONCE=2;
 365              		.loc 1 120 0
 366 0094 0028     		cmp	r0, #0
 367 0096 01D0     		beq	.L27
 368              		.loc 1 120 0 is_stmt 0 discriminator 1
 369 0098 0223     		mov	r3, #2
 370 009a 2370     		strb	r3, [r4]
 371              	.L27:
 372 009c 0025     		mov	r5, #0
 121:.\cmd.c       ****                 for(i=0;i<D_TYPE;i++)
 122:.\cmd.c       ****                 {
 123:.\cmd.c       ****                     print_oct(buf[8+(i*2)]+(buf[9+(i*2)]<<8));
 124:.\cmd.c       ****                     rc=f_write(&log_file,oct_buf,7,&readed);
 373              		.loc 1 124 0 is_stmt 1 discriminator 1
 374 009e 9E4F     		ldr	r7, .L65+8
 375 00a0 A04E     		ldr	r6, .L65+20
 376 00a2 16E0     		b	.L28
 377              	.LVL49:
 378              	.L30:
 123:.\cmd.c       ****                     print_oct(buf[8+(i*2)]+(buf[9+(i*2)]<<8));
ARM GAS  C:\Users\Jarik\AppData\Local\Temp\ccYCP5ho.s 			page 10


 379              		.loc 1 123 0
 380 00a4 2B1D     		add	r3, r5, #4
 381 00a6 5B00     		lsl	r3, r3, #1
 382 00a8 E35C     		ldrb	r3, [r4, r3]
 383 00aa 6A00     		lsl	r2, r5, #1
 384 00ac 0932     		add	r2, r2, #9
 385 00ae A05C     		ldrb	r0, [r4, r2]
 386 00b0 0002     		lsl	r0, r0, #8
 387 00b2 1818     		add	r0, r3, r0
 388 00b4 80B2     		uxth	r0, r0
 389 00b6 FFF7FEFF 		bl	print_oct
 390              	.LVL50:
 391              		.loc 1 124 0
 392 00ba 381C     		mov	r0, r7
 393 00bc 311C     		mov	r1, r6
 394 00be 0722     		mov	r2, #7
 395 00c0 01AB     		add	r3, sp, #4
 396 00c2 FFF7FEFF 		bl	f_write
 397              	.LVL51:
 125:.\cmd.c       ****                     if (rc!=FR_OK) RESPONCE=2;
 398              		.loc 1 125 0
 399 00c6 0028     		cmp	r0, #0
 400 00c8 01D0     		beq	.L29
 401              		.loc 1 125 0 is_stmt 0 discriminator 1
 402 00ca 0223     		mov	r3, #2
 403 00cc 2370     		strb	r3, [r4]
 404              	.L29:
 121:.\cmd.c       ****                 for(i=0;i<D_TYPE;i++)
 405              		.loc 1 121 0 is_stmt 1
 406 00ce 0135     		add	r5, r5, #1
 407              	.LVL52:
 408 00d0 ADB2     		uxth	r5, r5
 409              	.LVL53:
 410              	.L28:
 121:.\cmd.c       ****                 for(i=0;i<D_TYPE;i++)
 411              		.loc 1 121 0 is_stmt 0 discriminator 1
 412 00d2 A378     		ldrb	r3, [r4, #2]
 413 00d4 AB42     		cmp	r3, r5
 414 00d6 E5D8     		bhi	.L30
 126:.\cmd.c       ****                 }
 127:.\cmd.c       ****                 rc=f_close(&log_file);
 415              		.loc 1 127 0 is_stmt 1
 416 00d8 8F48     		ldr	r0, .L65+8
 417 00da FFF7FEFF 		bl	f_close
 418              	.LVL54:
 128:.\cmd.c       ****                 if (rc!=FR_OK) RESPONCE=2;
 419              		.loc 1 128 0
 420 00de 0028     		cmp	r0, #0
 421 00e0 00D1     		bne	.LCB417
 422 00e2 54E1     		b	.L19	@long jump
 423              	.LCB417:
 424              		.loc 1 128 0 is_stmt 0 discriminator 1
 425 00e4 0223     		mov	r3, #2
 426 00e6 2370     		strb	r3, [r4]
 427 00e8 51E1     		b	.L19
 428              	.LVL55:
 429              	.L23:
ARM GAS  C:\Users\Jarik\AppData\Local\Temp\ccYCP5ho.s 			page 11


 129:.\cmd.c       **** #endif                
 130:.\cmd.c       ****             }
 131:.\cmd.c       ****             return;
 132:.\cmd.c       ****         }
 133:.\cmd.c       ****     if(CMD==6)
 430              		.loc 1 133 0 is_stmt 1
 431 00ea 062B     		cmp	r3, #6
 432 00ec 02D1     		bne	.L31
 134:.\cmd.c       ****     {
 135:.\cmd.c       ****         read_map();
 433              		.loc 1 135 0
 434 00ee FFF7FEFF 		bl	read_map
 435              	.LVL56:
 136:.\cmd.c       ****         return;
 436              		.loc 1 136 0
 437 00f2 4CE1     		b	.L19
 438              	.LVL57:
 439              	.L31:
 137:.\cmd.c       ****     }
 138:.\cmd.c       ****     if(CMD==7)
 440              		.loc 1 138 0
 441 00f4 072B     		cmp	r3, #7
 442 00f6 02D1     		bne	.L32
 139:.\cmd.c       ****     {
 140:.\cmd.c       ****         write_map();
 443              		.loc 1 140 0
 444 00f8 FFF7FEFF 		bl	write_map
 445              	.LVL58:
 141:.\cmd.c       ****         return;
 446              		.loc 1 141 0
 447 00fc 47E1     		b	.L19
 448              	.LVL59:
 449              	.L32:
 142:.\cmd.c       ****     }
 143:.\cmd.c       ****     
 144:.\cmd.c       ****     if(CMD==8)
 450              		.loc 1 144 0
 451 00fe 082B     		cmp	r3, #8
 452 0100 0BD1     		bne	.L33
 145:.\cmd.c       ****     {
 146:.\cmd.c       ****         ls_files(buf,buf[0]+(buf[1]<<8),buf[2]+(buf[3]<<8));
 453              		.loc 1 146 0
 454 0102 0078     		ldrb	r0, [r0]
 455              	.LVL60:
 456 0104 6178     		ldrb	r1, [r4, #1]
 457 0106 0902     		lsl	r1, r1, #8
 458 0108 A378     		ldrb	r3, [r4, #2]
 459 010a E278     		ldrb	r2, [r4, #3]
 460 010c 1202     		lsl	r2, r2, #8
 461 010e 4118     		add	r1, r0, r1
 462 0110 9A18     		add	r2, r3, r2
 463 0112 201C     		mov	r0, r4
 464 0114 FFF7FEFF 		bl	ls_files
 465              	.LVL61:
 147:.\cmd.c       ****         return;
 466              		.loc 1 147 0
 467 0118 39E1     		b	.L19
ARM GAS  C:\Users\Jarik\AppData\Local\Temp\ccYCP5ho.s 			page 12


 468              	.LVL62:
 469              	.L33:
 148:.\cmd.c       ****     }
 149:.\cmd.c       ****     
 150:.\cmd.c       ****     if(CMD<4) map_image(DISK_N, &disk);
 470              		.loc 1 150 0
 471 011a 032B     		cmp	r3, #3
 472 011c 05D8     		bhi	.L34
 473              		.loc 1 150 0 is_stmt 0 discriminator 1
 474 011e C378     		ldrb	r3, [r0, #3]
 475 0120 7F20     		mov	r0, #127
 476              	.LVL63:
 477 0122 1840     		and	r0, r3
 478 0124 8049     		ldr	r1, .L65+24
 479 0126 FFF7FEFF 		bl	map_image
 480              	.LVL64:
 481              	.L34:
 151:.\cmd.c       ****     
 152:.\cmd.c       ****     if(D_TYPE==1) {   tracks=80;    sides=0;  }
 482              		.loc 1 152 0 is_stmt 1
 483 012a A378     		ldrb	r3, [r4, #2]
 484 012c 012B     		cmp	r3, #1
 485 012e 08D0     		beq	.L62
 153:.\cmd.c       ****     else
 154:.\cmd.c       ****     if(D_TYPE==2) {    tracks=80; }
 486              		.loc 1 154 0
 487 0130 022B     		cmp	r3, #2
 488 0132 0BD0     		beq	.L63
 155:.\cmd.c       ****     else
 156:.\cmd.c       ****     if (D_TYPE==3){    tracks=256; spt=255; }
 489              		.loc 1 156 0
 490 0134 032B     		cmp	r3, #3
 491 0136 0ED0     		beq	.L64
  96:.\cmd.c       ****     tracks=80;
 492              		.loc 1 96 0
 493 0138 5027     		mov	r7, #80
  95:.\cmd.c       ****     sides=1;
 494              		.loc 1 95 0
 495 013a 0123     		mov	r3, #1
 496 013c 9846     		mov	r8, r3
  94:.\cmd.c       ****     spt=10;
 497              		.loc 1 94 0
 498 013e 0A25     		mov	r5, #10
 499 0140 0EE0     		b	.L35
 500              	.L62:
 152:.\cmd.c       ****     if(D_TYPE==1) {   tracks=80;    sides=0;  }
 501              		.loc 1 152 0
 502 0142 5027     		mov	r7, #80
 503 0144 0020     		mov	r0, #0
 504 0146 8046     		mov	r8, r0
  94:.\cmd.c       ****     spt=10;
 505              		.loc 1 94 0
 506 0148 0A25     		mov	r5, #10
 507 014a 09E0     		b	.L35
 508              	.L63:
 154:.\cmd.c       ****     if(D_TYPE==2) {    tracks=80; }
 509              		.loc 1 154 0
ARM GAS  C:\Users\Jarik\AppData\Local\Temp\ccYCP5ho.s 			page 13


 510 014c 5027     		mov	r7, #80
  95:.\cmd.c       ****     sides=1;
 511              		.loc 1 95 0
 512 014e 0121     		mov	r1, #1
 513 0150 8846     		mov	r8, r1
  94:.\cmd.c       ****     spt=10;
 514              		.loc 1 94 0
 515 0152 0A25     		mov	r5, #10
 516 0154 04E0     		b	.L35
 517              	.L64:
 518              		.loc 1 156 0
 519 0156 8027     		mov	r7, #128
 520 0158 7F00     		lsl	r7, r7, #1
  95:.\cmd.c       ****     sides=1;
 521              		.loc 1 95 0
 522 015a 0122     		mov	r2, #1
 523 015c 9046     		mov	r8, r2
 524              		.loc 1 156 0
 525 015e FF25     		mov	r5, #255
 526              	.L35:
 527              	.LVL65:
 157:.\cmd.c       ****     
 158:.\cmd.c       ****     img_size=sector_size*spt*tracks;
 528              		.loc 1 158 0
 529 0160 724B     		ldr	r3, .L65+28
 530 0162 1A88     		ldrh	r2, [r3]
 531 0164 A946     		mov	r9, r5
 532 0166 2B1C     		mov	r3, r5
 533 0168 5343     		mul	r3, r2
 534 016a 391C     		mov	r1, r7
 535 016c 5943     		mul	r1, r3
 536              	.LVL66:
 159:.\cmd.c       ****     if(sides) img_size*=2;
 537              		.loc 1 159 0
 538 016e 4046     		mov	r0, r8
 539 0170 0028     		cmp	r0, #0
 540 0172 00D0     		beq	.L36
 541              		.loc 1 159 0 is_stmt 0 discriminator 1
 542 0174 4900     		lsl	r1, r1, #1
 543              	.LVL67:
 544              	.L36:
 160:.\cmd.c       ****     file_size=f_size(&disk);
 545              		.loc 1 160 0 is_stmt 1
 546 0176 6C48     		ldr	r0, .L65+24
 547 0178 C668     		ldr	r6, [r0, #12]
 548              	.LVL68:
 161:.\cmd.c       ****     if ((file_size!=0) && (file_size!=img_size))
 549              		.loc 1 161 0
 550 017a 002E     		cmp	r6, #0
 551 017c 13D0     		beq	.L37
 552              		.loc 1 161 0 is_stmt 0 discriminator 1
 553 017e 8E42     		cmp	r6, r1
 554 0180 11D0     		beq	.L37
 555              	.LVL69:
 162:.\cmd.c       ****     {
 163:.\cmd.c       ****         img_size=file_size;
 164:.\cmd.c       ****         if (sides) tracks=(img_size/(2*sector_size*spt));
ARM GAS  C:\Users\Jarik\AppData\Local\Temp\ccYCP5ho.s 			page 14


 556              		.loc 1 164 0 is_stmt 1
 557 0182 4146     		mov	r1, r8
 558 0184 0029     		cmp	r1, #0
 559 0186 08D0     		beq	.L38
 560              	.LVL70:
 561              		.loc 1 164 0 is_stmt 0 discriminator 1
 562 0188 5200     		lsl	r2, r2, #1
 563 018a 4946     		mov	r1, r9
 564              	.LVL71:
 565 018c 5143     		mul	r1, r2
 566 018e 301C     		mov	r0, r6
 567 0190 FFF7FEFF 		bl	__aeabi_uidiv
 568              	.LVL72:
 569 0194 87B2     		uxth	r7, r0
 570              	.LVL73:
 163:.\cmd.c       ****         img_size=file_size;
 571              		.loc 1 163 0 is_stmt 1 discriminator 1
 572 0196 311C     		mov	r1, r6
 573 0198 05E0     		b	.L37
 574              	.LVL74:
 575              	.L38:
 165:.\cmd.c       ****         else tracks=(img_size/(sector_size*spt));
 576              		.loc 1 165 0
 577 019a 301C     		mov	r0, r6
 578 019c 191C     		mov	r1, r3
 579              	.LVL75:
 580 019e FFF7FEFF 		bl	__aeabi_uidiv
 581              	.LVL76:
 582 01a2 87B2     		uxth	r7, r0
 583              	.LVL77:
 163:.\cmd.c       ****         img_size=file_size;
 584              		.loc 1 163 0
 585 01a4 311C     		mov	r1, r6
 586              	.LVL78:
 587              	.L37:
 166:.\cmd.c       ****     }
 167:.\cmd.c       ****     
 168:.\cmd.c       ****     if(file_size==0) f_lseek(&disk,img_size);
 588              		.loc 1 168 0
 589 01a6 002E     		cmp	r6, #0
 590 01a8 02D1     		bne	.L39
 591              		.loc 1 168 0 is_stmt 0 discriminator 1
 592 01aa 5F48     		ldr	r0, .L65+24
 593 01ac FFF7FEFF 		bl	f_lseek
 594              	.LVL79:
 595              	.L39:
 169:.\cmd.c       ****     if(CMD<3)
 596              		.loc 1 169 0 is_stmt 1
 597 01b0 574B     		ldr	r3, .L65
 598 01b2 E35C     		ldrb	r3, [r4, r3]
 599 01b4 022B     		cmp	r3, #2
 600 01b6 17D8     		bhi	.L40
 170:.\cmd.c       ****     {
 171:.\cmd.c       ****         if ((D_TYPE>3) || (TRACK>=tracks) || (SECTOR==0) || (SECTOR>spt) || ((sides==0) && (SIDE)))
 601              		.loc 1 171 0
 602 01b8 A278     		ldrb	r2, [r4, #2]
 603 01ba 032A     		cmp	r2, #3
ARM GAS  C:\Users\Jarik\AppData\Local\Temp\ccYCP5ho.s 			page 15


 604 01bc 0ED8     		bhi	.L41
 605              		.loc 1 171 0 is_stmt 0 discriminator 1
 606 01be 2279     		ldrb	r2, [r4, #4]
 607 01c0 BA42     		cmp	r2, r7
 608 01c2 0BD2     		bcs	.L41
 609 01c4 6279     		ldrb	r2, [r4, #5]
 610 01c6 002A     		cmp	r2, #0
 611 01c8 08D0     		beq	.L41
 612 01ca 9542     		cmp	r5, r2
 613 01cc 06D3     		bcc	.L41
 614 01ce 4246     		mov	r2, r8
 615 01d0 002A     		cmp	r2, #0
 616 01d2 21D1     		bne	.L42
 617              	.LVL80:
 618 01d4 0322     		mov	r2, #3
 619              	.LVL81:
 620 01d6 A256     		ldrsb	r2, [r4, r2]
 621 01d8 002A     		cmp	r2, #0
 622 01da 1DDA     		bge	.L42
 623              	.L41:
 172:.\cmd.c       ****         {
 173:.\cmd.c       ****             RESPONCE=1;
 624              		.loc 1 173 0 is_stmt 1
 625 01dc 0123     		mov	r3, #1
 626 01de 2370     		strb	r3, [r4]
 174:.\cmd.c       ****             f_close(&disk);
 627              		.loc 1 174 0
 628 01e0 5148     		ldr	r0, .L65+24
 629 01e2 FFF7FEFF 		bl	f_close
 630              	.LVL82:
 175:.\cmd.c       ****             return;
 631              		.loc 1 175 0
 632 01e6 D2E0     		b	.L19
 633              	.L40:
 176:.\cmd.c       ****         }
 177:.\cmd.c       ****     }else
 178:.\cmd.c       ****     if (CMD==3)
 634              		.loc 1 178 0
 635 01e8 032B     		cmp	r3, #3
 636 01ea 15D1     		bne	.L42
 179:.\cmd.c       ****         if ((D_TYPE>3) || (TRACK>=tracks) || (SECTOR==0) || ((sides==0) && (SIDE)))
 637              		.loc 1 179 0
 638 01ec A278     		ldrb	r2, [r4, #2]
 639 01ee 032A     		cmp	r2, #3
 640 01f0 0CD8     		bhi	.L43
 641              		.loc 1 179 0 is_stmt 0 discriminator 1
 642 01f2 2279     		ldrb	r2, [r4, #4]
 643 01f4 BA42     		cmp	r2, r7
 644 01f6 09D2     		bcs	.L43
 645 01f8 6279     		ldrb	r2, [r4, #5]
 646 01fa 002A     		cmp	r2, #0
 647 01fc 06D0     		beq	.L43
 648 01fe 4046     		mov	r0, r8
 649 0200 0028     		cmp	r0, #0
 650 0202 09D1     		bne	.L42
 651              	.LVL83:
 652 0204 0322     		mov	r2, #3
ARM GAS  C:\Users\Jarik\AppData\Local\Temp\ccYCP5ho.s 			page 16


 653 0206 A256     		ldrsb	r2, [r4, r2]
 654 0208 002A     		cmp	r2, #0
 655 020a 05DA     		bge	.L42
 656              	.LVL84:
 657              	.L43:
 180:.\cmd.c       ****             {
 181:.\cmd.c       ****                 RESPONCE=1;
 658              		.loc 1 181 0 is_stmt 1
 659 020c 0123     		mov	r3, #1
 660 020e 2370     		strb	r3, [r4]
 182:.\cmd.c       ****                 f_close(&disk);
 661              		.loc 1 182 0
 662 0210 4548     		ldr	r0, .L65+24
 663 0212 FFF7FEFF 		bl	f_close
 664              	.LVL85:
 183:.\cmd.c       ****                 return;
 665              		.loc 1 183 0
 666 0216 BAE0     		b	.L19
 667              	.L42:
 184:.\cmd.c       ****             }
 185:.\cmd.c       ****    RESPONCE=0;
 668              		.loc 1 185 0
 669 0218 0022     		mov	r2, #0
 670 021a 2270     		strb	r2, [r4]
 186:.\cmd.c       ****    
 187:.\cmd.c       ****    if(CMD==1)             //1 read sector
 671              		.loc 1 187 0
 672 021c 012B     		cmp	r3, #1
 673 021e 32D1     		bne	.L44
 188:.\cmd.c       ****         {
 189:.\cmd.c       ****             offset=sector_size*((spt*TRACK*(sides+1))+(SECTOR-1));
 674              		.loc 1 189 0
 675 0220 424B     		ldr	r3, .L65+28
 676 0222 1B88     		ldrh	r3, [r3]
 677 0224 2179     		ldrb	r1, [r4, #4]
 678 0226 4A46     		mov	r2, r9
 679 0228 5143     		mul	r1, r2
 680 022a 4246     		mov	r2, r8
 681 022c 0132     		add	r2, r2, #1
 682 022e 5143     		mul	r1, r2
 683 0230 6279     		ldrb	r2, [r4, #5]
 684 0232 013A     		sub	r2, r2, #1
 685 0234 8918     		add	r1, r1, r2
 686 0236 5943     		mul	r1, r3
 687              	.LVL86:
 190:.\cmd.c       ****             if(SIDE) offset+=sector_size*spt;
 688              		.loc 1 190 0
 689 0238 0322     		mov	r2, #3
 690 023a A256     		ldrsb	r2, [r4, r2]
 691 023c 002A     		cmp	r2, #0
 692 023e 02DA     		bge	.L45
 693              		.loc 1 190 0 is_stmt 0 discriminator 1
 694 0240 4846     		mov	r0, r9
 695 0242 4343     		mul	r3, r0
 696 0244 C918     		add	r1, r1, r3
 697              	.LVL87:
 698              	.L45:
ARM GAS  C:\Users\Jarik\AppData\Local\Temp\ccYCP5ho.s 			page 17


 191:.\cmd.c       ****             rc=f_lseek(&disk,offset);
 699              		.loc 1 191 0 is_stmt 1
 700 0246 384D     		ldr	r5, .L65+24
 701              	.LVL88:
 702 0248 281C     		mov	r0, r5
 703 024a FFF7FEFF 		bl	f_lseek
 704              	.LVL89:
 192:.\cmd.c       ****             rc=f_read(&disk,buf+8,sector_size,&readed);  // buf+8 - readed data
 705              		.loc 1 192 0
 706 024e 211C     		mov	r1, r4
 707 0250 0831     		add	r1, r1, #8
 708 0252 364B     		ldr	r3, .L65+28
 709 0254 1A88     		ldrh	r2, [r3]
 710 0256 281C     		mov	r0, r5
 711 0258 01AB     		add	r3, sp, #4
 712 025a FFF7FEFF 		bl	f_read
 713              	.LVL90:
 193:.\cmd.c       ****             if(rc!=FR_OK) RESPONCE=5+rc;
 714              		.loc 1 193 0
 715 025e 0028     		cmp	r0, #0
 716 0260 02D0     		beq	.L46
 717              		.loc 1 193 0 is_stmt 0 discriminator 1
 718 0262 0530     		add	r0, r0, #5
 719              	.LVL91:
 720 0264 2070     		strb	r0, [r4]
 721 0266 06E0     		b	.L47
 722              	.LVL92:
 723              	.L46:
 194:.\cmd.c       ****             else
 195:.\cmd.c       ****                 if (readed<sector_size) RESPONCE=2;
 724              		.loc 1 195 0 is_stmt 1
 725 0268 304B     		ldr	r3, .L65+28
 726 026a 1B88     		ldrh	r3, [r3]
 727 026c 0199     		ldr	r1, [sp, #4]
 728 026e 8B42     		cmp	r3, r1
 729 0270 01D9     		bls	.L47
 730              		.loc 1 195 0 is_stmt 0 discriminator 1
 731 0272 0223     		mov	r3, #2
 732 0274 2370     		strb	r3, [r4]
 733              	.LVL93:
 734              	.L47:
 196:.\cmd.c       ****             buf[6]=readed & 0xff;                   // bytes readed
 735              		.loc 1 196 0 is_stmt 1 discriminator 1
 736 0276 019B     		ldr	r3, [sp, #4]
 737 0278 A371     		strb	r3, [r4, #6]
 197:.\cmd.c       ****             buf[7]=(readed>>8) & 0xff; 
 738              		.loc 1 197 0 discriminator 1
 739 027a 1B0A     		lsr	r3, r3, #8
 740 027c E371     		strb	r3, [r4, #7]
 198:.\cmd.c       ****             f_close(&disk);
 741              		.loc 1 198 0 discriminator 1
 742 027e 2A48     		ldr	r0, .L65+24
 743 0280 FFF7FEFF 		bl	f_close
 744              	.LVL94:
 745 0284 83E0     		b	.L19
 746              	.LVL95:
 747              	.L44:
ARM GAS  C:\Users\Jarik\AppData\Local\Temp\ccYCP5ho.s 			page 18


 199:.\cmd.c       ****         }
 200:.\cmd.c       ****     else if (CMD==2)
 748              		.loc 1 200 0
 749 0286 022B     		cmp	r3, #2
 750 0288 2AD1     		bne	.L49
 201:.\cmd.c       ****                          //2 write sector
 202:.\cmd.c       ****         {
 203:.\cmd.c       ****             offset=sector_size*((spt*TRACK*(sides+1))+(SECTOR-1));
 751              		.loc 1 203 0
 752 028a 284B     		ldr	r3, .L65+28
 753 028c 1B88     		ldrh	r3, [r3]
 754 028e 2279     		ldrb	r2, [r4, #4]
 755 0290 4846     		mov	r0, r9
 756 0292 4243     		mul	r2, r0
 757 0294 4146     		mov	r1, r8
 758 0296 0131     		add	r1, r1, #1
 759 0298 5143     		mul	r1, r2
 760 029a 6279     		ldrb	r2, [r4, #5]
 761 029c 013A     		sub	r2, r2, #1
 762 029e 8918     		add	r1, r1, r2
 763 02a0 5943     		mul	r1, r3
 764              	.LVL96:
 204:.\cmd.c       ****             if(SIDE) offset+=sector_size*spt;
 765              		.loc 1 204 0
 766 02a2 0322     		mov	r2, #3
 767 02a4 A256     		ldrsb	r2, [r4, r2]
 768 02a6 002A     		cmp	r2, #0
 769 02a8 01DA     		bge	.L50
 770              	.LVL97:
 771              		.loc 1 204 0 is_stmt 0 discriminator 1
 772 02aa 4343     		mul	r3, r0
 773 02ac C918     		add	r1, r1, r3
 774              	.LVL98:
 775              	.L50:
 205:.\cmd.c       ****             rc=f_lseek(&disk,offset);
 776              		.loc 1 205 0 is_stmt 1
 777 02ae 1E4E     		ldr	r6, .L65+24
 778              	.LVL99:
 779 02b0 301C     		mov	r0, r6
 780              	.LVL100:
 781 02b2 FFF7FEFF 		bl	f_lseek
 782              	.LVL101:
 206:.\cmd.c       ****             rc=f_write(&disk,buf+8,sector_size,&readed);  // buf+8 - written data
 783              		.loc 1 206 0
 784 02b6 211C     		mov	r1, r4
 785 02b8 0831     		add	r1, r1, #8
 786 02ba 1C4D     		ldr	r5, .L65+28
 787              	.LVL102:
 788 02bc 2A88     		ldrh	r2, [r5]
 789 02be 301C     		mov	r0, r6
 790 02c0 01AB     		add	r3, sp, #4
 791 02c2 FFF7FEFF 		bl	f_write
 792              	.LVL103:
 207:.\cmd.c       ****             if (readed<sector_size) RESPONCE=2;
 793              		.loc 1 207 0
 794 02c6 2A88     		ldrh	r2, [r5]
 795 02c8 019B     		ldr	r3, [sp, #4]
ARM GAS  C:\Users\Jarik\AppData\Local\Temp\ccYCP5ho.s 			page 19


 796 02ca 9A42     		cmp	r2, r3
 797 02cc 01D9     		bls	.L51
 798              		.loc 1 207 0 is_stmt 0 discriminator 1
 799 02ce 0222     		mov	r2, #2
 800 02d0 2270     		strb	r2, [r4]
 801              	.L51:
 208:.\cmd.c       ****             buf[6]=readed & 0xff;                   // bytes readed
 802              		.loc 1 208 0 is_stmt 1
 803 02d2 A371     		strb	r3, [r4, #6]
 209:.\cmd.c       ****             buf[7]=(readed>>8) & 0xff; 
 804              		.loc 1 209 0
 805 02d4 1B0A     		lsr	r3, r3, #8
 806 02d6 E371     		strb	r3, [r4, #7]
 210:.\cmd.c       ****             f_close(&disk);
 807              		.loc 1 210 0
 808 02d8 1348     		ldr	r0, .L65+24
 809 02da FFF7FEFF 		bl	f_close
 810              	.LVL104:
 811 02de 56E0     		b	.L19
 812              	.LVL105:
 813              	.L49:
 211:.\cmd.c       ****         }
 212:.\cmd.c       ****     else if (CMD==3)
 814              		.loc 1 212 0
 815 02e0 032B     		cmp	r3, #3
 816 02e2 52D1     		bne	.L52
 213:.\cmd.c       ****                      //3 format track
 214:.\cmd.c       ****         {
 215:.\cmd.c       ****             offset=sector_size*((spt*TRACK*(sides+1)));
 817              		.loc 1 215 0
 818 02e4 114B     		ldr	r3, .L65+28
 819 02e6 1B88     		ldrh	r3, [r3]
 820 02e8 2279     		ldrb	r2, [r4, #4]
 821 02ea 4946     		mov	r1, r9
 822 02ec 4A43     		mul	r2, r1
 823 02ee 4146     		mov	r1, r8
 824 02f0 0131     		add	r1, r1, #1
 825 02f2 5143     		mul	r1, r2
 826 02f4 5943     		mul	r1, r3
 827              	.LVL106:
 216:.\cmd.c       ****             if(SIDE) offset+=sector_size*spt;
 828              		.loc 1 216 0
 829 02f6 0322     		mov	r2, #3
 830 02f8 A256     		ldrsb	r2, [r4, r2]
 831 02fa 002A     		cmp	r2, #0
 832 02fc 02DA     		bge	.L53
 833              		.loc 1 216 0 is_stmt 0 discriminator 1
 834 02fe 4A46     		mov	r2, r9
 835 0300 5343     		mul	r3, r2
 836 0302 C918     		add	r1, r1, r3
 837              	.LVL107:
 838              	.L53:
 217:.\cmd.c       ****             f_lseek(&disk,offset);
 839              		.loc 1 217 0 is_stmt 1
 840 0304 0848     		ldr	r0, .L65+24
 841 0306 FFF7FEFF 		bl	f_lseek
 842              	.LVL108:
ARM GAS  C:\Users\Jarik\AppData\Local\Temp\ccYCP5ho.s 			page 20


 218:.\cmd.c       ****             for(i=0;i<(sector_size/2);i++)
 843              		.loc 1 218 0
 844 030a 0023     		mov	r3, #0
 845 030c 0748     		ldr	r0, .L65+28
 846 030e 19E0     		b	.L54
 847              	.L66:
 848              		.align	2
 849              	.L65:
 850 0310 FE030000 		.word	1022
 851 0314 14000000 		.word	.LC3
 852 0318 00000000 		.word	log_file
 853 031c 08000000 		.word	.LC6
 854 0320 00000000 		.word	.LANCHOR0
 855 0324 00000000 		.word	oct_buf
 856 0328 00000000 		.word	disk
 857 032c 00000000 		.word	.LANCHOR1
 858              	.LVL109:
 859              	.L55:
 219:.\cmd.c       ****             {
 220:.\cmd.c       ****                 buf[8+(i*2)]=buf[6];
 860              		.loc 1 220 0 discriminator 2
 861 0330 1A1D     		add	r2, r3, #4
 862 0332 5200     		lsl	r2, r2, #1
 863 0334 A179     		ldrb	r1, [r4, #6]
 864 0336 A154     		strb	r1, [r4, r2]
 221:.\cmd.c       ****                 buf[9+(i*2)]=buf[7];
 865              		.loc 1 221 0 discriminator 2
 866 0338 5A00     		lsl	r2, r3, #1
 867 033a 0932     		add	r2, r2, #9
 868 033c E179     		ldrb	r1, [r4, #7]
 869 033e A154     		strb	r1, [r4, r2]
 218:.\cmd.c       ****             for(i=0;i<(sector_size/2);i++)
 870              		.loc 1 218 0 discriminator 2
 871 0340 0133     		add	r3, r3, #1
 872              	.LVL110:
 873 0342 9BB2     		uxth	r3, r3
 874              	.LVL111:
 875              	.L54:
 218:.\cmd.c       ****             for(i=0;i<(sector_size/2);i++)
 876              		.loc 1 218 0 is_stmt 0 discriminator 1
 877 0344 0288     		ldrh	r2, [r0]
 878 0346 5208     		lsr	r2, r2, #1
 879 0348 9A42     		cmp	r2, r3
 880 034a F1D8     		bhi	.L55
 881 034c 0026     		mov	r6, #0
 882              	.LVL112:
 222:.\cmd.c       ****             }
 223:.\cmd.c       ****             for(i=0;i<spt;i++)
 224:.\cmd.c       ****             {
 225:.\cmd.c       ****                 rc=f_write(&disk,buf+8,sector_size,&readed);
 883              		.loc 1 225 0 is_stmt 1
 884 034e 0823     		mov	r3, #8
 885              	.LVL113:
 886 0350 1B19     		add	r3, r3, r4
 887 0352 9A46     		mov	r10, r3
 888 0354 1148     		ldr	r0, .L67
 889 0356 8146     		mov	r9, r0
ARM GAS  C:\Users\Jarik\AppData\Local\Temp\ccYCP5ho.s 			page 21


 890 0358 1149     		ldr	r1, .L67+4
 891 035a 8846     		mov	r8, r1
 892              	.LVL114:
 893 035c 0AE0     		b	.L56
 894              	.LVL115:
 895              	.L58:
 896 035e 4B46     		mov	r3, r9
 897 0360 1A88     		ldrh	r2, [r3]
 898 0362 4046     		mov	r0, r8
 899 0364 5146     		mov	r1, r10
 900 0366 01AB     		add	r3, sp, #4
 901 0368 FFF7FEFF 		bl	f_write
 902              	.LVL116:
 226:.\cmd.c       ****                 if (rc!=FR_OK) break;
 903              		.loc 1 226 0
 904 036c 0028     		cmp	r0, #0
 905 036e 04D1     		bne	.L57
 223:.\cmd.c       ****             for(i=0;i<spt;i++)
 906              		.loc 1 223 0
 907 0370 0136     		add	r6, r6, #1
 908              	.LVL117:
 909 0372 B6B2     		uxth	r6, r6
 910              	.LVL118:
 911              	.L56:
 223:.\cmd.c       ****             for(i=0;i<spt;i++)
 912              		.loc 1 223 0 is_stmt 0 discriminator 1
 913 0374 2F1E     		sub	r7, r5, #0
 914 0376 B742     		cmp	r7, r6
 915 0378 F1D8     		bhi	.L58
 916              	.L57:
 227:.\cmd.c       ****             }
 228:.\cmd.c       ****             if (i<spt) RESPONCE=2;
 917              		.loc 1 228 0 is_stmt 1
 918 037a BE42     		cmp	r6, r7
 919 037c 01D2     		bcs	.L59
 920              		.loc 1 228 0 is_stmt 0 discriminator 1
 921 037e 0223     		mov	r3, #2
 922 0380 2370     		strb	r3, [r4]
 923              	.L59:
 229:.\cmd.c       ****             f_close(&disk);
 924              		.loc 1 229 0 is_stmt 1
 925 0382 0748     		ldr	r0, .L67+4
 926 0384 FFF7FEFF 		bl	f_close
 927              	.LVL119:
 928 0388 01E0     		b	.L19
 929              	.LVL120:
 930              	.L52:
 230:.\cmd.c       ****         }
 231:.\cmd.c       ****     
 232:.\cmd.c       ****         else
 233:.\cmd.c       ****         {
 234:.\cmd.c       ****             RESPONCE=4;       // invalid cmd
 931              		.loc 1 234 0
 932 038a 0423     		mov	r3, #4
 933 038c 2370     		strb	r3, [r4]
 934              	.LVL121:
 935              	.L19:
ARM GAS  C:\Users\Jarik\AppData\Local\Temp\ccYCP5ho.s 			page 22


 235:.\cmd.c       ****             return;
 236:.\cmd.c       ****         }
 237:.\cmd.c       ****     
 238:.\cmd.c       **** }
 936              		.loc 1 238 0
 937 038e 02B0     		add	sp, sp, #8
 938              		@ sp needed
 939              	.LVL122:
 940 0390 1CBC     		pop	{r2, r3, r4}
 941 0392 9046     		mov	r8, r2
 942 0394 9946     		mov	r9, r3
 943 0396 A246     		mov	r10, r4
 944 0398 F0BD     		pop	{r4, r5, r6, r7, pc}
 945              	.L68:
 946 039a C046     		.align	2
 947              	.L67:
 948 039c 00000000 		.word	.LANCHOR1
 949 03a0 00000000 		.word	disk
 950              		.cfi_endproc
 951              	.LFE35:
 952              		.size	execute_cmd, .-execute_cmd
 953              		.comm	oct_buf,10,4
 954              		.comm	disk,40,4
 955              		.global	sector_size
 956              		.data
 957              		.align	1
 958              		.set	.LANCHOR1,. + 0
 959              		.type	sector_size, %object
 960              		.size	sector_size, 2
 961              	sector_size:
 962 0000 0002     		.short	512
 963              		.section	.rodata.str1.4,"aMS",%progbits,1
 964              		.align	2
 965              	.LC0:
 966 0000 2F646973 		.ascii	"/disks\000"
 966      6B7300
 967 0007 00       		.space	1
 968              	.LC6:
 969 0008 2F6C6F67 		.ascii	"/log.txt\000"
 969      2E747874 
 969      00
 970 0011 000000   		.space	3
 971              	.LC3:
 972 0014 4C6F6720 		.ascii	"Log entry:\000"
 972      656E7472 
 972      793A00
 973 001f 00       		.bss
 974              		.align	2
 975              		.set	.LANCHOR0,. + 0
 976              		.type	log_N.5426, %object
 977              		.size	log_N.5426, 4
 978              	log_N.5426:
 979 0000 00000000 		.space	4
 980              		.text
 981              	.Letext0:
 982              		.file 2 "c:\\program files\\cypress\\psoc creator\\3.2\\psoc creator\\import\\gnu\\arm\\4.8.4\\arm
 983              		.file 3 "c:\\program files\\cypress\\psoc creator\\3.2\\psoc creator\\import\\gnu\\arm\\4.8.4\\arm
ARM GAS  C:\Users\Jarik\AppData\Local\Temp\ccYCP5ho.s 			page 23


 984              		.file 4 "Generated_Source\\PSoC4/cytypes.h"
 985              		.file 5 "./sd/integer.h"
 986              		.file 6 ".\\sd/ff.h"
 987              		.file 7 "Generated_Source\\PSoC4/CyLib.h"