ARM GAS  C:\Users\Jarik\AppData\Local\Temp\ccpct4qm.s 			page 1


   1              		.cpu cortex-m0
   2              		.fpu softvfp
   3              		.eabi_attribute 20, 1
   4              		.eabi_attribute 21, 1
   5              		.eabi_attribute 23, 3
   6              		.eabi_attribute 24, 1
   7              		.eabi_attribute 25, 1
   8              		.eabi_attribute 26, 1
   9              		.eabi_attribute 30, 1
  10              		.eabi_attribute 34, 0
  11              		.eabi_attribute 18, 4
  12              		.code	16
  13              		.file	"cyfitter_cfg.c"
  14              		.text
  15              	.Ltext0:
  16              		.cfi_sections	.debug_frame
  17              		.section	.text.cfg_write_bytes32,"ax",%progbits
  18              		.align	2
  19              		.code	16
  20              		.thumb_func
  21              		.type	cfg_write_bytes32, %function
  22              	cfg_write_bytes32:
  23              	.LFB3:
  24              		.file 1 ".\\Generated_Source\\PSoC4\\cyfitter_cfg.c"
   1:.\Generated_Source\PSoC4/cyfitter_cfg.c **** /*******************************************************************************
   2:.\Generated_Source\PSoC4/cyfitter_cfg.c **** * FILENAME: cyfitter_cfg.c
   3:.\Generated_Source\PSoC4/cyfitter_cfg.c **** * 
   4:.\Generated_Source\PSoC4/cyfitter_cfg.c **** * PSoC Creator  3.2
   5:.\Generated_Source\PSoC4/cyfitter_cfg.c **** *
   6:.\Generated_Source\PSoC4/cyfitter_cfg.c **** * DESCRIPTION:
   7:.\Generated_Source\PSoC4/cyfitter_cfg.c **** * This file contains device initialization code.
   8:.\Generated_Source\PSoC4/cyfitter_cfg.c **** * Except for the user defined sections in CyClockStartupError(), this file should not be modified.
   9:.\Generated_Source\PSoC4/cyfitter_cfg.c **** * This file is automatically generated by PSoC Creator.
  10:.\Generated_Source\PSoC4/cyfitter_cfg.c **** *
  11:.\Generated_Source\PSoC4/cyfitter_cfg.c **** ********************************************************************************
  12:.\Generated_Source\PSoC4/cyfitter_cfg.c **** * Copyright (c) 2007-2015 Cypress Semiconductor.  All rights reserved.
  13:.\Generated_Source\PSoC4/cyfitter_cfg.c **** * You may use this file only in accordance with the license, terms, conditions, 
  14:.\Generated_Source\PSoC4/cyfitter_cfg.c **** * disclaimers, and limitations in the end user license agreement accompanying 
  15:.\Generated_Source\PSoC4/cyfitter_cfg.c **** * the software package with which this file was provided.
  16:.\Generated_Source\PSoC4/cyfitter_cfg.c **** ********************************************************************************/
  17:.\Generated_Source\PSoC4/cyfitter_cfg.c **** 
  18:.\Generated_Source\PSoC4/cyfitter_cfg.c **** #include <string.h>
  19:.\Generated_Source\PSoC4/cyfitter_cfg.c **** #include "cytypes.h"
  20:.\Generated_Source\PSoC4/cyfitter_cfg.c **** #include "cydevice_trm.h"
  21:.\Generated_Source\PSoC4/cyfitter_cfg.c **** #include "cyfitter.h"
  22:.\Generated_Source\PSoC4/cyfitter_cfg.c **** #include "CyLib.h"
  23:.\Generated_Source\PSoC4/cyfitter_cfg.c **** #include "cyfitter_cfg.h"
  24:.\Generated_Source\PSoC4/cyfitter_cfg.c **** 
  25:.\Generated_Source\PSoC4/cyfitter_cfg.c **** 
  26:.\Generated_Source\PSoC4/cyfitter_cfg.c **** #if defined(__GNUC__) || defined(__ARMCC_VERSION)
  27:.\Generated_Source\PSoC4/cyfitter_cfg.c ****     #define CYPACKED 
  28:.\Generated_Source\PSoC4/cyfitter_cfg.c ****     #define CYPACKED_ATTR __attribute__ ((packed))
  29:.\Generated_Source\PSoC4/cyfitter_cfg.c ****     #define CYALIGNED __attribute__ ((aligned))
  30:.\Generated_Source\PSoC4/cyfitter_cfg.c ****     #define CY_CFG_UNUSED __attribute__ ((unused))
  31:.\Generated_Source\PSoC4/cyfitter_cfg.c ****     #define CY_CFG_SECTION __attribute__ ((section(".psocinit")))
  32:.\Generated_Source\PSoC4/cyfitter_cfg.c ****     
  33:.\Generated_Source\PSoC4/cyfitter_cfg.c ****     #if defined(__ARMCC_VERSION)
ARM GAS  C:\Users\Jarik\AppData\Local\Temp\ccpct4qm.s 			page 2


  34:.\Generated_Source\PSoC4/cyfitter_cfg.c ****         #define CY_CFG_MEMORY_BARRIER() __memory_changed()
  35:.\Generated_Source\PSoC4/cyfitter_cfg.c ****     #else
  36:.\Generated_Source\PSoC4/cyfitter_cfg.c ****         #define CY_CFG_MEMORY_BARRIER() __sync_synchronize()
  37:.\Generated_Source\PSoC4/cyfitter_cfg.c ****     #endif
  38:.\Generated_Source\PSoC4/cyfitter_cfg.c ****     
  39:.\Generated_Source\PSoC4/cyfitter_cfg.c **** #elif defined(__ICCARM__)
  40:.\Generated_Source\PSoC4/cyfitter_cfg.c ****     #include <intrinsics.h>
  41:.\Generated_Source\PSoC4/cyfitter_cfg.c **** 
  42:.\Generated_Source\PSoC4/cyfitter_cfg.c ****     #define CYPACKED __packed
  43:.\Generated_Source\PSoC4/cyfitter_cfg.c ****     #define CYPACKED_ATTR 
  44:.\Generated_Source\PSoC4/cyfitter_cfg.c ****     #define CYALIGNED _Pragma("data_alignment=4")
  45:.\Generated_Source\PSoC4/cyfitter_cfg.c ****     #define CY_CFG_UNUSED _Pragma("diag_suppress=Pe177")
  46:.\Generated_Source\PSoC4/cyfitter_cfg.c ****     #define CY_CFG_SECTION _Pragma("location=\".psocinit\"")
  47:.\Generated_Source\PSoC4/cyfitter_cfg.c ****     
  48:.\Generated_Source\PSoC4/cyfitter_cfg.c ****     #define CY_CFG_MEMORY_BARRIER() __DMB()
  49:.\Generated_Source\PSoC4/cyfitter_cfg.c ****     
  50:.\Generated_Source\PSoC4/cyfitter_cfg.c **** #else
  51:.\Generated_Source\PSoC4/cyfitter_cfg.c ****     #error Unsupported toolchain
  52:.\Generated_Source\PSoC4/cyfitter_cfg.c **** #endif
  53:.\Generated_Source\PSoC4/cyfitter_cfg.c **** 
  54:.\Generated_Source\PSoC4/cyfitter_cfg.c **** 
  55:.\Generated_Source\PSoC4/cyfitter_cfg.c **** CY_CFG_UNUSED
  56:.\Generated_Source\PSoC4/cyfitter_cfg.c **** static void CYMEMZERO(void *s, size_t n);
  57:.\Generated_Source\PSoC4/cyfitter_cfg.c **** CY_CFG_UNUSED
  58:.\Generated_Source\PSoC4/cyfitter_cfg.c **** static void CYMEMZERO(void *s, size_t n)
  59:.\Generated_Source\PSoC4/cyfitter_cfg.c **** {
  60:.\Generated_Source\PSoC4/cyfitter_cfg.c **** 	(void)memset(s, 0, n);
  61:.\Generated_Source\PSoC4/cyfitter_cfg.c **** }
  62:.\Generated_Source\PSoC4/cyfitter_cfg.c **** CY_CFG_UNUSED
  63:.\Generated_Source\PSoC4/cyfitter_cfg.c **** static void CYCONFIGCPY(void *dest, const void *src, size_t n);
  64:.\Generated_Source\PSoC4/cyfitter_cfg.c **** CY_CFG_UNUSED
  65:.\Generated_Source\PSoC4/cyfitter_cfg.c **** static void CYCONFIGCPY(void *dest, const void *src, size_t n)
  66:.\Generated_Source\PSoC4/cyfitter_cfg.c **** {
  67:.\Generated_Source\PSoC4/cyfitter_cfg.c **** 	(void)memcpy(dest, src, n);
  68:.\Generated_Source\PSoC4/cyfitter_cfg.c **** }
  69:.\Generated_Source\PSoC4/cyfitter_cfg.c **** CY_CFG_UNUSED
  70:.\Generated_Source\PSoC4/cyfitter_cfg.c **** static void CYCONFIGCPYCODE(void *dest, const void *src, size_t n);
  71:.\Generated_Source\PSoC4/cyfitter_cfg.c **** CY_CFG_UNUSED
  72:.\Generated_Source\PSoC4/cyfitter_cfg.c **** static void CYCONFIGCPYCODE(void *dest, const void *src, size_t n)
  73:.\Generated_Source\PSoC4/cyfitter_cfg.c **** {
  74:.\Generated_Source\PSoC4/cyfitter_cfg.c **** 	(void)memcpy(dest, src, n);
  75:.\Generated_Source\PSoC4/cyfitter_cfg.c **** }
  76:.\Generated_Source\PSoC4/cyfitter_cfg.c **** 
  77:.\Generated_Source\PSoC4/cyfitter_cfg.c **** 
  78:.\Generated_Source\PSoC4/cyfitter_cfg.c **** 
  79:.\Generated_Source\PSoC4/cyfitter_cfg.c **** /* Clock startup error codes                                                   */
  80:.\Generated_Source\PSoC4/cyfitter_cfg.c **** #define CYCLOCKSTART_NO_ERROR    0u
  81:.\Generated_Source\PSoC4/cyfitter_cfg.c **** #define CYCLOCKSTART_XTAL_ERROR  1u
  82:.\Generated_Source\PSoC4/cyfitter_cfg.c **** #define CYCLOCKSTART_32KHZ_ERROR 2u
  83:.\Generated_Source\PSoC4/cyfitter_cfg.c **** #define CYCLOCKSTART_PLL_ERROR   3u
  84:.\Generated_Source\PSoC4/cyfitter_cfg.c **** 
  85:.\Generated_Source\PSoC4/cyfitter_cfg.c **** #ifdef CY_NEED_CYCLOCKSTARTUPERROR
  86:.\Generated_Source\PSoC4/cyfitter_cfg.c **** /*******************************************************************************
  87:.\Generated_Source\PSoC4/cyfitter_cfg.c **** * Function Name: CyClockStartupError
  88:.\Generated_Source\PSoC4/cyfitter_cfg.c **** ********************************************************************************
  89:.\Generated_Source\PSoC4/cyfitter_cfg.c **** * Summary:
  90:.\Generated_Source\PSoC4/cyfitter_cfg.c **** *  If an error is encountered during clock configuration (crystal startup error,
ARM GAS  C:\Users\Jarik\AppData\Local\Temp\ccpct4qm.s 			page 3


  91:.\Generated_Source\PSoC4/cyfitter_cfg.c **** *  PLL lock error, etc.), the system will end up here.  Unless reimplemented by
  92:.\Generated_Source\PSoC4/cyfitter_cfg.c **** *  the customer, this function will stop in an infinite loop.
  93:.\Generated_Source\PSoC4/cyfitter_cfg.c **** *
  94:.\Generated_Source\PSoC4/cyfitter_cfg.c **** * Parameters:
  95:.\Generated_Source\PSoC4/cyfitter_cfg.c **** *   void
  96:.\Generated_Source\PSoC4/cyfitter_cfg.c **** *
  97:.\Generated_Source\PSoC4/cyfitter_cfg.c **** * Return:
  98:.\Generated_Source\PSoC4/cyfitter_cfg.c **** *   void
  99:.\Generated_Source\PSoC4/cyfitter_cfg.c **** *
 100:.\Generated_Source\PSoC4/cyfitter_cfg.c **** *******************************************************************************/
 101:.\Generated_Source\PSoC4/cyfitter_cfg.c **** CY_CFG_UNUSED
 102:.\Generated_Source\PSoC4/cyfitter_cfg.c **** static void CyClockStartupError(uint8 errorCode);
 103:.\Generated_Source\PSoC4/cyfitter_cfg.c **** CY_CFG_UNUSED
 104:.\Generated_Source\PSoC4/cyfitter_cfg.c **** static void CyClockStartupError(uint8 errorCode)
 105:.\Generated_Source\PSoC4/cyfitter_cfg.c **** {
 106:.\Generated_Source\PSoC4/cyfitter_cfg.c ****     /* To remove the compiler warning if errorCode not used.                */
 107:.\Generated_Source\PSoC4/cyfitter_cfg.c ****     errorCode = errorCode;
 108:.\Generated_Source\PSoC4/cyfitter_cfg.c **** 
 109:.\Generated_Source\PSoC4/cyfitter_cfg.c ****     /* `#START CyClockStartupError` */
 110:.\Generated_Source\PSoC4/cyfitter_cfg.c **** 
 111:.\Generated_Source\PSoC4/cyfitter_cfg.c ****     /* If we have a clock startup error (bad MHz crystal, PLL lock, etc.),  */
 112:.\Generated_Source\PSoC4/cyfitter_cfg.c ****     /* we will end up here to allow the customer to implement something to  */
 113:.\Generated_Source\PSoC4/cyfitter_cfg.c ****     /* deal with the clock condition.                                       */
 114:.\Generated_Source\PSoC4/cyfitter_cfg.c **** 
 115:.\Generated_Source\PSoC4/cyfitter_cfg.c ****     /* `#END` */
 116:.\Generated_Source\PSoC4/cyfitter_cfg.c **** 
 117:.\Generated_Source\PSoC4/cyfitter_cfg.c ****     /* If nothing else, stop here since the clocks have not started         */
 118:.\Generated_Source\PSoC4/cyfitter_cfg.c ****     /* correctly.                                                           */
 119:.\Generated_Source\PSoC4/cyfitter_cfg.c ****     while(1) {}
 120:.\Generated_Source\PSoC4/cyfitter_cfg.c **** }
 121:.\Generated_Source\PSoC4/cyfitter_cfg.c **** #endif
 122:.\Generated_Source\PSoC4/cyfitter_cfg.c **** 
 123:.\Generated_Source\PSoC4/cyfitter_cfg.c **** #define CY_CFG_BASE_ADDR_COUNT 9u
 124:.\Generated_Source\PSoC4/cyfitter_cfg.c **** CYPACKED typedef struct
 125:.\Generated_Source\PSoC4/cyfitter_cfg.c **** {
 126:.\Generated_Source\PSoC4/cyfitter_cfg.c **** 	uint8 offset;
 127:.\Generated_Source\PSoC4/cyfitter_cfg.c **** 	uint8 value;
 128:.\Generated_Source\PSoC4/cyfitter_cfg.c **** } CYPACKED_ATTR cy_cfg_addrvalue_t;
 129:.\Generated_Source\PSoC4/cyfitter_cfg.c **** 
 130:.\Generated_Source\PSoC4/cyfitter_cfg.c **** 
 131:.\Generated_Source\PSoC4/cyfitter_cfg.c **** 
 132:.\Generated_Source\PSoC4/cyfitter_cfg.c **** /*******************************************************************************
 133:.\Generated_Source\PSoC4/cyfitter_cfg.c **** * Function Name: cfg_write_bytes32
 134:.\Generated_Source\PSoC4/cyfitter_cfg.c **** ********************************************************************************
 135:.\Generated_Source\PSoC4/cyfitter_cfg.c **** * Summary:
 136:.\Generated_Source\PSoC4/cyfitter_cfg.c **** *  This function is used for setting up the chip configuration areas that
 137:.\Generated_Source\PSoC4/cyfitter_cfg.c **** *  contain relatively sparse data.
 138:.\Generated_Source\PSoC4/cyfitter_cfg.c **** *
 139:.\Generated_Source\PSoC4/cyfitter_cfg.c **** * Parameters:
 140:.\Generated_Source\PSoC4/cyfitter_cfg.c **** *   void
 141:.\Generated_Source\PSoC4/cyfitter_cfg.c **** *
 142:.\Generated_Source\PSoC4/cyfitter_cfg.c **** * Return:
 143:.\Generated_Source\PSoC4/cyfitter_cfg.c **** *   void
 144:.\Generated_Source\PSoC4/cyfitter_cfg.c **** *
 145:.\Generated_Source\PSoC4/cyfitter_cfg.c **** *******************************************************************************/
 146:.\Generated_Source\PSoC4/cyfitter_cfg.c **** static void cfg_write_bytes32(const uint32 addr_table[], const cy_cfg_addrvalue_t data_table[]);
 147:.\Generated_Source\PSoC4/cyfitter_cfg.c **** static void cfg_write_bytes32(const uint32 addr_table[], const cy_cfg_addrvalue_t data_table[])
ARM GAS  C:\Users\Jarik\AppData\Local\Temp\ccpct4qm.s 			page 4


 148:.\Generated_Source\PSoC4/cyfitter_cfg.c **** {
  25              		.loc 1 148 0
  26              		.cfi_startproc
  27              	.LVL0:
  28 0000 F0B5     		push	{r4, r5, r6, r7, lr}
  29              		.cfi_def_cfa_offset 20
  30              		.cfi_offset 4, -20
  31              		.cfi_offset 5, -16
  32              		.cfi_offset 6, -12
  33              		.cfi_offset 7, -8
  34              		.cfi_offset 14, -4
  35              	.LVL1:
 149:.\Generated_Source\PSoC4/cyfitter_cfg.c **** 	/* For 32-bit little-endian architectures */
 150:.\Generated_Source\PSoC4/cyfitter_cfg.c **** 	uint32 i, j = 0u;
  36              		.loc 1 150 0
  37 0002 0022     		mov	r2, #0
 151:.\Generated_Source\PSoC4/cyfitter_cfg.c **** 	for (i = 0u; i < CY_CFG_BASE_ADDR_COUNT; i++)
  38              		.loc 1 151 0
  39 0004 0027     		mov	r7, #0
  40              	.LBB2:
 152:.\Generated_Source\PSoC4/cyfitter_cfg.c **** 	{
 153:.\Generated_Source\PSoC4/cyfitter_cfg.c **** 		uint32 baseAddr = addr_table[i];
 154:.\Generated_Source\PSoC4/cyfitter_cfg.c **** 		uint8 count = (uint8)baseAddr;
 155:.\Generated_Source\PSoC4/cyfitter_cfg.c **** 		baseAddr &= 0xFFFFFF00u;
  41              		.loc 1 155 0
  42 0006 FF23     		mov	r3, #255
  43 0008 9C46     		mov	ip, r3
  44              	.LBE2:
 151:.\Generated_Source\PSoC4/cyfitter_cfg.c **** 	for (i = 0u; i < CY_CFG_BASE_ADDR_COUNT; i++)
  45              		.loc 1 151 0
  46 000a 11E0     		b	.L2
  47              	.LVL2:
  48              	.L5:
  49              	.LBB3:
 153:.\Generated_Source\PSoC4/cyfitter_cfg.c **** 		uint32 baseAddr = addr_table[i];
  50              		.loc 1 153 0
  51 000c BB00     		lsl	r3, r7, #2
  52 000e C658     		ldr	r6, [r0, r3]
  53              	.LVL3:
 154:.\Generated_Source\PSoC4/cyfitter_cfg.c **** 		uint8 count = (uint8)baseAddr;
  54              		.loc 1 154 0
  55 0010 F3B2     		uxtb	r3, r6
  56              	.LVL4:
  57              		.loc 1 155 0
  58 0012 6446     		mov	r4, ip
  59 0014 A643     		bic	r6, r4
  60              	.LVL5:
 156:.\Generated_Source\PSoC4/cyfitter_cfg.c **** 		while (count != 0u)
  61              		.loc 1 156 0
  62 0016 08E0     		b	.L3
  63              	.L4:
 157:.\Generated_Source\PSoC4/cyfitter_cfg.c **** 		{
 158:.\Generated_Source\PSoC4/cyfitter_cfg.c **** 			CY_SET_XTND_REG8((void CYFAR *)(baseAddr + data_table[j].offset), data_table[j].value);
  64              		.loc 1 158 0
  65 0018 5400     		lsl	r4, r2, #1
  66 001a 0C19     		add	r4, r1, r4
  67 001c 2578     		ldrb	r5, [r4]
ARM GAS  C:\Users\Jarik\AppData\Local\Temp\ccpct4qm.s 			page 5


  68 001e AD19     		add	r5, r5, r6
  69 0020 6478     		ldrb	r4, [r4, #1]
  70 0022 2C70     		strb	r4, [r5]
 159:.\Generated_Source\PSoC4/cyfitter_cfg.c **** 			j++;
  71              		.loc 1 159 0
  72 0024 0132     		add	r2, r2, #1
  73              	.LVL6:
 160:.\Generated_Source\PSoC4/cyfitter_cfg.c **** 			count--;
  74              		.loc 1 160 0
  75 0026 013B     		sub	r3, r3, #1
  76              	.LVL7:
  77 0028 DBB2     		uxtb	r3, r3
  78              	.LVL8:
  79              	.L3:
 156:.\Generated_Source\PSoC4/cyfitter_cfg.c **** 		while (count != 0u)
  80              		.loc 1 156 0 discriminator 1
  81 002a 002B     		cmp	r3, #0
  82 002c F4D1     		bne	.L4
  83              	.LBE3:
 151:.\Generated_Source\PSoC4/cyfitter_cfg.c **** 	for (i = 0u; i < CY_CFG_BASE_ADDR_COUNT; i++)
  84              		.loc 1 151 0
  85 002e 0137     		add	r7, r7, #1
  86              	.LVL9:
  87              	.L2:
 151:.\Generated_Source\PSoC4/cyfitter_cfg.c **** 	for (i = 0u; i < CY_CFG_BASE_ADDR_COUNT; i++)
  88              		.loc 1 151 0 is_stmt 0 discriminator 1
  89 0030 082F     		cmp	r7, #8
  90 0032 EBD9     		bls	.L5
 161:.\Generated_Source\PSoC4/cyfitter_cfg.c **** 		}
 162:.\Generated_Source\PSoC4/cyfitter_cfg.c **** 	}
 163:.\Generated_Source\PSoC4/cyfitter_cfg.c **** }
  91              		.loc 1 163 0 is_stmt 1
  92              		@ sp needed
  93              	.LVL10:
  94 0034 F0BD     		pop	{r4, r5, r6, r7, pc}
  95              		.cfi_endproc
  96              	.LFE3:
  97              		.size	cfg_write_bytes32, .-cfg_write_bytes32
  98 0036 C046     		.section	.text.CYMEMZERO,"ax",%progbits
  99              		.align	2
 100              		.code	16
 101              		.thumb_func
 102              		.type	CYMEMZERO, %function
 103              	CYMEMZERO:
 104              	.LFB0:
  59:.\Generated_Source\PSoC4/cyfitter_cfg.c **** {
 105              		.loc 1 59 0
 106              		.cfi_startproc
 107              	.LVL11:
 108 0000 08B5     		push	{r3, lr}
 109              		.cfi_def_cfa_offset 8
 110              		.cfi_offset 3, -8
 111              		.cfi_offset 14, -4
 112 0002 0A1C     		mov	r2, r1
  60:.\Generated_Source\PSoC4/cyfitter_cfg.c **** 	(void)memset(s, 0, n);
 113              		.loc 1 60 0
 114 0004 0021     		mov	r1, #0
ARM GAS  C:\Users\Jarik\AppData\Local\Temp\ccpct4qm.s 			page 6


 115              	.LVL12:
 116 0006 FFF7FEFF 		bl	memset
 117              	.LVL13:
  61:.\Generated_Source\PSoC4/cyfitter_cfg.c **** }
 118              		.loc 1 61 0
 119              		@ sp needed
 120 000a 08BD     		pop	{r3, pc}
 121              		.cfi_endproc
 122              	.LFE0:
 123              		.size	CYMEMZERO, .-CYMEMZERO
 124              		.section	.psocinit,"ax",%progbits
 125              		.align	2
 126              		.code	16
 127              		.thumb_func
 128              		.type	ClockSetup, %function
 129              	ClockSetup:
 130              	.LFB4:
 164:.\Generated_Source\PSoC4/cyfitter_cfg.c **** 
 165:.\Generated_Source\PSoC4/cyfitter_cfg.c **** 
 166:.\Generated_Source\PSoC4/cyfitter_cfg.c **** /*******************************************************************************
 167:.\Generated_Source\PSoC4/cyfitter_cfg.c **** * Function Name: ClockSetup
 168:.\Generated_Source\PSoC4/cyfitter_cfg.c **** ********************************************************************************
 169:.\Generated_Source\PSoC4/cyfitter_cfg.c **** *
 170:.\Generated_Source\PSoC4/cyfitter_cfg.c **** * Summary:
 171:.\Generated_Source\PSoC4/cyfitter_cfg.c **** *   Performs the initialization of all of the clocks in the device based on the
 172:.\Generated_Source\PSoC4/cyfitter_cfg.c **** *   settings in the Clock tab of the DWR.  This includes enabling the requested
 173:.\Generated_Source\PSoC4/cyfitter_cfg.c **** *   clocks and setting the necessary dividers to produce the desired frequency. 
 174:.\Generated_Source\PSoC4/cyfitter_cfg.c **** *
 175:.\Generated_Source\PSoC4/cyfitter_cfg.c **** * Parameters:
 176:.\Generated_Source\PSoC4/cyfitter_cfg.c **** *   void
 177:.\Generated_Source\PSoC4/cyfitter_cfg.c **** *
 178:.\Generated_Source\PSoC4/cyfitter_cfg.c **** * Return:
 179:.\Generated_Source\PSoC4/cyfitter_cfg.c **** *   void
 180:.\Generated_Source\PSoC4/cyfitter_cfg.c **** *
 181:.\Generated_Source\PSoC4/cyfitter_cfg.c **** *******************************************************************************/
 182:.\Generated_Source\PSoC4/cyfitter_cfg.c **** static void ClockSetup(void);
 183:.\Generated_Source\PSoC4/cyfitter_cfg.c **** CY_CFG_SECTION
 184:.\Generated_Source\PSoC4/cyfitter_cfg.c **** static void ClockSetup(void)
 185:.\Generated_Source\PSoC4/cyfitter_cfg.c **** {
 131              		.loc 1 185 0
 132              		.cfi_startproc
 133 0000 38B5     		push	{r3, r4, r5, lr}
 134              		.cfi_def_cfa_offset 16
 135              		.cfi_offset 3, -16
 136              		.cfi_offset 4, -12
 137              		.cfi_offset 5, -8
 138              		.cfi_offset 14, -4
 186:.\Generated_Source\PSoC4/cyfitter_cfg.c **** 	/* Enable HALF_EN before trimming for the flash accelerator. */
 187:.\Generated_Source\PSoC4/cyfitter_cfg.c **** 	CY_SET_REG32((void CYXDATA *)(CYREG_CLK_SELECT), (CY_GET_REG32((void *)CYREG_CLK_SELECT) | 0x00040
 139              		.loc 1 187 0
 140 0002 0D4C     		ldr	r4, .L8
 141 0004 2368     		ldr	r3, [r4]
 142 0006 8025     		mov	r5, #128
 143 0008 ED02     		lsl	r5, r5, #11
 144 000a 2B43     		orr	r3, r5
 145 000c 2360     		str	r3, [r4]
 188:.\Generated_Source\PSoC4/cyfitter_cfg.c **** 
ARM GAS  C:\Users\Jarik\AppData\Local\Temp\ccpct4qm.s 			page 7


 189:.\Generated_Source\PSoC4/cyfitter_cfg.c **** 	/* Setup and trim IMO based on desired frequency. */
 190:.\Generated_Source\PSoC4/cyfitter_cfg.c **** 	CySysClkWriteImoFreq(48u);
 146              		.loc 1 190 0
 147 000e 3020     		mov	r0, #48
 148 0010 FFF7FEFF 		bl	CySysClkWriteImoFreq
 149              	.LVL14:
 191:.\Generated_Source\PSoC4/cyfitter_cfg.c **** 	/* CYDEV_CLK_ILO_CONFIG Starting address: CYDEV_CLK_ILO_CONFIG */
 192:.\Generated_Source\PSoC4/cyfitter_cfg.c **** 	CY_SET_XTND_REG32((void CYFAR *)(CYREG_CLK_ILO_CONFIG), 0x80000006u);
 150              		.loc 1 192 0
 151 0014 094A     		ldr	r2, .L8+4
 152 0016 0A4B     		ldr	r3, .L8+8
 153 0018 1A60     		str	r2, [r3]
 193:.\Generated_Source\PSoC4/cyfitter_cfg.c **** 
 194:.\Generated_Source\PSoC4/cyfitter_cfg.c **** 
 195:.\Generated_Source\PSoC4/cyfitter_cfg.c **** 	/* CYDEV_CLK_SELECT00 Starting address: CYDEV_CLK_SELECT00 */
 196:.\Generated_Source\PSoC4/cyfitter_cfg.c **** 	CY_SET_XTND_REG32((void CYFAR *)(CYREG_CLK_SELECT02), 0x00000010u);
 154              		.loc 1 196 0
 155 001a 1022     		mov	r2, #16
 156 001c 094B     		ldr	r3, .L8+12
 157 001e 1A60     		str	r2, [r3]
 197:.\Generated_Source\PSoC4/cyfitter_cfg.c **** 
 198:.\Generated_Source\PSoC4/cyfitter_cfg.c **** 	/* CYDEV_CLK_IMO_CONFIG Starting address: CYDEV_CLK_IMO_CONFIG */
 199:.\Generated_Source\PSoC4/cyfitter_cfg.c **** 	CY_SET_XTND_REG32((void CYFAR *)(CYREG_CLK_IMO_CONFIG), 0x80000000u);
 158              		.loc 1 199 0
 159 0020 8022     		mov	r2, #128
 160 0022 1206     		lsl	r2, r2, #24
 161 0024 084B     		ldr	r3, .L8+16
 162 0026 1A60     		str	r2, [r3]
 200:.\Generated_Source\PSoC4/cyfitter_cfg.c **** 
 201:.\Generated_Source\PSoC4/cyfitter_cfg.c **** 	/* CYDEV_CLK_SELECT Starting address: CYDEV_CLK_SELECT */
 202:.\Generated_Source\PSoC4/cyfitter_cfg.c **** 	CY_SET_XTND_REG32((void CYFAR *)(CYREG_CLK_SELECT), 0x00040000u);
 163              		.loc 1 202 0
 164 0028 2560     		str	r5, [r4]
 203:.\Generated_Source\PSoC4/cyfitter_cfg.c **** 
 204:.\Generated_Source\PSoC4/cyfitter_cfg.c **** 	/* CYDEV_CLK_DIVIDER_A00 Starting address: CYDEV_CLK_DIVIDER_A00 */
 205:.\Generated_Source\PSoC4/cyfitter_cfg.c **** 	CY_SET_XTND_REG32((void CYFAR *)(CYREG_CLK_DIVIDER_A00), 0x80000001u);
 165              		.loc 1 205 0
 166 002a 084A     		ldr	r2, .L8+20
 167 002c 084B     		ldr	r3, .L8+24
 168 002e 1A60     		str	r2, [r3]
 206:.\Generated_Source\PSoC4/cyfitter_cfg.c **** 
 207:.\Generated_Source\PSoC4/cyfitter_cfg.c **** 	CY_SET_XTND_REG32((void CYFAR *)(CYREG_WDT_CONFIG), 0x00000000u);
 169              		.loc 1 207 0
 170 0030 0022     		mov	r2, #0
 171 0032 084B     		ldr	r3, .L8+28
 172 0034 1A60     		str	r2, [r3]
 208:.\Generated_Source\PSoC4/cyfitter_cfg.c **** }
 173              		.loc 1 208 0
 174              		@ sp needed
 175 0036 38BD     		pop	{r3, r4, r5, pc}
 176              	.L9:
 177              		.align	2
 178              	.L8:
 179 0038 00010B40 		.word	1074462976
 180 003c 06000080 		.word	-2147483642
 181 0040 04010B40 		.word	1074462980
 182 0044 08020240 		.word	1073873416
ARM GAS  C:\Users\Jarik\AppData\Local\Temp\ccpct4qm.s 			page 8


 183 0048 08010B40 		.word	1074462984
 184 004c 01000080 		.word	-2147483647
 185 0050 00000240 		.word	1073872896
 186 0054 0C020B40 		.word	1074463244
 187              		.cfi_endproc
 188              	.LFE4:
 189              		.size	ClockSetup, .-ClockSetup
 190              		.align	2
 191              		.global	cyfitter_cfg
 192              		.code	16
 193              		.thumb_func
 194              		.type	cyfitter_cfg, %function
 195              	cyfitter_cfg:
 196              	.LFB6:
 209:.\Generated_Source\PSoC4/cyfitter_cfg.c **** 
 210:.\Generated_Source\PSoC4/cyfitter_cfg.c **** 
 211:.\Generated_Source\PSoC4/cyfitter_cfg.c **** /* Analog API Functions */
 212:.\Generated_Source\PSoC4/cyfitter_cfg.c **** 
 213:.\Generated_Source\PSoC4/cyfitter_cfg.c **** 
 214:.\Generated_Source\PSoC4/cyfitter_cfg.c **** /*******************************************************************************
 215:.\Generated_Source\PSoC4/cyfitter_cfg.c **** * Function Name: AnalogSetDefault
 216:.\Generated_Source\PSoC4/cyfitter_cfg.c **** ********************************************************************************
 217:.\Generated_Source\PSoC4/cyfitter_cfg.c **** *
 218:.\Generated_Source\PSoC4/cyfitter_cfg.c **** * Summary:
 219:.\Generated_Source\PSoC4/cyfitter_cfg.c **** *  Sets up the analog portions of the chip to default values based on chip
 220:.\Generated_Source\PSoC4/cyfitter_cfg.c **** *  configuration options from the project.
 221:.\Generated_Source\PSoC4/cyfitter_cfg.c **** *
 222:.\Generated_Source\PSoC4/cyfitter_cfg.c **** * Parameters:
 223:.\Generated_Source\PSoC4/cyfitter_cfg.c **** *  void
 224:.\Generated_Source\PSoC4/cyfitter_cfg.c **** *
 225:.\Generated_Source\PSoC4/cyfitter_cfg.c **** * Return:
 226:.\Generated_Source\PSoC4/cyfitter_cfg.c **** *  void
 227:.\Generated_Source\PSoC4/cyfitter_cfg.c **** *
 228:.\Generated_Source\PSoC4/cyfitter_cfg.c **** *******************************************************************************/
 229:.\Generated_Source\PSoC4/cyfitter_cfg.c **** static void AnalogSetDefault(void);
 230:.\Generated_Source\PSoC4/cyfitter_cfg.c **** static void AnalogSetDefault(void)
 231:.\Generated_Source\PSoC4/cyfitter_cfg.c **** {
 232:.\Generated_Source\PSoC4/cyfitter_cfg.c **** }
 233:.\Generated_Source\PSoC4/cyfitter_cfg.c **** 
 234:.\Generated_Source\PSoC4/cyfitter_cfg.c **** #define CY_AMUX_UNUSED CYREG_CM0_ROM_DWT
 235:.\Generated_Source\PSoC4/cyfitter_cfg.c **** 
 236:.\Generated_Source\PSoC4/cyfitter_cfg.c **** 
 237:.\Generated_Source\PSoC4/cyfitter_cfg.c **** /*******************************************************************************
 238:.\Generated_Source\PSoC4/cyfitter_cfg.c **** * Function Name: cyfitter_cfg
 239:.\Generated_Source\PSoC4/cyfitter_cfg.c **** ********************************************************************************
 240:.\Generated_Source\PSoC4/cyfitter_cfg.c **** * Summary:
 241:.\Generated_Source\PSoC4/cyfitter_cfg.c **** *  This function is called by the start-up code for the selected device. It
 242:.\Generated_Source\PSoC4/cyfitter_cfg.c **** *  performs all of the necessary device configuration based on the design
 243:.\Generated_Source\PSoC4/cyfitter_cfg.c **** *  settings.  This includes settings from the Design Wide Resources (DWR) such
 244:.\Generated_Source\PSoC4/cyfitter_cfg.c **** *  as Clocks and Pins as well as any component configuration that is necessary.
 245:.\Generated_Source\PSoC4/cyfitter_cfg.c **** *
 246:.\Generated_Source\PSoC4/cyfitter_cfg.c **** * Parameters:  
 247:.\Generated_Source\PSoC4/cyfitter_cfg.c **** *   void
 248:.\Generated_Source\PSoC4/cyfitter_cfg.c **** *
 249:.\Generated_Source\PSoC4/cyfitter_cfg.c **** * Return:
 250:.\Generated_Source\PSoC4/cyfitter_cfg.c **** *   void
 251:.\Generated_Source\PSoC4/cyfitter_cfg.c **** *
ARM GAS  C:\Users\Jarik\AppData\Local\Temp\ccpct4qm.s 			page 9


 252:.\Generated_Source\PSoC4/cyfitter_cfg.c **** *******************************************************************************/
 253:.\Generated_Source\PSoC4/cyfitter_cfg.c **** CY_CFG_SECTION
 254:.\Generated_Source\PSoC4/cyfitter_cfg.c **** void cyfitter_cfg(void)
 255:.\Generated_Source\PSoC4/cyfitter_cfg.c **** {
 197              		.loc 1 255 0
 198              		.cfi_startproc
 199 0058 38B5     		push	{r3, r4, r5, lr}
 200              		.cfi_def_cfa_offset 16
 201              		.cfi_offset 3, -16
 202              		.cfi_offset 4, -12
 203              		.cfi_offset 5, -8
 204              		.cfi_offset 14, -4
 256:.\Generated_Source\PSoC4/cyfitter_cfg.c **** 	/* Disable interrupts by default. Let user enable if/when they want. */
 257:.\Generated_Source\PSoC4/cyfitter_cfg.c **** 	CyGlobalIntDisable;
 205              		.loc 1 257 0
 206              	@ 257 ".\Generated_Source\PSoC4\cyfitter_cfg.c" 1
 207 005a 72B6     		CPSID   i
 208              	@ 0 "" 2
 209              	.LVL15:
 210              		.code	16
 211              	.LBB4:
 258:.\Generated_Source\PSoC4/cyfitter_cfg.c **** 
 259:.\Generated_Source\PSoC4/cyfitter_cfg.c **** 	{
 260:.\Generated_Source\PSoC4/cyfitter_cfg.c **** 		static const uint32 CYCODE cy_cfg_addr_table[] = {
 261:.\Generated_Source\PSoC4/cyfitter_cfg.c **** 			0x400F3038u, /* Base address: 0x400F3000 Count: 56 */
 262:.\Generated_Source\PSoC4/cyfitter_cfg.c **** 			0x400F3138u, /* Base address: 0x400F3100 Count: 56 */
 263:.\Generated_Source\PSoC4/cyfitter_cfg.c **** 			0x400F3222u, /* Base address: 0x400F3200 Count: 34 */
 264:.\Generated_Source\PSoC4/cyfitter_cfg.c **** 			0x400F3344u, /* Base address: 0x400F3300 Count: 68 */
 265:.\Generated_Source\PSoC4/cyfitter_cfg.c **** 			0x400F400Bu, /* Base address: 0x400F4000 Count: 11 */
 266:.\Generated_Source\PSoC4/cyfitter_cfg.c **** 			0x400F410Fu, /* Base address: 0x400F4100 Count: 15 */
 267:.\Generated_Source\PSoC4/cyfitter_cfg.c **** 			0x400F420Eu, /* Base address: 0x400F4200 Count: 14 */
 268:.\Generated_Source\PSoC4/cyfitter_cfg.c **** 			0x400F4313u, /* Base address: 0x400F4300 Count: 19 */
 269:.\Generated_Source\PSoC4/cyfitter_cfg.c **** 			0x400F6002u, /* Base address: 0x400F6000 Count: 2 */
 270:.\Generated_Source\PSoC4/cyfitter_cfg.c **** 		};
 271:.\Generated_Source\PSoC4/cyfitter_cfg.c **** 
 272:.\Generated_Source\PSoC4/cyfitter_cfg.c **** 		static const cy_cfg_addrvalue_t CYCODE cy_cfg_data_table[] = {
 273:.\Generated_Source\PSoC4/cyfitter_cfg.c **** 			{0x00u, 0x01u},
 274:.\Generated_Source\PSoC4/cyfitter_cfg.c **** 			{0x03u, 0x0Fu},
 275:.\Generated_Source\PSoC4/cyfitter_cfg.c **** 			{0x04u, 0x01u},
 276:.\Generated_Source\PSoC4/cyfitter_cfg.c **** 			{0x05u, 0x0Fu},
 277:.\Generated_Source\PSoC4/cyfitter_cfg.c **** 			{0x09u, 0x0Fu},
 278:.\Generated_Source\PSoC4/cyfitter_cfg.c **** 			{0x0Au, 0x01u},
 279:.\Generated_Source\PSoC4/cyfitter_cfg.c **** 			{0x0Du, 0x02u},
 280:.\Generated_Source\PSoC4/cyfitter_cfg.c **** 			{0x0Eu, 0x01u},
 281:.\Generated_Source\PSoC4/cyfitter_cfg.c **** 			{0x0Fu, 0x01u},
 282:.\Generated_Source\PSoC4/cyfitter_cfg.c **** 			{0x11u, 0x08u},
 283:.\Generated_Source\PSoC4/cyfitter_cfg.c **** 			{0x12u, 0x01u},
 284:.\Generated_Source\PSoC4/cyfitter_cfg.c **** 			{0x13u, 0x01u},
 285:.\Generated_Source\PSoC4/cyfitter_cfg.c **** 			{0x15u, 0x04u},
 286:.\Generated_Source\PSoC4/cyfitter_cfg.c **** 			{0x16u, 0x01u},
 287:.\Generated_Source\PSoC4/cyfitter_cfg.c **** 			{0x17u, 0x01u},
 288:.\Generated_Source\PSoC4/cyfitter_cfg.c **** 			{0x18u, 0x01u},
 289:.\Generated_Source\PSoC4/cyfitter_cfg.c **** 			{0x19u, 0x0Fu},
 290:.\Generated_Source\PSoC4/cyfitter_cfg.c **** 			{0x1Cu, 0x01u},
 291:.\Generated_Source\PSoC4/cyfitter_cfg.c **** 			{0x1Du, 0x0Fu},
 292:.\Generated_Source\PSoC4/cyfitter_cfg.c **** 			{0x22u, 0x01u},
 293:.\Generated_Source\PSoC4/cyfitter_cfg.c **** 			{0x23u, 0x0Fu},
ARM GAS  C:\Users\Jarik\AppData\Local\Temp\ccpct4qm.s 			page 10


 294:.\Generated_Source\PSoC4/cyfitter_cfg.c **** 			{0x24u, 0x01u},
 295:.\Generated_Source\PSoC4/cyfitter_cfg.c **** 			{0x25u, 0x0Fu},
 296:.\Generated_Source\PSoC4/cyfitter_cfg.c **** 			{0x2Au, 0x01u},
 297:.\Generated_Source\PSoC4/cyfitter_cfg.c **** 			{0x2Bu, 0x0Fu},
 298:.\Generated_Source\PSoC4/cyfitter_cfg.c **** 			{0x2Eu, 0x01u},
 299:.\Generated_Source\PSoC4/cyfitter_cfg.c **** 			{0x2Fu, 0x0Fu},
 300:.\Generated_Source\PSoC4/cyfitter_cfg.c **** 			{0x32u, 0x01u},
 301:.\Generated_Source\PSoC4/cyfitter_cfg.c **** 			{0x35u, 0x01u},
 302:.\Generated_Source\PSoC4/cyfitter_cfg.c **** 			{0x37u, 0x0Eu},
 303:.\Generated_Source\PSoC4/cyfitter_cfg.c **** 			{0x38u, 0x08u},
 304:.\Generated_Source\PSoC4/cyfitter_cfg.c **** 			{0x39u, 0xA0u},
 305:.\Generated_Source\PSoC4/cyfitter_cfg.c **** 			{0x3Eu, 0x04u},
 306:.\Generated_Source\PSoC4/cyfitter_cfg.c **** 			{0x3Fu, 0x50u},
 307:.\Generated_Source\PSoC4/cyfitter_cfg.c **** 			{0x58u, 0x04u},
 308:.\Generated_Source\PSoC4/cyfitter_cfg.c **** 			{0x59u, 0x04u},
 309:.\Generated_Source\PSoC4/cyfitter_cfg.c **** 			{0x5Fu, 0x01u},
 310:.\Generated_Source\PSoC4/cyfitter_cfg.c **** 			{0x84u, 0x01u},
 311:.\Generated_Source\PSoC4/cyfitter_cfg.c **** 			{0x85u, 0x08u},
 312:.\Generated_Source\PSoC4/cyfitter_cfg.c **** 			{0x89u, 0x04u},
 313:.\Generated_Source\PSoC4/cyfitter_cfg.c **** 			{0x98u, 0x02u},
 314:.\Generated_Source\PSoC4/cyfitter_cfg.c **** 			{0x99u, 0x01u},
 315:.\Generated_Source\PSoC4/cyfitter_cfg.c **** 			{0xACu, 0x04u},
 316:.\Generated_Source\PSoC4/cyfitter_cfg.c **** 			{0xADu, 0x02u},
 317:.\Generated_Source\PSoC4/cyfitter_cfg.c **** 			{0xB0u, 0x02u},
 318:.\Generated_Source\PSoC4/cyfitter_cfg.c **** 			{0xB1u, 0x04u},
 319:.\Generated_Source\PSoC4/cyfitter_cfg.c **** 			{0xB2u, 0x04u},
 320:.\Generated_Source\PSoC4/cyfitter_cfg.c **** 			{0xB3u, 0x02u},
 321:.\Generated_Source\PSoC4/cyfitter_cfg.c **** 			{0xB4u, 0x01u},
 322:.\Generated_Source\PSoC4/cyfitter_cfg.c **** 			{0xB5u, 0x08u},
 323:.\Generated_Source\PSoC4/cyfitter_cfg.c **** 			{0xB7u, 0x01u},
 324:.\Generated_Source\PSoC4/cyfitter_cfg.c **** 			{0xD8u, 0x0Bu},
 325:.\Generated_Source\PSoC4/cyfitter_cfg.c **** 			{0xD9u, 0x0Bu},
 326:.\Generated_Source\PSoC4/cyfitter_cfg.c **** 			{0xDBu, 0x04u},
 327:.\Generated_Source\PSoC4/cyfitter_cfg.c **** 			{0xDCu, 0x99u},
 328:.\Generated_Source\PSoC4/cyfitter_cfg.c **** 			{0xDFu, 0x01u},
 329:.\Generated_Source\PSoC4/cyfitter_cfg.c **** 			{0x02u, 0x89u},
 330:.\Generated_Source\PSoC4/cyfitter_cfg.c **** 			{0x03u, 0x20u},
 331:.\Generated_Source\PSoC4/cyfitter_cfg.c **** 			{0x05u, 0x08u},
 332:.\Generated_Source\PSoC4/cyfitter_cfg.c **** 			{0x08u, 0x99u},
 333:.\Generated_Source\PSoC4/cyfitter_cfg.c **** 			{0x0Eu, 0x08u},
 334:.\Generated_Source\PSoC4/cyfitter_cfg.c **** 			{0x10u, 0x40u},
 335:.\Generated_Source\PSoC4/cyfitter_cfg.c **** 			{0x12u, 0x02u},
 336:.\Generated_Source\PSoC4/cyfitter_cfg.c **** 			{0x13u, 0x28u},
 337:.\Generated_Source\PSoC4/cyfitter_cfg.c **** 			{0x17u, 0x80u},
 338:.\Generated_Source\PSoC4/cyfitter_cfg.c **** 			{0x19u, 0x04u},
 339:.\Generated_Source\PSoC4/cyfitter_cfg.c **** 			{0x1Eu, 0xA0u},
 340:.\Generated_Source\PSoC4/cyfitter_cfg.c **** 			{0x1Fu, 0x20u},
 341:.\Generated_Source\PSoC4/cyfitter_cfg.c **** 			{0x22u, 0x50u},
 342:.\Generated_Source\PSoC4/cyfitter_cfg.c **** 			{0x24u, 0x84u},
 343:.\Generated_Source\PSoC4/cyfitter_cfg.c **** 			{0x26u, 0x0Au},
 344:.\Generated_Source\PSoC4/cyfitter_cfg.c **** 			{0x27u, 0x09u},
 345:.\Generated_Source\PSoC4/cyfitter_cfg.c **** 			{0x28u, 0x68u},
 346:.\Generated_Source\PSoC4/cyfitter_cfg.c **** 			{0x2Au, 0x80u},
 347:.\Generated_Source\PSoC4/cyfitter_cfg.c **** 			{0x2Bu, 0x24u},
 348:.\Generated_Source\PSoC4/cyfitter_cfg.c **** 			{0x2Du, 0x40u},
 349:.\Generated_Source\PSoC4/cyfitter_cfg.c **** 			{0x30u, 0x91u},
 350:.\Generated_Source\PSoC4/cyfitter_cfg.c **** 			{0x31u, 0x10u},
ARM GAS  C:\Users\Jarik\AppData\Local\Temp\ccpct4qm.s 			page 11


 351:.\Generated_Source\PSoC4/cyfitter_cfg.c **** 			{0x32u, 0x88u},
 352:.\Generated_Source\PSoC4/cyfitter_cfg.c **** 			{0x33u, 0x01u},
 353:.\Generated_Source\PSoC4/cyfitter_cfg.c **** 			{0x35u, 0x20u},
 354:.\Generated_Source\PSoC4/cyfitter_cfg.c **** 			{0x38u, 0x86u},
 355:.\Generated_Source\PSoC4/cyfitter_cfg.c **** 			{0x3Au, 0x51u},
 356:.\Generated_Source\PSoC4/cyfitter_cfg.c **** 			{0x3Bu, 0x08u},
 357:.\Generated_Source\PSoC4/cyfitter_cfg.c **** 			{0x3Du, 0x20u},
 358:.\Generated_Source\PSoC4/cyfitter_cfg.c **** 			{0x3Eu, 0x04u},
 359:.\Generated_Source\PSoC4/cyfitter_cfg.c **** 			{0x5Du, 0x01u},
 360:.\Generated_Source\PSoC4/cyfitter_cfg.c **** 			{0x5Eu, 0xA0u},
 361:.\Generated_Source\PSoC4/cyfitter_cfg.c **** 			{0x5Fu, 0x04u},
 362:.\Generated_Source\PSoC4/cyfitter_cfg.c **** 			{0x64u, 0x20u},
 363:.\Generated_Source\PSoC4/cyfitter_cfg.c **** 			{0x66u, 0x42u},
 364:.\Generated_Source\PSoC4/cyfitter_cfg.c **** 			{0x67u, 0x08u},
 365:.\Generated_Source\PSoC4/cyfitter_cfg.c **** 			{0x7Fu, 0x80u},
 366:.\Generated_Source\PSoC4/cyfitter_cfg.c **** 			{0x82u, 0x04u},
 367:.\Generated_Source\PSoC4/cyfitter_cfg.c **** 			{0x83u, 0x80u},
 368:.\Generated_Source\PSoC4/cyfitter_cfg.c **** 			{0x84u, 0x01u},
 369:.\Generated_Source\PSoC4/cyfitter_cfg.c **** 			{0x85u, 0x01u},
 370:.\Generated_Source\PSoC4/cyfitter_cfg.c **** 			{0x86u, 0x08u},
 371:.\Generated_Source\PSoC4/cyfitter_cfg.c **** 			{0x87u, 0x04u},
 372:.\Generated_Source\PSoC4/cyfitter_cfg.c **** 			{0x88u, 0x04u},
 373:.\Generated_Source\PSoC4/cyfitter_cfg.c **** 			{0x8Cu, 0x0Cu},
 374:.\Generated_Source\PSoC4/cyfitter_cfg.c **** 			{0x8Eu, 0x02u},
 375:.\Generated_Source\PSoC4/cyfitter_cfg.c **** 			{0x8Fu, 0x04u},
 376:.\Generated_Source\PSoC4/cyfitter_cfg.c **** 			{0xC0u, 0x2Fu},
 377:.\Generated_Source\PSoC4/cyfitter_cfg.c **** 			{0xC2u, 0x4Fu},
 378:.\Generated_Source\PSoC4/cyfitter_cfg.c **** 			{0xC4u, 0x8Fu},
 379:.\Generated_Source\PSoC4/cyfitter_cfg.c **** 			{0xCAu, 0x1Fu},
 380:.\Generated_Source\PSoC4/cyfitter_cfg.c **** 			{0xCCu, 0x2Fu},
 381:.\Generated_Source\PSoC4/cyfitter_cfg.c **** 			{0xCEu, 0x6Fu},
 382:.\Generated_Source\PSoC4/cyfitter_cfg.c **** 			{0xD6u, 0xF0u},
 383:.\Generated_Source\PSoC4/cyfitter_cfg.c **** 			{0xD8u, 0xF0u},
 384:.\Generated_Source\PSoC4/cyfitter_cfg.c **** 			{0xDEu, 0x80u},
 385:.\Generated_Source\PSoC4/cyfitter_cfg.c **** 			{0x01u, 0x08u},
 386:.\Generated_Source\PSoC4/cyfitter_cfg.c **** 			{0x02u, 0x01u},
 387:.\Generated_Source\PSoC4/cyfitter_cfg.c **** 			{0x04u, 0x02u},
 388:.\Generated_Source\PSoC4/cyfitter_cfg.c **** 			{0x05u, 0x04u},
 389:.\Generated_Source\PSoC4/cyfitter_cfg.c **** 			{0x08u, 0x01u},
 390:.\Generated_Source\PSoC4/cyfitter_cfg.c **** 			{0x0Cu, 0x04u},
 391:.\Generated_Source\PSoC4/cyfitter_cfg.c **** 			{0x0Du, 0x02u},
 392:.\Generated_Source\PSoC4/cyfitter_cfg.c **** 			{0x14u, 0x08u},
 393:.\Generated_Source\PSoC4/cyfitter_cfg.c **** 			{0x1Cu, 0x01u},
 394:.\Generated_Source\PSoC4/cyfitter_cfg.c **** 			{0x22u, 0x01u},
 395:.\Generated_Source\PSoC4/cyfitter_cfg.c **** 			{0x29u, 0x01u},
 396:.\Generated_Source\PSoC4/cyfitter_cfg.c **** 			{0x2Au, 0x01u},
 397:.\Generated_Source\PSoC4/cyfitter_cfg.c **** 			{0x30u, 0x02u},
 398:.\Generated_Source\PSoC4/cyfitter_cfg.c **** 			{0x31u, 0x01u},
 399:.\Generated_Source\PSoC4/cyfitter_cfg.c **** 			{0x32u, 0x04u},
 400:.\Generated_Source\PSoC4/cyfitter_cfg.c **** 			{0x33u, 0x04u},
 401:.\Generated_Source\PSoC4/cyfitter_cfg.c **** 			{0x34u, 0x08u},
 402:.\Generated_Source\PSoC4/cyfitter_cfg.c **** 			{0x35u, 0x08u},
 403:.\Generated_Source\PSoC4/cyfitter_cfg.c **** 			{0x36u, 0x01u},
 404:.\Generated_Source\PSoC4/cyfitter_cfg.c **** 			{0x37u, 0x02u},
 405:.\Generated_Source\PSoC4/cyfitter_cfg.c **** 			{0x3Eu, 0x40u},
 406:.\Generated_Source\PSoC4/cyfitter_cfg.c **** 			{0x58u, 0x0Bu},
 407:.\Generated_Source\PSoC4/cyfitter_cfg.c **** 			{0x59u, 0x0Bu},
ARM GAS  C:\Users\Jarik\AppData\Local\Temp\ccpct4qm.s 			page 12


 408:.\Generated_Source\PSoC4/cyfitter_cfg.c **** 			{0x5Bu, 0x04u},
 409:.\Generated_Source\PSoC4/cyfitter_cfg.c **** 			{0x5Cu, 0x99u},
 410:.\Generated_Source\PSoC4/cyfitter_cfg.c **** 			{0x5Fu, 0x01u},
 411:.\Generated_Source\PSoC4/cyfitter_cfg.c **** 			{0x9Cu, 0x01u},
 412:.\Generated_Source\PSoC4/cyfitter_cfg.c **** 			{0xA4u, 0x02u},
 413:.\Generated_Source\PSoC4/cyfitter_cfg.c **** 			{0xB2u, 0x01u},
 414:.\Generated_Source\PSoC4/cyfitter_cfg.c **** 			{0xB4u, 0x02u},
 415:.\Generated_Source\PSoC4/cyfitter_cfg.c **** 			{0xD8u, 0x0Bu},
 416:.\Generated_Source\PSoC4/cyfitter_cfg.c **** 			{0xDBu, 0x04u},
 417:.\Generated_Source\PSoC4/cyfitter_cfg.c **** 			{0xDCu, 0x09u},
 418:.\Generated_Source\PSoC4/cyfitter_cfg.c **** 			{0xDFu, 0x01u},
 419:.\Generated_Source\PSoC4/cyfitter_cfg.c **** 			{0x04u, 0x4Au},
 420:.\Generated_Source\PSoC4/cyfitter_cfg.c **** 			{0x05u, 0x10u},
 421:.\Generated_Source\PSoC4/cyfitter_cfg.c **** 			{0x06u, 0x40u},
 422:.\Generated_Source\PSoC4/cyfitter_cfg.c **** 			{0x0Au, 0x01u},
 423:.\Generated_Source\PSoC4/cyfitter_cfg.c **** 			{0x0Cu, 0x80u},
 424:.\Generated_Source\PSoC4/cyfitter_cfg.c **** 			{0x0Du, 0x80u},
 425:.\Generated_Source\PSoC4/cyfitter_cfg.c **** 			{0x0Fu, 0x10u},
 426:.\Generated_Source\PSoC4/cyfitter_cfg.c **** 			{0x10u, 0x20u},
 427:.\Generated_Source\PSoC4/cyfitter_cfg.c **** 			{0x14u, 0x40u},
 428:.\Generated_Source\PSoC4/cyfitter_cfg.c **** 			{0x17u, 0x20u},
 429:.\Generated_Source\PSoC4/cyfitter_cfg.c **** 			{0x19u, 0x20u},
 430:.\Generated_Source\PSoC4/cyfitter_cfg.c **** 			{0x1Bu, 0x04u},
 431:.\Generated_Source\PSoC4/cyfitter_cfg.c **** 			{0x1Eu, 0xA4u},
 432:.\Generated_Source\PSoC4/cyfitter_cfg.c **** 			{0x1Fu, 0x80u},
 433:.\Generated_Source\PSoC4/cyfitter_cfg.c **** 			{0x25u, 0x28u},
 434:.\Generated_Source\PSoC4/cyfitter_cfg.c **** 			{0x26u, 0x01u},
 435:.\Generated_Source\PSoC4/cyfitter_cfg.c **** 			{0x27u, 0x02u},
 436:.\Generated_Source\PSoC4/cyfitter_cfg.c **** 			{0x2Cu, 0x08u},
 437:.\Generated_Source\PSoC4/cyfitter_cfg.c **** 			{0x3Cu, 0x08u},
 438:.\Generated_Source\PSoC4/cyfitter_cfg.c **** 			{0x3Eu, 0x40u},
 439:.\Generated_Source\PSoC4/cyfitter_cfg.c **** 			{0x3Fu, 0x02u},
 440:.\Generated_Source\PSoC4/cyfitter_cfg.c **** 			{0x45u, 0x28u},
 441:.\Generated_Source\PSoC4/cyfitter_cfg.c **** 			{0x46u, 0x28u},
 442:.\Generated_Source\PSoC4/cyfitter_cfg.c **** 			{0x58u, 0x01u},
 443:.\Generated_Source\PSoC4/cyfitter_cfg.c **** 			{0x59u, 0x04u},
 444:.\Generated_Source\PSoC4/cyfitter_cfg.c **** 			{0x5Au, 0xA0u},
 445:.\Generated_Source\PSoC4/cyfitter_cfg.c **** 			{0x5Bu, 0x02u},
 446:.\Generated_Source\PSoC4/cyfitter_cfg.c **** 			{0x5Du, 0x20u},
 447:.\Generated_Source\PSoC4/cyfitter_cfg.c **** 			{0x5Eu, 0x86u},
 448:.\Generated_Source\PSoC4/cyfitter_cfg.c **** 			{0x64u, 0x01u},
 449:.\Generated_Source\PSoC4/cyfitter_cfg.c **** 			{0x66u, 0x2Au},
 450:.\Generated_Source\PSoC4/cyfitter_cfg.c **** 			{0x7Bu, 0x80u},
 451:.\Generated_Source\PSoC4/cyfitter_cfg.c **** 			{0x7Fu, 0x80u},
 452:.\Generated_Source\PSoC4/cyfitter_cfg.c **** 			{0x80u, 0x80u},
 453:.\Generated_Source\PSoC4/cyfitter_cfg.c **** 			{0x86u, 0x92u},
 454:.\Generated_Source\PSoC4/cyfitter_cfg.c **** 			{0x87u, 0x20u},
 455:.\Generated_Source\PSoC4/cyfitter_cfg.c **** 			{0x88u, 0x40u},
 456:.\Generated_Source\PSoC4/cyfitter_cfg.c **** 			{0x89u, 0x80u},
 457:.\Generated_Source\PSoC4/cyfitter_cfg.c **** 			{0x8Au, 0x50u},
 458:.\Generated_Source\PSoC4/cyfitter_cfg.c **** 			{0x8Du, 0x10u},
 459:.\Generated_Source\PSoC4/cyfitter_cfg.c **** 			{0x90u, 0x48u},
 460:.\Generated_Source\PSoC4/cyfitter_cfg.c **** 			{0x92u, 0xE1u},
 461:.\Generated_Source\PSoC4/cyfitter_cfg.c **** 			{0x93u, 0x10u},
 462:.\Generated_Source\PSoC4/cyfitter_cfg.c **** 			{0x94u, 0x02u},
 463:.\Generated_Source\PSoC4/cyfitter_cfg.c **** 			{0x99u, 0x04u},
 464:.\Generated_Source\PSoC4/cyfitter_cfg.c **** 			{0x9Cu, 0xC0u},
ARM GAS  C:\Users\Jarik\AppData\Local\Temp\ccpct4qm.s 			page 13


 465:.\Generated_Source\PSoC4/cyfitter_cfg.c **** 			{0x9Du, 0x10u},
 466:.\Generated_Source\PSoC4/cyfitter_cfg.c **** 			{0x9Eu, 0x90u},
 467:.\Generated_Source\PSoC4/cyfitter_cfg.c **** 			{0x9Fu, 0x20u},
 468:.\Generated_Source\PSoC4/cyfitter_cfg.c **** 			{0xA0u, 0x2Cu},
 469:.\Generated_Source\PSoC4/cyfitter_cfg.c **** 			{0xA3u, 0x01u},
 470:.\Generated_Source\PSoC4/cyfitter_cfg.c **** 			{0xA4u, 0x80u},
 471:.\Generated_Source\PSoC4/cyfitter_cfg.c **** 			{0xA7u, 0x84u},
 472:.\Generated_Source\PSoC4/cyfitter_cfg.c **** 			{0xA9u, 0x70u},
 473:.\Generated_Source\PSoC4/cyfitter_cfg.c **** 			{0xADu, 0x08u},
 474:.\Generated_Source\PSoC4/cyfitter_cfg.c **** 			{0xAEu, 0x05u},
 475:.\Generated_Source\PSoC4/cyfitter_cfg.c **** 			{0xB0u, 0x20u},
 476:.\Generated_Source\PSoC4/cyfitter_cfg.c **** 			{0xB3u, 0x11u},
 477:.\Generated_Source\PSoC4/cyfitter_cfg.c **** 			{0xB4u, 0x40u},
 478:.\Generated_Source\PSoC4/cyfitter_cfg.c **** 			{0xB6u, 0x40u},
 479:.\Generated_Source\PSoC4/cyfitter_cfg.c **** 			{0xC0u, 0xF0u},
 480:.\Generated_Source\PSoC4/cyfitter_cfg.c **** 			{0xC2u, 0xA1u},
 481:.\Generated_Source\PSoC4/cyfitter_cfg.c **** 			{0xC4u, 0x54u},
 482:.\Generated_Source\PSoC4/cyfitter_cfg.c **** 			{0xCAu, 0x20u},
 483:.\Generated_Source\PSoC4/cyfitter_cfg.c **** 			{0xCEu, 0xD0u},
 484:.\Generated_Source\PSoC4/cyfitter_cfg.c **** 			{0xD6u, 0xFEu},
 485:.\Generated_Source\PSoC4/cyfitter_cfg.c **** 			{0xD8u, 0xF0u},
 486:.\Generated_Source\PSoC4/cyfitter_cfg.c **** 			{0xDEu, 0x81u},
 487:.\Generated_Source\PSoC4/cyfitter_cfg.c **** 			{0x03u, 0x88u},
 488:.\Generated_Source\PSoC4/cyfitter_cfg.c **** 			{0x05u, 0x10u},
 489:.\Generated_Source\PSoC4/cyfitter_cfg.c **** 			{0x07u, 0x20u},
 490:.\Generated_Source\PSoC4/cyfitter_cfg.c **** 			{0x0Au, 0x18u},
 491:.\Generated_Source\PSoC4/cyfitter_cfg.c **** 			{0x0Cu, 0x80u},
 492:.\Generated_Source\PSoC4/cyfitter_cfg.c **** 			{0x0Du, 0x08u},
 493:.\Generated_Source\PSoC4/cyfitter_cfg.c **** 			{0x83u, 0xA0u},
 494:.\Generated_Source\PSoC4/cyfitter_cfg.c **** 			{0xC0u, 0xF0u},
 495:.\Generated_Source\PSoC4/cyfitter_cfg.c **** 			{0xC2u, 0xF0u},
 496:.\Generated_Source\PSoC4/cyfitter_cfg.c **** 			{0xE0u, 0x80u},
 497:.\Generated_Source\PSoC4/cyfitter_cfg.c **** 			{0xE4u, 0x20u},
 498:.\Generated_Source\PSoC4/cyfitter_cfg.c **** 			{0x02u, 0x10u},
 499:.\Generated_Source\PSoC4/cyfitter_cfg.c **** 			{0x05u, 0x04u},
 500:.\Generated_Source\PSoC4/cyfitter_cfg.c **** 			{0x81u, 0x04u},
 501:.\Generated_Source\PSoC4/cyfitter_cfg.c **** 			{0x86u, 0x10u},
 502:.\Generated_Source\PSoC4/cyfitter_cfg.c **** 			{0xA9u, 0x10u},
 503:.\Generated_Source\PSoC4/cyfitter_cfg.c **** 			{0xAAu, 0x10u},
 504:.\Generated_Source\PSoC4/cyfitter_cfg.c **** 			{0xABu, 0x08u},
 505:.\Generated_Source\PSoC4/cyfitter_cfg.c **** 			{0xACu, 0x80u},
 506:.\Generated_Source\PSoC4/cyfitter_cfg.c **** 			{0xADu, 0x08u},
 507:.\Generated_Source\PSoC4/cyfitter_cfg.c **** 			{0xAEu, 0x04u},
 508:.\Generated_Source\PSoC4/cyfitter_cfg.c **** 			{0xC0u, 0x30u},
 509:.\Generated_Source\PSoC4/cyfitter_cfg.c **** 			{0xE0u, 0x40u},
 510:.\Generated_Source\PSoC4/cyfitter_cfg.c **** 			{0xE4u, 0x80u},
 511:.\Generated_Source\PSoC4/cyfitter_cfg.c **** 			{0xE8u, 0xD0u},
 512:.\Generated_Source\PSoC4/cyfitter_cfg.c **** 			{0xECu, 0xB0u},
 513:.\Generated_Source\PSoC4/cyfitter_cfg.c **** 			{0x00u, 0x20u},
 514:.\Generated_Source\PSoC4/cyfitter_cfg.c **** 			{0x02u, 0x20u},
 515:.\Generated_Source\PSoC4/cyfitter_cfg.c **** 			{0x06u, 0x80u},
 516:.\Generated_Source\PSoC4/cyfitter_cfg.c **** 			{0x07u, 0x04u},
 517:.\Generated_Source\PSoC4/cyfitter_cfg.c **** 			{0x08u, 0x20u},
 518:.\Generated_Source\PSoC4/cyfitter_cfg.c **** 			{0x09u, 0x04u},
 519:.\Generated_Source\PSoC4/cyfitter_cfg.c **** 			{0x0Fu, 0x48u},
 520:.\Generated_Source\PSoC4/cyfitter_cfg.c **** 			{0x8Bu, 0x40u},
 521:.\Generated_Source\PSoC4/cyfitter_cfg.c **** 			{0x8Eu, 0x20u},
ARM GAS  C:\Users\Jarik\AppData\Local\Temp\ccpct4qm.s 			page 14


 522:.\Generated_Source\PSoC4/cyfitter_cfg.c **** 			{0x8Fu, 0x04u},
 523:.\Generated_Source\PSoC4/cyfitter_cfg.c **** 			{0xC0u, 0x0Fu},
 524:.\Generated_Source\PSoC4/cyfitter_cfg.c **** 			{0xC2u, 0x0Fu},
 525:.\Generated_Source\PSoC4/cyfitter_cfg.c **** 			{0xE2u, 0x0Cu},
 526:.\Generated_Source\PSoC4/cyfitter_cfg.c **** 			{0xE6u, 0x08u},
 527:.\Generated_Source\PSoC4/cyfitter_cfg.c **** 			{0x01u, 0x08u},
 528:.\Generated_Source\PSoC4/cyfitter_cfg.c **** 			{0x06u, 0x80u},
 529:.\Generated_Source\PSoC4/cyfitter_cfg.c **** 			{0x08u, 0x20u},
 530:.\Generated_Source\PSoC4/cyfitter_cfg.c **** 			{0x0Bu, 0x20u},
 531:.\Generated_Source\PSoC4/cyfitter_cfg.c **** 			{0x0Eu, 0x01u},
 532:.\Generated_Source\PSoC4/cyfitter_cfg.c **** 			{0x88u, 0x20u},
 533:.\Generated_Source\PSoC4/cyfitter_cfg.c **** 			{0x8Au, 0x81u},
 534:.\Generated_Source\PSoC4/cyfitter_cfg.c **** 			{0x8Bu, 0x10u},
 535:.\Generated_Source\PSoC4/cyfitter_cfg.c **** 			{0x8Du, 0x08u},
 536:.\Generated_Source\PSoC4/cyfitter_cfg.c **** 			{0xB0u, 0x30u},
 537:.\Generated_Source\PSoC4/cyfitter_cfg.c **** 			{0xB2u, 0x80u},
 538:.\Generated_Source\PSoC4/cyfitter_cfg.c **** 			{0xB5u, 0x04u},
 539:.\Generated_Source\PSoC4/cyfitter_cfg.c **** 			{0xB7u, 0x04u},
 540:.\Generated_Source\PSoC4/cyfitter_cfg.c **** 			{0xC0u, 0x0Cu},
 541:.\Generated_Source\PSoC4/cyfitter_cfg.c **** 			{0xC2u, 0x0Bu},
 542:.\Generated_Source\PSoC4/cyfitter_cfg.c **** 			{0xE2u, 0x07u},
 543:.\Generated_Source\PSoC4/cyfitter_cfg.c **** 			{0xE6u, 0x05u},
 544:.\Generated_Source\PSoC4/cyfitter_cfg.c **** 			{0xEAu, 0x03u},
 545:.\Generated_Source\PSoC4/cyfitter_cfg.c **** 			{0xEEu, 0x07u},
 546:.\Generated_Source\PSoC4/cyfitter_cfg.c **** 			{0x02u, 0x01u},
 547:.\Generated_Source\PSoC4/cyfitter_cfg.c **** 			{0x11u, 0x01u},
 548:.\Generated_Source\PSoC4/cyfitter_cfg.c **** 		};
 549:.\Generated_Source\PSoC4/cyfitter_cfg.c **** 
 550:.\Generated_Source\PSoC4/cyfitter_cfg.c **** 
 551:.\Generated_Source\PSoC4/cyfitter_cfg.c **** 
 552:.\Generated_Source\PSoC4/cyfitter_cfg.c **** 		CYPACKED typedef struct {
 553:.\Generated_Source\PSoC4/cyfitter_cfg.c **** 			void CYFAR *address;
 554:.\Generated_Source\PSoC4/cyfitter_cfg.c **** 			uint16 size;
 555:.\Generated_Source\PSoC4/cyfitter_cfg.c **** 		} CYPACKED_ATTR cfg_memset_t;
 556:.\Generated_Source\PSoC4/cyfitter_cfg.c **** 
 557:.\Generated_Source\PSoC4/cyfitter_cfg.c **** 		static const cfg_memset_t CYCODE cfg_memset_list [] = {
 558:.\Generated_Source\PSoC4/cyfitter_cfg.c **** 			/* address, size */
 559:.\Generated_Source\PSoC4/cyfitter_cfg.c **** 			{(void CYFAR *)(CYDEV_UDB_P0_U0_BASE), 1024u},
 560:.\Generated_Source\PSoC4/cyfitter_cfg.c **** 			{(void CYFAR *)(CYDEV_UDB_DSI0_BASE), 1024u},
 561:.\Generated_Source\PSoC4/cyfitter_cfg.c **** 		};
 562:.\Generated_Source\PSoC4/cyfitter_cfg.c **** 
 563:.\Generated_Source\PSoC4/cyfitter_cfg.c **** 		uint8 CYDATA i;
 564:.\Generated_Source\PSoC4/cyfitter_cfg.c **** 
 565:.\Generated_Source\PSoC4/cyfitter_cfg.c **** 		/* Zero out critical memory blocks before beginning configuration */
 566:.\Generated_Source\PSoC4/cyfitter_cfg.c **** 		for (i = 0u; i < (sizeof(cfg_memset_list)/sizeof(cfg_memset_list[0])); i++)
 212              		.loc 1 566 0
 213 005c 0024     		mov	r4, #0
 214              	.LBB5:
 567:.\Generated_Source\PSoC4/cyfitter_cfg.c **** 		{
 568:.\Generated_Source\PSoC4/cyfitter_cfg.c **** 			const cfg_memset_t CYCODE * CYDATA ms = &cfg_memset_list[i];
 215              		.loc 1 568 0
 216 005e 334D     		ldr	r5, .L13
 217              	.LBE5:
 566:.\Generated_Source\PSoC4/cyfitter_cfg.c **** 		for (i = 0u; i < (sizeof(cfg_memset_list)/sizeof(cfg_memset_list[0])); i++)
 218              		.loc 1 566 0
 219 0060 0CE0     		b	.L11
 220              	.LVL16:
ARM GAS  C:\Users\Jarik\AppData\Local\Temp\ccpct4qm.s 			page 15


 221              	.L12:
 222              	.LBB6:
 223              		.loc 1 568 0 discriminator 2
 224 0062 6300     		lsl	r3, r4, #1
 225 0064 1B19     		add	r3, r3, r4
 226 0066 5B00     		lsl	r3, r3, #1
 227 0068 EB18     		add	r3, r5, r3
 228              	.LVL17:
 569:.\Generated_Source\PSoC4/cyfitter_cfg.c **** 			CYMEMZERO(ms->address, (size_t)(uint32)(ms->size));
 229              		.loc 1 569 0 discriminator 2
 230 006a 9988     		ldrh	r1, [r3, #4]
 231 006c 1A88     		ldrh	r2, [r3]
 232 006e 5888     		ldrh	r0, [r3, #2]
 233 0070 0004     		lsl	r0, r0, #16
 234 0072 1043     		orr	r0, r2
 235 0074 FFF7FEFF 		bl	CYMEMZERO
 236              	.LVL18:
 237              	.LBE6:
 566:.\Generated_Source\PSoC4/cyfitter_cfg.c **** 		for (i = 0u; i < (sizeof(cfg_memset_list)/sizeof(cfg_memset_list[0])); i++)
 238              		.loc 1 566 0 discriminator 2
 239 0078 0134     		add	r4, r4, #1
 240              	.LVL19:
 241 007a E4B2     		uxtb	r4, r4
 242              	.LVL20:
 243              	.L11:
 566:.\Generated_Source\PSoC4/cyfitter_cfg.c **** 		for (i = 0u; i < (sizeof(cfg_memset_list)/sizeof(cfg_memset_list[0])); i++)
 244              		.loc 1 566 0 is_stmt 0 discriminator 1
 245 007c 012C     		cmp	r4, #1
 246 007e F0D9     		bls	.L12
 570:.\Generated_Source\PSoC4/cyfitter_cfg.c **** 		}
 571:.\Generated_Source\PSoC4/cyfitter_cfg.c **** 
 572:.\Generated_Source\PSoC4/cyfitter_cfg.c **** 		cfg_write_bytes32(cy_cfg_addr_table, cy_cfg_data_table);
 247              		.loc 1 572 0 is_stmt 1
 248 0080 2A49     		ldr	r1, .L13
 249 0082 081C     		mov	r0, r1
 250 0084 0C30     		add	r0, r0, #12
 251 0086 3031     		add	r1, r1, #48
 252 0088 FFF7FEFF 		bl	cfg_write_bytes32
 253              	.LVL21:
 573:.\Generated_Source\PSoC4/cyfitter_cfg.c **** 
 574:.\Generated_Source\PSoC4/cyfitter_cfg.c **** 		/* HSIOM Starting address: CYDEV_HSIOM_BASE */
 575:.\Generated_Source\PSoC4/cyfitter_cfg.c **** 		CY_SET_XTND_REG32((void CYFAR *)(CYREG_HSIOM_PORT_SEL3), 0x0000EE00u);
 254              		.loc 1 575 0
 255 008c EE22     		mov	r2, #238
 256 008e 1202     		lsl	r2, r2, #8
 257 0090 274B     		ldr	r3, .L13+4
 258 0092 1A60     		str	r2, [r3]
 576:.\Generated_Source\PSoC4/cyfitter_cfg.c **** 		CY_SET_XTND_REG32((void CYFAR *)(CYREG_HSIOM_PORT_SEL4), 0x0000FFFFu);
 259              		.loc 1 576 0
 260 0094 274A     		ldr	r2, .L13+8
 261 0096 284B     		ldr	r3, .L13+12
 262 0098 1A60     		str	r2, [r3]
 577:.\Generated_Source\PSoC4/cyfitter_cfg.c **** 
 578:.\Generated_Source\PSoC4/cyfitter_cfg.c **** 		/* UDB_PA_0 Starting address: CYDEV_UDB_PA0_BASE */
 579:.\Generated_Source\PSoC4/cyfitter_cfg.c **** 		CY_SET_XTND_REG32((void CYFAR *)(CYDEV_UDB_PA0_BASE), 0x00990004u);
 263              		.loc 1 579 0
 264 009a 284B     		ldr	r3, .L13+16
ARM GAS  C:\Users\Jarik\AppData\Local\Temp\ccpct4qm.s 			page 16


 265 009c 284A     		ldr	r2, .L13+20
 266 009e 1360     		str	r3, [r2]
 580:.\Generated_Source\PSoC4/cyfitter_cfg.c **** 		CY_SET_XTND_REG32((void CYFAR *)(CYREG_UDB_PA0_CFG4), 0x55550000u);
 267              		.loc 1 580 0
 268 00a0 284A     		ldr	r2, .L13+24
 269 00a2 2949     		ldr	r1, .L13+28
 270 00a4 0A60     		str	r2, [r1]
 581:.\Generated_Source\PSoC4/cyfitter_cfg.c **** 
 582:.\Generated_Source\PSoC4/cyfitter_cfg.c **** 		/* UDB_PA_1 Starting address: CYDEV_UDB_PA1_BASE */
 583:.\Generated_Source\PSoC4/cyfitter_cfg.c **** 		CY_SET_XTND_REG32((void CYFAR *)(CYDEV_UDB_PA1_BASE), 0x00990004u);
 271              		.loc 1 583 0
 272 00a6 2949     		ldr	r1, .L13+32
 273 00a8 0B60     		str	r3, [r1]
 584:.\Generated_Source\PSoC4/cyfitter_cfg.c **** 		CY_SET_XTND_REG32((void CYFAR *)(CYREG_UDB_PA1_CFG4), 0x24050000u);
 274              		.loc 1 584 0
 275 00aa 2948     		ldr	r0, .L13+36
 276 00ac 2949     		ldr	r1, .L13+40
 277 00ae 0860     		str	r0, [r1]
 585:.\Generated_Source\PSoC4/cyfitter_cfg.c **** 
 586:.\Generated_Source\PSoC4/cyfitter_cfg.c **** 		/* UDB_PA_2 Starting address: CYDEV_UDB_PA2_BASE */
 587:.\Generated_Source\PSoC4/cyfitter_cfg.c **** 		CY_SET_XTND_REG32((void CYFAR *)(CYDEV_UDB_PA2_BASE), 0x00990004u);
 278              		.loc 1 587 0
 279 00b0 2949     		ldr	r1, .L13+44
 280 00b2 0B60     		str	r3, [r1]
 588:.\Generated_Source\PSoC4/cyfitter_cfg.c **** 		CY_SET_XTND_REG32((void CYFAR *)(CYREG_UDB_PA2_CFG4), 0x55550000u);
 281              		.loc 1 588 0
 282 00b4 2949     		ldr	r1, .L13+48
 283 00b6 0A60     		str	r2, [r1]
 589:.\Generated_Source\PSoC4/cyfitter_cfg.c **** 
 590:.\Generated_Source\PSoC4/cyfitter_cfg.c **** 		/* UDB_PA_3 Starting address: CYDEV_UDB_PA3_BASE */
 591:.\Generated_Source\PSoC4/cyfitter_cfg.c **** 		CY_SET_XTND_REG32((void CYFAR *)(CYDEV_UDB_PA3_BASE), 0x00990004u);
 284              		.loc 1 591 0
 285 00b8 294A     		ldr	r2, .L13+52
 286 00ba 1360     		str	r3, [r2]
 592:.\Generated_Source\PSoC4/cyfitter_cfg.c **** 		CY_SET_XTND_REG32((void CYFAR *)(CYREG_UDB_PA3_CFG4), 0x51050000u);
 287              		.loc 1 592 0
 288 00bc 294A     		ldr	r2, .L13+56
 289 00be 2A4B     		ldr	r3, .L13+60
 290 00c0 1A60     		str	r2, [r3]
 593:.\Generated_Source\PSoC4/cyfitter_cfg.c **** 
 594:.\Generated_Source\PSoC4/cyfitter_cfg.c **** 		/* Enable digital routing */
 595:.\Generated_Source\PSoC4/cyfitter_cfg.c **** 		CY_SET_XTND_REG8((void *)CYREG_UDB_UDBIF_BANK_CTL, CY_GET_XTND_REG8((void *)CYREG_UDB_UDBIF_BANK_
 291              		.loc 1 595 0
 292 00c2 2A4B     		ldr	r3, .L13+64
 293 00c4 1978     		ldrb	r1, [r3]
 294 00c6 0222     		mov	r2, #2
 295 00c8 0A43     		orr	r2, r1
 296 00ca 1A70     		strb	r2, [r3]
 596:.\Generated_Source\PSoC4/cyfitter_cfg.c **** 
 597:.\Generated_Source\PSoC4/cyfitter_cfg.c **** 		/* Enable UDB array */
 598:.\Generated_Source\PSoC4/cyfitter_cfg.c **** 		CY_SET_XTND_REG8((void *)CYREG_UDB_UDBIF_WAIT_CFG, (uint8)((CY_GET_XTND_REG8((void *)CYREG_UDB_UD
 297              		.loc 1 598 0
 298 00cc 284A     		ldr	r2, .L13+68
 299 00ce 1178     		ldrb	r1, [r2]
 300 00d0 3C20     		mov	r0, #60
 301 00d2 8143     		bic	r1, r0
 302 00d4 1420     		mov	r0, #20
ARM GAS  C:\Users\Jarik\AppData\Local\Temp\ccpct4qm.s 			page 17


 303 00d6 0143     		orr	r1, r0
 304 00d8 1170     		strb	r1, [r2]
 599:.\Generated_Source\PSoC4/cyfitter_cfg.c **** 		CY_SET_XTND_REG8((void *)CYREG_UDB_UDBIF_BANK_CTL, (uint8)(CY_GET_XTND_REG8((void *)CYREG_UDB_UDB
 305              		.loc 1 599 0
 306 00da 1978     		ldrb	r1, [r3]
 307 00dc 1622     		mov	r2, #22
 308 00de 0A43     		orr	r2, r1
 309 00e0 1A70     		strb	r2, [r3]
 310              	.LBE4:
 600:.\Generated_Source\PSoC4/cyfitter_cfg.c **** 	}
 601:.\Generated_Source\PSoC4/cyfitter_cfg.c **** 
 602:.\Generated_Source\PSoC4/cyfitter_cfg.c **** 	/* Perform second pass device configuration. These items must be configured in specific order afte
 603:.\Generated_Source\PSoC4/cyfitter_cfg.c **** 	/* IOPINS0_0 Starting address: CYDEV_PRT0_DR */
 604:.\Generated_Source\PSoC4/cyfitter_cfg.c **** 	CY_SET_XTND_REG32((void CYFAR *)(CYREG_PRT0_DR), 0x000000FFu);
 311              		.loc 1 604 0
 312 00e2 FF22     		mov	r2, #255
 313 00e4 234B     		ldr	r3, .L13+72
 314 00e6 1A60     		str	r2, [r3]
 605:.\Generated_Source\PSoC4/cyfitter_cfg.c **** 	CY_SET_XTND_REG32((void CYFAR *)(CYREG_PRT0_PC), 0x00249249u);
 315              		.loc 1 605 0
 316 00e8 234B     		ldr	r3, .L13+76
 317 00ea 2449     		ldr	r1, .L13+80
 318 00ec 0B60     		str	r3, [r1]
 606:.\Generated_Source\PSoC4/cyfitter_cfg.c **** 
 607:.\Generated_Source\PSoC4/cyfitter_cfg.c **** 	/* IOPINS0_1 Starting address: CYDEV_PRT1_DR */
 608:.\Generated_Source\PSoC4/cyfitter_cfg.c **** 	CY_SET_XTND_REG32((void CYFAR *)(CYREG_PRT1_DR), 0x00000044u);
 319              		.loc 1 608 0
 320 00ee 4420     		mov	r0, #68
 321 00f0 2349     		ldr	r1, .L13+84
 322 00f2 0860     		str	r0, [r1]
 609:.\Generated_Source\PSoC4/cyfitter_cfg.c **** 	CY_SET_XTND_REG32((void CYFAR *)(CYREG_PRT1_PC), 0x0008ED89u);
 323              		.loc 1 609 0
 324 00f4 2348     		ldr	r0, .L13+88
 325 00f6 2449     		ldr	r1, .L13+92
 326 00f8 0860     		str	r0, [r1]
 610:.\Generated_Source\PSoC4/cyfitter_cfg.c **** 	CY_SET_XTND_REG32((void CYFAR *)(CYREG_PRT1_INTCFG), 0x00001000u);
 327              		.loc 1 610 0
 328 00fa 8020     		mov	r0, #128
 329 00fc 4001     		lsl	r0, r0, #5
 330 00fe 2349     		ldr	r1, .L13+96
 331 0100 0860     		str	r0, [r1]
 611:.\Generated_Source\PSoC4/cyfitter_cfg.c **** 
 612:.\Generated_Source\PSoC4/cyfitter_cfg.c **** 	/* IOPINS0_2 Starting address: CYDEV_PRT2_DR */
 613:.\Generated_Source\PSoC4/cyfitter_cfg.c **** 	CY_SET_XTND_REG32((void CYFAR *)(CYREG_PRT2_DR), 0x000000FFu);
 332              		.loc 1 613 0
 333 0102 2349     		ldr	r1, .L13+100
 334 0104 0A60     		str	r2, [r1]
 614:.\Generated_Source\PSoC4/cyfitter_cfg.c **** 	CY_SET_XTND_REG32((void CYFAR *)(CYREG_PRT2_PC), 0x00249249u);
 335              		.loc 1 614 0
 336 0106 234A     		ldr	r2, .L13+104
 337 0108 1360     		str	r3, [r2]
 615:.\Generated_Source\PSoC4/cyfitter_cfg.c **** 
 616:.\Generated_Source\PSoC4/cyfitter_cfg.c **** 	/* IOPINS0_3 Starting address: CYDEV_PRT3_DR */
 617:.\Generated_Source\PSoC4/cyfitter_cfg.c **** 	CY_SET_XTND_REG32((void CYFAR *)(CYREG_PRT3_DR), 0x00000020u);
 338              		.loc 1 617 0
 339 010a 2022     		mov	r2, #32
 340 010c 224B     		ldr	r3, .L13+108
ARM GAS  C:\Users\Jarik\AppData\Local\Temp\ccpct4qm.s 			page 18


 341 010e 1A60     		str	r2, [r3]
 618:.\Generated_Source\PSoC4/cyfitter_cfg.c **** 	CY_SET_XTND_REG32((void CYFAR *)(CYREG_PRT3_PC), 0x00261D89u);
 342              		.loc 1 618 0
 343 0110 224A     		ldr	r2, .L13+112
 344 0112 234B     		ldr	r3, .L13+116
 345 0114 1A60     		str	r2, [r3]
 619:.\Generated_Source\PSoC4/cyfitter_cfg.c **** 
 620:.\Generated_Source\PSoC4/cyfitter_cfg.c **** 	/* IOPINS0_4 Starting address: CYDEV_PRT4_DR */
 621:.\Generated_Source\PSoC4/cyfitter_cfg.c **** 	CY_SET_XTND_REG32((void CYFAR *)(CYREG_PRT4_DR), 0x0000000Du);
 346              		.loc 1 621 0
 347 0116 0D23     		mov	r3, #13
 348 0118 224A     		ldr	r2, .L13+120
 349 011a 1360     		str	r3, [r2]
 622:.\Generated_Source\PSoC4/cyfitter_cfg.c **** 	CY_SET_XTND_REG32((void CYFAR *)(CYREG_PRT4_PC), 0x00000D8Eu);
 350              		.loc 1 622 0
 351 011c 2249     		ldr	r1, .L13+124
 352 011e 234A     		ldr	r2, .L13+128
 353 0120 1160     		str	r1, [r2]
 623:.\Generated_Source\PSoC4/cyfitter_cfg.c **** 	CY_SET_XTND_REG32((void CYFAR *)(CYREG_PRT4_PC2), 0x0000000Du);
 354              		.loc 1 623 0
 355 0122 234A     		ldr	r2, .L13+132
 356 0124 1360     		str	r3, [r2]
 624:.\Generated_Source\PSoC4/cyfitter_cfg.c **** 
 625:.\Generated_Source\PSoC4/cyfitter_cfg.c **** 	/* Setup clocks based on selections from Clock DWR */
 626:.\Generated_Source\PSoC4/cyfitter_cfg.c **** 	ClockSetup();
 357              		.loc 1 626 0
 358 0126 FFF76BFF 		bl	ClockSetup
 359              	.LVL22:
 627:.\Generated_Source\PSoC4/cyfitter_cfg.c **** 
 628:.\Generated_Source\PSoC4/cyfitter_cfg.c **** 	/* Perform basic analog initialization to defaults */
 629:.\Generated_Source\PSoC4/cyfitter_cfg.c **** 	AnalogSetDefault();
 630:.\Generated_Source\PSoC4/cyfitter_cfg.c **** 
 631:.\Generated_Source\PSoC4/cyfitter_cfg.c **** }
 360              		.loc 1 631 0
 361              		@ sp needed
 362              	.LVL23:
 363 012a 38BD     		pop	{r3, r4, r5, pc}
 364              	.L14:
 365              		.align	2
 366              	.L13:
 367 012c 00000000 		.word	.LANCHOR0
 368 0130 0C000140 		.word	1073807372
 369 0134 FFFF0000 		.word	65535
 370 0138 10000140 		.word	1073807376
 371 013c 04009900 		.word	10027012
 372 0140 00500F40 		.word	1074745344
 373 0144 00005555 		.word	1431633920
 374 0148 04500F40 		.word	1074745348
 375 014c 10500F40 		.word	1074745360
 376 0150 00000524 		.word	604307456
 377 0154 14500F40 		.word	1074745364
 378 0158 20500F40 		.word	1074745376
 379 015c 24500F40 		.word	1074745380
 380 0160 30500F40 		.word	1074745392
 381 0164 00000551 		.word	1359282176
 382 0168 34500F40 		.word	1074745396
 383 016c 00700F40 		.word	1074753536
ARM GAS  C:\Users\Jarik\AppData\Local\Temp\ccpct4qm.s 			page 19


 384 0170 01700F40 		.word	1074753537
 385 0174 00000440 		.word	1074003968
 386 0178 49922400 		.word	2396745
 387 017c 08000440 		.word	1074003976
 388 0180 00010440 		.word	1074004224
 389 0184 89ED0800 		.word	585097
 390 0188 08010440 		.word	1074004232
 391 018c 0C010440 		.word	1074004236
 392 0190 00020440 		.word	1074004480
 393 0194 08020440 		.word	1074004488
 394 0198 00030440 		.word	1074004736
 395 019c 891D2600 		.word	2497929
 396 01a0 08030440 		.word	1074004744
 397 01a4 00040440 		.word	1074004992
 398 01a8 8E0D0000 		.word	3470
 399 01ac 08040440 		.word	1074005000
 400 01b0 18040440 		.word	1074005016
 401              		.cfi_endproc
 402              	.LFE6:
 403              		.size	cyfitter_cfg, .-cyfitter_cfg
 404              		.section	.rodata
 405              		.align	2
 406              		.set	.LANCHOR0,. + 0
 407              		.type	cfg_memset_list.4714, %object
 408              		.size	cfg_memset_list.4714, 12
 409              	cfg_memset_list.4714:
 410 0000 00300F40 		.word	1074737152
 411 0004 0004     		.short	1024
 412 0006 00400F40 		.4byte	1074741248
 413 000a 0004     		.short	1024
 414              		.type	cy_cfg_addr_table.4708, %object
 415              		.size	cy_cfg_addr_table.4708, 36
 416              	cy_cfg_addr_table.4708:
 417 000c 38300F40 		.word	1074737208
 418 0010 38310F40 		.word	1074737464
 419 0014 22320F40 		.word	1074737698
 420 0018 44330F40 		.word	1074737988
 421 001c 0B400F40 		.word	1074741259
 422 0020 0F410F40 		.word	1074741519
 423 0024 0E420F40 		.word	1074741774
 424 0028 13430F40 		.word	1074742035
 425 002c 02600F40 		.word	1074749442
 426              		.type	cy_cfg_data_table.4709, %object
 427              		.size	cy_cfg_data_table.4709, 550
 428              	cy_cfg_data_table.4709:
 429 0030 00       		.byte	0
 430 0031 01       		.byte	1
 431 0032 03       		.byte	3
 432 0033 0F       		.byte	15
 433 0034 04       		.byte	4
 434 0035 01       		.byte	1
 435 0036 05       		.byte	5
 436 0037 0F       		.byte	15
 437 0038 09       		.byte	9
 438 0039 0F       		.byte	15
 439 003a 0A       		.byte	10
 440 003b 01       		.byte	1
ARM GAS  C:\Users\Jarik\AppData\Local\Temp\ccpct4qm.s 			page 20


 441 003c 0D       		.byte	13
 442 003d 02       		.byte	2
 443 003e 0E       		.byte	14
 444 003f 01       		.byte	1
 445 0040 0F       		.byte	15
 446 0041 01       		.byte	1
 447 0042 11       		.byte	17
 448 0043 08       		.byte	8
 449 0044 12       		.byte	18
 450 0045 01       		.byte	1
 451 0046 13       		.byte	19
 452 0047 01       		.byte	1
 453 0048 15       		.byte	21
 454 0049 04       		.byte	4
 455 004a 16       		.byte	22
 456 004b 01       		.byte	1
 457 004c 17       		.byte	23
 458 004d 01       		.byte	1
 459 004e 18       		.byte	24
 460 004f 01       		.byte	1
 461 0050 19       		.byte	25
 462 0051 0F       		.byte	15
 463 0052 1C       		.byte	28
 464 0053 01       		.byte	1
 465 0054 1D       		.byte	29
 466 0055 0F       		.byte	15
 467 0056 22       		.byte	34
 468 0057 01       		.byte	1
 469 0058 23       		.byte	35
 470 0059 0F       		.byte	15
 471 005a 24       		.byte	36
 472 005b 01       		.byte	1
 473 005c 25       		.byte	37
 474 005d 0F       		.byte	15
 475 005e 2A       		.byte	42
 476 005f 01       		.byte	1
 477 0060 2B       		.byte	43
 478 0061 0F       		.byte	15
 479 0062 2E       		.byte	46
 480 0063 01       		.byte	1
 481 0064 2F       		.byte	47
 482 0065 0F       		.byte	15
 483 0066 32       		.byte	50
 484 0067 01       		.byte	1
 485 0068 35       		.byte	53
 486 0069 01       		.byte	1
 487 006a 37       		.byte	55
 488 006b 0E       		.byte	14
 489 006c 38       		.byte	56
 490 006d 08       		.byte	8
 491 006e 39       		.byte	57
 492 006f A0       		.byte	-96
 493 0070 3E       		.byte	62
 494 0071 04       		.byte	4
 495 0072 3F       		.byte	63
 496 0073 50       		.byte	80
 497 0074 58       		.byte	88
ARM GAS  C:\Users\Jarik\AppData\Local\Temp\ccpct4qm.s 			page 21


 498 0075 04       		.byte	4
 499 0076 59       		.byte	89
 500 0077 04       		.byte	4
 501 0078 5F       		.byte	95
 502 0079 01       		.byte	1
 503 007a 84       		.byte	-124
 504 007b 01       		.byte	1
 505 007c 85       		.byte	-123
 506 007d 08       		.byte	8
 507 007e 89       		.byte	-119
 508 007f 04       		.byte	4
 509 0080 98       		.byte	-104
 510 0081 02       		.byte	2
 511 0082 99       		.byte	-103
 512 0083 01       		.byte	1
 513 0084 AC       		.byte	-84
 514 0085 04       		.byte	4
 515 0086 AD       		.byte	-83
 516 0087 02       		.byte	2
 517 0088 B0       		.byte	-80
 518 0089 02       		.byte	2
 519 008a B1       		.byte	-79
 520 008b 04       		.byte	4
 521 008c B2       		.byte	-78
 522 008d 04       		.byte	4
 523 008e B3       		.byte	-77
 524 008f 02       		.byte	2
 525 0090 B4       		.byte	-76
 526 0091 01       		.byte	1
 527 0092 B5       		.byte	-75
 528 0093 08       		.byte	8
 529 0094 B7       		.byte	-73
 530 0095 01       		.byte	1
 531 0096 D8       		.byte	-40
 532 0097 0B       		.byte	11
 533 0098 D9       		.byte	-39
 534 0099 0B       		.byte	11
 535 009a DB       		.byte	-37
 536 009b 04       		.byte	4
 537 009c DC       		.byte	-36
 538 009d 99       		.byte	-103
 539 009e DF       		.byte	-33
 540 009f 01       		.byte	1
 541 00a0 02       		.byte	2
 542 00a1 89       		.byte	-119
 543 00a2 03       		.byte	3
 544 00a3 20       		.byte	32
 545 00a4 05       		.byte	5
 546 00a5 08       		.byte	8
 547 00a6 08       		.byte	8
 548 00a7 99       		.byte	-103
 549 00a8 0E       		.byte	14
 550 00a9 08       		.byte	8
 551 00aa 10       		.byte	16
 552 00ab 40       		.byte	64
 553 00ac 12       		.byte	18
 554 00ad 02       		.byte	2
ARM GAS  C:\Users\Jarik\AppData\Local\Temp\ccpct4qm.s 			page 22


 555 00ae 13       		.byte	19
 556 00af 28       		.byte	40
 557 00b0 17       		.byte	23
 558 00b1 80       		.byte	-128
 559 00b2 19       		.byte	25
 560 00b3 04       		.byte	4
 561 00b4 1E       		.byte	30
 562 00b5 A0       		.byte	-96
 563 00b6 1F       		.byte	31
 564 00b7 20       		.byte	32
 565 00b8 22       		.byte	34
 566 00b9 50       		.byte	80
 567 00ba 24       		.byte	36
 568 00bb 84       		.byte	-124
 569 00bc 26       		.byte	38
 570 00bd 0A       		.byte	10
 571 00be 27       		.byte	39
 572 00bf 09       		.byte	9
 573 00c0 28       		.byte	40
 574 00c1 68       		.byte	104
 575 00c2 2A       		.byte	42
 576 00c3 80       		.byte	-128
 577 00c4 2B       		.byte	43
 578 00c5 24       		.byte	36
 579 00c6 2D       		.byte	45
 580 00c7 40       		.byte	64
 581 00c8 30       		.byte	48
 582 00c9 91       		.byte	-111
 583 00ca 31       		.byte	49
 584 00cb 10       		.byte	16
 585 00cc 32       		.byte	50
 586 00cd 88       		.byte	-120
 587 00ce 33       		.byte	51
 588 00cf 01       		.byte	1
 589 00d0 35       		.byte	53
 590 00d1 20       		.byte	32
 591 00d2 38       		.byte	56
 592 00d3 86       		.byte	-122
 593 00d4 3A       		.byte	58
 594 00d5 51       		.byte	81
 595 00d6 3B       		.byte	59
 596 00d7 08       		.byte	8
 597 00d8 3D       		.byte	61
 598 00d9 20       		.byte	32
 599 00da 3E       		.byte	62
 600 00db 04       		.byte	4
 601 00dc 5D       		.byte	93
 602 00dd 01       		.byte	1
 603 00de 5E       		.byte	94
 604 00df A0       		.byte	-96
 605 00e0 5F       		.byte	95
 606 00e1 04       		.byte	4
 607 00e2 64       		.byte	100
 608 00e3 20       		.byte	32
 609 00e4 66       		.byte	102
 610 00e5 42       		.byte	66
 611 00e6 67       		.byte	103
ARM GAS  C:\Users\Jarik\AppData\Local\Temp\ccpct4qm.s 			page 23


 612 00e7 08       		.byte	8
 613 00e8 7F       		.byte	127
 614 00e9 80       		.byte	-128
 615 00ea 82       		.byte	-126
 616 00eb 04       		.byte	4
 617 00ec 83       		.byte	-125
 618 00ed 80       		.byte	-128
 619 00ee 84       		.byte	-124
 620 00ef 01       		.byte	1
 621 00f0 85       		.byte	-123
 622 00f1 01       		.byte	1
 623 00f2 86       		.byte	-122
 624 00f3 08       		.byte	8
 625 00f4 87       		.byte	-121
 626 00f5 04       		.byte	4
 627 00f6 88       		.byte	-120
 628 00f7 04       		.byte	4
 629 00f8 8C       		.byte	-116
 630 00f9 0C       		.byte	12
 631 00fa 8E       		.byte	-114
 632 00fb 02       		.byte	2
 633 00fc 8F       		.byte	-113
 634 00fd 04       		.byte	4
 635 00fe C0       		.byte	-64
 636 00ff 2F       		.byte	47
 637 0100 C2       		.byte	-62
 638 0101 4F       		.byte	79
 639 0102 C4       		.byte	-60
 640 0103 8F       		.byte	-113
 641 0104 CA       		.byte	-54
 642 0105 1F       		.byte	31
 643 0106 CC       		.byte	-52
 644 0107 2F       		.byte	47
 645 0108 CE       		.byte	-50
 646 0109 6F       		.byte	111
 647 010a D6       		.byte	-42
 648 010b F0       		.byte	-16
 649 010c D8       		.byte	-40
 650 010d F0       		.byte	-16
 651 010e DE       		.byte	-34
 652 010f 80       		.byte	-128
 653 0110 01       		.byte	1
 654 0111 08       		.byte	8
 655 0112 02       		.byte	2
 656 0113 01       		.byte	1
 657 0114 04       		.byte	4
 658 0115 02       		.byte	2
 659 0116 05       		.byte	5
 660 0117 04       		.byte	4
 661 0118 08       		.byte	8
 662 0119 01       		.byte	1
 663 011a 0C       		.byte	12
 664 011b 04       		.byte	4
 665 011c 0D       		.byte	13
 666 011d 02       		.byte	2
 667 011e 14       		.byte	20
 668 011f 08       		.byte	8
ARM GAS  C:\Users\Jarik\AppData\Local\Temp\ccpct4qm.s 			page 24


 669 0120 1C       		.byte	28
 670 0121 01       		.byte	1
 671 0122 22       		.byte	34
 672 0123 01       		.byte	1
 673 0124 29       		.byte	41
 674 0125 01       		.byte	1
 675 0126 2A       		.byte	42
 676 0127 01       		.byte	1
 677 0128 30       		.byte	48
 678 0129 02       		.byte	2
 679 012a 31       		.byte	49
 680 012b 01       		.byte	1
 681 012c 32       		.byte	50
 682 012d 04       		.byte	4
 683 012e 33       		.byte	51
 684 012f 04       		.byte	4
 685 0130 34       		.byte	52
 686 0131 08       		.byte	8
 687 0132 35       		.byte	53
 688 0133 08       		.byte	8
 689 0134 36       		.byte	54
 690 0135 01       		.byte	1
 691 0136 37       		.byte	55
 692 0137 02       		.byte	2
 693 0138 3E       		.byte	62
 694 0139 40       		.byte	64
 695 013a 58       		.byte	88
 696 013b 0B       		.byte	11
 697 013c 59       		.byte	89
 698 013d 0B       		.byte	11
 699 013e 5B       		.byte	91
 700 013f 04       		.byte	4
 701 0140 5C       		.byte	92
 702 0141 99       		.byte	-103
 703 0142 5F       		.byte	95
 704 0143 01       		.byte	1
 705 0144 9C       		.byte	-100
 706 0145 01       		.byte	1
 707 0146 A4       		.byte	-92
 708 0147 02       		.byte	2
 709 0148 B2       		.byte	-78
 710 0149 01       		.byte	1
 711 014a B4       		.byte	-76
 712 014b 02       		.byte	2
 713 014c D8       		.byte	-40
 714 014d 0B       		.byte	11
 715 014e DB       		.byte	-37
 716 014f 04       		.byte	4
 717 0150 DC       		.byte	-36
 718 0151 09       		.byte	9
 719 0152 DF       		.byte	-33
 720 0153 01       		.byte	1
 721 0154 04       		.byte	4
 722 0155 4A       		.byte	74
 723 0156 05       		.byte	5
 724 0157 10       		.byte	16
 725 0158 06       		.byte	6
ARM GAS  C:\Users\Jarik\AppData\Local\Temp\ccpct4qm.s 			page 25


 726 0159 40       		.byte	64
 727 015a 0A       		.byte	10
 728 015b 01       		.byte	1
 729 015c 0C       		.byte	12
 730 015d 80       		.byte	-128
 731 015e 0D       		.byte	13
 732 015f 80       		.byte	-128
 733 0160 0F       		.byte	15
 734 0161 10       		.byte	16
 735 0162 10       		.byte	16
 736 0163 20       		.byte	32
 737 0164 14       		.byte	20
 738 0165 40       		.byte	64
 739 0166 17       		.byte	23
 740 0167 20       		.byte	32
 741 0168 19       		.byte	25
 742 0169 20       		.byte	32
 743 016a 1B       		.byte	27
 744 016b 04       		.byte	4
 745 016c 1E       		.byte	30
 746 016d A4       		.byte	-92
 747 016e 1F       		.byte	31
 748 016f 80       		.byte	-128
 749 0170 25       		.byte	37
 750 0171 28       		.byte	40
 751 0172 26       		.byte	38
 752 0173 01       		.byte	1
 753 0174 27       		.byte	39
 754 0175 02       		.byte	2
 755 0176 2C       		.byte	44
 756 0177 08       		.byte	8
 757 0178 3C       		.byte	60
 758 0179 08       		.byte	8
 759 017a 3E       		.byte	62
 760 017b 40       		.byte	64
 761 017c 3F       		.byte	63
 762 017d 02       		.byte	2
 763 017e 45       		.byte	69
 764 017f 28       		.byte	40
 765 0180 46       		.byte	70
 766 0181 28       		.byte	40
 767 0182 58       		.byte	88
 768 0183 01       		.byte	1
 769 0184 59       		.byte	89
 770 0185 04       		.byte	4
 771 0186 5A       		.byte	90
 772 0187 A0       		.byte	-96
 773 0188 5B       		.byte	91
 774 0189 02       		.byte	2
 775 018a 5D       		.byte	93
 776 018b 20       		.byte	32
 777 018c 5E       		.byte	94
 778 018d 86       		.byte	-122
 779 018e 64       		.byte	100
 780 018f 01       		.byte	1
 781 0190 66       		.byte	102
 782 0191 2A       		.byte	42
ARM GAS  C:\Users\Jarik\AppData\Local\Temp\ccpct4qm.s 			page 26


 783 0192 7B       		.byte	123
 784 0193 80       		.byte	-128
 785 0194 7F       		.byte	127
 786 0195 80       		.byte	-128
 787 0196 80       		.byte	-128
 788 0197 80       		.byte	-128
 789 0198 86       		.byte	-122
 790 0199 92       		.byte	-110
 791 019a 87       		.byte	-121
 792 019b 20       		.byte	32
 793 019c 88       		.byte	-120
 794 019d 40       		.byte	64
 795 019e 89       		.byte	-119
 796 019f 80       		.byte	-128
 797 01a0 8A       		.byte	-118
 798 01a1 50       		.byte	80
 799 01a2 8D       		.byte	-115
 800 01a3 10       		.byte	16
 801 01a4 90       		.byte	-112
 802 01a5 48       		.byte	72
 803 01a6 92       		.byte	-110
 804 01a7 E1       		.byte	-31
 805 01a8 93       		.byte	-109
 806 01a9 10       		.byte	16
 807 01aa 94       		.byte	-108
 808 01ab 02       		.byte	2
 809 01ac 99       		.byte	-103
 810 01ad 04       		.byte	4
 811 01ae 9C       		.byte	-100
 812 01af C0       		.byte	-64
 813 01b0 9D       		.byte	-99
 814 01b1 10       		.byte	16
 815 01b2 9E       		.byte	-98
 816 01b3 90       		.byte	-112
 817 01b4 9F       		.byte	-97
 818 01b5 20       		.byte	32
 819 01b6 A0       		.byte	-96
 820 01b7 2C       		.byte	44
 821 01b8 A3       		.byte	-93
 822 01b9 01       		.byte	1
 823 01ba A4       		.byte	-92
 824 01bb 80       		.byte	-128
 825 01bc A7       		.byte	-89
 826 01bd 84       		.byte	-124
 827 01be A9       		.byte	-87
 828 01bf 70       		.byte	112
 829 01c0 AD       		.byte	-83
 830 01c1 08       		.byte	8
 831 01c2 AE       		.byte	-82
 832 01c3 05       		.byte	5
 833 01c4 B0       		.byte	-80
 834 01c5 20       		.byte	32
 835 01c6 B3       		.byte	-77
 836 01c7 11       		.byte	17
 837 01c8 B4       		.byte	-76
 838 01c9 40       		.byte	64
 839 01ca B6       		.byte	-74
ARM GAS  C:\Users\Jarik\AppData\Local\Temp\ccpct4qm.s 			page 27


 840 01cb 40       		.byte	64
 841 01cc C0       		.byte	-64
 842 01cd F0       		.byte	-16
 843 01ce C2       		.byte	-62
 844 01cf A1       		.byte	-95
 845 01d0 C4       		.byte	-60
 846 01d1 54       		.byte	84
 847 01d2 CA       		.byte	-54
 848 01d3 20       		.byte	32
 849 01d4 CE       		.byte	-50
 850 01d5 D0       		.byte	-48
 851 01d6 D6       		.byte	-42
 852 01d7 FE       		.byte	-2
 853 01d8 D8       		.byte	-40
 854 01d9 F0       		.byte	-16
 855 01da DE       		.byte	-34
 856 01db 81       		.byte	-127
 857 01dc 03       		.byte	3
 858 01dd 88       		.byte	-120
 859 01de 05       		.byte	5
 860 01df 10       		.byte	16
 861 01e0 07       		.byte	7
 862 01e1 20       		.byte	32
 863 01e2 0A       		.byte	10
 864 01e3 18       		.byte	24
 865 01e4 0C       		.byte	12
 866 01e5 80       		.byte	-128
 867 01e6 0D       		.byte	13
 868 01e7 08       		.byte	8
 869 01e8 83       		.byte	-125
 870 01e9 A0       		.byte	-96
 871 01ea C0       		.byte	-64
 872 01eb F0       		.byte	-16
 873 01ec C2       		.byte	-62
 874 01ed F0       		.byte	-16
 875 01ee E0       		.byte	-32
 876 01ef 80       		.byte	-128
 877 01f0 E4       		.byte	-28
 878 01f1 20       		.byte	32
 879 01f2 02       		.byte	2
 880 01f3 10       		.byte	16
 881 01f4 05       		.byte	5
 882 01f5 04       		.byte	4
 883 01f6 81       		.byte	-127
 884 01f7 04       		.byte	4
 885 01f8 86       		.byte	-122
 886 01f9 10       		.byte	16
 887 01fa A9       		.byte	-87
 888 01fb 10       		.byte	16
 889 01fc AA       		.byte	-86
 890 01fd 10       		.byte	16
 891 01fe AB       		.byte	-85
 892 01ff 08       		.byte	8
 893 0200 AC       		.byte	-84
 894 0201 80       		.byte	-128
 895 0202 AD       		.byte	-83
 896 0203 08       		.byte	8
ARM GAS  C:\Users\Jarik\AppData\Local\Temp\ccpct4qm.s 			page 28


 897 0204 AE       		.byte	-82
 898 0205 04       		.byte	4
 899 0206 C0       		.byte	-64
 900 0207 30       		.byte	48
 901 0208 E0       		.byte	-32
 902 0209 40       		.byte	64
 903 020a E4       		.byte	-28
 904 020b 80       		.byte	-128
 905 020c E8       		.byte	-24
 906 020d D0       		.byte	-48
 907 020e EC       		.byte	-20
 908 020f B0       		.byte	-80
 909 0210 00       		.byte	0
 910 0211 20       		.byte	32
 911 0212 02       		.byte	2
 912 0213 20       		.byte	32
 913 0214 06       		.byte	6
 914 0215 80       		.byte	-128
 915 0216 07       		.byte	7
 916 0217 04       		.byte	4
 917 0218 08       		.byte	8
 918 0219 20       		.byte	32
 919 021a 09       		.byte	9
 920 021b 04       		.byte	4
 921 021c 0F       		.byte	15
 922 021d 48       		.byte	72
 923 021e 8B       		.byte	-117
 924 021f 40       		.byte	64
 925 0220 8E       		.byte	-114
 926 0221 20       		.byte	32
 927 0222 8F       		.byte	-113
 928 0223 04       		.byte	4
 929 0224 C0       		.byte	-64
 930 0225 0F       		.byte	15
 931 0226 C2       		.byte	-62
 932 0227 0F       		.byte	15
 933 0228 E2       		.byte	-30
 934 0229 0C       		.byte	12
 935 022a E6       		.byte	-26
 936 022b 08       		.byte	8
 937 022c 01       		.byte	1
 938 022d 08       		.byte	8
 939 022e 06       		.byte	6
 940 022f 80       		.byte	-128
 941 0230 08       		.byte	8
 942 0231 20       		.byte	32
 943 0232 0B       		.byte	11
 944 0233 20       		.byte	32
 945 0234 0E       		.byte	14
 946 0235 01       		.byte	1
 947 0236 88       		.byte	-120
 948 0237 20       		.byte	32
 949 0238 8A       		.byte	-118
 950 0239 81       		.byte	-127
 951 023a 8B       		.byte	-117
 952 023b 10       		.byte	16
 953 023c 8D       		.byte	-115
ARM GAS  C:\Users\Jarik\AppData\Local\Temp\ccpct4qm.s 			page 29


 954 023d 08       		.byte	8
 955 023e B0       		.byte	-80
 956 023f 30       		.byte	48
 957 0240 B2       		.byte	-78
 958 0241 80       		.byte	-128
 959 0242 B5       		.byte	-75
 960 0243 04       		.byte	4
 961 0244 B7       		.byte	-73
 962 0245 04       		.byte	4
 963 0246 C0       		.byte	-64
 964 0247 0C       		.byte	12
 965 0248 C2       		.byte	-62
 966 0249 0B       		.byte	11
 967 024a E2       		.byte	-30
 968 024b 07       		.byte	7
 969 024c E6       		.byte	-26
 970 024d 05       		.byte	5
 971 024e EA       		.byte	-22
 972 024f 03       		.byte	3
 973 0250 EE       		.byte	-18
 974 0251 07       		.byte	7
 975 0252 02       		.byte	2
 976 0253 01       		.byte	1
 977 0254 11       		.byte	17
 978 0255 01       		.byte	1
 979 0256 0000     		.text
 980              	.Letext0:
 981              		.file 2 "c:\\program files\\cypress\\psoc creator\\3.2\\psoc creator\\import\\gnu\\arm\\4.8.4\\lib
 982              		.file 3 ".\\Generated_Source\\PSoC4\\cytypes.h"
 983              		.file 4 ".\\Generated_Source\\PSoC4\\CyLib.h"