ARM GAS  C:\Users\Jarik\AppData\Local\Temp\cczI52tT.s 			page 1


   1              		.cpu cortex-m0
   2              		.fpu softvfp
   3              		.eabi_attribute 20, 1
   4              		.eabi_attribute 21, 1
   5              		.eabi_attribute 23, 3
   6              		.eabi_attribute 24, 1
   7              		.eabi_attribute 25, 1
   8              		.eabi_attribute 26, 1
   9              		.eabi_attribute 30, 1
  10              		.eabi_attribute 34, 0
  11              		.eabi_attribute 18, 4
  12              		.code	16
  13              		.file	"disk_io.c"
  14              		.text
  15              	.Ltext0:
  16              		.cfi_sections	.debug_frame
  17              		.section	.text.disk_initialize,"ax",%progbits
  18              		.align	2
  19              		.global	disk_initialize
  20              		.code	16
  21              		.thumb_func
  22              		.type	disk_initialize, %function
  23              	disk_initialize:
  24              	.LFB0:
  25              		.file 1 ".\\disk_io.c"
   1:.\disk_io.c   **** //#include <avr/io.h>
   2:.\disk_io.c   **** //#define F_CPU 16000000UL*4 
   3:.\disk_io.c   **** //#include <util/delay.h>
   4:.\disk_io.c   **** #include <stdint.h>
   5:.\disk_io.c   **** //#include <avr/pgmspace.h>
   6:.\disk_io.c   **** //#include "led.h"
   7:.\disk_io.c   **** #include <stdio.h>
   8:.\disk_io.c   **** //#include "uart.h"
   9:.\disk_io.c   **** #include "sd/SD_routines.h"
  10:.\disk_io.c   **** #include "sd/SPI_routines.h"
  11:.\disk_io.c   **** #include "sd/UART_routines.h"
  12:.\disk_io.c   **** #include "sd/diskio.h"
  13:.\disk_io.c   **** //extern uint8_t buf[];
  14:.\disk_io.c   **** DSTATUS stat;
  15:.\disk_io.c   **** 
  16:.\disk_io.c   **** DSTATUS disk_initialize (  BYTE Drive           /* Physical drive number */ )
  17:.\disk_io.c   **** {
  26              		.loc 1 17 0
  27              		.cfi_startproc
  28              	.LVL0:
  29 0000 08B5     		push	{r3, lr}
  30              		.cfi_def_cfa_offset 8
  31              		.cfi_offset 3, -8
  32              		.cfi_offset 14, -4
  18:.\disk_io.c   **** 	uint8_t err;
  19:.\disk_io.c   **** 	err=SD_init();
  33              		.loc 1 19 0
  34 0002 FFF7FEFF 		bl	SD_init
  35              	.LVL1:
  20:.\disk_io.c   **** 	if(err==0) stat&=~STA_NOINIT;
  36              		.loc 1 20 0
  37 0006 0028     		cmp	r0, #0
ARM GAS  C:\Users\Jarik\AppData\Local\Temp\cczI52tT.s 			page 2


  38 0008 05D1     		bne	.L2
  39              		.loc 1 20 0 is_stmt 0 discriminator 1
  40 000a 074B     		ldr	r3, .L4
  41 000c 1A78     		ldrb	r2, [r3]
  42 000e 0121     		mov	r1, #1
  43 0010 8A43     		bic	r2, r1
  44 0012 1A70     		strb	r2, [r3]
  45 0014 04E0     		b	.L3
  46              	.L2:
  21:.\disk_io.c   **** 	else 
  22:.\disk_io.c   ****     {
  23:.\disk_io.c   ****         stat|=STA_NOINIT;
  47              		.loc 1 23 0 is_stmt 1
  48 0016 044B     		ldr	r3, .L4
  49 0018 1978     		ldrb	r1, [r3]
  50 001a 0122     		mov	r2, #1
  51 001c 0A43     		orr	r2, r1
  52 001e 1A70     		strb	r2, [r3]
  53              	.L3:
  24:.\disk_io.c   **** //        buf[1]=err;
  25:.\disk_io.c   ****     }
  26:.\disk_io.c   **** 	return stat;
  54              		.loc 1 26 0
  55 0020 014B     		ldr	r3, .L4
  56 0022 1878     		ldrb	r0, [r3]
  57              	.LVL2:
  27:.\disk_io.c   **** }
  58              		.loc 1 27 0
  59              		@ sp needed
  60 0024 08BD     		pop	{r3, pc}
  61              	.L5:
  62 0026 C046     		.align	2
  63              	.L4:
  64 0028 00000000 		.word	stat
  65              		.cfi_endproc
  66              	.LFE0:
  67              		.size	disk_initialize, .-disk_initialize
  68              		.section	.text.disk_status,"ax",%progbits
  69              		.align	2
  70              		.global	disk_status
  71              		.code	16
  72              		.thumb_func
  73              		.type	disk_status, %function
  74              	disk_status:
  75              	.LFB1:
  28:.\disk_io.c   **** 
  29:.\disk_io.c   **** DSTATUS disk_status (   BYTE Drive     /* Physical drive number */ )
  30:.\disk_io.c   **** {
  76              		.loc 1 30 0
  77              		.cfi_startproc
  78              	.LVL3:
  31:.\disk_io.c   **** 	return stat;	
  79              		.loc 1 31 0
  80 0000 014B     		ldr	r3, .L7
  81 0002 1878     		ldrb	r0, [r3]
  82              	.LVL4:
  32:.\disk_io.c   **** }
ARM GAS  C:\Users\Jarik\AppData\Local\Temp\cczI52tT.s 			page 3


  83              		.loc 1 32 0
  84              		@ sp needed
  85 0004 7047     		bx	lr
  86              	.L8:
  87 0006 C046     		.align	2
  88              	.L7:
  89 0008 00000000 		.word	stat
  90              		.cfi_endproc
  91              	.LFE1:
  92              		.size	disk_status, .-disk_status
  93              		.section	.text.disk_read,"ax",%progbits
  94              		.align	2
  95              		.global	disk_read
  96              		.code	16
  97              		.thumb_func
  98              		.type	disk_read, %function
  99              	disk_read:
 100              	.LFB2:
  33:.\disk_io.c   **** 
  34:.\disk_io.c   **** DRESULT disk_read ( 
  35:.\disk_io.c   ****   BYTE Drive,          /* Physical drive number */
  36:.\disk_io.c   ****   BYTE* Buffer,        /* Pointer to the read data buffer */
  37:.\disk_io.c   ****   DWORD SectorNumber,  /* Start sector number */
  38:.\disk_io.c   ****   BYTE SectorCount     /* Number of sectros to read */ )
  39:.\disk_io.c   **** {
 101              		.loc 1 39 0
 102              		.cfi_startproc
 103              	.LVL5:
 104 0000 10B5     		push	{r4, lr}
 105              		.cfi_def_cfa_offset 8
 106              		.cfi_offset 4, -8
 107              		.cfi_offset 14, -4
 108 0002 0C1C     		mov	r4, r1
  40:.\disk_io.c   **** 	uint8_t err;
  41:.\disk_io.c   **** 	err=SD_readMultipleBlock(SectorNumber,SectorCount,Buffer);
 109              		.loc 1 41 0
 110 0004 101C     		mov	r0, r2
 111              	.LVL6:
 112 0006 191C     		mov	r1, r3
 113              	.LVL7:
 114 0008 221C     		mov	r2, r4
 115              	.LVL8:
 116 000a FFF7FEFF 		bl	SD_readMultipleBlock
 117              	.LVL9:
  42:.\disk_io.c   **** 	if(err) return RES_ERROR;
 118              		.loc 1 42 0
 119 000e 0028     		cmp	r0, #0
 120 0010 01D0     		beq	.L11
 121 0012 0120     		mov	r0, #1
 122              	.LVL10:
 123 0014 00E0     		b	.L10
 124              	.LVL11:
 125              	.L11:
  43:.\disk_io.c   **** 	return RES_OK;
 126              		.loc 1 43 0
 127 0016 0020     		mov	r0, #0
 128              	.LVL12:
ARM GAS  C:\Users\Jarik\AppData\Local\Temp\cczI52tT.s 			page 4


 129              	.L10:
  44:.\disk_io.c   **** }
 130              		.loc 1 44 0
 131              		@ sp needed
 132              	.LVL13:
 133 0018 10BD     		pop	{r4, pc}
 134              		.cfi_endproc
 135              	.LFE2:
 136              		.size	disk_read, .-disk_read
 137 001a C046     		.section	.text.disk_write,"ax",%progbits
 138              		.align	2
 139              		.global	disk_write
 140              		.code	16
 141              		.thumb_func
 142              		.type	disk_write, %function
 143              	disk_write:
 144              	.LFB3:
  45:.\disk_io.c   **** 
  46:.\disk_io.c   **** DRESULT disk_write (
  47:.\disk_io.c   ****   BYTE Drive,          /* Physical drive number */
  48:.\disk_io.c   ****   const BYTE* Buffer,  /* Pointer to the write data (may be non aligned) */
  49:.\disk_io.c   ****   DWORD SectorNumber,  /* Sector number to write */
  50:.\disk_io.c   ****   BYTE SectorCount     /* Number of sectors to write */
  51:.\disk_io.c   **** )
  52:.\disk_io.c   **** {
 145              		.loc 1 52 0
 146              		.cfi_startproc
 147              	.LVL14:
 148 0000 10B5     		push	{r4, lr}
 149              		.cfi_def_cfa_offset 8
 150              		.cfi_offset 4, -8
 151              		.cfi_offset 14, -4
 152 0002 0C1C     		mov	r4, r1
  53:.\disk_io.c   **** 	uint8_t err;
  54:.\disk_io.c   **** 	err=SD_writeMultipleBlock(SectorNumber,SectorCount,Buffer);
 153              		.loc 1 54 0
 154 0004 101C     		mov	r0, r2
 155              	.LVL15:
 156 0006 191C     		mov	r1, r3
 157              	.LVL16:
 158 0008 221C     		mov	r2, r4
 159              	.LVL17:
 160 000a FFF7FEFF 		bl	SD_writeMultipleBlock
 161              	.LVL18:
  55:.\disk_io.c   **** 	if(err) return RES_ERROR;
 162              		.loc 1 55 0
 163 000e 0028     		cmp	r0, #0
 164 0010 01D0     		beq	.L14
 165 0012 0120     		mov	r0, #1
 166              	.LVL19:
 167 0014 00E0     		b	.L13
 168              	.LVL20:
 169              	.L14:
  56:.\disk_io.c   **** 	return RES_OK;
 170              		.loc 1 56 0
 171 0016 0020     		mov	r0, #0
 172              	.LVL21:
ARM GAS  C:\Users\Jarik\AppData\Local\Temp\cczI52tT.s 			page 5


 173              	.L13:
  57:.\disk_io.c   **** }
 174              		.loc 1 57 0
 175              		@ sp needed
 176              	.LVL22:
 177 0018 10BD     		pop	{r4, pc}
 178              		.cfi_endproc
 179              	.LFE3:
 180              		.size	disk_write, .-disk_write
 181 001a C046     		.section	.text.disk_ioctl,"ax",%progbits
 182              		.align	2
 183              		.global	disk_ioctl
 184              		.code	16
 185              		.thumb_func
 186              		.type	disk_ioctl, %function
 187              	disk_ioctl:
 188              	.LFB4:
  58:.\disk_io.c   **** 
  59:.\disk_io.c   **** DRESULT disk_ioctl (
  60:.\disk_io.c   ****   BYTE Drive,      /* Drive number */
  61:.\disk_io.c   ****   BYTE Command,    /* Control command code */
  62:.\disk_io.c   ****   void* Buffer     /* Parameter and data buffer */
  63:.\disk_io.c   **** )
  64:.\disk_io.c   **** {
 189              		.loc 1 64 0
 190              		.cfi_startproc
 191              	.LVL23:
  65:.\disk_io.c   **** 	WORD *ss;
  66:.\disk_io.c   **** 	DWORD *sc;
  67:.\disk_io.c   **** 	if(Command==CTRL_SYNC)
 192              		.loc 1 67 0
 193 0000 0029     		cmp	r1, #0
 194 0002 0ED0     		beq	.L16
  68:.\disk_io.c   **** 	{
  69:.\disk_io.c   **** 		return RES_OK;
  70:.\disk_io.c   **** 	}
  71:.\disk_io.c   **** 	if(Command==GET_SECTOR_SIZE)
 195              		.loc 1 71 0
 196 0004 0229     		cmp	r1, #2
 197 0006 03D1     		bne	.L17
 198              	.LVL24:
  72:.\disk_io.c   **** 	{
  73:.\disk_io.c   **** 		ss=Buffer;
  74:.\disk_io.c   **** 		*ss=512;
 199              		.loc 1 74 0
 200 0008 8023     		mov	r3, #128
 201 000a 9B00     		lsl	r3, r3, #2
 202 000c 1380     		strh	r3, [r2]
  75:.\disk_io.c   **** 		return RES_OK;
 203              		.loc 1 75 0
 204 000e 08E0     		b	.L16
 205              	.LVL25:
 206              	.L17:
  76:.\disk_io.c   **** 	}
  77:.\disk_io.c   **** 	if(Command==GET_SECTOR_COUNT)
 207              		.loc 1 77 0
 208 0010 0129     		cmp	r1, #1
ARM GAS  C:\Users\Jarik\AppData\Local\Temp\cczI52tT.s 			page 6


 209 0012 02D1     		bne	.L18
 210              	.LVL26:
  78:.\disk_io.c   **** 	{
  79:.\disk_io.c   **** 		sc=Buffer;
  80:.\disk_io.c   **** 		*sc=65535;
 211              		.loc 1 80 0
 212 0014 044B     		ldr	r3, .L19
 213 0016 1360     		str	r3, [r2]
  81:.\disk_io.c   **** 		return RES_OK;
 214              		.loc 1 81 0
 215 0018 03E0     		b	.L16
 216              	.LVL27:
 217              	.L18:
  82:.\disk_io.c   **** 	}
  83:.\disk_io.c   **** 	if(Command==GET_BLOCK_SIZE)
 218              		.loc 1 83 0
 219 001a 0329     		cmp	r1, #3
 220 001c 01D1     		bne	.L16
 221              	.LVL28:
  84:.\disk_io.c   **** 	{
  85:.\disk_io.c   **** 		sc=Buffer;
  86:.\disk_io.c   **** 		*sc=1;
 222              		.loc 1 86 0
 223 001e 0123     		mov	r3, #1
 224 0020 1360     		str	r3, [r2]
 225              	.LVL29:
 226              	.L16:
  87:.\disk_io.c   **** 		return RES_OK;
  88:.\disk_io.c   **** 	}
  89:.\disk_io.c   **** 	return RES_OK;
  90:.\disk_io.c   **** }
 227              		.loc 1 90 0
 228 0022 0020     		mov	r0, #0
 229              	.LVL30:
 230              		@ sp needed
 231 0024 7047     		bx	lr
 232              	.L20:
 233 0026 C046     		.align	2
 234              	.L19:
 235 0028 FFFF0000 		.word	65535
 236              		.cfi_endproc
 237              	.LFE4:
 238              		.size	disk_ioctl, .-disk_ioctl
 239              		.section	.text.get_fattime,"ax",%progbits
 240              		.align	2
 241              		.global	get_fattime
 242              		.code	16
 243              		.thumb_func
 244              		.type	get_fattime, %function
 245              	get_fattime:
 246              	.LFB5:
  91:.\disk_io.c   **** 
  92:.\disk_io.c   **** DWORD get_fattime (void)
  93:.\disk_io.c   **** {
 247              		.loc 1 93 0
 248              		.cfi_startproc
  94:.\disk_io.c   **** 	return 0b01000000100011110000001100100001;
ARM GAS  C:\Users\Jarik\AppData\Local\Temp\cczI52tT.s 			page 7


  95:.\disk_io.c   **** }
 249              		.loc 1 95 0
 250 0000 0048     		ldr	r0, .L22
 251              		@ sp needed
 252 0002 7047     		bx	lr
 253              	.L23:
 254              		.align	2
 255              	.L22:
 256 0004 21038F40 		.word	1083114273
 257              		.cfi_endproc
 258              	.LFE5:
 259              		.size	get_fattime, .-get_fattime
 260              		.comm	stat,1,1
 261              		.comm	cardType,1,1
 262              		.comm	SDHC_flag,1,1
 263              		.comm	totalBlocks,4,4
 264              		.comm	startBlock,4,4
 265              		.text
 266              	.Letext0:
 267              		.file 2 "c:\\program files\\cypress\\psoc creator\\3.2\\psoc creator\\import\\gnu\\arm\\4.8.4\\arm
 268              		.file 3 "c:\\program files\\cypress\\psoc creator\\3.2\\psoc creator\\import\\gnu\\arm\\4.8.4\\arm
 269              		.file 4 "./sd/integer.h"
 270              		.file 5 ".\\sd/diskio.h"
 271              		.file 6 ".\\sd/SD_routines.h"