ARM GAS  C:\Users\Jarik\AppData\Local\Temp\ccOwmDxA.s 			page 1


   1              		.cpu cortex-m0
   2              		.fpu softvfp
   3              		.eabi_attribute 20, 1
   4              		.eabi_attribute 21, 1
   5              		.eabi_attribute 23, 3
   6              		.eabi_attribute 24, 1
   7              		.eabi_attribute 25, 1
   8              		.eabi_attribute 26, 1
   9              		.eabi_attribute 30, 1
  10              		.eabi_attribute 34, 0
  11              		.eabi_attribute 18, 4
  12              		.code	16
  13              		.file	"ff.c"
  14              		.text
  15              	.Ltext0:
  16              		.cfi_sections	.debug_frame
  17              		.section	.text.mem_cpy,"ax",%progbits
  18              		.align	2
  19              		.code	16
  20              		.thumb_func
  21              		.type	mem_cpy, %function
  22              	mem_cpy:
  23              	.LFB0:
  24              		.file 1 ".\\sd\\ff.c"
   1:.\sd/ff.c     **** /*----------------------------------------------------------------------------/
   2:.\sd/ff.c     **** /  FatFs - FAT file system module  R0.09                  (C)ChaN, 2011
   3:.\sd/ff.c     **** /-----------------------------------------------------------------------------/
   4:.\sd/ff.c     **** / FatFs module is a generic FAT file system module for small embedded systems.
   5:.\sd/ff.c     **** / This is a free software that opened for education, research and commercial
   6:.\sd/ff.c     **** / developments under license policy of following terms.
   7:.\sd/ff.c     **** /
   8:.\sd/ff.c     **** /  Copyright (C) 2011, ChaN, all right reserved.
   9:.\sd/ff.c     **** /
  10:.\sd/ff.c     **** / * The FatFs module is a free software and there is NO WARRANTY.
  11:.\sd/ff.c     **** / * No restriction on use. You can use, modify and redistribute it for
  12:.\sd/ff.c     **** /   personal, non-profit or commercial products UNDER YOUR RESPONSIBILITY.
  13:.\sd/ff.c     **** / * Redistributions of source code must retain the above copyright notice.
  14:.\sd/ff.c     **** /
  15:.\sd/ff.c     **** /-----------------------------------------------------------------------------/
  16:.\sd/ff.c     **** / Feb 26,'06 R0.00  Prototype.
  17:.\sd/ff.c     **** /
  18:.\sd/ff.c     **** / Apr 29,'06 R0.01  First stable version.
  19:.\sd/ff.c     **** /
  20:.\sd/ff.c     **** / Jun 01,'06 R0.02  Added FAT12 support.
  21:.\sd/ff.c     **** /                   Removed unbuffered mode.
  22:.\sd/ff.c     **** /                   Fixed a problem on small (<32M) partition.
  23:.\sd/ff.c     **** / Jun 10,'06 R0.02a Added a configuration option (_FS_MINIMUM).
  24:.\sd/ff.c     **** /
  25:.\sd/ff.c     **** / Sep 22,'06 R0.03  Added f_rename().
  26:.\sd/ff.c     **** /                   Changed option _FS_MINIMUM to _FS_MINIMIZE.
  27:.\sd/ff.c     **** / Dec 11,'06 R0.03a Improved cluster scan algorithm to write files fast.
  28:.\sd/ff.c     **** /                   Fixed f_mkdir() creates incorrect directory on FAT32.
  29:.\sd/ff.c     **** /
  30:.\sd/ff.c     **** / Feb 04,'07 R0.04  Supported multiple drive system.
  31:.\sd/ff.c     **** /                   Changed some interfaces for multiple drive system.
  32:.\sd/ff.c     **** /                   Changed f_mountdrv() to f_mount().
  33:.\sd/ff.c     **** /                   Added f_mkfs().
ARM GAS  C:\Users\Jarik\AppData\Local\Temp\ccOwmDxA.s 			page 2


  34:.\sd/ff.c     **** / Apr 01,'07 R0.04a Supported multiple partitions on a physical drive.
  35:.\sd/ff.c     **** /                   Added a capability of extending file size to f_lseek().
  36:.\sd/ff.c     **** /                   Added minimization level 3.
  37:.\sd/ff.c     **** /                   Fixed an endian sensitive code in f_mkfs().
  38:.\sd/ff.c     **** / May 05,'07 R0.04b Added a configuration option _USE_NTFLAG.
  39:.\sd/ff.c     **** /                   Added FSInfo support.
  40:.\sd/ff.c     **** /                   Fixed DBCS name can result FR_INVALID_NAME.
  41:.\sd/ff.c     **** /                   Fixed short seek (<= csize) collapses the file object.
  42:.\sd/ff.c     **** /
  43:.\sd/ff.c     **** / Aug 25,'07 R0.05  Changed arguments of f_read(), f_write() and f_mkfs().
  44:.\sd/ff.c     **** /                   Fixed f_mkfs() on FAT32 creates incorrect FSInfo.
  45:.\sd/ff.c     **** /                   Fixed f_mkdir() on FAT32 creates incorrect directory.
  46:.\sd/ff.c     **** / Feb 03,'08 R0.05a Added f_truncate() and f_utime().
  47:.\sd/ff.c     **** /                   Fixed off by one error at FAT sub-type determination.
  48:.\sd/ff.c     **** /                   Fixed btr in f_read() can be mistruncated.
  49:.\sd/ff.c     **** /                   Fixed cached sector is not flushed when create and close without write.
  50:.\sd/ff.c     **** /
  51:.\sd/ff.c     **** / Apr 01,'08 R0.06  Added fputc(), fputs(), fprintf() and fgets().
  52:.\sd/ff.c     **** /                   Improved performance of f_lseek() on moving to the same or following cluster.
  53:.\sd/ff.c     **** /
  54:.\sd/ff.c     **** / Apr 01,'09 R0.07  Merged Tiny-FatFs as a configuration option. (_FS_TINY)
  55:.\sd/ff.c     **** /                   Added LONG_ file name feature.
  56:.\sd/ff.c     **** /                   Added multiple code page feature.
  57:.\sd/ff.c     **** /                   Added re-entrancy for multitask operation.
  58:.\sd/ff.c     **** /                   Added auto cluster size selection to f_mkfs().
  59:.\sd/ff.c     **** /                   Added rewind option to f_readdir().
  60:.\sd/ff.c     **** /                   Changed result code of critical errors.
  61:.\sd/ff.c     **** /                   Renamed string functions to avoid name collision.
  62:.\sd/ff.c     **** / Apr 14,'09 R0.07a Separated out OS dependent code on reentrant cfg.
  63:.\sd/ff.c     **** /                   Added multiple sector size feature.
  64:.\sd/ff.c     **** / Jun 21,'09 R0.07c Fixed f_unlink() can return FR_OK on error.
  65:.\sd/ff.c     **** /                   Fixed wrong cache control in f_lseek().
  66:.\sd/ff.c     **** /                   Added relative path feature.
  67:.\sd/ff.c     **** /                   Added f_chdir() and f_chdrive().
  68:.\sd/ff.c     **** /                   Added proper case conversion to extended char.
  69:.\sd/ff.c     **** / Nov 03,'09 R0.07e Separated out configuration options from ff.h to ffconf.h.
  70:.\sd/ff.c     **** /                   Fixed f_unlink() fails to remove a sub-dir on _FS_RPATH.
  71:.\sd/ff.c     **** /                   Fixed name matching error on the 13 char boundary.
  72:.\sd/ff.c     **** /                   Added a configuration option, _LFN_UNICODE.
  73:.\sd/ff.c     **** /                   Changed f_readdir() to return the SFN with always upper case on non-LFN cfg.
  74:.\sd/ff.c     **** /
  75:.\sd/ff.c     **** / May 15,'10 R0.08  Added a memory configuration option. (_USE_LFN = 3)
  76:.\sd/ff.c     **** /                   Added file lock feature. (_FS_SHARE)
  77:.\sd/ff.c     **** /                   Added fast seek feature. (_USE_FASTSEEK)
  78:.\sd/ff.c     **** /                   Changed some types on the API, XCHAR->TCHAR.
  79:.\sd/ff.c     **** /                   Changed fname member in the FILINFO structure on Unicode cfg.
  80:.\sd/ff.c     **** /                   String functions support UTF-8 encoding files on Unicode cfg.
  81:.\sd/ff.c     **** / Aug 16,'10 R0.08a Added f_getcwd(). (_FS_RPATH = 2)
  82:.\sd/ff.c     **** /                   Added sector erase feature. (_USE_ERASE)
  83:.\sd/ff.c     **** /                   Moved file lock semaphore table from fs object to the bss.
  84:.\sd/ff.c     **** /                   Fixed a wrong directory entry is created on non-LFN cfg when the given name con
  85:.\sd/ff.c     **** /                   Fixed f_mkfs() creates wrong FAT32 volume.
  86:.\sd/ff.c     **** / Jan 15,'11 R0.08b Fast seek feature is also applied to f_read() and f_write().
  87:.\sd/ff.c     **** /                   f_lseek() reports required table size on creating CLMP.
  88:.\sd/ff.c     **** /                   Extended format syntax of f_printf function.
  89:.\sd/ff.c     **** /                   Ignores duplicated directory separators in given path names.
  90:.\sd/ff.c     **** /
ARM GAS  C:\Users\Jarik\AppData\Local\Temp\ccOwmDxA.s 			page 3


  91:.\sd/ff.c     **** / Sep 06,'11 R0.09  f_mkfs() supports multiple partition to finish the multiple partition feature.
  92:.\sd/ff.c     **** /                   Added f_fdisk(). (_MULTI_PARTITION = 2)
  93:.\sd/ff.c     **** /---------------------------------------------------------------------------*/
  94:.\sd/ff.c     **** 
  95:.\sd/ff.c     **** #include "sd/ff.h"			/* FatFs configurations and declarations */
  96:.\sd/ff.c     **** #include "sd/diskio.h"		/* Declarations of low level disk I/O functions */
  97:.\sd/ff.c     **** 
  98:.\sd/ff.c     **** 
  99:.\sd/ff.c     **** /*--------------------------------------------------------------------------
 100:.\sd/ff.c     **** 
 101:.\sd/ff.c     ****    Module Private Definitions
 102:.\sd/ff.c     **** 
 103:.\sd/ff.c     **** ---------------------------------------------------------------------------*/
 104:.\sd/ff.c     **** 
 105:.\sd/ff.c     **** #if _FATFS != 6502	/* Revision ID */
 106:.\sd/ff.c     **** #error Wrong include file (ff.h).
 107:.\sd/ff.c     **** #endif
 108:.\sd/ff.c     **** 
 109:.\sd/ff.c     **** 
 110:.\sd/ff.c     **** /* Definitions on sector size */
 111:.\sd/ff.c     **** #if _MAX_SS != 512 && _MAX_SS != 1024 && _MAX_SS != 2048 && _MAX_SS != 4096
 112:.\sd/ff.c     **** #error Wrong sector size.
 113:.\sd/ff.c     **** #endif
 114:.\sd/ff.c     **** #if _MAX_SS != 512
 115:.\sd/ff.c     **** #define	SS(fs)	((fs)->ssize)	/* Variable sector size */
 116:.\sd/ff.c     **** #else
 117:.\sd/ff.c     **** #define	SS(fs)	512U			/* Fixed sector size */
 118:.\sd/ff.c     **** #endif
 119:.\sd/ff.c     **** 
 120:.\sd/ff.c     **** 
 121:.\sd/ff.c     **** /* Reentrancy related */
 122:.\sd/ff.c     **** #if _FS_REENTRANT
 123:.\sd/ff.c     **** #if _USE_LFN == 1
 124:.\sd/ff.c     **** #error Static LFN work area must not be used in re-entrant configuration.
 125:.\sd/ff.c     **** #endif
 126:.\sd/ff.c     **** #define	ENTER_FF(fs)		{ if (!lock_fs(fs)) return FR_TIMEOUT; }
 127:.\sd/ff.c     **** #define	LEAVE_FF(fs, res)	{ unlock_fs(fs, res); return res; }
 128:.\sd/ff.c     **** #else
 129:.\sd/ff.c     **** #define	ENTER_FF(fs)
 130:.\sd/ff.c     **** #define LEAVE_FF(fs, res)	return res
 131:.\sd/ff.c     **** #endif
 132:.\sd/ff.c     **** 
 133:.\sd/ff.c     **** #define	ABORT(fs, res)		{ fp->flag |= FA__ERROR; LEAVE_FF(fs, res); }
 134:.\sd/ff.c     **** 
 135:.\sd/ff.c     **** 
 136:.\sd/ff.c     **** /* File shareing feature */
 137:.\sd/ff.c     **** #if _FS_SHARE
 138:.\sd/ff.c     **** #if _FS_READONLY
 139:.\sd/ff.c     **** #error _FS_SHARE must be 0 on read-only cfg.
 140:.\sd/ff.c     **** #endif
 141:.\sd/ff.c     **** typedef struct {
 142:.\sd/ff.c     **** 	FATFS *fs;				/* File ID 1, volume (NULL:blank entry) */
 143:.\sd/ff.c     **** 	DWORD clu;				/* File ID 2, directory */
 144:.\sd/ff.c     **** 	WORD idx;				/* File ID 3, directory index */
 145:.\sd/ff.c     **** 	WORD ctr;				/* File open counter, 0:none, 0x01..0xFF:read open count, 0x100:write mode */
 146:.\sd/ff.c     **** } FILESEM;
 147:.\sd/ff.c     **** #endif
ARM GAS  C:\Users\Jarik\AppData\Local\Temp\ccOwmDxA.s 			page 4


 148:.\sd/ff.c     **** 
 149:.\sd/ff.c     **** 
 150:.\sd/ff.c     **** /* Misc definitions */
 151:.\sd/ff.c     **** #define LD_CLUST(dir)	(((DWORD)LD_WORD(dir+DIR_FstClusHI)<<16) | LD_WORD(dir+DIR_FstClusLO))
 152:.\sd/ff.c     **** #define ST_CLUST(dir,cl) {ST_WORD(dir+DIR_FstClusLO, cl); ST_WORD(dir+DIR_FstClusHI, (DWORD)cl>>16)
 153:.\sd/ff.c     **** 
 154:.\sd/ff.c     **** 
 155:.\sd/ff.c     **** /* DBCS code ranges and SBCS extend char conversion table */
 156:.\sd/ff.c     **** 
 157:.\sd/ff.c     **** #if _CODE_PAGE == 932	/* Japanese Shift-JIS */
 158:.\sd/ff.c     **** #define _DF1S	0x81	/* DBC 1st byte range 1 start */
 159:.\sd/ff.c     **** #define _DF1E	0x9F	/* DBC 1st byte range 1 end */
 160:.\sd/ff.c     **** #define _DF2S	0xE0	/* DBC 1st byte range 2 start */
 161:.\sd/ff.c     **** #define _DF2E	0xFC	/* DBC 1st byte range 2 end */
 162:.\sd/ff.c     **** #define _DS1S	0x40	/* DBC 2nd byte range 1 start */
 163:.\sd/ff.c     **** #define _DS1E	0x7E	/* DBC 2nd byte range 1 end */
 164:.\sd/ff.c     **** #define _DS2S	0x80	/* DBC 2nd byte range 2 start */
 165:.\sd/ff.c     **** #define _DS2E	0xFC	/* DBC 2nd byte range 2 end */
 166:.\sd/ff.c     **** 
 167:.\sd/ff.c     **** #elif _CODE_PAGE == 936	/* Simplified Chinese GBK */
 168:.\sd/ff.c     **** #define _DF1S	0x81
 169:.\sd/ff.c     **** #define _DF1E	0xFE
 170:.\sd/ff.c     **** #define _DS1S	0x40
 171:.\sd/ff.c     **** #define _DS1E	0x7E
 172:.\sd/ff.c     **** #define _DS2S	0x80
 173:.\sd/ff.c     **** #define _DS2E	0xFE
 174:.\sd/ff.c     **** 
 175:.\sd/ff.c     **** #elif _CODE_PAGE == 949	/* Korean */
 176:.\sd/ff.c     **** #define _DF1S	0x81
 177:.\sd/ff.c     **** #define _DF1E	0xFE
 178:.\sd/ff.c     **** #define _DS1S	0x41
 179:.\sd/ff.c     **** #define _DS1E	0x5A
 180:.\sd/ff.c     **** #define _DS2S	0x61
 181:.\sd/ff.c     **** #define _DS2E	0x7A
 182:.\sd/ff.c     **** #define _DS3S	0x81
 183:.\sd/ff.c     **** #define _DS3E	0xFE
 184:.\sd/ff.c     **** 
 185:.\sd/ff.c     **** #elif _CODE_PAGE == 950	/* Traditional Chinese Big5 */
 186:.\sd/ff.c     **** #define _DF1S	0x81
 187:.\sd/ff.c     **** #define _DF1E	0xFE
 188:.\sd/ff.c     **** #define _DS1S	0x40
 189:.\sd/ff.c     **** #define _DS1E	0x7E
 190:.\sd/ff.c     **** #define _DS2S	0xA1
 191:.\sd/ff.c     **** #define _DS2E	0xFE
 192:.\sd/ff.c     **** 
 193:.\sd/ff.c     **** #elif _CODE_PAGE == 437	/* U.S. (OEM) */
 194:.\sd/ff.c     **** #define _DF1S	0
 195:.\sd/ff.c     **** #define _EXCVT {0x80,0x9A,0x90,0x41,0x8E,0x41,0x8F,0x80,0x45,0x45,0x45,0x49,0x49,0x49,0x8E,0x8F,0x9
 196:.\sd/ff.c     **** 				0x41,0x49,0x4F,0x55,0xA5,0xA5,0xA6,0xA7,0xA8,0xA9,0xAA,0xAB,0xAC,0x21,0xAE,0xAF,0xB0,0xB1,0xB2,
 197:.\sd/ff.c     **** 				0xC0,0xC1,0xC2,0xC3,0xC4,0xC5,0xC6,0xC7,0xC8,0xC9,0xCA,0xCB,0xCC,0xCD,0xCE,0xCF,0xD0,0xD1,0xD2,
 198:.\sd/ff.c     **** 				0xE0,0xE1,0xE2,0xE3,0xE4,0xE5,0xE6,0xE7,0xE8,0xE9,0xEA,0xEB,0xEC,0xED,0xEE,0xEF,0xF0,0xF1,0xF2,
 199:.\sd/ff.c     **** 
 200:.\sd/ff.c     **** #elif _CODE_PAGE == 720	/* Arabic (OEM) */
 201:.\sd/ff.c     **** #define _DF1S	0
 202:.\sd/ff.c     **** #define _EXCVT {0x80,0x81,0x45,0x41,0x84,0x41,0x86,0x43,0x45,0x45,0x45,0x49,0x49,0x8D,0x8E,0x8F,0x9
 203:.\sd/ff.c     **** 				0xA0,0xA1,0xA2,0xA3,0xA4,0xA5,0xA6,0xA7,0xA8,0xA9,0xAA,0xAB,0xAC,0xAD,0xAE,0xAF,0xB0,0xB1,0xB2,
 204:.\sd/ff.c     **** 				0xC0,0xC1,0xC2,0xC3,0xC4,0xC5,0xC6,0xC7,0xC8,0xC9,0xCA,0xCB,0xCC,0xCD,0xCE,0xCF,0xD0,0xD1,0xD2,
ARM GAS  C:\Users\Jarik\AppData\Local\Temp\ccOwmDxA.s 			page 5


 205:.\sd/ff.c     **** 				0xE0,0xE1,0xE2,0xE3,0xE4,0xE5,0xE6,0xE7,0xE8,0xE9,0xEA,0xEB,0xEC,0xED,0xEE,0xEF,0xF0,0xF1,0xF2,
 206:.\sd/ff.c     **** 
 207:.\sd/ff.c     **** #elif _CODE_PAGE == 737	/* Greek (OEM) */
 208:.\sd/ff.c     **** #define _DF1S	0
 209:.\sd/ff.c     **** #define _EXCVT {0x80,0x81,0x82,0x83,0x84,0x85,0x86,0x87,0x88,0x89,0x8A,0x8B,0x8C,0x8D,0x8E,0x8F,0x9
 210:.\sd/ff.c     **** 				0x88,0x89,0x8A,0x8B,0x8C,0x8D,0x8E,0x8F,0x90,0x91,0xAA,0x92,0x93,0x94,0x95,0x96,0xB0,0xB1,0xB2,
 211:.\sd/ff.c     **** 				0xC0,0xC1,0xC2,0xC3,0xC4,0xC5,0xC6,0xC7,0xC8,0xC9,0xCA,0xCB,0xCC,0xCD,0xCE,0xCF,0xD0,0xD1,0xD2,
 212:.\sd/ff.c     **** 				0x97,0xEA,0xEB,0xEC,0xE4,0xED,0xEE,0xE7,0xE8,0xF1,0xEA,0xEB,0xEC,0xED,0xEE,0xEF,0xF0,0xF1,0xF2,
 213:.\sd/ff.c     **** 
 214:.\sd/ff.c     **** #elif _CODE_PAGE == 775	/* Baltic (OEM) */
 215:.\sd/ff.c     **** #define _DF1S	0
 216:.\sd/ff.c     **** #define _EXCVT {0x80,0x9A,0x91,0xA0,0x8E,0x95,0x8F,0x80,0xAD,0xED,0x8A,0x8A,0xA1,0x8D,0x8E,0x8F,0x9
 217:.\sd/ff.c     **** 				0xA0,0xA1,0xE0,0xA3,0xA3,0xA5,0xA6,0xA7,0xA8,0xA9,0xAA,0xAB,0xAC,0xAD,0xAE,0xAF,0xB0,0xB1,0xB2,
 218:.\sd/ff.c     **** 				0xC0,0xC1,0xC2,0xC3,0xC4,0xC5,0xC6,0xC7,0xC8,0xC9,0xCA,0xCB,0xCC,0xCD,0xCE,0xCF,0xB5,0xB6,0xB7,
 219:.\sd/ff.c     **** 				0xE0,0xE1,0xE2,0xE3,0xE5,0xE5,0xE6,0xE3,0xE8,0xE8,0xEA,0xEA,0xEE,0xED,0xEE,0xEF,0xF0,0xF1,0xF2,
 220:.\sd/ff.c     **** 
 221:.\sd/ff.c     **** #elif _CODE_PAGE == 850	/* Multilingual Latin 1 (OEM) */
 222:.\sd/ff.c     **** #define _DF1S	0
 223:.\sd/ff.c     **** #define _EXCVT {0x80,0x9A,0x90,0xB6,0x8E,0xB7,0x8F,0x80,0xD2,0xD3,0xD4,0xD8,0xD7,0xDE,0x8E,0x8F,0x9
 224:.\sd/ff.c     **** 				0xB5,0xD6,0xE0,0xE9,0xA5,0xA5,0xA6,0xA7,0xA8,0xA9,0xAA,0xAB,0xAC,0x21,0xAE,0xAF,0xB0,0xB1,0xB2,
 225:.\sd/ff.c     **** 				0xC0,0xC1,0xC2,0xC3,0xC4,0xC5,0xC7,0xC7,0xC8,0xC9,0xCA,0xCB,0xCC,0xCD,0xCE,0xCF,0xD0,0xD1,0xD2,
 226:.\sd/ff.c     **** 				0xE0,0xE1,0xE2,0xE3,0xE5,0xE5,0xE6,0xE7,0xE7,0xE9,0xEA,0xEB,0xED,0xED,0xEE,0xEF,0xF0,0xF1,0xF2,
 227:.\sd/ff.c     **** 
 228:.\sd/ff.c     **** #elif _CODE_PAGE == 852	/* Latin 2 (OEM) */
 229:.\sd/ff.c     **** #define _DF1S	0
 230:.\sd/ff.c     **** #define _EXCVT {0x80,0x9A,0x90,0xB6,0x8E,0xDE,0x8F,0x80,0x9D,0xD3,0x8A,0x8A,0xD7,0x8D,0x8E,0x8F,0x9
 231:.\sd/ff.c     **** 				0xB5,0xD6,0xE0,0xE9,0xA4,0xA4,0xA6,0xA6,0xA8,0xA8,0xAA,0x8D,0xAC,0xB8,0xAE,0xAF,0xB0,0xB1,0xB2,
 232:.\sd/ff.c     **** 				0xC0,0xC1,0xC2,0xC3,0xC4,0xC5,0xC6,0xC6,0xC8,0xC9,0xCA,0xCB,0xCC,0xCD,0xCE,0xCF,0xD1,0xD1,0xD2,
 233:.\sd/ff.c     **** 				0xE0,0xE1,0xE2,0xE3,0xE3,0xD5,0xE6,0xE6,0xE8,0xE9,0xE8,0xEB,0xED,0xED,0xDD,0xEF,0xF0,0xF1,0xF2,
 234:.\sd/ff.c     **** 
 235:.\sd/ff.c     **** #elif _CODE_PAGE == 855	/* Cyrillic (OEM) */
 236:.\sd/ff.c     **** #define _DF1S	0
 237:.\sd/ff.c     **** #define _EXCVT {0x81,0x81,0x83,0x83,0x85,0x85,0x87,0x87,0x89,0x89,0x8B,0x8B,0x8D,0x8D,0x8F,0x8F,0x9
 238:.\sd/ff.c     **** 				0xA1,0xA1,0xA3,0xA3,0xA5,0xA5,0xA7,0xA7,0xA9,0xA9,0xAB,0xAB,0xAD,0xAD,0xAE,0xAF,0xB0,0xB1,0xB2,
 239:.\sd/ff.c     **** 				0xC0,0xC1,0xC2,0xC3,0xC4,0xC5,0xC7,0xC7,0xC8,0xC9,0xCA,0xCB,0xCC,0xCD,0xCE,0xCF,0xD1,0xD1,0xD3,
 240:.\sd/ff.c     **** 				0xE0,0xE2,0xE2,0xE4,0xE4,0xE6,0xE6,0xE8,0xE8,0xEA,0xEA,0xEC,0xEC,0xEE,0xEE,0xEF,0xF0,0xF2,0xF2,
 241:.\sd/ff.c     **** 
 242:.\sd/ff.c     **** #elif _CODE_PAGE == 857	/* Turkish (OEM) */
 243:.\sd/ff.c     **** #define _DF1S	0
 244:.\sd/ff.c     **** #define _EXCVT {0x80,0x9A,0x90,0xB6,0x8E,0xB7,0x8F,0x80,0xD2,0xD3,0xD4,0xD8,0xD7,0x98,0x8E,0x8F,0x9
 245:.\sd/ff.c     **** 				0xB5,0xD6,0xE0,0xE9,0xA5,0xA5,0xA6,0xA6,0xA8,0xA9,0xAA,0xAB,0xAC,0x21,0xAE,0xAF,0xB0,0xB1,0xB2,
 246:.\sd/ff.c     **** 				0xC0,0xC1,0xC2,0xC3,0xC4,0xC5,0xC7,0xC7,0xC8,0xC9,0xCA,0xCB,0xCC,0xCD,0xCE,0xCF,0xD0,0xD1,0xD2,
 247:.\sd/ff.c     **** 				0xE0,0xE1,0xE2,0xE3,0xE5,0xE5,0xE6,0xE7,0xE8,0xE9,0xEA,0xEB,0xDE,0x59,0xEE,0xEF,0xF0,0xF1,0xF2,
 248:.\sd/ff.c     **** 
 249:.\sd/ff.c     **** #elif _CODE_PAGE == 858	/* Multilingual Latin 1 + Euro (OEM) */
 250:.\sd/ff.c     **** #define _DF1S	0
 251:.\sd/ff.c     **** #define _EXCVT {0x80,0x9A,0x90,0xB6,0x8E,0xB7,0x8F,0x80,0xD2,0xD3,0xD4,0xD8,0xD7,0xDE,0x8E,0x8F,0x9
 252:.\sd/ff.c     **** 				0xB5,0xD6,0xE0,0xE9,0xA5,0xA5,0xA6,0xA7,0xA8,0xA9,0xAA,0xAB,0xAC,0x21,0xAE,0xAF,0xB0,0xB1,0xB2,
 253:.\sd/ff.c     **** 				0xC0,0xC1,0xC2,0xC3,0xC4,0xC5,0xC7,0xC7,0xC8,0xC9,0xCA,0xCB,0xCC,0xCD,0xCE,0xCF,0xD1,0xD1,0xD2,
 254:.\sd/ff.c     **** 				0xE0,0xE1,0xE2,0xE3,0xE5,0xE5,0xE6,0xE7,0xE7,0xE9,0xEA,0xEB,0xED,0xED,0xEE,0xEF,0xF0,0xF1,0xF2,
 255:.\sd/ff.c     **** 
 256:.\sd/ff.c     **** #elif _CODE_PAGE == 862	/* Hebrew (OEM) */
 257:.\sd/ff.c     **** #define _DF1S	0
 258:.\sd/ff.c     **** #define _EXCVT {0x80,0x81,0x82,0x83,0x84,0x85,0x86,0x87,0x88,0x89,0x8A,0x8B,0x8C,0x8D,0x8E,0x8F,0x9
 259:.\sd/ff.c     **** 				0x41,0x49,0x4F,0x55,0xA5,0xA5,0xA6,0xA7,0xA8,0xA9,0xAA,0xAB,0xAC,0x21,0xAE,0xAF,0xB0,0xB1,0xB2,
 260:.\sd/ff.c     **** 				0xC0,0xC1,0xC2,0xC3,0xC4,0xC5,0xC6,0xC7,0xC8,0xC9,0xCA,0xCB,0xCC,0xCD,0xCE,0xCF,0xD0,0xD1,0xD2,
 261:.\sd/ff.c     **** 				0xE0,0xE1,0xE2,0xE3,0xE4,0xE5,0xE6,0xE7,0xE8,0xE9,0xEA,0xEB,0xEC,0xED,0xEE,0xEF,0xF0,0xF1,0xF2,
ARM GAS  C:\Users\Jarik\AppData\Local\Temp\ccOwmDxA.s 			page 6


 262:.\sd/ff.c     **** 
 263:.\sd/ff.c     **** #elif _CODE_PAGE == 866	/* Russian (OEM) */
 264:.\sd/ff.c     **** #define _DF1S	0
 265:.\sd/ff.c     **** #define _EXCVT {0x80,0x81,0x82,0x83,0x84,0x85,0x86,0x87,0x88,0x89,0x8A,0x8B,0x8C,0x8D,0x8E,0x8F,0x9
 266:.\sd/ff.c     **** 				0x80,0x81,0x82,0x83,0x84,0x85,0x86,0x87,0x88,0x89,0x8A,0x8B,0x8C,0x8D,0x8E,0x8F,0xB0,0xB1,0xB2,
 267:.\sd/ff.c     **** 				0xC0,0xC1,0xC2,0xC3,0xC4,0xC5,0xC6,0xC7,0xC8,0xC9,0xCA,0xCB,0xCC,0xCD,0xCE,0xCF,0xD0,0xD1,0xD2,
 268:.\sd/ff.c     **** 				0x90,0x91,0x92,0x93,0x9d,0x95,0x96,0x97,0x98,0x99,0x9A,0x9B,0x9C,0x9D,0x9E,0x9F,0xF0,0xF0,0xF2,
 269:.\sd/ff.c     **** 
 270:.\sd/ff.c     **** #elif _CODE_PAGE == 874	/* Thai (OEM, Windows) */
 271:.\sd/ff.c     **** #define _DF1S	0
 272:.\sd/ff.c     **** #define _EXCVT {0x80,0x81,0x82,0x83,0x84,0x85,0x86,0x87,0x88,0x89,0x8A,0x8B,0x8C,0x8D,0x8E,0x8F,0x9
 273:.\sd/ff.c     **** 				0xA0,0xA1,0xA2,0xA3,0xA4,0xA5,0xA6,0xA7,0xA8,0xA9,0xAA,0xAB,0xAC,0xAD,0xAE,0xAF,0xB0,0xB1,0xB2,
 274:.\sd/ff.c     **** 				0xC0,0xC1,0xC2,0xC3,0xC4,0xC5,0xC6,0xC7,0xC8,0xC9,0xCA,0xCB,0xCC,0xCD,0xCE,0xCF,0xD0,0xD1,0xD2,
 275:.\sd/ff.c     **** 				0xE0,0xE1,0xE2,0xE3,0xE4,0xE5,0xE6,0xE7,0xE8,0xE9,0xEA,0xEB,0xEC,0xED,0xEE,0xEF,0xF0,0xF1,0xF2,
 276:.\sd/ff.c     **** 
 277:.\sd/ff.c     **** #elif _CODE_PAGE == 1250 /* Central Europe (Windows) */
 278:.\sd/ff.c     **** #define _DF1S	0
 279:.\sd/ff.c     **** #define _EXCVT {0x80,0x81,0x82,0x83,0x84,0x85,0x86,0x87,0x88,0x89,0x8A,0x8B,0x8C,0x8D,0x8E,0x8F,0x9
 280:.\sd/ff.c     **** 				0xA0,0xA1,0xA2,0xA3,0xA4,0xA5,0xA6,0xA7,0xA8,0xA9,0xAA,0xAB,0xAC,0xAD,0xAE,0xAF,0xB0,0xB1,0xB2,
 281:.\sd/ff.c     **** 				0xC0,0xC1,0xC2,0xC3,0xC4,0xC5,0xC6,0xC7,0xC8,0xC9,0xCA,0xCB,0xCC,0xCD,0xCE,0xCF,0xD0,0xD1,0xD2,
 282:.\sd/ff.c     **** 				0xC0,0xC1,0xC2,0xC3,0xC4,0xC5,0xC6,0xC7,0xC8,0xC9,0xCA,0xCB,0xCC,0xCD,0xCE,0xCF,0xD0,0xD1,0xD2,
 283:.\sd/ff.c     **** 
 284:.\sd/ff.c     **** #elif _CODE_PAGE == 1251 /* Cyrillic (Windows) */
 285:.\sd/ff.c     **** #define _DF1S	0
 286:.\sd/ff.c     **** #define _EXCVT {0x80,0x81,0x82,0x82,0x84,0x85,0x86,0x87,0x88,0x89,0x8A,0x8B,0x8C,0x8D,0x8E,0x8F,0x8
 287:.\sd/ff.c     **** 				0xA0,0xA2,0xA2,0xA3,0xA4,0xA5,0xA6,0xA7,0xA8,0xA9,0xAA,0xAB,0xAC,0xAD,0xAE,0xAF,0xB0,0xB1,0xB2,
 288:.\sd/ff.c     **** 				0xC0,0xC1,0xC2,0xC3,0xC4,0xC5,0xC6,0xC7,0xC8,0xC9,0xCA,0xCB,0xCC,0xCD,0xCE,0xCF,0xD0,0xD1,0xD2,
 289:.\sd/ff.c     **** 				0xC0,0xC1,0xC2,0xC3,0xC4,0xC5,0xC6,0xC7,0xC8,0xC9,0xCA,0xCB,0xCC,0xCD,0xCE,0xCF,0xD0,0xD1,0xD2,
 290:.\sd/ff.c     **** 
 291:.\sd/ff.c     **** #elif _CODE_PAGE == 1252 /* Latin 1 (Windows) */
 292:.\sd/ff.c     **** #define _DF1S	0
 293:.\sd/ff.c     **** #define _EXCVT {0x80,0x81,0x82,0x83,0x84,0x85,0x86,0x87,0x88,0x89,0x8A,0x8B,0x8C,0x8D,0x8E,0x8F,0x9
 294:.\sd/ff.c     **** 				0xA0,0x21,0xA2,0xA3,0xA4,0xA5,0xA6,0xA7,0xA8,0xA9,0xAA,0xAB,0xAC,0xAD,0xAE,0xAF,0xB0,0xB1,0xB2,
 295:.\sd/ff.c     **** 				0xC0,0xC1,0xC2,0xC3,0xC4,0xC5,0xC6,0xC7,0xC8,0xC9,0xCA,0xCB,0xCC,0xCD,0xCE,0xCF,0xD0,0xD1,0xD2,
 296:.\sd/ff.c     **** 				0xC0,0xC1,0xC2,0xC3,0xC4,0xC5,0xC6,0xC7,0xC8,0xC9,0xCA,0xCB,0xCC,0xCD,0xCE,0xCF,0xD0,0xD1,0xD2,
 297:.\sd/ff.c     **** 
 298:.\sd/ff.c     **** #elif _CODE_PAGE == 1253 /* Greek (Windows) */
 299:.\sd/ff.c     **** #define _DF1S	0
 300:.\sd/ff.c     **** #define _EXCVT {0x80,0x81,0x82,0x83,0x84,0x85,0x86,0x87,0x88,0x89,0x8A,0x8B,0x8C,0x8D,0x8E,0x8F,0x9
 301:.\sd/ff.c     **** 				0xA0,0xA1,0xA2,0xA3,0xA4,0xA5,0xA6,0xA7,0xA8,0xA9,0xAA,0xAB,0xAC,0xAD,0xAE,0xAF,0xB0,0xB1,0xB2,
 302:.\sd/ff.c     **** 				0xC0,0xC1,0xC2,0xC3,0xC4,0xC5,0xC6,0xC7,0xC8,0xC9,0xCA,0xCB,0xCC,0xCD,0xCE,0xCF,0xD0,0xD1,0xD2,
 303:.\sd/ff.c     **** 				0xE0,0xC1,0xC2,0xC3,0xC4,0xC5,0xC6,0xC7,0xC8,0xC9,0xCA,0xCB,0xCC,0xCD,0xCE,0xCF,0xD0,0xD1,0xF2,
 304:.\sd/ff.c     **** 
 305:.\sd/ff.c     **** #elif _CODE_PAGE == 1254 /* Turkish (Windows) */
 306:.\sd/ff.c     **** #define _DF1S	0
 307:.\sd/ff.c     **** #define _EXCVT {0x80,0x81,0x82,0x83,0x84,0x85,0x86,0x87,0x88,0x89,0x8A,0x8B,0x8C,0x8D,0x8E,0x8F,0x9
 308:.\sd/ff.c     **** 				0xA0,0x21,0xA2,0xA3,0xA4,0xA5,0xA6,0xA7,0xA8,0xA9,0xAA,0xAB,0xAC,0xAD,0xAE,0xAF,0xB0,0xB1,0xB2,
 309:.\sd/ff.c     **** 				0xC0,0xC1,0xC2,0xC3,0xC4,0xC5,0xC6,0xC7,0xC8,0xC9,0xCA,0xCB,0xCC,0xCD,0xCE,0xCF,0xD0,0xD1,0xD2,
 310:.\sd/ff.c     **** 				0xC0,0xC1,0xC2,0xC3,0xC4,0xC5,0xC6,0xC7,0xC8,0xC9,0xCA,0xCB,0xCC,0xCD,0xCE,0xCF,0xD0,0xD1,0xD2,
 311:.\sd/ff.c     **** 
 312:.\sd/ff.c     **** #elif _CODE_PAGE == 1255 /* Hebrew (Windows) */
 313:.\sd/ff.c     **** #define _DF1S	0
 314:.\sd/ff.c     **** #define _EXCVT {0x80,0x81,0x82,0x83,0x84,0x85,0x86,0x87,0x88,0x89,0x8A,0x8B,0x8C,0x8D,0x8E,0x8F,0x9
 315:.\sd/ff.c     **** 				0xA0,0x21,0xA2,0xA3,0xA4,0xA5,0xA6,0xA7,0xA8,0xA9,0xAA,0xAB,0xAC,0xAD,0xAE,0xAF,0xB0,0xB1,0xB2,
 316:.\sd/ff.c     **** 				0xC0,0xC1,0xC2,0xC3,0xC4,0xC5,0xC6,0xC7,0xC8,0xC9,0xCA,0xCB,0xCC,0xCD,0xCE,0xCF,0xD0,0xD1,0xD2,
 317:.\sd/ff.c     **** 				0xE0,0xE1,0xE2,0xE3,0xE4,0xE5,0xE6,0xE7,0xE8,0xE9,0xEA,0xEB,0xEC,0xED,0xEE,0xEF,0xF0,0xF1,0xF2,
 318:.\sd/ff.c     **** 
ARM GAS  C:\Users\Jarik\AppData\Local\Temp\ccOwmDxA.s 			page 7


 319:.\sd/ff.c     **** #elif _CODE_PAGE == 1256 /* Arabic (Windows) */
 320:.\sd/ff.c     **** #define _DF1S	0
 321:.\sd/ff.c     **** #define _EXCVT {0x80,0x81,0x82,0x83,0x84,0x85,0x86,0x87,0x88,0x89,0x8A,0x8B,0x8C,0x8D,0x8E,0x8F,0x9
 322:.\sd/ff.c     **** 				0xA0,0xA1,0xA2,0xA3,0xA4,0xA5,0xA6,0xA7,0xA8,0xA9,0xAA,0xAB,0xAC,0xAD,0xAE,0xAF,0xB0,0xB1,0xB2,
 323:.\sd/ff.c     **** 				0xC0,0xC1,0xC2,0xC3,0xC4,0xC5,0xC6,0xC7,0xC8,0xC9,0xCA,0xCB,0xCC,0xCD,0xCE,0xCF,0xD0,0xD1,0xD2,
 324:.\sd/ff.c     **** 				0x41,0xE1,0x41,0xE3,0xE4,0xE5,0xE6,0x43,0x45,0x45,0x45,0x45,0xEC,0xED,0x49,0x49,0xF0,0xF1,0xF2,
 325:.\sd/ff.c     **** 
 326:.\sd/ff.c     **** #elif _CODE_PAGE == 1257 /* Baltic (Windows) */
 327:.\sd/ff.c     **** #define _DF1S	0
 328:.\sd/ff.c     **** #define _EXCVT {0x80,0x81,0x82,0x83,0x84,0x85,0x86,0x87,0x88,0x89,0x8A,0x8B,0x8C,0x8D,0x8E,0x8F,0x9
 329:.\sd/ff.c     **** 				0xA0,0xA1,0xA2,0xA3,0xA4,0xA5,0xA6,0xA7,0xA8,0xA9,0xAA,0xAB,0xAC,0xAD,0xAE,0xAF,0xB0,0xB1,0xB2,
 330:.\sd/ff.c     **** 				0xC0,0xC1,0xC2,0xC3,0xC4,0xC5,0xC6,0xC7,0xC8,0xC9,0xCA,0xCB,0xCC,0xCD,0xCE,0xCF,0xD0,0xD1,0xD2,
 331:.\sd/ff.c     **** 				0xC0,0xC1,0xC2,0xC3,0xC4,0xC5,0xC6,0xC7,0xC8,0xC9,0xCA,0xCB,0xCC,0xCD,0xCE,0xCF,0xD0,0xD1,0xD2,
 332:.\sd/ff.c     **** 
 333:.\sd/ff.c     **** #elif _CODE_PAGE == 1258 /* Vietnam (OEM, Windows) */
 334:.\sd/ff.c     **** #define _DF1S	0
 335:.\sd/ff.c     **** #define _EXCVT {0x80,0x81,0x82,0x83,0x84,0x85,0x86,0x87,0x88,0x89,0x8A,0x8B,0x8C,0x8D,0x8E,0x8F,0x9
 336:.\sd/ff.c     **** 				0xA0,0x21,0xA2,0xA3,0xA4,0xA5,0xA6,0xA7,0xA8,0xA9,0xAA,0xAB,0xAC,0xAD,0xAE,0xAF,0xB0,0xB1,0xB2,
 337:.\sd/ff.c     **** 				0xC0,0xC1,0xC2,0xC3,0xC4,0xC5,0xC6,0xC7,0xC8,0xC9,0xCA,0xCB,0xCC,0xCD,0xCE,0xCF,0xD0,0xD1,0xD2,
 338:.\sd/ff.c     **** 				0xC0,0xC1,0xC2,0xC3,0xC4,0xC5,0xC6,0xC7,0xC8,0xC9,0xCA,0xCB,0xEC,0xCD,0xCE,0xCF,0xD0,0xD1,0xF2,
 339:.\sd/ff.c     **** 
 340:.\sd/ff.c     **** #elif _CODE_PAGE == 1	/* ASCII (for only non-LFN cfg) */
 341:.\sd/ff.c     **** #if _USE_LFN
 342:.\sd/ff.c     **** #error Cannot use LFN feature without valid code page.
 343:.\sd/ff.c     **** #endif
 344:.\sd/ff.c     **** #define _DF1S	0
 345:.\sd/ff.c     **** 
 346:.\sd/ff.c     **** #else
 347:.\sd/ff.c     **** #error Unknown code page
 348:.\sd/ff.c     **** 
 349:.\sd/ff.c     **** #endif
 350:.\sd/ff.c     **** 
 351:.\sd/ff.c     **** 
 352:.\sd/ff.c     **** /* Character code support macros */
 353:.\sd/ff.c     **** #define IsUpper(c)	(((c)>='A')&&((c)<='Z'))
 354:.\sd/ff.c     **** #define IsLower(c)	(((c)>='a')&&((c)<='z'))
 355:.\sd/ff.c     **** #define IsDigit(c)	(((c)>='0')&&((c)<='9'))
 356:.\sd/ff.c     **** 
 357:.\sd/ff.c     **** #if _DF1S		/* Code page is DBCS */
 358:.\sd/ff.c     **** 
 359:.\sd/ff.c     **** #ifdef _DF2S	/* Two 1st byte areas */
 360:.\sd/ff.c     **** #define IsDBCS1(c)	(((BYTE)(c) >= _DF1S && (BYTE)(c) <= _DF1E) || ((BYTE)(c) >= _DF2S && (BYTE)(c) 
 361:.\sd/ff.c     **** #else			/* One 1st byte area */
 362:.\sd/ff.c     **** #define IsDBCS1(c)	((BYTE)(c) >= _DF1S && (BYTE)(c) <= _DF1E)
 363:.\sd/ff.c     **** #endif
 364:.\sd/ff.c     **** 
 365:.\sd/ff.c     **** #ifdef _DS3S	/* Three 2nd byte areas */
 366:.\sd/ff.c     **** #define IsDBCS2(c)	(((BYTE)(c) >= _DS1S && (BYTE)(c) <= _DS1E) || ((BYTE)(c) >= _DS2S && (BYTE)(c) 
 367:.\sd/ff.c     **** #else			/* Two 2nd byte areas */
 368:.\sd/ff.c     **** #define IsDBCS2(c)	(((BYTE)(c) >= _DS1S && (BYTE)(c) <= _DS1E) || ((BYTE)(c) >= _DS2S && (BYTE)(c) 
 369:.\sd/ff.c     **** #endif
 370:.\sd/ff.c     **** 
 371:.\sd/ff.c     **** #else			/* Code page is SBCS */
 372:.\sd/ff.c     **** 
 373:.\sd/ff.c     **** #define IsDBCS1(c)	0
 374:.\sd/ff.c     **** #define IsDBCS2(c)	0
 375:.\sd/ff.c     **** 
ARM GAS  C:\Users\Jarik\AppData\Local\Temp\ccOwmDxA.s 			page 8


 376:.\sd/ff.c     **** #endif /* _DF1S */
 377:.\sd/ff.c     **** 
 378:.\sd/ff.c     **** 
 379:.\sd/ff.c     **** /* Name status flags */
 380:.\sd/ff.c     **** #define NS			11		/* Index of name status byte in fn[] */
 381:.\sd/ff.c     **** #define NS_LOSS		0x01	/* Out of 8.3 format */
 382:.\sd/ff.c     **** #define NS_LFN		0x02	/* Force to create LFN entry */
 383:.\sd/ff.c     **** #define NS_LAST		0x04	/* Last segment */
 384:.\sd/ff.c     **** #define NS_BODY		0x08	/* Lower case flag (body) */
 385:.\sd/ff.c     **** #define NS_EXT		0x10	/* Lower case flag (ext) */
 386:.\sd/ff.c     **** #define NS_DOT		0x20	/* Dot entry */
 387:.\sd/ff.c     **** 
 388:.\sd/ff.c     **** 
 389:.\sd/ff.c     **** /* FAT sub-type boundaries */
 390:.\sd/ff.c     **** /* Note that the FAT spec by Microsoft says 4085 but Windows works with 4087! */
 391:.\sd/ff.c     **** #define MIN_FAT16	4086	/* Minimum number of clusters for FAT16 */
 392:.\sd/ff.c     **** #define	MIN_FAT32	65526	/* Minimum number of clusters for FAT32 */
 393:.\sd/ff.c     **** 
 394:.\sd/ff.c     **** 
 395:.\sd/ff.c     **** /* FatFs refers the members in the FAT structures as byte array instead of
 396:.\sd/ff.c     **** / structure member because the structure is not binary compatible between
 397:.\sd/ff.c     **** / different platforms */
 398:.\sd/ff.c     **** 
 399:.\sd/ff.c     **** #define BS_jmpBoot			0	/* Jump instruction (3) */
 400:.\sd/ff.c     **** #define BS_OEMName			3	/* OEM name (8) */
 401:.\sd/ff.c     **** #define BPB_BytsPerSec		11	/* Sector size [byte] (2) */
 402:.\sd/ff.c     **** #define BPB_SecPerClus		13	/* Cluster size [sector] (1) */
 403:.\sd/ff.c     **** #define BPB_RsvdSecCnt		14	/* Size of reserved area [sector] (2) */
 404:.\sd/ff.c     **** #define BPB_NumFATs			16	/* Number of FAT copies (1) */
 405:.\sd/ff.c     **** #define BPB_RootEntCnt		17	/* Number of root dir entries for FAT12/16 (2) */
 406:.\sd/ff.c     **** #define BPB_TotSec16		19	/* Volume size [sector] (2) */
 407:.\sd/ff.c     **** #define BPB_Media			21	/* Media descriptor (1) */
 408:.\sd/ff.c     **** #define BPB_FATSz16			22	/* FAT size [sector] (2) */
 409:.\sd/ff.c     **** #define BPB_SecPerTrk		24	/* Track size [sector] (2) */
 410:.\sd/ff.c     **** #define BPB_NumHeads		26	/* Number of heads (2) */
 411:.\sd/ff.c     **** #define BPB_HiddSec			28	/* Number of special hidden sectors (4) */
 412:.\sd/ff.c     **** #define BPB_TotSec32		32	/* Volume size [sector] (4) */
 413:.\sd/ff.c     **** #define BS_DrvNum			36	/* Physical drive number (2) */
 414:.\sd/ff.c     **** #define BS_BootSig			38	/* Extended boot signature (1) */
 415:.\sd/ff.c     **** #define BS_VolID			39	/* Volume serial number (4) */
 416:.\sd/ff.c     **** #define BS_VolLab			43	/* Volume label (8) */
 417:.\sd/ff.c     **** #define BS_FilSysType		54	/* File system type (1) */
 418:.\sd/ff.c     **** #define BPB_FATSz32			36	/* FAT size [sector] (4) */
 419:.\sd/ff.c     **** #define BPB_ExtFlags		40	/* Extended flags (2) */
 420:.\sd/ff.c     **** #define BPB_FSVer			42	/* File system version (2) */
 421:.\sd/ff.c     **** #define BPB_RootClus		44	/* Root dir first cluster (4) */
 422:.\sd/ff.c     **** #define BPB_FSInfo			48	/* Offset of FSInfo sector (2) */
 423:.\sd/ff.c     **** #define BPB_BkBootSec		50	/* Offset of backup boot sectot (2) */
 424:.\sd/ff.c     **** #define BS_DrvNum32			64	/* Physical drive number (2) */
 425:.\sd/ff.c     **** #define BS_BootSig32		66	/* Extended boot signature (1) */
 426:.\sd/ff.c     **** #define BS_VolID32			67	/* Volume serial number (4) */
 427:.\sd/ff.c     **** #define BS_VolLab32			71	/* Volume label (8) */
 428:.\sd/ff.c     **** #define BS_FilSysType32		82	/* File system type (1) */
 429:.\sd/ff.c     **** #define	FSI_LeadSig			0	/* FSI: Leading signature (4) */
 430:.\sd/ff.c     **** #define	FSI_StrucSig		484	/* FSI: Structure signature (4) */
 431:.\sd/ff.c     **** #define	FSI_Free_Count		488	/* FSI: Number of free clusters (4) */
 432:.\sd/ff.c     **** #define	FSI_Nxt_Free		492	/* FSI: Last allocated cluster (4) */
ARM GAS  C:\Users\Jarik\AppData\Local\Temp\ccOwmDxA.s 			page 9


 433:.\sd/ff.c     **** #define MBR_Table			446	/* MBR: Partition table offset (2) */
 434:.\sd/ff.c     **** #define	SZ_PTE				16	/* MBR: Size of a partition table entry */
 435:.\sd/ff.c     **** #define BS_55AA				510	/* Boot sector signature (2) */
 436:.\sd/ff.c     **** 
 437:.\sd/ff.c     **** #define	DIR_Name			0	/* Short file name (11) */
 438:.\sd/ff.c     **** #define	DIR_Attr			11	/* Attribute (1) */
 439:.\sd/ff.c     **** #define	DIR_NTres			12	/* NT flag (1) */
 440:.\sd/ff.c     **** #define	DIR_CrtTime			14	/* Created time (2) */
 441:.\sd/ff.c     **** #define	DIR_CrtDate			16	/* Created date (2) */
 442:.\sd/ff.c     **** #define	DIR_FstClusHI		20	/* Higher 16-bit of first cluster (2) */
 443:.\sd/ff.c     **** #define	DIR_WrtTime			22	/* Modified time (2) */
 444:.\sd/ff.c     **** #define	DIR_WrtDate			24	/* Modified date (2) */
 445:.\sd/ff.c     **** #define	DIR_FstClusLO		26	/* Lower 16-bit of first cluster (2) */
 446:.\sd/ff.c     **** #define	DIR_FileSize		28	/* File size (4) */
 447:.\sd/ff.c     **** #define	LDIR_Ord			0	/* LFN entry order and LLE flag (1) */
 448:.\sd/ff.c     **** #define	LDIR_Attr			11	/* LFN attribute (1) */
 449:.\sd/ff.c     **** #define	LDIR_Type			12	/* LFN type (1) */
 450:.\sd/ff.c     **** #define	LDIR_Chksum			13	/* Sum of corresponding SFN entry */
 451:.\sd/ff.c     **** #define	LDIR_FstClusLO		26	/* Filled by zero (0) */
 452:.\sd/ff.c     **** #define	SZ_DIR				32		/* Size of a directory entry */
 453:.\sd/ff.c     **** #define	LLE					0x40	/* Last LONG_ entry flag in LDIR_Ord */
 454:.\sd/ff.c     **** #define	DDE					0xE5	/* Deleted directory enrty mark in DIR_Name[0] */
 455:.\sd/ff.c     **** #define	NDDE				0x05	/* Replacement of a character collides with DDE */
 456:.\sd/ff.c     **** 
 457:.\sd/ff.c     **** 
 458:.\sd/ff.c     **** /*------------------------------------------------------------*/
 459:.\sd/ff.c     **** /* Module private work area                                   */
 460:.\sd/ff.c     **** /*------------------------------------------------------------*/
 461:.\sd/ff.c     **** /* Note that uninitialized variables with static duration are
 462:.\sd/ff.c     **** /  zeroed/nulled at start-up. If not, the compiler or start-up
 463:.\sd/ff.c     **** /  routine is out of ANSI-C standard.
 464:.\sd/ff.c     **** */
 465:.\sd/ff.c     **** 
 466:.\sd/ff.c     **** #if _VOLUMES
 467:.\sd/ff.c     **** static
 468:.\sd/ff.c     **** FATFS *FatFs[_VOLUMES];	/* Pointer to the file system objects (logical drives) */
 469:.\sd/ff.c     **** #else
 470:.\sd/ff.c     **** #error Number of volumes must not be 0.
 471:.\sd/ff.c     **** #endif
 472:.\sd/ff.c     **** 
 473:.\sd/ff.c     **** static
 474:.\sd/ff.c     **** WORD Fsid;				/* File system mount ID */
 475:.\sd/ff.c     **** 
 476:.\sd/ff.c     **** #if _FS_RPATH
 477:.\sd/ff.c     **** static
 478:.\sd/ff.c     **** BYTE CurrVol;			/* Current drive */
 479:.\sd/ff.c     **** #endif
 480:.\sd/ff.c     **** 
 481:.\sd/ff.c     **** #if _FS_SHARE
 482:.\sd/ff.c     **** static
 483:.\sd/ff.c     **** FILESEM	Files[_FS_SHARE];	/* File lock semaphores */
 484:.\sd/ff.c     **** #endif
 485:.\sd/ff.c     **** 
 486:.\sd/ff.c     **** #if _USE_LFN == 0			/* No LFN feature */
 487:.\sd/ff.c     **** #define	DEF_NAMEBUF			BYTE sfn[12]
 488:.\sd/ff.c     **** #define INIT_BUF(dobj)		(dobj).fn = sfn
 489:.\sd/ff.c     **** #define	FREE_BUF()
ARM GAS  C:\Users\Jarik\AppData\Local\Temp\ccOwmDxA.s 			page 10


 490:.\sd/ff.c     **** 
 491:.\sd/ff.c     **** #elif _USE_LFN == 1			/* LFN feature with static working buffer */
 492:.\sd/ff.c     **** static WCHAR LfnBuf[_MAX_LFN+1];
 493:.\sd/ff.c     **** #define	DEF_NAMEBUF			BYTE sfn[12]
 494:.\sd/ff.c     **** #define INIT_BUF(dobj)		{ (dobj).fn = sfn; (dobj).lfn = LfnBuf; }
 495:.\sd/ff.c     **** #define	FREE_BUF()
 496:.\sd/ff.c     **** 
 497:.\sd/ff.c     **** #elif _USE_LFN == 2 		/* LFN feature with dynamic working buffer on the stack */
 498:.\sd/ff.c     **** #define	DEF_NAMEBUF			BYTE sfn[12]; WCHAR lbuf[_MAX_LFN+1]
 499:.\sd/ff.c     **** #define INIT_BUF(dobj)		{ (dobj).fn = sfn; (dobj).lfn = lbuf; }
 500:.\sd/ff.c     **** #define	FREE_BUF()
 501:.\sd/ff.c     **** 
 502:.\sd/ff.c     **** #elif _USE_LFN == 3 		/* LFN feature with dynamic working buffer on the heap */
 503:.\sd/ff.c     **** #define	DEF_NAMEBUF			BYTE sfn[12]; WCHAR *lfn
 504:.\sd/ff.c     **** #define INIT_BUF(dobj)		{ lfn = ff_memalloc((_MAX_LFN + 1) * 2); \
 505:.\sd/ff.c     **** 							  if (!lfn) LEAVE_FF((dobj).fs, FR_NOT_ENOUGH_CORE); \
 506:.\sd/ff.c     **** 							  (dobj).lfn = lfn;	(dobj).fn = sfn; }
 507:.\sd/ff.c     **** #define	FREE_BUF()			ff_memfree(lfn)
 508:.\sd/ff.c     **** 
 509:.\sd/ff.c     **** #else
 510:.\sd/ff.c     **** #error Wrong LFN configuration.
 511:.\sd/ff.c     **** #endif
 512:.\sd/ff.c     **** 
 513:.\sd/ff.c     **** 
 514:.\sd/ff.c     **** 
 515:.\sd/ff.c     **** 
 516:.\sd/ff.c     **** /*--------------------------------------------------------------------------
 517:.\sd/ff.c     **** 
 518:.\sd/ff.c     ****    Module Private Functions
 519:.\sd/ff.c     **** 
 520:.\sd/ff.c     **** ---------------------------------------------------------------------------*/
 521:.\sd/ff.c     **** 
 522:.\sd/ff.c     **** 
 523:.\sd/ff.c     **** /*-----------------------------------------------------------------------*/
 524:.\sd/ff.c     **** /* String functions                                                      */
 525:.\sd/ff.c     **** /*-----------------------------------------------------------------------*/
 526:.\sd/ff.c     **** 
 527:.\sd/ff.c     **** /* Copy memory to memory */
 528:.\sd/ff.c     **** static
 529:.\sd/ff.c     **** void mem_cpy (void* dst, const void* src, UINT cnt) {
  25              		.loc 1 529 0
  26              		.cfi_startproc
  27              	.LVL0:
 530:.\sd/ff.c     **** 	BYTE *d = (BYTE*)dst;
 531:.\sd/ff.c     **** 	const BYTE *s = (const BYTE*)src;
 532:.\sd/ff.c     **** 
 533:.\sd/ff.c     **** #if _WORD_ACCESS == 1
 534:.\sd/ff.c     **** 	while (cnt >= sizeof(int)) {
 535:.\sd/ff.c     **** 		*(int*)d = *(int*)s;
 536:.\sd/ff.c     **** 		d += sizeof(int); s += sizeof(int);
 537:.\sd/ff.c     **** 		cnt -= sizeof(int);
 538:.\sd/ff.c     **** 	}
 539:.\sd/ff.c     **** #endif
 540:.\sd/ff.c     **** 	while (cnt--)
  28              		.loc 1 540 0
  29 0000 04E0     		b	.L2
  30              	.LVL1:
ARM GAS  C:\Users\Jarik\AppData\Local\Temp\ccOwmDxA.s 			page 11


  31              	.L3:
 541:.\sd/ff.c     **** 		*d++ = *s++;
  32              		.loc 1 541 0
  33 0002 0A78     		ldrb	r2, [r1]
  34 0004 0270     		strb	r2, [r0]
 540:.\sd/ff.c     **** 	while (cnt--)
  35              		.loc 1 540 0
  36 0006 1A1C     		mov	r2, r3
  37              		.loc 1 541 0
  38 0008 0131     		add	r1, r1, #1
  39              	.LVL2:
  40 000a 0130     		add	r0, r0, #1
  41              	.LVL3:
  42              	.L2:
 540:.\sd/ff.c     **** 	while (cnt--)
  43              		.loc 1 540 0 discriminator 1
  44 000c 531E     		sub	r3, r2, #1
  45              	.LVL4:
  46 000e 002A     		cmp	r2, #0
  47 0010 F7D1     		bne	.L3
 542:.\sd/ff.c     **** }
  48              		.loc 1 542 0
  49              		@ sp needed
  50 0012 7047     		bx	lr
  51              		.cfi_endproc
  52              	.LFE0:
  53              		.size	mem_cpy, .-mem_cpy
  54              		.section	.text.mem_set,"ax",%progbits
  55              		.align	2
  56              		.code	16
  57              		.thumb_func
  58              		.type	mem_set, %function
  59              	mem_set:
  60              	.LFB1:
 543:.\sd/ff.c     **** 
 544:.\sd/ff.c     **** /* Fill memory */
 545:.\sd/ff.c     **** static
 546:.\sd/ff.c     **** void mem_set (void* dst, int val, UINT cnt) {
  61              		.loc 1 546 0
  62              		.cfi_startproc
  63              	.LVL5:
 547:.\sd/ff.c     **** 	BYTE *d = (BYTE*)dst;
 548:.\sd/ff.c     **** 
 549:.\sd/ff.c     **** 	while (cnt--)
 550:.\sd/ff.c     **** 		*d++ = (BYTE)val;
  64              		.loc 1 550 0
  65 0000 C9B2     		uxtb	r1, r1
  66              	.LVL6:
 549:.\sd/ff.c     **** 	while (cnt--)
  67              		.loc 1 549 0
  68 0002 02E0     		b	.L5
  69              	.LVL7:
  70              	.L6:
  71              		.loc 1 550 0
  72 0004 0170     		strb	r1, [r0]
 549:.\sd/ff.c     **** 	while (cnt--)
  73              		.loc 1 549 0
ARM GAS  C:\Users\Jarik\AppData\Local\Temp\ccOwmDxA.s 			page 12


  74 0006 1A1C     		mov	r2, r3
  75              		.loc 1 550 0
  76 0008 0130     		add	r0, r0, #1
  77              	.LVL8:
  78              	.L5:
 549:.\sd/ff.c     **** 	while (cnt--)
  79              		.loc 1 549 0 discriminator 1
  80 000a 531E     		sub	r3, r2, #1
  81              	.LVL9:
  82 000c 002A     		cmp	r2, #0
  83 000e F9D1     		bne	.L6
 551:.\sd/ff.c     **** }
  84              		.loc 1 551 0
  85              		@ sp needed
  86 0010 7047     		bx	lr
  87              		.cfi_endproc
  88              	.LFE1:
  89              		.size	mem_set, .-mem_set
  90 0012 C046     		.section	.text.mem_cmp,"ax",%progbits
  91              		.align	2
  92              		.code	16
  93              		.thumb_func
  94              		.type	mem_cmp, %function
  95              	mem_cmp:
  96              	.LFB2:
 552:.\sd/ff.c     **** 
 553:.\sd/ff.c     **** /* Compare memory to memory */
 554:.\sd/ff.c     **** static
 555:.\sd/ff.c     **** int mem_cmp (const void* dst, const void* src, UINT cnt) {
  97              		.loc 1 555 0
  98              		.cfi_startproc
  99              	.LVL10:
 100 0000 70B5     		push	{r4, r5, r6, lr}
 101              		.cfi_def_cfa_offset 16
 102              		.cfi_offset 4, -16
 103              		.cfi_offset 5, -12
 104              		.cfi_offset 6, -8
 105              		.cfi_offset 14, -4
 106 0002 031C     		mov	r3, r0
 107              	.LVL11:
 556:.\sd/ff.c     **** 	const BYTE *d = (const BYTE *)dst, *s = (const BYTE *)src;
 557:.\sd/ff.c     **** 	int r = 0;
 108              		.loc 1 557 0
 109 0004 0020     		mov	r0, #0
 110              	.LVL12:
 558:.\sd/ff.c     **** 
 559:.\sd/ff.c     **** 	while (cnt-- && (r = *d++ - *s++) == 0) ;
 111              		.loc 1 559 0
 112 0006 01E0     		b	.L9
 113              	.LVL13:
 114              	.L10:
 115 0008 291C     		mov	r1, r5
 116 000a 331C     		mov	r3, r6
 117              	.LVL14:
 118              	.L9:
 119              		.loc 1 559 0 is_stmt 0 discriminator 1
 120 000c 541E     		sub	r4, r2, #1
ARM GAS  C:\Users\Jarik\AppData\Local\Temp\ccOwmDxA.s 			page 13


 121              	.LVL15:
 122 000e 002A     		cmp	r2, #0
 123 0010 07D0     		beq	.L8
 124              		.loc 1 559 0 discriminator 2
 125 0012 5E1C     		add	r6, r3, #1
 126              	.LVL16:
 127 0014 1878     		ldrb	r0, [r3]
 128              	.LVL17:
 129 0016 4D1C     		add	r5, r1, #1
 130              	.LVL18:
 131 0018 0B78     		ldrb	r3, [r1]
 132 001a C01A     		sub	r0, r0, r3
 133              	.LVL19:
 134 001c 221C     		mov	r2, r4
 135 001e 0028     		cmp	r0, #0
 136 0020 F2D0     		beq	.L10
 137              	.LVL20:
 138              	.L8:
 560:.\sd/ff.c     **** 	return r;
 561:.\sd/ff.c     **** }
 139              		.loc 1 561 0 is_stmt 1
 140              		@ sp needed
 141              	.LVL21:
 142 0022 70BD     		pop	{r4, r5, r6, pc}
 143              		.cfi_endproc
 144              	.LFE2:
 145              		.size	mem_cmp, .-mem_cmp
 146              		.section	.text.chk_chr,"ax",%progbits
 147              		.align	2
 148              		.code	16
 149              		.thumb_func
 150              		.type	chk_chr, %function
 151              	chk_chr:
 152              	.LFB3:
 562:.\sd/ff.c     **** 
 563:.\sd/ff.c     **** /* Check if chr is contained in the string */
 564:.\sd/ff.c     **** static
 565:.\sd/ff.c     **** int chk_chr (const char* str, int chr) {
 153              		.loc 1 565 0
 154              		.cfi_startproc
 155              	.LVL22:
 566:.\sd/ff.c     **** 	while (*str && *str != chr) str++;
 156              		.loc 1 566 0
 157 0000 00E0     		b	.L12
 158              	.L14:
 159              		.loc 1 566 0 is_stmt 0 discriminator 1
 160 0002 0130     		add	r0, r0, #1
 161              	.LVL23:
 162              	.L12:
 163 0004 0378     		ldrb	r3, [r0]
 164 0006 002B     		cmp	r3, #0
 165 0008 01D0     		beq	.L13
 166              		.loc 1 566 0 discriminator 2
 167 000a 8B42     		cmp	r3, r1
 168 000c F9D1     		bne	.L14
 169              	.L13:
 567:.\sd/ff.c     **** 	return *str;
ARM GAS  C:\Users\Jarik\AppData\Local\Temp\ccOwmDxA.s 			page 14


 568:.\sd/ff.c     **** }
 170              		.loc 1 568 0 is_stmt 1
 171 000e 181C     		mov	r0, r3
 172              	.LVL24:
 173              		@ sp needed
 174 0010 7047     		bx	lr
 175              		.cfi_endproc
 176              	.LFE3:
 177              		.size	chk_chr, .-chk_chr
 178 0012 C046     		.section	.text.chk_lock,"ax",%progbits
 179              		.align	2
 180              		.code	16
 181              		.thumb_func
 182              		.type	chk_lock, %function
 183              	chk_lock:
 184              	.LFB4:
 569:.\sd/ff.c     **** 
 570:.\sd/ff.c     **** 
 571:.\sd/ff.c     **** 
 572:.\sd/ff.c     **** /*-----------------------------------------------------------------------*/
 573:.\sd/ff.c     **** /* Request/Release grant to access the volume                            */
 574:.\sd/ff.c     **** /*-----------------------------------------------------------------------*/
 575:.\sd/ff.c     **** #if _FS_REENTRANT
 576:.\sd/ff.c     **** 
 577:.\sd/ff.c     **** static
 578:.\sd/ff.c     **** int lock_fs (
 579:.\sd/ff.c     **** 	FATFS *fs		/* File system object */
 580:.\sd/ff.c     **** )
 581:.\sd/ff.c     **** {
 582:.\sd/ff.c     **** 	return ff_req_grant(fs->sobj);
 583:.\sd/ff.c     **** }
 584:.\sd/ff.c     **** 
 585:.\sd/ff.c     **** 
 586:.\sd/ff.c     **** static
 587:.\sd/ff.c     **** void unlock_fs (
 588:.\sd/ff.c     **** 	FATFS *fs,		/* File system object */
 589:.\sd/ff.c     **** 	FRESULT res		/* Result code to be returned */
 590:.\sd/ff.c     **** )
 591:.\sd/ff.c     **** {
 592:.\sd/ff.c     **** 	if (res != FR_NOT_ENABLED &&
 593:.\sd/ff.c     **** 		res != FR_INVALID_DRIVE &&
 594:.\sd/ff.c     **** 		res != FR_INVALID_OBJECT &&
 595:.\sd/ff.c     **** 		res != FR_TIMEOUT) {
 596:.\sd/ff.c     **** 		ff_rel_grant(fs->sobj);
 597:.\sd/ff.c     **** 	}
 598:.\sd/ff.c     **** }
 599:.\sd/ff.c     **** #endif
 600:.\sd/ff.c     **** 
 601:.\sd/ff.c     **** 
 602:.\sd/ff.c     **** 
 603:.\sd/ff.c     **** /*-----------------------------------------------------------------------*/
 604:.\sd/ff.c     **** /* File shareing control functions                                       */
 605:.\sd/ff.c     **** /*-----------------------------------------------------------------------*/
 606:.\sd/ff.c     **** #if _FS_SHARE
 607:.\sd/ff.c     **** 
 608:.\sd/ff.c     **** static
 609:.\sd/ff.c     **** FRESULT chk_lock (	/* Check if the file can be accessed */
ARM GAS  C:\Users\Jarik\AppData\Local\Temp\ccOwmDxA.s 			page 15


 610:.\sd/ff.c     **** 	DIR* dj,		/* Directory object pointing the file to be checked */
 611:.\sd/ff.c     **** 	int acc			/* Desired access (0:Read, 1:Write, 2:Delete/Rename) */
 612:.\sd/ff.c     **** )
 613:.\sd/ff.c     **** {
 185              		.loc 1 613 0
 186              		.cfi_startproc
 187              	.LVL25:
 188 0000 70B5     		push	{r4, r5, r6, lr}
 189              		.cfi_def_cfa_offset 16
 190              		.cfi_offset 4, -16
 191              		.cfi_offset 5, -12
 192              		.cfi_offset 6, -8
 193              		.cfi_offset 14, -4
 194              	.LVL26:
 614:.\sd/ff.c     **** 	UINT i, be;
 615:.\sd/ff.c     **** 
 616:.\sd/ff.c     **** 	/* Search file semaphore table */
 617:.\sd/ff.c     **** 	for (i = be = 0; i < _FS_SHARE; i++) {
 195              		.loc 1 617 0
 196 0002 0025     		mov	r5, #0
 197 0004 0023     		mov	r3, #0
 618:.\sd/ff.c     **** 		if (Files[i].fs) {	/* Existing entry */
 198              		.loc 1 618 0
 199 0006 204C     		ldr	r4, .L29
 617:.\sd/ff.c     **** 	for (i = be = 0; i < _FS_SHARE; i++) {
 200              		.loc 1 617 0
 201 0008 1DE0     		b	.L16
 202              	.LVL27:
 203              	.L20:
 204              		.loc 1 618 0
 205 000a 5A00     		lsl	r2, r3, #1
 206 000c D218     		add	r2, r2, r3
 207 000e 9200     		lsl	r2, r2, #2
 208 0010 1259     		ldr	r2, [r2, r4]
 209 0012 002A     		cmp	r2, #0
 210 0014 15D0     		beq	.L17
 619:.\sd/ff.c     **** 			if (Files[i].fs == dj->fs &&	 	/* Check if the file matched with an open file */
 211              		.loc 1 619 0
 212 0016 0668     		ldr	r6, [r0]
 213 0018 B242     		cmp	r2, r6
 214 001a 13D1     		bne	.L18
 620:.\sd/ff.c     **** 				Files[i].clu == dj->sclust &&
 215              		.loc 1 620 0 discriminator 1
 216 001c 5A00     		lsl	r2, r3, #1
 217 001e D218     		add	r2, r2, r3
 218 0020 9200     		lsl	r2, r2, #2
 219 0022 194E     		ldr	r6, .L29
 220 0024 B218     		add	r2, r6, r2
 221 0026 5268     		ldr	r2, [r2, #4]
 619:.\sd/ff.c     **** 			if (Files[i].fs == dj->fs &&	 	/* Check if the file matched with an open file */
 222              		.loc 1 619 0 discriminator 1
 223 0028 8668     		ldr	r6, [r0, #8]
 224 002a B242     		cmp	r2, r6
 225 002c 0AD1     		bne	.L18
 621:.\sd/ff.c     **** 				Files[i].idx == dj->index) break;
 226              		.loc 1 621 0
 227 002e 5A00     		lsl	r2, r3, #1
ARM GAS  C:\Users\Jarik\AppData\Local\Temp\ccOwmDxA.s 			page 16


 228 0030 D218     		add	r2, r2, r3
 229 0032 9200     		lsl	r2, r2, #2
 230 0034 144E     		ldr	r6, .L29
 231 0036 B218     		add	r2, r6, r2
 232 0038 1689     		ldrh	r6, [r2, #8]
 233 003a C288     		ldrh	r2, [r0, #6]
 620:.\sd/ff.c     **** 				Files[i].clu == dj->sclust &&
 234              		.loc 1 620 0
 235 003c 9642     		cmp	r6, r2
 236 003e 01D1     		bne	.L18
 237 0040 03E0     		b	.L19
 238              	.L17:
 622:.\sd/ff.c     **** 		} else {			/* Blank entry */
 623:.\sd/ff.c     **** 			be++;
 239              		.loc 1 623 0
 240 0042 0135     		add	r5, r5, #1
 241              	.LVL28:
 242              	.L18:
 617:.\sd/ff.c     **** 	for (i = be = 0; i < _FS_SHARE; i++) {
 243              		.loc 1 617 0
 244 0044 0133     		add	r3, r3, #1
 245              	.LVL29:
 246              	.L16:
 617:.\sd/ff.c     **** 	for (i = be = 0; i < _FS_SHARE; i++) {
 247              		.loc 1 617 0 is_stmt 0 discriminator 1
 248 0046 022B     		cmp	r3, #2
 249 0048 DFD9     		bls	.L20
 250              	.L19:
 624:.\sd/ff.c     **** 		}
 625:.\sd/ff.c     **** 	}
 626:.\sd/ff.c     **** 	if (i == _FS_SHARE)	/* The file is not opened */
 251              		.loc 1 626 0 is_stmt 1
 252 004a 032B     		cmp	r3, #3
 253 004c 09D1     		bne	.L21
 627:.\sd/ff.c     **** 		return (be || acc == 2) ? FR_OK : FR_TOO_MANY_OPEN_FILES;	/* Is there a blank entry for new file?
 254              		.loc 1 627 0
 255 004e 002D     		cmp	r5, #0
 256 0050 03D1     		bne	.L25
 257              		.loc 1 627 0 is_stmt 0 discriminator 2
 258 0052 0229     		cmp	r1, #2
 259 0054 03D1     		bne	.L26
 260              		.loc 1 627 0
 261 0056 0020     		mov	r0, #0
 262              	.LVL30:
 263 0058 14E0     		b	.L23
 264              	.LVL31:
 265              	.L25:
 266 005a 0020     		mov	r0, #0
 267              	.LVL32:
 268 005c 12E0     		b	.L23
 269              	.LVL33:
 270              	.L26:
 271 005e 1220     		mov	r0, #18
 272              	.LVL34:
 273 0060 10E0     		b	.L23
 274              	.LVL35:
 275              	.L21:
ARM GAS  C:\Users\Jarik\AppData\Local\Temp\ccOwmDxA.s 			page 17


 628:.\sd/ff.c     **** 
 629:.\sd/ff.c     **** 	/* The file has been opened. Reject any open against writing file and all write mode open */
 630:.\sd/ff.c     **** 	return (acc || Files[i].ctr == 0x100) ? FR_LOCKED : FR_OK;
 276              		.loc 1 630 0 is_stmt 1
 277 0062 0029     		cmp	r1, #0
 278 0064 0BD1     		bne	.L27
 279              		.loc 1 630 0 is_stmt 0 discriminator 2
 280 0066 5A00     		lsl	r2, r3, #1
 281 0068 D318     		add	r3, r2, r3
 282              	.LVL36:
 283 006a 9B00     		lsl	r3, r3, #2
 284 006c 064A     		ldr	r2, .L29
 285 006e D318     		add	r3, r2, r3
 286 0070 5A89     		ldrh	r2, [r3, #10]
 287 0072 8023     		mov	r3, #128
 288 0074 5B00     		lsl	r3, r3, #1
 289 0076 9A42     		cmp	r2, r3
 290 0078 03D1     		bne	.L28
 291              		.loc 1 630 0
 292 007a 1020     		mov	r0, #16
 293              	.LVL37:
 294 007c 02E0     		b	.L23
 295              	.LVL38:
 296              	.L27:
 297 007e 1020     		mov	r0, #16
 298              	.LVL39:
 299 0080 00E0     		b	.L23
 300              	.LVL40:
 301              	.L28:
 302 0082 0020     		mov	r0, #0
 303              	.LVL41:
 304              	.L23:
 631:.\sd/ff.c     **** }
 305              		.loc 1 631 0 is_stmt 1
 306              		@ sp needed
 307              	.LVL42:
 308 0084 70BD     		pop	{r4, r5, r6, pc}
 309              	.L30:
 310 0086 C046     		.align	2
 311              	.L29:
 312 0088 00000000 		.word	.LANCHOR0
 313              		.cfi_endproc
 314              	.LFE4:
 315              		.size	chk_lock, .-chk_lock
 316              		.section	.text.enq_lock,"ax",%progbits
 317              		.align	2
 318              		.code	16
 319              		.thumb_func
 320              		.type	enq_lock, %function
 321              	enq_lock:
 322              	.LFB5:
 632:.\sd/ff.c     **** 
 633:.\sd/ff.c     **** 
 634:.\sd/ff.c     **** static
 635:.\sd/ff.c     **** int enq_lock (void)	/* Check if an entry is available for a new file */
 636:.\sd/ff.c     **** {
 323              		.loc 1 636 0
ARM GAS  C:\Users\Jarik\AppData\Local\Temp\ccOwmDxA.s 			page 18


 324              		.cfi_startproc
 325              	.LVL43:
 637:.\sd/ff.c     **** 	UINT i;
 638:.\sd/ff.c     **** 
 639:.\sd/ff.c     **** 	for (i = 0; i < _FS_SHARE && Files[i].fs; i++) ;
 326              		.loc 1 639 0
 327 0000 0020     		mov	r0, #0
 328 0002 084A     		ldr	r2, .L35
 329 0004 00E0     		b	.L32
 330              	.LVL44:
 331              	.L34:
 332              		.loc 1 639 0 is_stmt 0 discriminator 1
 333 0006 0130     		add	r0, r0, #1
 334              	.LVL45:
 335              	.L32:
 336 0008 0228     		cmp	r0, #2
 337 000a 05D8     		bhi	.L33
 338              		.loc 1 639 0 discriminator 2
 339 000c 4300     		lsl	r3, r0, #1
 340 000e 1B18     		add	r3, r3, r0
 341 0010 9B00     		lsl	r3, r3, #2
 342 0012 9B58     		ldr	r3, [r3, r2]
 343 0014 002B     		cmp	r3, #0
 344 0016 F6D1     		bne	.L34
 345              	.L33:
 640:.\sd/ff.c     **** 	return (i == _FS_SHARE) ? 0 : 1;
 346              		.loc 1 640 0 is_stmt 1
 347 0018 0338     		sub	r0, r0, #3
 348              	.LVL46:
 349 001a 431E     		sub	r3, r0, #1
 350 001c 9841     		sbc	r0, r0, r3
 351              	.LVL47:
 352 001e C0B2     		uxtb	r0, r0
 641:.\sd/ff.c     **** }
 353              		.loc 1 641 0
 354              		@ sp needed
 355 0020 7047     		bx	lr
 356              	.L36:
 357 0022 C046     		.align	2
 358              	.L35:
 359 0024 00000000 		.word	.LANCHOR0
 360              		.cfi_endproc
 361              	.LFE5:
 362              		.size	enq_lock, .-enq_lock
 363              		.section	.text.inc_lock,"ax",%progbits
 364              		.align	2
 365              		.code	16
 366              		.thumb_func
 367              		.type	inc_lock, %function
 368              	inc_lock:
 369              	.LFB6:
 642:.\sd/ff.c     **** 
 643:.\sd/ff.c     **** 
 644:.\sd/ff.c     **** static
 645:.\sd/ff.c     **** UINT inc_lock (	/* Increment file open counter and returns its index (0:int error) */
 646:.\sd/ff.c     **** 	DIR* dj,	/* Directory object pointing the file to register or increment */
 647:.\sd/ff.c     **** 	int acc		/* Desired access mode (0:Read, !0:Write) */
ARM GAS  C:\Users\Jarik\AppData\Local\Temp\ccOwmDxA.s 			page 19


 648:.\sd/ff.c     **** )
 649:.\sd/ff.c     **** {
 370              		.loc 1 649 0
 371              		.cfi_startproc
 372              	.LVL48:
 373 0000 70B5     		push	{r4, r5, r6, lr}
 374              		.cfi_def_cfa_offset 16
 375              		.cfi_offset 4, -16
 376              		.cfi_offset 5, -12
 377              		.cfi_offset 6, -8
 378              		.cfi_offset 14, -4
 379              	.LVL49:
 650:.\sd/ff.c     **** 	UINT i;
 651:.\sd/ff.c     **** 
 652:.\sd/ff.c     **** 
 653:.\sd/ff.c     **** 	for (i = 0; i < _FS_SHARE; i++) {	/* Find the file */
 380              		.loc 1 653 0
 381 0002 0023     		mov	r3, #0
 654:.\sd/ff.c     **** 		if (Files[i].fs == dj->fs &&
 382              		.loc 1 654 0
 383 0004 2F4C     		ldr	r4, .L53
 653:.\sd/ff.c     **** 	for (i = 0; i < _FS_SHARE; i++) {	/* Find the file */
 384              		.loc 1 653 0
 385 0006 18E0     		b	.L38
 386              	.LVL50:
 387              	.L41:
 388              		.loc 1 654 0
 389 0008 5A00     		lsl	r2, r3, #1
 390 000a D218     		add	r2, r2, r3
 391 000c 9200     		lsl	r2, r2, #2
 392 000e 1259     		ldr	r2, [r2, r4]
 393 0010 0568     		ldr	r5, [r0]
 394 0012 AA42     		cmp	r2, r5
 395 0014 10D1     		bne	.L39
 655:.\sd/ff.c     **** 			Files[i].clu == dj->sclust &&
 396              		.loc 1 655 0 discriminator 1
 397 0016 5A00     		lsl	r2, r3, #1
 398 0018 D218     		add	r2, r2, r3
 399 001a 9200     		lsl	r2, r2, #2
 400 001c 294E     		ldr	r6, .L53
 401 001e B218     		add	r2, r6, r2
 402 0020 5268     		ldr	r2, [r2, #4]
 654:.\sd/ff.c     **** 		if (Files[i].fs == dj->fs &&
 403              		.loc 1 654 0 discriminator 1
 404 0022 8568     		ldr	r5, [r0, #8]
 405 0024 AA42     		cmp	r2, r5
 406 0026 07D1     		bne	.L39
 656:.\sd/ff.c     **** 			Files[i].idx == dj->index) break;
 407              		.loc 1 656 0
 408 0028 5A00     		lsl	r2, r3, #1
 409 002a D218     		add	r2, r2, r3
 410 002c 9200     		lsl	r2, r2, #2
 411 002e B218     		add	r2, r6, r2
 412 0030 1589     		ldrh	r5, [r2, #8]
 413 0032 C288     		ldrh	r2, [r0, #6]
 655:.\sd/ff.c     **** 			Files[i].clu == dj->sclust &&
 414              		.loc 1 655 0
ARM GAS  C:\Users\Jarik\AppData\Local\Temp\ccOwmDxA.s 			page 20


 415 0034 9542     		cmp	r5, r2
 416 0036 02D0     		beq	.L40
 417              	.L39:
 653:.\sd/ff.c     **** 	for (i = 0; i < _FS_SHARE; i++) {	/* Find the file */
 418              		.loc 1 653 0
 419 0038 0133     		add	r3, r3, #1
 420              	.LVL51:
 421              	.L38:
 653:.\sd/ff.c     **** 	for (i = 0; i < _FS_SHARE; i++) {	/* Find the file */
 422              		.loc 1 653 0 is_stmt 0 discriminator 1
 423 003a 022B     		cmp	r3, #2
 424 003c E4D9     		bls	.L41
 425              	.L40:
 657:.\sd/ff.c     **** 	}
 658:.\sd/ff.c     **** 
 659:.\sd/ff.c     **** 	if (i == _FS_SHARE) {				/* Not opened. Register it as new. */
 426              		.loc 1 659 0 is_stmt 1
 427 003e 032B     		cmp	r3, #3
 428 0040 1CD1     		bne	.L43
 429 0042 01E0     		b	.L49
 430              	.L45:
 660:.\sd/ff.c     **** 		for (i = 0; i < _FS_SHARE && Files[i].fs; i++) ;
 431              		.loc 1 660 0 discriminator 1
 432 0044 0133     		add	r3, r3, #1
 433              	.LVL52:
 434 0046 01E0     		b	.L42
 435              	.L49:
 436 0048 0023     		mov	r3, #0
 437              	.LVL53:
 438              		.loc 1 660 0 is_stmt 0
 439 004a 1E4C     		ldr	r4, .L53
 440              	.L42:
 441              	.LVL54:
 442              		.loc 1 660 0 discriminator 1
 443 004c 022B     		cmp	r3, #2
 444 004e 05D8     		bhi	.L44
 445              		.loc 1 660 0 discriminator 2
 446 0050 5A00     		lsl	r2, r3, #1
 447 0052 D218     		add	r2, r2, r3
 448 0054 9200     		lsl	r2, r2, #2
 449 0056 1259     		ldr	r2, [r2, r4]
 450 0058 002A     		cmp	r2, #0
 451 005a F3D1     		bne	.L45
 452              	.L44:
 661:.\sd/ff.c     **** 		if (i == _FS_SHARE) return 0;	/* No space to register (int err) */
 453              		.loc 1 661 0 is_stmt 1
 454 005c 032B     		cmp	r3, #3
 455 005e 2CD0     		beq	.L50
 662:.\sd/ff.c     **** 		Files[i].fs = dj->fs;
 456              		.loc 1 662 0
 457 0060 184D     		ldr	r5, .L53
 458 0062 5A00     		lsl	r2, r3, #1
 459 0064 D418     		add	r4, r2, r3
 460 0066 A400     		lsl	r4, r4, #2
 461 0068 0668     		ldr	r6, [r0]
 462 006a 6651     		str	r6, [r4, r5]
 663:.\sd/ff.c     **** 		Files[i].clu = dj->sclust;
ARM GAS  C:\Users\Jarik\AppData\Local\Temp\ccOwmDxA.s 			page 21


 463              		.loc 1 663 0
 464 006c 2A19     		add	r2, r5, r4
 465 006e 8468     		ldr	r4, [r0, #8]
 466 0070 5460     		str	r4, [r2, #4]
 664:.\sd/ff.c     **** 		Files[i].idx = dj->index;
 467              		.loc 1 664 0
 468 0072 C488     		ldrh	r4, [r0, #6]
 469 0074 101C     		mov	r0, r2
 470              	.LVL55:
 471 0076 1481     		strh	r4, [r2, #8]
 665:.\sd/ff.c     **** 		Files[i].ctr = 0;
 472              		.loc 1 665 0
 473 0078 0022     		mov	r2, #0
 474 007a 4281     		strh	r2, [r0, #10]
 475              	.L43:
 666:.\sd/ff.c     **** 	}
 667:.\sd/ff.c     **** 
 668:.\sd/ff.c     **** 	if (acc && Files[i].ctr) return 0;	/* Access violation (int err) */
 476              		.loc 1 668 0
 477 007c 0029     		cmp	r1, #0
 478 007e 07D0     		beq	.L47
 479              		.loc 1 668 0 is_stmt 0 discriminator 1
 480 0080 5A00     		lsl	r2, r3, #1
 481 0082 D218     		add	r2, r2, r3
 482 0084 9200     		lsl	r2, r2, #2
 483 0086 0F48     		ldr	r0, .L53
 484 0088 8218     		add	r2, r0, r2
 485 008a 5289     		ldrh	r2, [r2, #10]
 486 008c 002A     		cmp	r2, #0
 487 008e 16D1     		bne	.L51
 488              	.L47:
 669:.\sd/ff.c     **** 
 670:.\sd/ff.c     **** 	Files[i].ctr = acc ? 0x100 : Files[i].ctr + 1;	/* Set semaphore value */
 489              		.loc 1 670 0 is_stmt 1
 490 0090 0029     		cmp	r1, #0
 491 0092 08D1     		bne	.L52
 492              		.loc 1 670 0 is_stmt 0 discriminator 1
 493 0094 5A00     		lsl	r2, r3, #1
 494 0096 D218     		add	r2, r2, r3
 495 0098 9200     		lsl	r2, r2, #2
 496 009a 0A49     		ldr	r1, .L53
 497              	.LVL56:
 498 009c 8A18     		add	r2, r1, r2
 499 009e 5089     		ldrh	r0, [r2, #10]
 500 00a0 0130     		add	r0, r0, #1
 501 00a2 80B2     		uxth	r0, r0
 502 00a4 01E0     		b	.L48
 503              	.LVL57:
 504              	.L52:
 505              		.loc 1 670 0
 506 00a6 8020     		mov	r0, #128
 507 00a8 4000     		lsl	r0, r0, #1
 508              	.LVL58:
 509              	.L48:
 510              		.loc 1 670 0 discriminator 3
 511 00aa 5A00     		lsl	r2, r3, #1
 512 00ac D218     		add	r2, r2, r3
ARM GAS  C:\Users\Jarik\AppData\Local\Temp\ccOwmDxA.s 			page 22


 513 00ae 9200     		lsl	r2, r2, #2
 514 00b0 0449     		ldr	r1, .L53
 515 00b2 8A18     		add	r2, r1, r2
 516 00b4 5081     		strh	r0, [r2, #10]
 671:.\sd/ff.c     **** 
 672:.\sd/ff.c     **** 	return i + 1;
 517              		.loc 1 672 0 is_stmt 1 discriminator 3
 518 00b6 581C     		add	r0, r3, #1
 519 00b8 02E0     		b	.L46
 520              	.LVL59:
 521              	.L50:
 661:.\sd/ff.c     **** 		if (i == _FS_SHARE) return 0;	/* No space to register (int err) */
 522              		.loc 1 661 0
 523 00ba 0020     		mov	r0, #0
 524              	.LVL60:
 525 00bc 00E0     		b	.L46
 526              	.L51:
 668:.\sd/ff.c     **** 	if (acc && Files[i].ctr) return 0;	/* Access violation (int err) */
 527              		.loc 1 668 0
 528 00be 0020     		mov	r0, #0
 529              	.LVL61:
 530              	.L46:
 673:.\sd/ff.c     **** }
 531              		.loc 1 673 0
 532              		@ sp needed
 533 00c0 70BD     		pop	{r4, r5, r6, pc}
 534              	.L54:
 535 00c2 C046     		.align	2
 536              	.L53:
 537 00c4 00000000 		.word	.LANCHOR0
 538              		.cfi_endproc
 539              	.LFE6:
 540              		.size	inc_lock, .-inc_lock
 541              		.section	.text.dec_lock,"ax",%progbits
 542              		.align	2
 543              		.code	16
 544              		.thumb_func
 545              		.type	dec_lock, %function
 546              	dec_lock:
 547              	.LFB7:
 674:.\sd/ff.c     **** 
 675:.\sd/ff.c     **** 
 676:.\sd/ff.c     **** static
 677:.\sd/ff.c     **** FRESULT dec_lock (	/* Decrement file open counter */
 678:.\sd/ff.c     **** 	UINT i			/* Semaphore index */
 679:.\sd/ff.c     **** )
 680:.\sd/ff.c     **** {
 548              		.loc 1 680 0
 549              		.cfi_startproc
 550              	.LVL62:
 681:.\sd/ff.c     **** 	WORD n;
 682:.\sd/ff.c     **** 	FRESULT res;
 683:.\sd/ff.c     **** 
 684:.\sd/ff.c     **** 
 685:.\sd/ff.c     **** 	if (--i < _FS_SHARE) {
 551              		.loc 1 685 0
 552 0000 0138     		sub	r0, r0, #1
ARM GAS  C:\Users\Jarik\AppData\Local\Temp\ccOwmDxA.s 			page 23


 553              	.LVL63:
 554 0002 0228     		cmp	r0, #2
 555 0004 1DD8     		bhi	.L59
 686:.\sd/ff.c     **** 		n = Files[i].ctr;
 556              		.loc 1 686 0
 557 0006 4300     		lsl	r3, r0, #1
 558 0008 1B18     		add	r3, r3, r0
 559 000a 9B00     		lsl	r3, r3, #2
 560 000c 0F4A     		ldr	r2, .L62
 561 000e D318     		add	r3, r2, r3
 562 0010 5B89     		ldrh	r3, [r3, #10]
 563              	.LVL64:
 687:.\sd/ff.c     **** 		if (n == 0x100) n = 0;
 564              		.loc 1 687 0
 565 0012 8022     		mov	r2, #128
 566              	.LVL65:
 567 0014 5200     		lsl	r2, r2, #1
 568 0016 9342     		cmp	r3, r2
 569 0018 00D1     		bne	.L57
 570 001a 0023     		mov	r3, #0
 571              	.L57:
 572              	.LVL66:
 688:.\sd/ff.c     **** 		if (n) n--;
 573              		.loc 1 688 0
 574 001c 002B     		cmp	r3, #0
 575 001e 01D0     		beq	.L58
 576              		.loc 1 688 0 is_stmt 0 discriminator 1
 577 0020 013B     		sub	r3, r3, #1
 578              	.LVL67:
 579 0022 9BB2     		uxth	r3, r3
 580              	.LVL68:
 581              	.L58:
 689:.\sd/ff.c     **** 		Files[i].ctr = n;
 582              		.loc 1 689 0 is_stmt 1
 583 0024 4200     		lsl	r2, r0, #1
 584 0026 1218     		add	r2, r2, r0
 585 0028 9200     		lsl	r2, r2, #2
 586 002a 0849     		ldr	r1, .L62
 587 002c 8A18     		add	r2, r1, r2
 588 002e 5381     		strh	r3, [r2, #10]
 690:.\sd/ff.c     **** 		if (!n) Files[i].fs = 0;
 589              		.loc 1 690 0
 590 0030 002B     		cmp	r3, #0
 591 0032 08D1     		bne	.L61
 592              		.loc 1 690 0 is_stmt 0 discriminator 1
 593 0034 4300     		lsl	r3, r0, #1
 594              	.LVL69:
 595 0036 1818     		add	r0, r3, r0
 596              	.LVL70:
 597 0038 8000     		lsl	r0, r0, #2
 598 003a 0022     		mov	r2, #0
 599 003c 4250     		str	r2, [r0, r1]
 691:.\sd/ff.c     **** 		res = FR_OK;
 600              		.loc 1 691 0 is_stmt 1 discriminator 1
 601 003e 0020     		mov	r0, #0
 602 0040 02E0     		b	.L56
 603              	.LVL71:
ARM GAS  C:\Users\Jarik\AppData\Local\Temp\ccOwmDxA.s 			page 24


 604              	.L59:
 692:.\sd/ff.c     **** 	} else {
 693:.\sd/ff.c     **** 		res = FR_INT_ERR;
 605              		.loc 1 693 0
 606 0042 0220     		mov	r0, #2
 607              	.LVL72:
 608 0044 00E0     		b	.L56
 609              	.LVL73:
 610              	.L61:
 691:.\sd/ff.c     **** 		res = FR_OK;
 611              		.loc 1 691 0
 612 0046 0020     		mov	r0, #0
 613              	.LVL74:
 614              	.L56:
 694:.\sd/ff.c     **** 	}
 695:.\sd/ff.c     **** 	return res;
 696:.\sd/ff.c     **** }
 615              		.loc 1 696 0
 616              		@ sp needed
 617 0048 7047     		bx	lr
 618              	.L63:
 619 004a C046     		.align	2
 620              	.L62:
 621 004c 00000000 		.word	.LANCHOR0
 622              		.cfi_endproc
 623              	.LFE7:
 624              		.size	dec_lock, .-dec_lock
 625              		.section	.text.clear_lock,"ax",%progbits
 626              		.align	2
 627              		.code	16
 628              		.thumb_func
 629              		.type	clear_lock, %function
 630              	clear_lock:
 631              	.LFB8:
 697:.\sd/ff.c     **** 
 698:.\sd/ff.c     **** 
 699:.\sd/ff.c     **** static
 700:.\sd/ff.c     **** void clear_lock (	/* Clear lock entries of the volume */
 701:.\sd/ff.c     **** 	FATFS *fs
 702:.\sd/ff.c     **** )
 703:.\sd/ff.c     **** {
 632              		.loc 1 703 0
 633              		.cfi_startproc
 634              	.LVL75:
 635 0000 30B5     		push	{r4, r5, lr}
 636              		.cfi_def_cfa_offset 12
 637              		.cfi_offset 4, -12
 638              		.cfi_offset 5, -8
 639              		.cfi_offset 14, -4
 640              	.LVL76:
 704:.\sd/ff.c     **** 	UINT i;
 705:.\sd/ff.c     **** 
 706:.\sd/ff.c     **** 	for (i = 0; i < _FS_SHARE; i++) {
 641              		.loc 1 706 0
 642 0002 0023     		mov	r3, #0
 707:.\sd/ff.c     **** 		if (Files[i].fs == fs) Files[i].fs = 0;
 643              		.loc 1 707 0
ARM GAS  C:\Users\Jarik\AppData\Local\Temp\ccOwmDxA.s 			page 25


 644 0004 0849     		ldr	r1, .L68
 645 0006 0024     		mov	r4, #0
 706:.\sd/ff.c     **** 	for (i = 0; i < _FS_SHARE; i++) {
 646              		.loc 1 706 0
 647 0008 0BE0     		b	.L65
 648              	.LVL77:
 649              	.L67:
 650              		.loc 1 707 0
 651 000a 5A00     		lsl	r2, r3, #1
 652 000c D218     		add	r2, r2, r3
 653 000e 9200     		lsl	r2, r2, #2
 654 0010 5258     		ldr	r2, [r2, r1]
 655 0012 8242     		cmp	r2, r0
 656 0014 04D1     		bne	.L66
 657              		.loc 1 707 0 is_stmt 0 discriminator 1
 658 0016 5A00     		lsl	r2, r3, #1
 659 0018 D218     		add	r2, r2, r3
 660 001a 9200     		lsl	r2, r2, #2
 661 001c 024D     		ldr	r5, .L68
 662 001e 5451     		str	r4, [r2, r5]
 663              	.L66:
 706:.\sd/ff.c     **** 	for (i = 0; i < _FS_SHARE; i++) {
 664              		.loc 1 706 0 is_stmt 1
 665 0020 0133     		add	r3, r3, #1
 666              	.LVL78:
 667              	.L65:
 706:.\sd/ff.c     **** 	for (i = 0; i < _FS_SHARE; i++) {
 668              		.loc 1 706 0 is_stmt 0 discriminator 1
 669 0022 022B     		cmp	r3, #2
 670 0024 F1D9     		bls	.L67
 708:.\sd/ff.c     **** 	}
 709:.\sd/ff.c     **** }
 671              		.loc 1 709 0 is_stmt 1
 672              		@ sp needed
 673 0026 30BD     		pop	{r4, r5, pc}
 674              	.L69:
 675              		.align	2
 676              	.L68:
 677 0028 00000000 		.word	.LANCHOR0
 678              		.cfi_endproc
 679              	.LFE8:
 680              		.size	clear_lock, .-clear_lock
 681              		.section	.text.create_name,"ax",%progbits
 682              		.align	2
 683              		.code	16
 684              		.thumb_func
 685              		.type	create_name, %function
 686              	create_name:
 687              	.LFB22:
 710:.\sd/ff.c     **** #endif
 711:.\sd/ff.c     **** 
 712:.\sd/ff.c     **** 
 713:.\sd/ff.c     **** 
 714:.\sd/ff.c     **** /*-----------------------------------------------------------------------*/
 715:.\sd/ff.c     **** /* Change window offset                                                  */
 716:.\sd/ff.c     **** /*-----------------------------------------------------------------------*/
 717:.\sd/ff.c     **** 
ARM GAS  C:\Users\Jarik\AppData\Local\Temp\ccOwmDxA.s 			page 26


 718:.\sd/ff.c     **** static
 719:.\sd/ff.c     **** FRESULT move_window (
 720:.\sd/ff.c     **** 	FATFS *fs,		/* File system object */
 721:.\sd/ff.c     **** 	DWORD sector	/* Sector number to make appearance in the fs->win[] */
 722:.\sd/ff.c     **** )					/* Move to zero only writes back dirty window */
 723:.\sd/ff.c     **** {
 724:.\sd/ff.c     **** 	DWORD wsect;
 725:.\sd/ff.c     **** 
 726:.\sd/ff.c     **** 
 727:.\sd/ff.c     **** 	wsect = fs->winsect;
 728:.\sd/ff.c     **** 	if (wsect != sector) {	/* Changed current window */
 729:.\sd/ff.c     **** #if !_FS_READONLY
 730:.\sd/ff.c     **** 		if (fs->wflag) {	/* Write back dirty window if needed */
 731:.\sd/ff.c     **** 			if (disk_write(fs->drv, fs->win, wsect, 1) != RES_OK)
 732:.\sd/ff.c     **** 				return FR_DISK_ERR;
 733:.\sd/ff.c     **** 			fs->wflag = 0;
 734:.\sd/ff.c     **** 			if (wsect < (fs->fatbase + fs->fsize)) {	/* In FAT area */
 735:.\sd/ff.c     **** 				BYTE nf;
 736:.\sd/ff.c     **** 				for (nf = fs->n_fats; nf > 1; nf--) {	/* Reflect the change to all FAT copies */
 737:.\sd/ff.c     **** 					wsect += fs->fsize;
 738:.\sd/ff.c     **** 					disk_write(fs->drv, fs->win, wsect, 1);
 739:.\sd/ff.c     **** 				}
 740:.\sd/ff.c     **** 			}
 741:.\sd/ff.c     **** 		}
 742:.\sd/ff.c     **** #endif
 743:.\sd/ff.c     **** 		if (sector) {
 744:.\sd/ff.c     **** 			if (disk_read(fs->drv, fs->win, sector, 1) != RES_OK)
 745:.\sd/ff.c     **** 				return FR_DISK_ERR;
 746:.\sd/ff.c     **** 			fs->winsect = sector;
 747:.\sd/ff.c     **** 		}
 748:.\sd/ff.c     **** 	}
 749:.\sd/ff.c     **** 
 750:.\sd/ff.c     **** 	return FR_OK;
 751:.\sd/ff.c     **** }
 752:.\sd/ff.c     **** 
 753:.\sd/ff.c     **** 
 754:.\sd/ff.c     **** 
 755:.\sd/ff.c     **** 
 756:.\sd/ff.c     **** /*-----------------------------------------------------------------------*/
 757:.\sd/ff.c     **** /* Clean-up cached data                                                  */
 758:.\sd/ff.c     **** /*-----------------------------------------------------------------------*/
 759:.\sd/ff.c     **** #if !_FS_READONLY
 760:.\sd/ff.c     **** static
 761:.\sd/ff.c     **** FRESULT sync (	/* FR_OK: successful, FR_DISK_ERR: failed */
 762:.\sd/ff.c     **** 	FATFS *fs	/* File system object */
 763:.\sd/ff.c     **** )
 764:.\sd/ff.c     **** {
 765:.\sd/ff.c     **** 	FRESULT res;
 766:.\sd/ff.c     **** 
 767:.\sd/ff.c     **** 
 768:.\sd/ff.c     **** 	res = move_window(fs, 0);
 769:.\sd/ff.c     **** 	if (res == FR_OK) {
 770:.\sd/ff.c     **** 		/* Update FSInfo sector if needed */
 771:.\sd/ff.c     **** 		if (fs->fs_type == FS_FAT32 && fs->fsi_flag) {
 772:.\sd/ff.c     **** 			fs->winsect = 0;
 773:.\sd/ff.c     **** 			/* Create FSInfo structure */
 774:.\sd/ff.c     **** 			mem_set(fs->win, 0, 512);
ARM GAS  C:\Users\Jarik\AppData\Local\Temp\ccOwmDxA.s 			page 27


 775:.\sd/ff.c     **** 			ST_WORD(fs->win+BS_55AA, 0xAA55);
 776:.\sd/ff.c     **** 			ST_DWORD(fs->win+FSI_LeadSig, 0x41615252);
 777:.\sd/ff.c     **** 			ST_DWORD(fs->win+FSI_StrucSig, 0x61417272);
 778:.\sd/ff.c     **** 			ST_DWORD(fs->win+FSI_Free_Count, fs->free_clust);
 779:.\sd/ff.c     **** 			ST_DWORD(fs->win+FSI_Nxt_Free, fs->last_clust);
 780:.\sd/ff.c     **** 			/* Write it into the FSInfo sector */
 781:.\sd/ff.c     **** 			disk_write(fs->drv, fs->win, fs->fsi_sector, 1);
 782:.\sd/ff.c     **** 			fs->fsi_flag = 0;
 783:.\sd/ff.c     **** 		}
 784:.\sd/ff.c     **** 		/* Make sure that no pending write process in the physical drive */
 785:.\sd/ff.c     **** 		if (disk_ioctl(fs->drv, CTRL_SYNC, 0) != RES_OK)
 786:.\sd/ff.c     **** 			res = FR_DISK_ERR;
 787:.\sd/ff.c     **** 	}
 788:.\sd/ff.c     **** 
 789:.\sd/ff.c     **** 	return res;
 790:.\sd/ff.c     **** }
 791:.\sd/ff.c     **** #endif
 792:.\sd/ff.c     **** 
 793:.\sd/ff.c     **** 
 794:.\sd/ff.c     **** 
 795:.\sd/ff.c     **** 
 796:.\sd/ff.c     **** /*-----------------------------------------------------------------------*/
 797:.\sd/ff.c     **** /* Get sector# from cluster#                                             */
 798:.\sd/ff.c     **** /*-----------------------------------------------------------------------*/
 799:.\sd/ff.c     **** 
 800:.\sd/ff.c     **** 
 801:.\sd/ff.c     **** DWORD clust2sect (	/* !=0: Sector number, 0: Failed - invalid cluster# */
 802:.\sd/ff.c     **** 	FATFS *fs,		/* File system object */
 803:.\sd/ff.c     **** 	DWORD clst		/* Cluster# to be converted */
 804:.\sd/ff.c     **** )
 805:.\sd/ff.c     **** {
 806:.\sd/ff.c     **** 	clst -= 2;
 807:.\sd/ff.c     **** 	if (clst >= (fs->n_fatent - 2)) return 0;		/* Invalid cluster# */
 808:.\sd/ff.c     **** 	return clst * fs->csize + fs->database;
 809:.\sd/ff.c     **** }
 810:.\sd/ff.c     **** 
 811:.\sd/ff.c     **** 
 812:.\sd/ff.c     **** 
 813:.\sd/ff.c     **** 
 814:.\sd/ff.c     **** /*-----------------------------------------------------------------------*/
 815:.\sd/ff.c     **** /* FAT access - Read value of a FAT entry                                */
 816:.\sd/ff.c     **** /*-----------------------------------------------------------------------*/
 817:.\sd/ff.c     **** 
 818:.\sd/ff.c     **** 
 819:.\sd/ff.c     **** DWORD get_fat (	/* 0xFFFFFFFF:Disk error, 1:Internal error, Else:Cluster status */
 820:.\sd/ff.c     **** 	FATFS *fs,	/* File system object */
 821:.\sd/ff.c     **** 	DWORD clst	/* Cluster# to get the link information */
 822:.\sd/ff.c     **** )
 823:.\sd/ff.c     **** {
 824:.\sd/ff.c     **** 	UINT wc, bc;
 825:.\sd/ff.c     **** 	BYTE *p;
 826:.\sd/ff.c     **** 
 827:.\sd/ff.c     **** 
 828:.\sd/ff.c     **** 	if (clst < 2 || clst >= fs->n_fatent)	/* Chack range */
 829:.\sd/ff.c     **** 		return 1;
 830:.\sd/ff.c     **** 
 831:.\sd/ff.c     **** 	switch (fs->fs_type) {
ARM GAS  C:\Users\Jarik\AppData\Local\Temp\ccOwmDxA.s 			page 28


 832:.\sd/ff.c     **** 	case FS_FAT12 :
 833:.\sd/ff.c     **** 		bc = (UINT)clst; bc += bc / 2;
 834:.\sd/ff.c     **** 		if (move_window(fs, fs->fatbase + (bc / SS(fs)))) break;
 835:.\sd/ff.c     **** 		wc = fs->win[bc % SS(fs)]; bc++;
 836:.\sd/ff.c     **** 		if (move_window(fs, fs->fatbase + (bc / SS(fs)))) break;
 837:.\sd/ff.c     **** 		wc |= fs->win[bc % SS(fs)] << 8;
 838:.\sd/ff.c     **** 		return (clst & 1) ? (wc >> 4) : (wc & 0xFFF);
 839:.\sd/ff.c     **** 
 840:.\sd/ff.c     **** 	case FS_FAT16 :
 841:.\sd/ff.c     **** 		if (move_window(fs, fs->fatbase + (clst / (SS(fs) / 2)))) break;
 842:.\sd/ff.c     **** 		p = &fs->win[clst * 2 % SS(fs)];
 843:.\sd/ff.c     **** 		return LD_WORD(p);
 844:.\sd/ff.c     **** 
 845:.\sd/ff.c     **** 	case FS_FAT32 :
 846:.\sd/ff.c     **** 		if (move_window(fs, fs->fatbase + (clst / (SS(fs) / 4)))) break;
 847:.\sd/ff.c     **** 		p = &fs->win[clst * 4 % SS(fs)];
 848:.\sd/ff.c     **** 		return LD_DWORD(p) & 0x0FFFFFFF;
 849:.\sd/ff.c     **** 	}
 850:.\sd/ff.c     **** 
 851:.\sd/ff.c     **** 	return 0xFFFFFFFF;	/* An error occurred at the disk I/O layer */
 852:.\sd/ff.c     **** }
 853:.\sd/ff.c     **** 
 854:.\sd/ff.c     **** 
 855:.\sd/ff.c     **** 
 856:.\sd/ff.c     **** 
 857:.\sd/ff.c     **** /*-----------------------------------------------------------------------*/
 858:.\sd/ff.c     **** /* FAT access - Change value of a FAT entry                              */
 859:.\sd/ff.c     **** /*-----------------------------------------------------------------------*/
 860:.\sd/ff.c     **** #if !_FS_READONLY
 861:.\sd/ff.c     **** 
 862:.\sd/ff.c     **** FRESULT put_fat (
 863:.\sd/ff.c     **** 	FATFS *fs,	/* File system object */
 864:.\sd/ff.c     **** 	DWORD clst,	/* Cluster# to be changed in range of 2 to fs->n_fatent - 1 */
 865:.\sd/ff.c     **** 	DWORD val	/* New value to mark the cluster */
 866:.\sd/ff.c     **** )
 867:.\sd/ff.c     **** {
 868:.\sd/ff.c     **** 	UINT bc;
 869:.\sd/ff.c     **** 	BYTE *p;
 870:.\sd/ff.c     **** 	FRESULT res;
 871:.\sd/ff.c     **** 
 872:.\sd/ff.c     **** 
 873:.\sd/ff.c     **** 	if (clst < 2 || clst >= fs->n_fatent) {	/* Check range */
 874:.\sd/ff.c     **** 		res = FR_INT_ERR;
 875:.\sd/ff.c     **** 
 876:.\sd/ff.c     **** 	} else {
 877:.\sd/ff.c     **** 		switch (fs->fs_type) {
 878:.\sd/ff.c     **** 		case FS_FAT12 :
 879:.\sd/ff.c     **** 			bc = clst; bc += bc / 2;
 880:.\sd/ff.c     **** 			res = move_window(fs, fs->fatbase + (bc / SS(fs)));
 881:.\sd/ff.c     **** 			if (res != FR_OK) break;
 882:.\sd/ff.c     **** 			p = &fs->win[bc % SS(fs)];
 883:.\sd/ff.c     **** 			*p = (clst & 1) ? ((*p & 0x0F) | ((BYTE)val << 4)) : (BYTE)val;
 884:.\sd/ff.c     **** 			bc++;
 885:.\sd/ff.c     **** 			fs->wflag = 1;
 886:.\sd/ff.c     **** 			res = move_window(fs, fs->fatbase + (bc / SS(fs)));
 887:.\sd/ff.c     **** 			if (res != FR_OK) break;
 888:.\sd/ff.c     **** 			p = &fs->win[bc % SS(fs)];
ARM GAS  C:\Users\Jarik\AppData\Local\Temp\ccOwmDxA.s 			page 29


 889:.\sd/ff.c     **** 			*p = (clst & 1) ? (BYTE)(val >> 4) : ((*p & 0xF0) | ((BYTE)(val >> 8) & 0x0F));
 890:.\sd/ff.c     **** 			break;
 891:.\sd/ff.c     **** 
 892:.\sd/ff.c     **** 		case FS_FAT16 :
 893:.\sd/ff.c     **** 			res = move_window(fs, fs->fatbase + (clst / (SS(fs) / 2)));
 894:.\sd/ff.c     **** 			if (res != FR_OK) break;
 895:.\sd/ff.c     **** 			p = &fs->win[clst * 2 % SS(fs)];
 896:.\sd/ff.c     **** 			ST_WORD(p, (WORD)val);
 897:.\sd/ff.c     **** 			break;
 898:.\sd/ff.c     **** 
 899:.\sd/ff.c     **** 		case FS_FAT32 :
 900:.\sd/ff.c     **** 			res = move_window(fs, fs->fatbase + (clst / (SS(fs) / 4)));
 901:.\sd/ff.c     **** 			if (res != FR_OK) break;
 902:.\sd/ff.c     **** 			p = &fs->win[clst * 4 % SS(fs)];
 903:.\sd/ff.c     **** 			val |= LD_DWORD(p) & 0xF0000000;
 904:.\sd/ff.c     **** 			ST_DWORD(p, val);
 905:.\sd/ff.c     **** 			break;
 906:.\sd/ff.c     **** 
 907:.\sd/ff.c     **** 		default :
 908:.\sd/ff.c     **** 			res = FR_INT_ERR;
 909:.\sd/ff.c     **** 		}
 910:.\sd/ff.c     **** 		fs->wflag = 1;
 911:.\sd/ff.c     **** 	}
 912:.\sd/ff.c     **** 
 913:.\sd/ff.c     **** 	return res;
 914:.\sd/ff.c     **** }
 915:.\sd/ff.c     **** #endif /* !_FS_READONLY */
 916:.\sd/ff.c     **** 
 917:.\sd/ff.c     **** 
 918:.\sd/ff.c     **** 
 919:.\sd/ff.c     **** 
 920:.\sd/ff.c     **** /*-----------------------------------------------------------------------*/
 921:.\sd/ff.c     **** /* FAT handling - Remove a cluster chain                                 */
 922:.\sd/ff.c     **** /*-----------------------------------------------------------------------*/
 923:.\sd/ff.c     **** #if !_FS_READONLY
 924:.\sd/ff.c     **** static
 925:.\sd/ff.c     **** FRESULT remove_chain (
 926:.\sd/ff.c     **** 	FATFS *fs,			/* File system object */
 927:.\sd/ff.c     **** 	DWORD clst			/* Cluster# to remove a chain from */
 928:.\sd/ff.c     **** )
 929:.\sd/ff.c     **** {
 930:.\sd/ff.c     **** 	FRESULT res;
 931:.\sd/ff.c     **** 	DWORD nxt;
 932:.\sd/ff.c     **** #if _USE_ERASE
 933:.\sd/ff.c     **** 	DWORD scl = clst, ecl = clst, resion[2];
 934:.\sd/ff.c     **** #endif
 935:.\sd/ff.c     **** 
 936:.\sd/ff.c     **** 	if (clst < 2 || clst >= fs->n_fatent) {	/* Check range */
 937:.\sd/ff.c     **** 		res = FR_INT_ERR;
 938:.\sd/ff.c     **** 
 939:.\sd/ff.c     **** 	} else {
 940:.\sd/ff.c     **** 		res = FR_OK;
 941:.\sd/ff.c     **** 		while (clst < fs->n_fatent) {			/* Not a last link? */
 942:.\sd/ff.c     **** 			nxt = get_fat(fs, clst);			/* Get cluster status */
 943:.\sd/ff.c     **** 			if (nxt == 0) break;				/* Empty cluster? */
 944:.\sd/ff.c     **** 			if (nxt == 1) { res = FR_INT_ERR; break; }	/* Internal error? */
 945:.\sd/ff.c     **** 			if (nxt == 0xFFFFFFFF) { res = FR_DISK_ERR; break; }	/* Disk error? */
ARM GAS  C:\Users\Jarik\AppData\Local\Temp\ccOwmDxA.s 			page 30


 946:.\sd/ff.c     **** 			res = put_fat(fs, clst, 0);			/* Mark the cluster "empty" */
 947:.\sd/ff.c     **** 			if (res != FR_OK) break;
 948:.\sd/ff.c     **** 			if (fs->free_clust != 0xFFFFFFFF) {	/* Update FSInfo */
 949:.\sd/ff.c     **** 				fs->free_clust++;
 950:.\sd/ff.c     **** 				fs->fsi_flag = 1;
 951:.\sd/ff.c     **** 			}
 952:.\sd/ff.c     **** #if _USE_ERASE
 953:.\sd/ff.c     **** 			if (ecl + 1 == nxt) {	/* Next cluster is contiguous */
 954:.\sd/ff.c     **** 				ecl = nxt;
 955:.\sd/ff.c     **** 			} else {				/* End of contiguous clusters */ 
 956:.\sd/ff.c     **** 				resion[0] = clust2sect(fs, scl);					/* Start sector */
 957:.\sd/ff.c     **** 				resion[1] = clust2sect(fs, ecl) + fs->csize - 1;	/* End sector */
 958:.\sd/ff.c     **** 				disk_ioctl(fs->drv, CTRL_ERASE_SECTOR, resion);		/* Erase the block */
 959:.\sd/ff.c     **** 				scl = ecl = nxt;
 960:.\sd/ff.c     **** 			}
 961:.\sd/ff.c     **** #endif
 962:.\sd/ff.c     **** 			clst = nxt;	/* Next cluster */
 963:.\sd/ff.c     **** 		}
 964:.\sd/ff.c     **** 	}
 965:.\sd/ff.c     **** 
 966:.\sd/ff.c     **** 	return res;
 967:.\sd/ff.c     **** }
 968:.\sd/ff.c     **** #endif
 969:.\sd/ff.c     **** 
 970:.\sd/ff.c     **** 
 971:.\sd/ff.c     **** 
 972:.\sd/ff.c     **** 
 973:.\sd/ff.c     **** /*-----------------------------------------------------------------------*/
 974:.\sd/ff.c     **** /* FAT handling - Stretch or Create a cluster chain                      */
 975:.\sd/ff.c     **** /*-----------------------------------------------------------------------*/
 976:.\sd/ff.c     **** #if !_FS_READONLY
 977:.\sd/ff.c     **** static
 978:.\sd/ff.c     **** DWORD create_chain (	/* 0:No free cluster, 1:Internal error, 0xFFFFFFFF:Disk error, >=2:New cluster
 979:.\sd/ff.c     **** 	FATFS *fs,			/* File system object */
 980:.\sd/ff.c     **** 	DWORD clst			/* Cluster# to stretch. 0 means create a new chain. */
 981:.\sd/ff.c     **** )
 982:.\sd/ff.c     **** {
 983:.\sd/ff.c     **** 	DWORD cs, ncl, scl;
 984:.\sd/ff.c     **** 	FRESULT res;
 985:.\sd/ff.c     **** 
 986:.\sd/ff.c     **** 
 987:.\sd/ff.c     **** 	if (clst == 0) {		/* Create a new chain */
 988:.\sd/ff.c     **** 		scl = fs->last_clust;			/* Get suggested start point */
 989:.\sd/ff.c     **** 		if (!scl || scl >= fs->n_fatent) scl = 1;
 990:.\sd/ff.c     **** 	}
 991:.\sd/ff.c     **** 	else {					/* Stretch the current chain */
 992:.\sd/ff.c     **** 		cs = get_fat(fs, clst);			/* Check the cluster status */
 993:.\sd/ff.c     **** 		if (cs < 2) return 1;			/* It is an invalid cluster */
 994:.\sd/ff.c     **** 		if (cs < fs->n_fatent) return cs;	/* It is already followed by next cluster */
 995:.\sd/ff.c     **** 		scl = clst;
 996:.\sd/ff.c     **** 	}
 997:.\sd/ff.c     **** 
 998:.\sd/ff.c     **** 	ncl = scl;				/* Start cluster */
 999:.\sd/ff.c     **** 	for (;;) {
1000:.\sd/ff.c     **** 		ncl++;							/* Next cluster */
1001:.\sd/ff.c     **** 		if (ncl >= fs->n_fatent) {		/* Wrap around */
1002:.\sd/ff.c     **** 			ncl = 2;
ARM GAS  C:\Users\Jarik\AppData\Local\Temp\ccOwmDxA.s 			page 31


1003:.\sd/ff.c     **** 			if (ncl > scl) return 0;	/* No free cluster */
1004:.\sd/ff.c     **** 		}
1005:.\sd/ff.c     **** 		cs = get_fat(fs, ncl);			/* Get the cluster status */
1006:.\sd/ff.c     **** 		if (cs == 0) break;				/* Found a free cluster */
1007:.\sd/ff.c     **** 		if (cs == 0xFFFFFFFF || cs == 1)/* An error occurred */
1008:.\sd/ff.c     **** 			return cs;
1009:.\sd/ff.c     **** 		if (ncl == scl) return 0;		/* No free cluster */
1010:.\sd/ff.c     **** 	}
1011:.\sd/ff.c     **** 
1012:.\sd/ff.c     **** 	res = put_fat(fs, ncl, 0x0FFFFFFF);	/* Mark the new cluster "last link" */
1013:.\sd/ff.c     **** 	if (res == FR_OK && clst != 0) {
1014:.\sd/ff.c     **** 		res = put_fat(fs, clst, ncl);	/* Link it to the previous one if needed */
1015:.\sd/ff.c     **** 	}
1016:.\sd/ff.c     **** 	if (res == FR_OK) {
1017:.\sd/ff.c     **** 		fs->last_clust = ncl;			/* Update FSINFO */
1018:.\sd/ff.c     **** 		if (fs->free_clust != 0xFFFFFFFF) {
1019:.\sd/ff.c     **** 			fs->free_clust--;
1020:.\sd/ff.c     **** 			fs->fsi_flag = 1;
1021:.\sd/ff.c     **** 		}
1022:.\sd/ff.c     **** 	} else {
1023:.\sd/ff.c     **** 		ncl = (res == FR_DISK_ERR) ? 0xFFFFFFFF : 1;
1024:.\sd/ff.c     **** 	}
1025:.\sd/ff.c     **** 
1026:.\sd/ff.c     **** 	return ncl;		/* Return new cluster number or error code */
1027:.\sd/ff.c     **** }
1028:.\sd/ff.c     **** #endif /* !_FS_READONLY */
1029:.\sd/ff.c     **** 
1030:.\sd/ff.c     **** 
1031:.\sd/ff.c     **** 
1032:.\sd/ff.c     **** /*-----------------------------------------------------------------------*/
1033:.\sd/ff.c     **** /* FAT handling - Convert offset into cluster with link map table        */
1034:.\sd/ff.c     **** /*-----------------------------------------------------------------------*/
1035:.\sd/ff.c     **** 
1036:.\sd/ff.c     **** #if _USE_FASTSEEK
1037:.\sd/ff.c     **** static
1038:.\sd/ff.c     **** DWORD clmt_clust (	/* <2:Error, >=2:Cluster number */
1039:.\sd/ff.c     **** 	FIL* fp,		/* Pointer to the file object */
1040:.\sd/ff.c     **** 	DWORD ofs		/* File offset to be converted to cluster# */
1041:.\sd/ff.c     **** )
1042:.\sd/ff.c     **** {
1043:.\sd/ff.c     **** 	DWORD cl, ncl, *tbl;
1044:.\sd/ff.c     **** 
1045:.\sd/ff.c     **** 
1046:.\sd/ff.c     **** 	tbl = fp->cltbl + 1;	/* Top of CLMT */
1047:.\sd/ff.c     **** 	cl = ofs / SS(fp->fs) / fp->fs->csize;	/* Cluster order from top of the file */
1048:.\sd/ff.c     **** 	for (;;) {
1049:.\sd/ff.c     **** 		ncl = *tbl++;			/* Number of cluters in the fragment */
1050:.\sd/ff.c     **** 		if (!ncl) return 0;		/* End of table? (error) */
1051:.\sd/ff.c     **** 		if (cl < ncl) break;	/* In this fragment? */
1052:.\sd/ff.c     **** 		cl -= ncl; tbl++;		/* Next fragment */
1053:.\sd/ff.c     **** 	}
1054:.\sd/ff.c     **** 	return cl + *tbl;	/* Return the cluster number */
1055:.\sd/ff.c     **** }
1056:.\sd/ff.c     **** #endif	/* _USE_FASTSEEK */
1057:.\sd/ff.c     **** 
1058:.\sd/ff.c     **** 
1059:.\sd/ff.c     **** 
ARM GAS  C:\Users\Jarik\AppData\Local\Temp\ccOwmDxA.s 			page 32


1060:.\sd/ff.c     **** /*-----------------------------------------------------------------------*/
1061:.\sd/ff.c     **** /* Directory handling - Set directory index                              */
1062:.\sd/ff.c     **** /*-----------------------------------------------------------------------*/
1063:.\sd/ff.c     **** 
1064:.\sd/ff.c     **** static
1065:.\sd/ff.c     **** FRESULT dir_sdi (
1066:.\sd/ff.c     **** 	DIR *dj,		/* Pointer to directory object */
1067:.\sd/ff.c     **** 	WORD idx		/* Directory index number */
1068:.\sd/ff.c     **** )
1069:.\sd/ff.c     **** {
1070:.\sd/ff.c     **** 	DWORD clst;
1071:.\sd/ff.c     **** 	WORD ic;
1072:.\sd/ff.c     **** 
1073:.\sd/ff.c     **** 
1074:.\sd/ff.c     **** 	dj->index = idx;
1075:.\sd/ff.c     **** 	clst = dj->sclust;
1076:.\sd/ff.c     **** 	if (clst == 1 || clst >= dj->fs->n_fatent)	/* Check start cluster range */
1077:.\sd/ff.c     **** 		return FR_INT_ERR;
1078:.\sd/ff.c     **** 	if (!clst && dj->fs->fs_type == FS_FAT32)	/* Replace cluster# 0 with root cluster# if in FAT32 */
1079:.\sd/ff.c     **** 		clst = dj->fs->dirbase;
1080:.\sd/ff.c     **** 
1081:.\sd/ff.c     **** 	if (clst == 0) {	/* Static table (root-dir in FAT12/16) */
1082:.\sd/ff.c     **** 		dj->clust = clst;
1083:.\sd/ff.c     **** 		if (idx >= dj->fs->n_rootdir)		/* Index is out of range */
1084:.\sd/ff.c     **** 			return FR_INT_ERR;
1085:.\sd/ff.c     **** 		dj->sect = dj->fs->dirbase + idx / (SS(dj->fs) / SZ_DIR);	/* Sector# */
1086:.\sd/ff.c     **** 	}
1087:.\sd/ff.c     **** 	else {				/* Dynamic table (sub-dirs or root-dir in FAT32) */
1088:.\sd/ff.c     **** 		ic = SS(dj->fs) / SZ_DIR * dj->fs->csize;	/* Entries per cluster */
1089:.\sd/ff.c     **** 		while (idx >= ic) {	/* Follow cluster chain */
1090:.\sd/ff.c     **** 			clst = get_fat(dj->fs, clst);				/* Get next cluster */
1091:.\sd/ff.c     **** 			if (clst == 0xFFFFFFFF) return FR_DISK_ERR;	/* Disk error */
1092:.\sd/ff.c     **** 			if (clst < 2 || clst >= dj->fs->n_fatent)	/* Reached to end of table or int error */
1093:.\sd/ff.c     **** 				return FR_INT_ERR;
1094:.\sd/ff.c     **** 			idx -= ic;
1095:.\sd/ff.c     **** 		}
1096:.\sd/ff.c     **** 		dj->clust = clst;
1097:.\sd/ff.c     **** 		dj->sect = clust2sect(dj->fs, clst) + idx / (SS(dj->fs) / SZ_DIR);	/* Sector# */
1098:.\sd/ff.c     **** 	}
1099:.\sd/ff.c     **** 
1100:.\sd/ff.c     **** 	dj->dir = dj->fs->win + (idx % (SS(dj->fs) / SZ_DIR)) * SZ_DIR;	/* Ptr to the entry in the sector 
1101:.\sd/ff.c     **** 
1102:.\sd/ff.c     **** 	return FR_OK;	/* Seek succeeded */
1103:.\sd/ff.c     **** }
1104:.\sd/ff.c     **** 
1105:.\sd/ff.c     **** 
1106:.\sd/ff.c     **** 
1107:.\sd/ff.c     **** 
1108:.\sd/ff.c     **** /*-----------------------------------------------------------------------*/
1109:.\sd/ff.c     **** /* Directory handling - Move directory index next                        */
1110:.\sd/ff.c     **** /*-----------------------------------------------------------------------*/
1111:.\sd/ff.c     **** 
1112:.\sd/ff.c     **** static
1113:.\sd/ff.c     **** FRESULT dir_next (	/* FR_OK:Succeeded, FR_NO_FILE:End of table, FR_DENIED:EOT and could not stretch
1114:.\sd/ff.c     **** 	DIR *dj,		/* Pointer to directory object */
1115:.\sd/ff.c     **** 	int stretch		/* 0: Do not stretch table, 1: Stretch table if needed */
1116:.\sd/ff.c     **** )
ARM GAS  C:\Users\Jarik\AppData\Local\Temp\ccOwmDxA.s 			page 33


1117:.\sd/ff.c     **** {
1118:.\sd/ff.c     **** 	DWORD clst;
1119:.\sd/ff.c     **** 	WORD i;
1120:.\sd/ff.c     **** 
1121:.\sd/ff.c     **** 
1122:.\sd/ff.c     **** 	stretch = stretch;		/* To suppress warning on read-only cfg. */
1123:.\sd/ff.c     **** 	i = dj->index + 1;
1124:.\sd/ff.c     **** 	if (!i || !dj->sect)	/* Report EOT when index has reached 65535 */
1125:.\sd/ff.c     **** 		return FR_NO_FILE;
1126:.\sd/ff.c     **** 
1127:.\sd/ff.c     **** 	if (!(i % (SS(dj->fs) / SZ_DIR))) {	/* Sector changed? */
1128:.\sd/ff.c     **** 		dj->sect++;					/* Next sector */
1129:.\sd/ff.c     **** 
1130:.\sd/ff.c     **** 		if (dj->clust == 0) {	/* Static table */
1131:.\sd/ff.c     **** 			if (i >= dj->fs->n_rootdir)	/* Report EOT when end of table */
1132:.\sd/ff.c     **** 				return FR_NO_FILE;
1133:.\sd/ff.c     **** 		}
1134:.\sd/ff.c     **** 		else {					/* Dynamic table */
1135:.\sd/ff.c     **** 			if (((i / (SS(dj->fs) / SZ_DIR)) & (dj->fs->csize - 1)) == 0) {	/* Cluster changed? */
1136:.\sd/ff.c     **** 				clst = get_fat(dj->fs, dj->clust);				/* Get next cluster */
1137:.\sd/ff.c     **** 				if (clst <= 1) return FR_INT_ERR;
1138:.\sd/ff.c     **** 				if (clst == 0xFFFFFFFF) return FR_DISK_ERR;
1139:.\sd/ff.c     **** 				if (clst >= dj->fs->n_fatent) {					/* When it reached end of dynamic table */
1140:.\sd/ff.c     **** #if !_FS_READONLY
1141:.\sd/ff.c     **** 					BYTE c;
1142:.\sd/ff.c     **** 					if (!stretch) return FR_NO_FILE;			/* When do not stretch, report EOT */
1143:.\sd/ff.c     **** 					clst = create_chain(dj->fs, dj->clust);		/* Stretch cluster chain */
1144:.\sd/ff.c     **** 					if (clst == 0) return FR_DENIED;			/* No free cluster */
1145:.\sd/ff.c     **** 					if (clst == 1) return FR_INT_ERR;
1146:.\sd/ff.c     **** 					if (clst == 0xFFFFFFFF) return FR_DISK_ERR;
1147:.\sd/ff.c     **** 					/* Clean-up stretched table */
1148:.\sd/ff.c     **** 					if (move_window(dj->fs, 0)) return FR_DISK_ERR;	/* Flush active window */
1149:.\sd/ff.c     **** 					mem_set(dj->fs->win, 0, SS(dj->fs));			/* Clear window buffer */
1150:.\sd/ff.c     **** 					dj->fs->winsect = clust2sect(dj->fs, clst);	/* Cluster start sector */
1151:.\sd/ff.c     **** 					for (c = 0; c < dj->fs->csize; c++) {		/* Fill the new cluster with 0 */
1152:.\sd/ff.c     **** 						dj->fs->wflag = 1;
1153:.\sd/ff.c     **** 						if (move_window(dj->fs, 0)) return FR_DISK_ERR;
1154:.\sd/ff.c     **** 						dj->fs->winsect++;
1155:.\sd/ff.c     **** 					}
1156:.\sd/ff.c     **** 					dj->fs->winsect -= c;						/* Rewind window address */
1157:.\sd/ff.c     **** #else
1158:.\sd/ff.c     **** 					return FR_NO_FILE;			/* Report EOT */
1159:.\sd/ff.c     **** #endif
1160:.\sd/ff.c     **** 				}
1161:.\sd/ff.c     **** 				dj->clust = clst;				/* Initialize data for new cluster */
1162:.\sd/ff.c     **** 				dj->sect = clust2sect(dj->fs, clst);
1163:.\sd/ff.c     **** 			}
1164:.\sd/ff.c     **** 		}
1165:.\sd/ff.c     **** 	}
1166:.\sd/ff.c     **** 
1167:.\sd/ff.c     **** 	dj->index = i;
1168:.\sd/ff.c     **** 	dj->dir = dj->fs->win + (i % (SS(dj->fs) / SZ_DIR)) * SZ_DIR;
1169:.\sd/ff.c     **** 
1170:.\sd/ff.c     **** 	return FR_OK;
1171:.\sd/ff.c     **** }
1172:.\sd/ff.c     **** 
1173:.\sd/ff.c     **** 
ARM GAS  C:\Users\Jarik\AppData\Local\Temp\ccOwmDxA.s 			page 34


1174:.\sd/ff.c     **** 
1175:.\sd/ff.c     **** 
1176:.\sd/ff.c     **** /*-----------------------------------------------------------------------*/
1177:.\sd/ff.c     **** /* LFN handling - Test/Pick/Fit an LFN segment from/to directory entry   */
1178:.\sd/ff.c     **** /*-----------------------------------------------------------------------*/
1179:.\sd/ff.c     **** #if _USE_LFN
1180:.\sd/ff.c     **** static
1181:.\sd/ff.c     **** const BYTE LfnOfs[] = {1,3,5,7,9,14,16,18,20,22,24,28,30};	/* Offset of LFN chars in the directory 
1182:.\sd/ff.c     **** 
1183:.\sd/ff.c     **** 
1184:.\sd/ff.c     **** static
1185:.\sd/ff.c     **** int cmp_lfn (			/* 1:Matched, 0:Not matched */
1186:.\sd/ff.c     **** 	WCHAR *lfnbuf,		/* Pointer to the LFN to be compared */
1187:.\sd/ff.c     **** 	BYTE *dir			/* Pointer to the directory entry containing a part of LFN */
1188:.\sd/ff.c     **** )
1189:.\sd/ff.c     **** {
1190:.\sd/ff.c     **** 	UINT i, s;
1191:.\sd/ff.c     **** 	WCHAR wc, uc;
1192:.\sd/ff.c     **** 
1193:.\sd/ff.c     **** 
1194:.\sd/ff.c     **** 	i = ((dir[LDIR_Ord] & ~LLE) - 1) * 13;	/* Get offset in the LFN buffer */
1195:.\sd/ff.c     **** 	s = 0; wc = 1;
1196:.\sd/ff.c     **** 	do {
1197:.\sd/ff.c     **** 		uc = LD_WORD(dir+LfnOfs[s]);	/* Pick an LFN character from the entry */
1198:.\sd/ff.c     **** 		if (wc) {	/* Last char has not been processed */
1199:.\sd/ff.c     **** 			wc = ff_wtoupper(uc);		/* Convert it to upper case */
1200:.\sd/ff.c     **** 			if (i >= _MAX_LFN || wc != ff_wtoupper(lfnbuf[i++]))	/* Compare it */
1201:.\sd/ff.c     **** 				return 0;				/* Not matched */
1202:.\sd/ff.c     **** 		} else {
1203:.\sd/ff.c     **** 			if (uc != 0xFFFF) return 0;	/* Check filler */
1204:.\sd/ff.c     **** 		}
1205:.\sd/ff.c     **** 	} while (++s < 13);				/* Repeat until all chars in the entry are checked */
1206:.\sd/ff.c     **** 
1207:.\sd/ff.c     **** 	if ((dir[LDIR_Ord] & LLE) && wc && lfnbuf[i])	/* Last segment matched but different length */
1208:.\sd/ff.c     **** 		return 0;
1209:.\sd/ff.c     **** 
1210:.\sd/ff.c     **** 	return 1;						/* The part of LFN matched */
1211:.\sd/ff.c     **** }
1212:.\sd/ff.c     **** 
1213:.\sd/ff.c     **** 
1214:.\sd/ff.c     **** 
1215:.\sd/ff.c     **** static
1216:.\sd/ff.c     **** int pick_lfn (			/* 1:Succeeded, 0:Buffer overflow */
1217:.\sd/ff.c     **** 	WCHAR *lfnbuf,		/* Pointer to the Unicode-LFN buffer */
1218:.\sd/ff.c     **** 	BYTE *dir			/* Pointer to the directory entry */
1219:.\sd/ff.c     **** )
1220:.\sd/ff.c     **** {
1221:.\sd/ff.c     **** 	UINT i, s;
1222:.\sd/ff.c     **** 	WCHAR wc, uc;
1223:.\sd/ff.c     **** 
1224:.\sd/ff.c     **** 
1225:.\sd/ff.c     **** 	i = ((dir[LDIR_Ord] & 0x3F) - 1) * 13;	/* Offset in the LFN buffer */
1226:.\sd/ff.c     **** 
1227:.\sd/ff.c     **** 	s = 0; wc = 1;
1228:.\sd/ff.c     **** 	do {
1229:.\sd/ff.c     **** 		uc = LD_WORD(dir+LfnOfs[s]);		/* Pick an LFN character from the entry */
1230:.\sd/ff.c     **** 		if (wc) {	/* Last char has not been processed */
ARM GAS  C:\Users\Jarik\AppData\Local\Temp\ccOwmDxA.s 			page 35


1231:.\sd/ff.c     **** 			if (i >= _MAX_LFN) return 0;	/* Buffer overflow? */
1232:.\sd/ff.c     **** 			lfnbuf[i++] = wc = uc;			/* Store it */
1233:.\sd/ff.c     **** 		} else {
1234:.\sd/ff.c     **** 			if (uc != 0xFFFF) return 0;		/* Check filler */
1235:.\sd/ff.c     **** 		}
1236:.\sd/ff.c     **** 	} while (++s < 13);						/* Read all character in the entry */
1237:.\sd/ff.c     **** 
1238:.\sd/ff.c     **** 	if (dir[LDIR_Ord] & LLE) {				/* Put terminator if it is the last LFN part */
1239:.\sd/ff.c     **** 		if (i >= _MAX_LFN) return 0;		/* Buffer overflow? */
1240:.\sd/ff.c     **** 		lfnbuf[i] = 0;
1241:.\sd/ff.c     **** 	}
1242:.\sd/ff.c     **** 
1243:.\sd/ff.c     **** 	return 1;
1244:.\sd/ff.c     **** }
1245:.\sd/ff.c     **** 
1246:.\sd/ff.c     **** 
1247:.\sd/ff.c     **** #if !_FS_READONLY
1248:.\sd/ff.c     **** static
1249:.\sd/ff.c     **** void fit_lfn (
1250:.\sd/ff.c     **** 	const WCHAR *lfnbuf,	/* Pointer to the LFN buffer */
1251:.\sd/ff.c     **** 	BYTE *dir,				/* Pointer to the directory entry */
1252:.\sd/ff.c     **** 	BYTE ord,				/* LFN order (1-20) */
1253:.\sd/ff.c     **** 	BYTE sum				/* SFN sum */
1254:.\sd/ff.c     **** )
1255:.\sd/ff.c     **** {
1256:.\sd/ff.c     **** 	UINT i, s;
1257:.\sd/ff.c     **** 	WCHAR wc;
1258:.\sd/ff.c     **** 
1259:.\sd/ff.c     **** 
1260:.\sd/ff.c     **** 	dir[LDIR_Chksum] = sum;			/* Set check sum */
1261:.\sd/ff.c     **** 	dir[LDIR_Attr] = AM_LFN;		/* Set attribute. LFN entry */
1262:.\sd/ff.c     **** 	dir[LDIR_Type] = 0;
1263:.\sd/ff.c     **** 	ST_WORD(dir+LDIR_FstClusLO, 0);
1264:.\sd/ff.c     **** 
1265:.\sd/ff.c     **** 	i = (ord - 1) * 13;				/* Get offset in the LFN buffer */
1266:.\sd/ff.c     **** 	s = wc = 0;
1267:.\sd/ff.c     **** 	do {
1268:.\sd/ff.c     **** 		if (wc != 0xFFFF) wc = lfnbuf[i++];	/* Get an effective char */
1269:.\sd/ff.c     **** 		ST_WORD(dir+LfnOfs[s], wc);	/* Put it */
1270:.\sd/ff.c     **** 		if (!wc) wc = 0xFFFF;		/* Padding chars following last char */
1271:.\sd/ff.c     **** 	} while (++s < 13);
1272:.\sd/ff.c     **** 	if (wc == 0xFFFF || !lfnbuf[i]) ord |= LLE;	/* Bottom LFN part is the start of LFN sequence */
1273:.\sd/ff.c     **** 	dir[LDIR_Ord] = ord;			/* Set the LFN order */
1274:.\sd/ff.c     **** }
1275:.\sd/ff.c     **** 
1276:.\sd/ff.c     **** #endif
1277:.\sd/ff.c     **** #endif
1278:.\sd/ff.c     **** 
1279:.\sd/ff.c     **** 
1280:.\sd/ff.c     **** 
1281:.\sd/ff.c     **** /*-----------------------------------------------------------------------*/
1282:.\sd/ff.c     **** /* Create numbered name                                                  */
1283:.\sd/ff.c     **** /*-----------------------------------------------------------------------*/
1284:.\sd/ff.c     **** #if _USE_LFN
1285:.\sd/ff.c     **** void gen_numname (
1286:.\sd/ff.c     **** 	BYTE *dst,			/* Pointer to generated SFN */
1287:.\sd/ff.c     **** 	const BYTE *src,	/* Pointer to source SFN to be modified */
ARM GAS  C:\Users\Jarik\AppData\Local\Temp\ccOwmDxA.s 			page 36


1288:.\sd/ff.c     **** 	const WCHAR *lfn,	/* Pointer to LFN */
1289:.\sd/ff.c     **** 	WORD seq			/* Sequence number */
1290:.\sd/ff.c     **** )
1291:.\sd/ff.c     **** {
1292:.\sd/ff.c     **** 	BYTE ns[8], c;
1293:.\sd/ff.c     **** 	UINT i, j;
1294:.\sd/ff.c     **** 
1295:.\sd/ff.c     **** 
1296:.\sd/ff.c     **** 	mem_cpy(dst, src, 11);
1297:.\sd/ff.c     **** 
1298:.\sd/ff.c     **** 	if (seq > 5) {	/* On many collisions, generate a hash number instead of sequential number */
1299:.\sd/ff.c     **** 		do seq = (seq >> 1) + (seq << 15) + (WORD)*lfn++; while (*lfn);
1300:.\sd/ff.c     **** 	}
1301:.\sd/ff.c     **** 
1302:.\sd/ff.c     **** 	/* itoa (hexdecimal) */
1303:.\sd/ff.c     **** 	i = 7;
1304:.\sd/ff.c     **** 	do {
1305:.\sd/ff.c     **** 		c = (seq % 16) + '0';
1306:.\sd/ff.c     **** 		if (c > '9') c += 7;
1307:.\sd/ff.c     **** 		ns[i--] = c;
1308:.\sd/ff.c     **** 		seq /= 16;
1309:.\sd/ff.c     **** 	} while (seq);
1310:.\sd/ff.c     **** 	ns[i] = '~';
1311:.\sd/ff.c     **** 
1312:.\sd/ff.c     **** 	/* Append the number */
1313:.\sd/ff.c     **** 	for (j = 0; j < i && dst[j] != ' '; j++) {
1314:.\sd/ff.c     **** 		if (IsDBCS1(dst[j])) {
1315:.\sd/ff.c     **** 			if (j == i - 1) break;
1316:.\sd/ff.c     **** 			j++;
1317:.\sd/ff.c     **** 		}
1318:.\sd/ff.c     **** 	}
1319:.\sd/ff.c     **** 	do {
1320:.\sd/ff.c     **** 		dst[j++] = (i < 8) ? ns[i++] : ' ';
1321:.\sd/ff.c     **** 	} while (j < 8);
1322:.\sd/ff.c     **** }
1323:.\sd/ff.c     **** #endif
1324:.\sd/ff.c     **** 
1325:.\sd/ff.c     **** 
1326:.\sd/ff.c     **** 
1327:.\sd/ff.c     **** 
1328:.\sd/ff.c     **** /*-----------------------------------------------------------------------*/
1329:.\sd/ff.c     **** /* Calculate sum of an SFN                                               */
1330:.\sd/ff.c     **** /*-----------------------------------------------------------------------*/
1331:.\sd/ff.c     **** #if _USE_LFN
1332:.\sd/ff.c     **** static
1333:.\sd/ff.c     **** BYTE sum_sfn (
1334:.\sd/ff.c     **** 	const BYTE *dir		/* Ptr to directory entry */
1335:.\sd/ff.c     **** )
1336:.\sd/ff.c     **** {
1337:.\sd/ff.c     **** 	BYTE sum = 0;
1338:.\sd/ff.c     **** 	UINT n = 11;
1339:.\sd/ff.c     **** 
1340:.\sd/ff.c     **** 	do sum = (sum >> 1) + (sum << 7) + *dir++; while (--n);
1341:.\sd/ff.c     **** 	return sum;
1342:.\sd/ff.c     **** }
1343:.\sd/ff.c     **** #endif
1344:.\sd/ff.c     **** 
ARM GAS  C:\Users\Jarik\AppData\Local\Temp\ccOwmDxA.s 			page 37


1345:.\sd/ff.c     **** 
1346:.\sd/ff.c     **** 
1347:.\sd/ff.c     **** 
1348:.\sd/ff.c     **** /*-----------------------------------------------------------------------*/
1349:.\sd/ff.c     **** /* Directory handling - Find an object in the directory                  */
1350:.\sd/ff.c     **** /*-----------------------------------------------------------------------*/
1351:.\sd/ff.c     **** 
1352:.\sd/ff.c     **** static
1353:.\sd/ff.c     **** FRESULT dir_find (
1354:.\sd/ff.c     **** 	DIR *dj			/* Pointer to the directory object linked to the file name */
1355:.\sd/ff.c     **** )
1356:.\sd/ff.c     **** {
1357:.\sd/ff.c     **** 	FRESULT res;
1358:.\sd/ff.c     **** 	BYTE c, *dir;
1359:.\sd/ff.c     **** #if _USE_LFN
1360:.\sd/ff.c     **** 	BYTE a, ord, sum;
1361:.\sd/ff.c     **** #endif
1362:.\sd/ff.c     **** 
1363:.\sd/ff.c     **** 	res = dir_sdi(dj, 0);			/* Rewind directory object */
1364:.\sd/ff.c     **** 	if (res != FR_OK) return res;
1365:.\sd/ff.c     **** 
1366:.\sd/ff.c     **** #if _USE_LFN
1367:.\sd/ff.c     **** 	ord = sum = 0xFF;
1368:.\sd/ff.c     **** #endif
1369:.\sd/ff.c     **** 	do {
1370:.\sd/ff.c     **** 		res = move_window(dj->fs, dj->sect);
1371:.\sd/ff.c     **** 		if (res != FR_OK) break;
1372:.\sd/ff.c     **** 		dir = dj->dir;					/* Ptr to the directory entry of current index */
1373:.\sd/ff.c     **** 		c = dir[DIR_Name];
1374:.\sd/ff.c     **** 		if (c == 0) { res = FR_NO_FILE; break; }	/* Reached to end of table */
1375:.\sd/ff.c     **** #if _USE_LFN	/* LFN configuration */
1376:.\sd/ff.c     **** 		a = dir[DIR_Attr] & AM_MASK;
1377:.\sd/ff.c     **** 		if (c == DDE || ((a & AM_VOL) && a != AM_LFN)) {	/* An entry without valid data */
1378:.\sd/ff.c     **** 			ord = 0xFF;
1379:.\sd/ff.c     **** 		} else {
1380:.\sd/ff.c     **** 			if (a == AM_LFN) {			/* An LFN entry is found */
1381:.\sd/ff.c     **** 				if (dj->lfn) {
1382:.\sd/ff.c     **** 					if (c & LLE) {		/* Is it start of LFN sequence? */
1383:.\sd/ff.c     **** 						sum = dir[LDIR_Chksum];
1384:.\sd/ff.c     **** 						c &= ~LLE; ord = c;	/* LFN start order */
1385:.\sd/ff.c     **** 						dj->lfn_idx = dj->index;
1386:.\sd/ff.c     **** 					}
1387:.\sd/ff.c     **** 					/* Check validity of the LFN entry and compare it with given name */
1388:.\sd/ff.c     **** 					ord = (c == ord && sum == dir[LDIR_Chksum] && cmp_lfn(dj->lfn, dir)) ? ord - 1 : 0xFF;
1389:.\sd/ff.c     **** 				}
1390:.\sd/ff.c     **** 			} else {					/* An SFN entry is found */
1391:.\sd/ff.c     **** 				if (!ord && sum == sum_sfn(dir)) break;	/* LFN matched? */
1392:.\sd/ff.c     **** 				ord = 0xFF; dj->lfn_idx = 0xFFFF;	/* Reset LFN sequence */
1393:.\sd/ff.c     **** 				if (!(dj->fn[NS] & NS_LOSS) && !mem_cmp(dir, dj->fn, 11)) break;	/* SFN matched? */
1394:.\sd/ff.c     **** 			}
1395:.\sd/ff.c     **** 		}
1396:.\sd/ff.c     **** #else		/* Non LFN configuration */
1397:.\sd/ff.c     **** 		if (!(dir[DIR_Attr] & AM_VOL) && !mem_cmp(dir, dj->fn, 11)) /* Is it a valid entry? */
1398:.\sd/ff.c     **** 			break;
1399:.\sd/ff.c     **** #endif
1400:.\sd/ff.c     **** 		res = dir_next(dj, 0);		/* Next entry */
1401:.\sd/ff.c     **** 	} while (res == FR_OK);
ARM GAS  C:\Users\Jarik\AppData\Local\Temp\ccOwmDxA.s 			page 38


1402:.\sd/ff.c     **** 
1403:.\sd/ff.c     **** 	return res;
1404:.\sd/ff.c     **** }
1405:.\sd/ff.c     **** 
1406:.\sd/ff.c     **** 
1407:.\sd/ff.c     **** 
1408:.\sd/ff.c     **** 
1409:.\sd/ff.c     **** /*-----------------------------------------------------------------------*/
1410:.\sd/ff.c     **** /* Read an object from the directory                                     */
1411:.\sd/ff.c     **** /*-----------------------------------------------------------------------*/
1412:.\sd/ff.c     **** #if _FS_MINIMIZE <= 1
1413:.\sd/ff.c     **** static
1414:.\sd/ff.c     **** FRESULT dir_read (
1415:.\sd/ff.c     **** 	DIR *dj			/* Pointer to the directory object that pointing the entry to be read */
1416:.\sd/ff.c     **** )
1417:.\sd/ff.c     **** {
1418:.\sd/ff.c     **** 	FRESULT res;
1419:.\sd/ff.c     **** 	BYTE c, *dir;
1420:.\sd/ff.c     **** #if _USE_LFN
1421:.\sd/ff.c     **** 	BYTE a, ord = 0xFF, sum = 0xFF;
1422:.\sd/ff.c     **** #endif
1423:.\sd/ff.c     **** 
1424:.\sd/ff.c     **** 	res = FR_NO_FILE;
1425:.\sd/ff.c     **** 	while (dj->sect) {
1426:.\sd/ff.c     **** 		res = move_window(dj->fs, dj->sect);
1427:.\sd/ff.c     **** 		if (res != FR_OK) break;
1428:.\sd/ff.c     **** 		dir = dj->dir;					/* Ptr to the directory entry of current index */
1429:.\sd/ff.c     **** 		c = dir[DIR_Name];
1430:.\sd/ff.c     **** 		if (c == 0) { res = FR_NO_FILE; break; }	/* Reached to end of table */
1431:.\sd/ff.c     **** #if _USE_LFN	/* LFN configuration */
1432:.\sd/ff.c     **** 		a = dir[DIR_Attr] & AM_MASK;
1433:.\sd/ff.c     **** 		if (c == DDE || (!_FS_RPATH && c == '.') || ((a & AM_VOL) && a != AM_LFN)) {	/* An entry without 
1434:.\sd/ff.c     **** 			ord = 0xFF;
1435:.\sd/ff.c     **** 		} else {
1436:.\sd/ff.c     **** 			if (a == AM_LFN) {			/* An LFN entry is found */
1437:.\sd/ff.c     **** 				if (c & LLE) {			/* Is it start of LFN sequence? */
1438:.\sd/ff.c     **** 					sum = dir[LDIR_Chksum];
1439:.\sd/ff.c     **** 					c &= ~LLE; ord = c;
1440:.\sd/ff.c     **** 					dj->lfn_idx = dj->index;
1441:.\sd/ff.c     **** 				}
1442:.\sd/ff.c     **** 				/* Check LFN validity and capture it */
1443:.\sd/ff.c     **** 				ord = (c == ord && sum == dir[LDIR_Chksum] && pick_lfn(dj->lfn, dir)) ? ord - 1 : 0xFF;
1444:.\sd/ff.c     **** 			} else {					/* An SFN entry is found */
1445:.\sd/ff.c     **** 				if (ord || sum != sum_sfn(dir))	/* Is there a valid LFN? */
1446:.\sd/ff.c     **** 					dj->lfn_idx = 0xFFFF;		/* It has no LFN. */
1447:.\sd/ff.c     **** 				break;
1448:.\sd/ff.c     **** 			}
1449:.\sd/ff.c     **** 		}
1450:.\sd/ff.c     **** #else		/* Non LFN configuration */
1451:.\sd/ff.c     **** 		if (c != DDE && (_FS_RPATH || c != '.') && !(dir[DIR_Attr] & AM_VOL))	/* Is it a valid entry? */
1452:.\sd/ff.c     **** 			break;
1453:.\sd/ff.c     **** #endif
1454:.\sd/ff.c     **** 		res = dir_next(dj, 0);				/* Next entry */
1455:.\sd/ff.c     **** 		if (res != FR_OK) break;
1456:.\sd/ff.c     **** 	}
1457:.\sd/ff.c     **** 
1458:.\sd/ff.c     **** 	if (res != FR_OK) dj->sect = 0;
ARM GAS  C:\Users\Jarik\AppData\Local\Temp\ccOwmDxA.s 			page 39


1459:.\sd/ff.c     **** 
1460:.\sd/ff.c     **** 	return res;
1461:.\sd/ff.c     **** }
1462:.\sd/ff.c     **** #endif
1463:.\sd/ff.c     **** 
1464:.\sd/ff.c     **** 
1465:.\sd/ff.c     **** 
1466:.\sd/ff.c     **** /*-----------------------------------------------------------------------*/
1467:.\sd/ff.c     **** /* Register an object to the directory                                   */
1468:.\sd/ff.c     **** /*-----------------------------------------------------------------------*/
1469:.\sd/ff.c     **** #if !_FS_READONLY
1470:.\sd/ff.c     **** static
1471:.\sd/ff.c     **** FRESULT dir_register (	/* FR_OK:Successful, FR_DENIED:No free entry or too many SFN collision, FR_D
1472:.\sd/ff.c     **** 	DIR *dj				/* Target directory with object name to be created */
1473:.\sd/ff.c     **** )
1474:.\sd/ff.c     **** {
1475:.\sd/ff.c     **** 	FRESULT res;
1476:.\sd/ff.c     **** 	BYTE c, *dir;
1477:.\sd/ff.c     **** #if _USE_LFN	/* LFN configuration */
1478:.\sd/ff.c     **** 	WORD n, ne, is;
1479:.\sd/ff.c     **** 	BYTE sn[12], *fn, sum;
1480:.\sd/ff.c     **** 	WCHAR *lfn;
1481:.\sd/ff.c     **** 
1482:.\sd/ff.c     **** 
1483:.\sd/ff.c     **** 	fn = dj->fn; lfn = dj->lfn;
1484:.\sd/ff.c     **** 	mem_cpy(sn, fn, 12);
1485:.\sd/ff.c     **** 
1486:.\sd/ff.c     **** 	if (_FS_RPATH && (sn[NS] & NS_DOT))		/* Cannot create dot entry */
1487:.\sd/ff.c     **** 		return FR_INVALID_NAME;
1488:.\sd/ff.c     **** 
1489:.\sd/ff.c     **** 	if (sn[NS] & NS_LOSS) {			/* When LFN is out of 8.3 format, generate a numbered name */
1490:.\sd/ff.c     **** 		fn[NS] = 0; dj->lfn = 0;			/* Find only SFN */
1491:.\sd/ff.c     **** 		for (n = 1; n < 100; n++) {
1492:.\sd/ff.c     **** 			gen_numname(fn, sn, lfn, n);	/* Generate a numbered name */
1493:.\sd/ff.c     **** 			res = dir_find(dj);				/* Check if the name collides with existing SFN */
1494:.\sd/ff.c     **** 			if (res != FR_OK) break;
1495:.\sd/ff.c     **** 		}
1496:.\sd/ff.c     **** 		if (n == 100) return FR_DENIED;		/* Abort if too many collisions */
1497:.\sd/ff.c     **** 		if (res != FR_NO_FILE) return res;	/* Abort if the result is other than 'not collided' */
1498:.\sd/ff.c     **** 		fn[NS] = sn[NS]; dj->lfn = lfn;
1499:.\sd/ff.c     **** 	}
1500:.\sd/ff.c     **** 
1501:.\sd/ff.c     **** 	if (sn[NS] & NS_LFN) {			/* When LFN is to be created, reserve an SFN + LFN entries. */
1502:.\sd/ff.c     **** 		for (ne = 0; lfn[ne]; ne++) ;
1503:.\sd/ff.c     **** 		ne = (ne + 25) / 13;
1504:.\sd/ff.c     **** 	} else {						/* Otherwise reserve only an SFN entry. */
1505:.\sd/ff.c     **** 		ne = 1;
1506:.\sd/ff.c     **** 	}
1507:.\sd/ff.c     **** 
1508:.\sd/ff.c     **** 	/* Reserve contiguous entries */
1509:.\sd/ff.c     **** 	res = dir_sdi(dj, 0);
1510:.\sd/ff.c     **** 	if (res != FR_OK) return res;
1511:.\sd/ff.c     **** 	n = is = 0;
1512:.\sd/ff.c     **** 	do {
1513:.\sd/ff.c     **** 		res = move_window(dj->fs, dj->sect);
1514:.\sd/ff.c     **** 		if (res != FR_OK) break;
1515:.\sd/ff.c     **** 		c = *dj->dir;				/* Check the entry status */
ARM GAS  C:\Users\Jarik\AppData\Local\Temp\ccOwmDxA.s 			page 40


1516:.\sd/ff.c     **** 		if (c == DDE || c == 0) {	/* Is it a blank entry? */
1517:.\sd/ff.c     **** 			if (n == 0) is = dj->index;	/* First index of the contiguous entry */
1518:.\sd/ff.c     **** 			if (++n == ne) break;	/* A contiguous entry that required count is found */
1519:.\sd/ff.c     **** 		} else {
1520:.\sd/ff.c     **** 			n = 0;					/* Not a blank entry. Restart to search */
1521:.\sd/ff.c     **** 		}
1522:.\sd/ff.c     **** 		res = dir_next(dj, 1);		/* Next entry with table stretch */
1523:.\sd/ff.c     **** 	} while (res == FR_OK);
1524:.\sd/ff.c     **** 
1525:.\sd/ff.c     **** 	if (res == FR_OK && ne > 1) {	/* Initialize LFN entry if needed */
1526:.\sd/ff.c     **** 		res = dir_sdi(dj, is);
1527:.\sd/ff.c     **** 		if (res == FR_OK) {
1528:.\sd/ff.c     **** 			sum = sum_sfn(dj->fn);	/* Sum of the SFN tied to the LFN */
1529:.\sd/ff.c     **** 			ne--;
1530:.\sd/ff.c     **** 			do {					/* Store LFN entries in bottom first */
1531:.\sd/ff.c     **** 				res = move_window(dj->fs, dj->sect);
1532:.\sd/ff.c     **** 				if (res != FR_OK) break;
1533:.\sd/ff.c     **** 				fit_lfn(dj->lfn, dj->dir, (BYTE)ne, sum);
1534:.\sd/ff.c     **** 				dj->fs->wflag = 1;
1535:.\sd/ff.c     **** 				res = dir_next(dj, 0);	/* Next entry */
1536:.\sd/ff.c     **** 			} while (res == FR_OK && --ne);
1537:.\sd/ff.c     **** 		}
1538:.\sd/ff.c     **** 	}
1539:.\sd/ff.c     **** 
1540:.\sd/ff.c     **** #else	/* Non LFN configuration */
1541:.\sd/ff.c     **** 	res = dir_sdi(dj, 0);
1542:.\sd/ff.c     **** 	if (res == FR_OK) {
1543:.\sd/ff.c     **** 		do {	/* Find a blank entry for the SFN */
1544:.\sd/ff.c     **** 			res = move_window(dj->fs, dj->sect);
1545:.\sd/ff.c     **** 			if (res != FR_OK) break;
1546:.\sd/ff.c     **** 			c = *dj->dir;
1547:.\sd/ff.c     **** 			if (c == DDE || c == 0) break;	/* Is it a blank entry? */
1548:.\sd/ff.c     **** 			res = dir_next(dj, 1);			/* Next entry with table stretch */
1549:.\sd/ff.c     **** 		} while (res == FR_OK);
1550:.\sd/ff.c     **** 	}
1551:.\sd/ff.c     **** #endif
1552:.\sd/ff.c     **** 
1553:.\sd/ff.c     **** 	if (res == FR_OK) {		/* Initialize the SFN entry */
1554:.\sd/ff.c     **** 		res = move_window(dj->fs, dj->sect);
1555:.\sd/ff.c     **** 		if (res == FR_OK) {
1556:.\sd/ff.c     **** 			dir = dj->dir;
1557:.\sd/ff.c     **** 			mem_set(dir, 0, SZ_DIR);	/* Clean the entry */
1558:.\sd/ff.c     **** 			mem_cpy(dir, dj->fn, 11);	/* Put SFN */
1559:.\sd/ff.c     **** #if _USE_LFN
1560:.\sd/ff.c     **** 			dir[DIR_NTres] = *(dj->fn+NS) & (NS_BODY | NS_EXT);	/* Put NT flag */
1561:.\sd/ff.c     **** #endif
1562:.\sd/ff.c     **** 			dj->fs->wflag = 1;
1563:.\sd/ff.c     **** 		}
1564:.\sd/ff.c     **** 	}
1565:.\sd/ff.c     **** 
1566:.\sd/ff.c     **** 	return res;
1567:.\sd/ff.c     **** }
1568:.\sd/ff.c     **** #endif /* !_FS_READONLY */
1569:.\sd/ff.c     **** 
1570:.\sd/ff.c     **** 
1571:.\sd/ff.c     **** 
1572:.\sd/ff.c     **** 
ARM GAS  C:\Users\Jarik\AppData\Local\Temp\ccOwmDxA.s 			page 41


1573:.\sd/ff.c     **** /*-----------------------------------------------------------------------*/
1574:.\sd/ff.c     **** /* Remove an object from the directory                                   */
1575:.\sd/ff.c     **** /*-----------------------------------------------------------------------*/
1576:.\sd/ff.c     **** #if !_FS_READONLY && !_FS_MINIMIZE
1577:.\sd/ff.c     **** static
1578:.\sd/ff.c     **** FRESULT dir_remove (	/* FR_OK: Successful, FR_DISK_ERR: A disk error */
1579:.\sd/ff.c     **** 	DIR *dj				/* Directory object pointing the entry to be removed */
1580:.\sd/ff.c     **** )
1581:.\sd/ff.c     **** {
1582:.\sd/ff.c     **** 	FRESULT res;
1583:.\sd/ff.c     **** #if _USE_LFN	/* LFN configuration */
1584:.\sd/ff.c     **** 	WORD i;
1585:.\sd/ff.c     **** 
1586:.\sd/ff.c     **** 	i = dj->index;	/* SFN index */
1587:.\sd/ff.c     **** 	res = dir_sdi(dj, (WORD)((dj->lfn_idx == 0xFFFF) ? i : dj->lfn_idx));	/* Goto the SFN or top of th
1588:.\sd/ff.c     **** 	if (res == FR_OK) {
1589:.\sd/ff.c     **** 		do {
1590:.\sd/ff.c     **** 			res = move_window(dj->fs, dj->sect);
1591:.\sd/ff.c     **** 			if (res != FR_OK) break;
1592:.\sd/ff.c     **** 			*dj->dir = DDE;			/* Mark the entry "deleted" */
1593:.\sd/ff.c     **** 			dj->fs->wflag = 1;
1594:.\sd/ff.c     **** 			if (dj->index >= i) break;	/* When reached SFN, all entries of the object has been deleted. */
1595:.\sd/ff.c     **** 			res = dir_next(dj, 0);		/* Next entry */
1596:.\sd/ff.c     **** 		} while (res == FR_OK);
1597:.\sd/ff.c     **** 		if (res == FR_NO_FILE) res = FR_INT_ERR;
1598:.\sd/ff.c     **** 	}
1599:.\sd/ff.c     **** 
1600:.\sd/ff.c     **** #else			/* Non LFN configuration */
1601:.\sd/ff.c     **** 	res = dir_sdi(dj, dj->index);
1602:.\sd/ff.c     **** 	if (res == FR_OK) {
1603:.\sd/ff.c     **** 		res = move_window(dj->fs, dj->sect);
1604:.\sd/ff.c     **** 		if (res == FR_OK) {
1605:.\sd/ff.c     **** 			*dj->dir = DDE;			/* Mark the entry "deleted" */
1606:.\sd/ff.c     **** 			dj->fs->wflag = 1;
1607:.\sd/ff.c     **** 		}
1608:.\sd/ff.c     **** 	}
1609:.\sd/ff.c     **** #endif
1610:.\sd/ff.c     **** 
1611:.\sd/ff.c     **** 	return res;
1612:.\sd/ff.c     **** }
1613:.\sd/ff.c     **** #endif /* !_FS_READONLY */
1614:.\sd/ff.c     **** 
1615:.\sd/ff.c     **** 
1616:.\sd/ff.c     **** 
1617:.\sd/ff.c     **** 
1618:.\sd/ff.c     **** /*-----------------------------------------------------------------------*/
1619:.\sd/ff.c     **** /* Pick a segment and create the object name in directory form           */
1620:.\sd/ff.c     **** /*-----------------------------------------------------------------------*/
1621:.\sd/ff.c     **** 
1622:.\sd/ff.c     **** static
1623:.\sd/ff.c     **** FRESULT create_name (
1624:.\sd/ff.c     **** 	DIR *dj,			/* Pointer to the directory object */
1625:.\sd/ff.c     **** 	const TCHAR **path	/* Pointer to pointer to the segment in the path string */
1626:.\sd/ff.c     **** )
1627:.\sd/ff.c     **** {
 688              		.loc 1 1627 0
 689              		.cfi_startproc
ARM GAS  C:\Users\Jarik\AppData\Local\Temp\ccOwmDxA.s 			page 42


 690              	.LVL79:
 691 0000 F8B5     		push	{r3, r4, r5, r6, r7, lr}
 692              		.cfi_def_cfa_offset 24
 693              		.cfi_offset 3, -24
 694              		.cfi_offset 4, -20
 695              		.cfi_offset 5, -16
 696              		.cfi_offset 6, -12
 697              		.cfi_offset 7, -8
 698              		.cfi_offset 14, -4
 699 0002 5F46     		mov	r7, fp
 700 0004 5646     		mov	r6, r10
 701 0006 4D46     		mov	r5, r9
 702 0008 4446     		mov	r4, r8
 703 000a F0B4     		push	{r4, r5, r6, r7}
 704              		.cfi_def_cfa_offset 40
 705              		.cfi_offset 8, -40
 706              		.cfi_offset 9, -36
 707              		.cfi_offset 10, -32
 708              		.cfi_offset 11, -28
 709 000c 8B46     		mov	fp, r1
1628:.\sd/ff.c     **** #ifdef _EXCVT
1629:.\sd/ff.c     **** 	static const BYTE excvt[] = _EXCVT;	/* Upper conversion table for extended chars */
1630:.\sd/ff.c     **** #endif
1631:.\sd/ff.c     **** 
1632:.\sd/ff.c     **** #if _USE_LFN	/* LFN configuration */
1633:.\sd/ff.c     **** 	BYTE b, cf;
1634:.\sd/ff.c     **** 	WCHAR w, *lfn;
1635:.\sd/ff.c     **** 	UINT i, ni, si, di;
1636:.\sd/ff.c     **** 	const TCHAR *p;
1637:.\sd/ff.c     **** 
1638:.\sd/ff.c     **** 	/* Create LFN in Unicode */
1639:.\sd/ff.c     **** 	for (p = *path; *p == '/' || *p == '\\'; p++) ;	/* Strip duplicated separator */
1640:.\sd/ff.c     **** 	lfn = dj->lfn;
1641:.\sd/ff.c     **** 	si = di = 0;
1642:.\sd/ff.c     **** 	for (;;) {
1643:.\sd/ff.c     **** 		w = p[si++];					/* Get a character */
1644:.\sd/ff.c     **** 		if (w < ' ' || w == '/' || w == '\\') break;	/* Break on end of segment */
1645:.\sd/ff.c     **** 		if (di >= _MAX_LFN)				/* Reject too LONG_ name */
1646:.\sd/ff.c     **** 			return FR_INVALID_NAME;
1647:.\sd/ff.c     **** #if !_LFN_UNICODE
1648:.\sd/ff.c     **** 		w &= 0xFF;
1649:.\sd/ff.c     **** 		if (IsDBCS1(w)) {				/* Check if it is a DBC 1st byte (always false on SBCS cfg) */
1650:.\sd/ff.c     **** 			b = (BYTE)p[si++];			/* Get 2nd byte */
1651:.\sd/ff.c     **** 			if (!IsDBCS2(b))
1652:.\sd/ff.c     **** 				return FR_INVALID_NAME;	/* Reject invalid sequence */
1653:.\sd/ff.c     **** 			w = (w << 8) + b;			/* Create a DBC */
1654:.\sd/ff.c     **** 		}
1655:.\sd/ff.c     **** 		w = ff_convert(w, 1);			/* Convert ANSI/OEM to Unicode */
1656:.\sd/ff.c     **** 		if (!w) return FR_INVALID_NAME;	/* Reject invalid code */
1657:.\sd/ff.c     **** #endif
1658:.\sd/ff.c     **** 		if (w < 0x80 && chk_chr("\"*:<>\?|\x7F", w)) /* Reject illegal chars for LFN */
1659:.\sd/ff.c     **** 			return FR_INVALID_NAME;
1660:.\sd/ff.c     **** 		lfn[di++] = w;					/* Store the Unicode char */
1661:.\sd/ff.c     **** 	}
1662:.\sd/ff.c     **** 	*path = &p[si];						/* Return pointer to the next segment */
1663:.\sd/ff.c     **** 	cf = (w < ' ') ? NS_LAST : 0;		/* Set last segment flag if end of path */
1664:.\sd/ff.c     **** #if _FS_RPATH
ARM GAS  C:\Users\Jarik\AppData\Local\Temp\ccOwmDxA.s 			page 43


1665:.\sd/ff.c     **** 	if ((di == 1 && lfn[di-1] == '.') || /* Is this a dot entry? */
1666:.\sd/ff.c     **** 		(di == 2 && lfn[di-1] == '.' && lfn[di-2] == '.')) {
1667:.\sd/ff.c     **** 		lfn[di] = 0;
1668:.\sd/ff.c     **** 		for (i = 0; i < 11; i++)
1669:.\sd/ff.c     **** 			dj->fn[i] = (i < di) ? '.' : ' ';
1670:.\sd/ff.c     **** 		dj->fn[i] = cf | NS_DOT;		/* This is a dot entry */
1671:.\sd/ff.c     **** 		return FR_OK;
1672:.\sd/ff.c     **** 	}
1673:.\sd/ff.c     **** #endif
1674:.\sd/ff.c     **** 	while (di) {						/* Strip trailing spaces and dots */
1675:.\sd/ff.c     **** 		w = lfn[di-1];
1676:.\sd/ff.c     **** 		if (w != ' ' && w != '.') break;
1677:.\sd/ff.c     **** 		di--;
1678:.\sd/ff.c     **** 	}
1679:.\sd/ff.c     **** 	if (!di) return FR_INVALID_NAME;	/* Reject nul string */
1680:.\sd/ff.c     **** 
1681:.\sd/ff.c     **** 	lfn[di] = 0;						/* LFN is created */
1682:.\sd/ff.c     **** 
1683:.\sd/ff.c     **** 	/* Create SFN in directory form */
1684:.\sd/ff.c     **** 	mem_set(dj->fn, ' ', 11);
1685:.\sd/ff.c     **** 	for (si = 0; lfn[si] == ' ' || lfn[si] == '.'; si++) ;	/* Strip leading spaces and dots */
1686:.\sd/ff.c     **** 	if (si) cf |= NS_LOSS | NS_LFN;
1687:.\sd/ff.c     **** 	while (di && lfn[di - 1] != '.') di--;	/* Find extension (di<=si: no extension) */
1688:.\sd/ff.c     **** 
1689:.\sd/ff.c     **** 	b = i = 0; ni = 8;
1690:.\sd/ff.c     **** 	for (;;) {
1691:.\sd/ff.c     **** 		w = lfn[si++];					/* Get an LFN char */
1692:.\sd/ff.c     **** 		if (!w) break;					/* Break on end of the LFN */
1693:.\sd/ff.c     **** 		if (w == ' ' || (w == '.' && si != di)) {	/* Remove spaces and dots */
1694:.\sd/ff.c     **** 			cf |= NS_LOSS | NS_LFN; continue;
1695:.\sd/ff.c     **** 		}
1696:.\sd/ff.c     **** 
1697:.\sd/ff.c     **** 		if (i >= ni || si == di) {		/* Extension or end of SFN */
1698:.\sd/ff.c     **** 			if (ni == 11) {				/* LONG_ extension */
1699:.\sd/ff.c     **** 				cf |= NS_LOSS | NS_LFN; break;
1700:.\sd/ff.c     **** 			}
1701:.\sd/ff.c     **** 			if (si != di) cf |= NS_LOSS | NS_LFN;	/* Out of 8.3 format */
1702:.\sd/ff.c     **** 			if (si > di) break;			/* No extension */
1703:.\sd/ff.c     **** 			si = di; i = 8; ni = 11;	/* Enter extension section */
1704:.\sd/ff.c     **** 			b <<= 2; continue;
1705:.\sd/ff.c     **** 		}
1706:.\sd/ff.c     **** 
1707:.\sd/ff.c     **** 		if (w >= 0x80) {				/* Non ASCII char */
1708:.\sd/ff.c     **** #ifdef _EXCVT
1709:.\sd/ff.c     **** 			w = ff_convert(w, 0);		/* Unicode -> OEM code */
1710:.\sd/ff.c     **** 			if (w) w = excvt[w - 0x80];	/* Convert extended char to upper (SBCS) */
1711:.\sd/ff.c     **** #else
1712:.\sd/ff.c     **** 			w = ff_convert(ff_wtoupper(w), 0);	/* Upper converted Unicode -> OEM code */
1713:.\sd/ff.c     **** #endif
1714:.\sd/ff.c     **** 			cf |= NS_LFN;				/* Force create LFN entry */
1715:.\sd/ff.c     **** 		}
1716:.\sd/ff.c     **** 
1717:.\sd/ff.c     **** 		if (_DF1S && w >= 0x100) {		/* Double byte char (always false on SBCS cfg) */
1718:.\sd/ff.c     **** 			if (i >= ni - 1) {
1719:.\sd/ff.c     **** 				cf |= NS_LOSS | NS_LFN; i = ni; continue;
1720:.\sd/ff.c     **** 			}
1721:.\sd/ff.c     **** 			dj->fn[i++] = (BYTE)(w >> 8);
ARM GAS  C:\Users\Jarik\AppData\Local\Temp\ccOwmDxA.s 			page 44


1722:.\sd/ff.c     **** 		} else {						/* Single byte char */
1723:.\sd/ff.c     **** 			if (!w || chk_chr("+,;=[]", w)) {	/* Replace illegal chars for SFN */
1724:.\sd/ff.c     **** 				w = '_'; cf |= NS_LOSS | NS_LFN;/* Lossy conversion */
1725:.\sd/ff.c     **** 			} else {
1726:.\sd/ff.c     **** 				if (IsUpper(w)) {		/* ASCII large capital */
1727:.\sd/ff.c     **** 					b |= 2;
1728:.\sd/ff.c     **** 				} else {
1729:.\sd/ff.c     **** 					if (IsLower(w)) {	/* ASCII small capital */
1730:.\sd/ff.c     **** 						b |= 1; w -= 0x20;
1731:.\sd/ff.c     **** 					}
1732:.\sd/ff.c     **** 				}
1733:.\sd/ff.c     **** 			}
1734:.\sd/ff.c     **** 		}
1735:.\sd/ff.c     **** 		dj->fn[i++] = (BYTE)w;
1736:.\sd/ff.c     **** 	}
1737:.\sd/ff.c     **** 
1738:.\sd/ff.c     **** 	if (dj->fn[0] == DDE) dj->fn[0] = NDDE;	/* If the first char collides with deleted mark, replace i
1739:.\sd/ff.c     **** 
1740:.\sd/ff.c     **** 	if (ni == 8) b <<= 2;
1741:.\sd/ff.c     **** 	if ((b & 0x0C) == 0x0C || (b & 0x03) == 0x03)	/* Create LFN entry when there are composite capital
1742:.\sd/ff.c     **** 		cf |= NS_LFN;
1743:.\sd/ff.c     **** 	if (!(cf & NS_LFN)) {						/* When LFN is in 8.3 format without extended char, NT flags are create
1744:.\sd/ff.c     **** 		if ((b & 0x03) == 0x01) cf |= NS_EXT;	/* NT flag (Extension has only small capital) */
1745:.\sd/ff.c     **** 		if ((b & 0x0C) == 0x04) cf |= NS_BODY;	/* NT flag (Filename has only small capital) */
1746:.\sd/ff.c     **** 	}
1747:.\sd/ff.c     **** 
1748:.\sd/ff.c     **** 	dj->fn[NS] = cf;	/* SFN is created */
1749:.\sd/ff.c     **** 
1750:.\sd/ff.c     **** 	return FR_OK;
1751:.\sd/ff.c     **** 
1752:.\sd/ff.c     **** 
1753:.\sd/ff.c     **** #else	/* Non-LFN configuration */
1754:.\sd/ff.c     **** 	BYTE b, c, d, *sfn;
1755:.\sd/ff.c     **** 	UINT ni, si, i;
1756:.\sd/ff.c     **** 	const char *p;
1757:.\sd/ff.c     **** 
1758:.\sd/ff.c     **** 	/* Create file name in directory form */
1759:.\sd/ff.c     **** 	for (p = *path; *p == '/' || *p == '\\'; p++) ;	/* Strip duplicated separator */
 710              		.loc 1 1759 0
 711 000e 0C68     		ldr	r4, [r1]
 712              	.LVL80:
 713 0010 00E0     		b	.L71
 714              	.L72:
 715              		.loc 1 1759 0 is_stmt 0 discriminator 2
 716 0012 0134     		add	r4, r4, #1
 717              	.LVL81:
 718              	.L71:
 719              		.loc 1 1759 0 discriminator 1
 720 0014 2378     		ldrb	r3, [r4]
 721 0016 2F2B     		cmp	r3, #47
 722 0018 FBD0     		beq	.L72
 723              		.loc 1 1759 0 discriminator 3
 724 001a 5C2B     		cmp	r3, #92
 725 001c F9D0     		beq	.L72
1760:.\sd/ff.c     **** 	sfn = dj->fn;
 726              		.loc 1 1760 0 is_stmt 1
 727 001e 8169     		ldr	r1, [r0, #24]
ARM GAS  C:\Users\Jarik\AppData\Local\Temp\ccOwmDxA.s 			page 45


 728              	.LVL82:
 729 0020 8846     		mov	r8, r1
 730              	.LVL83:
1761:.\sd/ff.c     **** 	mem_set(sfn, ' ', 11);
 731              		.loc 1 1761 0
 732 0022 081C     		mov	r0, r1
 733              	.LVL84:
 734 0024 2021     		mov	r1, #32
 735              	.LVL85:
 736 0026 0B22     		mov	r2, #11
 737 0028 FFF7FEFF 		bl	mem_set
 738              	.LVL86:
1762:.\sd/ff.c     **** 	si = i = b = 0; ni = 8;
 739              		.loc 1 1762 0
 740 002c 0026     		mov	r6, #0
 741 002e 0023     		mov	r3, #0
 742 0030 0827     		mov	r7, #8
 743 0032 9A46     		mov	r10, r3
 744 0034 00E0     		b	.L73
 745              	.LVL87:
 746              	.L78:
 747 0036 4B46     		mov	r3, r9
 748              	.LVL88:
 749              	.L73:
1763:.\sd/ff.c     **** #if _FS_RPATH
1764:.\sd/ff.c     **** 	if (p[si] == '.') { /* Is this a dot entry? */
1765:.\sd/ff.c     **** 		for (;;) {
1766:.\sd/ff.c     **** 			c = (BYTE)p[si++];
1767:.\sd/ff.c     **** 			if (c != '.' || si >= 3) break;
1768:.\sd/ff.c     **** 			sfn[i++] = c;
1769:.\sd/ff.c     **** 		}
1770:.\sd/ff.c     **** 		if (c != '/' && c != '\\' && c > ' ') return FR_INVALID_NAME;
1771:.\sd/ff.c     **** 		*path = &p[si];									/* Return pointer to the next segment */
1772:.\sd/ff.c     **** 		sfn[NS] = (c <= ' ') ? NS_LAST | NS_DOT : NS_DOT;	/* Set last segment flag if end of path */
1773:.\sd/ff.c     **** 		return FR_OK;
1774:.\sd/ff.c     **** 	}
1775:.\sd/ff.c     **** #endif
1776:.\sd/ff.c     **** 	for (;;) {
1777:.\sd/ff.c     **** 		c = (BYTE)p[si++];
 750              		.loc 1 1777 0
 751 0038 591C     		add	r1, r3, #1
 752 003a 8946     		mov	r9, r1
 753              	.LVL89:
 754 003c E55C     		ldrb	r5, [r4, r3]
 755              	.LVL90:
1778:.\sd/ff.c     **** 		if (c <= ' ' || c == '/' || c == '\\') break;	/* Break on end of segment */
 756              		.loc 1 1778 0
 757 003e 202D     		cmp	r5, #32
 758 0040 39D9     		bls	.L74
 759              		.loc 1 1778 0 is_stmt 0 discriminator 1
 760 0042 2F2D     		cmp	r5, #47
 761 0044 37D0     		beq	.L74
 762 0046 5C2D     		cmp	r5, #92
 763 0048 35D0     		beq	.L74
1779:.\sd/ff.c     **** 		if (c == '.' || i >= ni) {
 764              		.loc 1 1779 0 is_stmt 1
 765 004a 2E2D     		cmp	r5, #46
ARM GAS  C:\Users\Jarik\AppData\Local\Temp\ccOwmDxA.s 			page 46


 766 004c 01D0     		beq	.L75
 767              		.loc 1 1779 0 is_stmt 0 discriminator 1
 768 004e BE42     		cmp	r6, r7
 769 0050 0AD3     		bcc	.L76
 770              	.L75:
1780:.\sd/ff.c     **** 			if (ni != 8 || c != '.') return FR_INVALID_NAME;
 771              		.loc 1 1780 0 is_stmt 1
 772 0052 082F     		cmp	r7, #8
 773 0054 57D1     		bne	.L87
 774              		.loc 1 1780 0 is_stmt 0 discriminator 2
 775 0056 2E2D     		cmp	r5, #46
 776 0058 57D1     		bne	.L88
 777              	.LVL91:
1781:.\sd/ff.c     **** 			i = 8; ni = 11;
1782:.\sd/ff.c     **** 			b <<= 2; continue;
 778              		.loc 1 1782 0 is_stmt 1
 779 005a 5246     		mov	r2, r10
 780 005c 9300     		lsl	r3, r2, #2
 781              	.LVL92:
 782 005e DBB2     		uxtb	r3, r3
 783 0060 9A46     		mov	r10, r3
 784              	.LVL93:
1781:.\sd/ff.c     **** 			i = 8; ni = 11;
 785              		.loc 1 1781 0
 786 0062 0826     		mov	r6, #8
 787 0064 0B27     		mov	r7, #11
 788              		.loc 1 1782 0
 789 0066 E6E7     		b	.L78
 790              	.LVL94:
 791              	.L76:
1783:.\sd/ff.c     **** 		}
1784:.\sd/ff.c     **** 		if (c >= 0x80) {				/* Extended char? */
 792              		.loc 1 1784 0
 793 0068 6BB2     		sxtb	r3, r5
 794              	.LVL95:
 795 006a 002B     		cmp	r3, #0
 796 006c 06DA     		bge	.L79
1785:.\sd/ff.c     **** 			b |= 3;						/* Eliminate NT flag */
 797              		.loc 1 1785 0
 798 006e 0323     		mov	r3, #3
 799 0070 5146     		mov	r1, r10
 800              	.LVL96:
 801 0072 1943     		orr	r1, r3
 802 0074 8A46     		mov	r10, r1
 803              	.LVL97:
1786:.\sd/ff.c     **** #ifdef _EXCVT
1787:.\sd/ff.c     **** 			c = excvt[c-0x80];			/* Upper conversion (SBCS) */
 804              		.loc 1 1787 0
 805 0076 803D     		sub	r5, r5, #128
 806 0078 294A     		ldr	r2, .L92
 807 007a 555D     		ldrb	r5, [r2, r5]
 808              	.LVL98:
 809              	.L79:
1788:.\sd/ff.c     **** #else
1789:.\sd/ff.c     **** #if !_DF1S	/* ASCII only cfg */
1790:.\sd/ff.c     **** 			return FR_INVALID_NAME;
1791:.\sd/ff.c     **** #endif
ARM GAS  C:\Users\Jarik\AppData\Local\Temp\ccOwmDxA.s 			page 47


1792:.\sd/ff.c     **** #endif
1793:.\sd/ff.c     **** 		}
1794:.\sd/ff.c     **** 		if (IsDBCS1(c)) {				/* Check if it is a DBC 1st byte (always false on SBCS cfg) */
1795:.\sd/ff.c     **** 			d = (BYTE)p[si++];			/* Get 2nd byte */
1796:.\sd/ff.c     **** 			if (!IsDBCS2(d) || i >= ni - 1)	/* Reject invalid DBC */
1797:.\sd/ff.c     **** 				return FR_INVALID_NAME;
1798:.\sd/ff.c     **** 			sfn[i++] = c;
1799:.\sd/ff.c     **** 			sfn[i++] = d;
1800:.\sd/ff.c     **** 		} else {						/* Single byte code */
1801:.\sd/ff.c     **** 			if (chk_chr("\"*+,:;<=>\?[]|\x7F", c))	/* Reject illegal chrs for SFN */
 810              		.loc 1 1801 0
 811 007c 2948     		ldr	r0, .L92+4
 812 007e 291C     		mov	r1, r5
 813 0080 FFF7FEFF 		bl	chk_chr
 814              	.LVL99:
 815 0084 0028     		cmp	r0, #0
 816 0086 42D1     		bne	.L89
1802:.\sd/ff.c     **** 				return FR_INVALID_NAME;
1803:.\sd/ff.c     **** 			if (IsUpper(c)) {			/* ASCII large capital? */
 817              		.loc 1 1803 0
 818 0088 2B1C     		mov	r3, r5
 819 008a 413B     		sub	r3, r3, #65
 820 008c 192B     		cmp	r3, #25
 821 008e 04D8     		bhi	.L80
1804:.\sd/ff.c     **** 				b |= 2;
 822              		.loc 1 1804 0
 823 0090 0223     		mov	r3, #2
 824 0092 5146     		mov	r1, r10
 825 0094 1943     		orr	r1, r3
 826 0096 8A46     		mov	r10, r1
 827              	.LVL100:
 828 0098 09E0     		b	.L81
 829              	.LVL101:
 830              	.L80:
1805:.\sd/ff.c     **** 			} else {
1806:.\sd/ff.c     **** 				if (IsLower(c)) {		/* ASCII small capital? */
 831              		.loc 1 1806 0
 832 009a 2B1C     		mov	r3, r5
 833 009c 613B     		sub	r3, r3, #97
 834 009e 192B     		cmp	r3, #25
 835 00a0 05D8     		bhi	.L81
1807:.\sd/ff.c     **** 					b |= 1; c -= 0x20;
 836              		.loc 1 1807 0
 837 00a2 0123     		mov	r3, #1
 838 00a4 5246     		mov	r2, r10
 839 00a6 1A43     		orr	r2, r3
 840 00a8 9246     		mov	r10, r2
 841              	.LVL102:
 842 00aa 203D     		sub	r5, r5, #32
 843              	.LVL103:
 844 00ac EDB2     		uxtb	r5, r5
 845              	.LVL104:
 846              	.L81:
1808:.\sd/ff.c     **** 				}
1809:.\sd/ff.c     **** 			}
1810:.\sd/ff.c     **** 			sfn[i++] = c;
 847              		.loc 1 1810 0
ARM GAS  C:\Users\Jarik\AppData\Local\Temp\ccOwmDxA.s 			page 48


 848 00ae 4346     		mov	r3, r8
 849 00b0 9D55     		strb	r5, [r3, r6]
 850 00b2 0136     		add	r6, r6, #1
 851              	.LVL105:
 852 00b4 BFE7     		b	.L78
 853              	.LVL106:
 854              	.L74:
1811:.\sd/ff.c     **** 		}
1812:.\sd/ff.c     **** 	}
1813:.\sd/ff.c     **** 	*path = &p[si];						/* Return pointer to the next segment */
 855              		.loc 1 1813 0
 856 00b6 4C44     		add	r4, r4, r9
 857              	.LVL107:
 858 00b8 5946     		mov	r1, fp
 859              	.LVL108:
 860 00ba 0C60     		str	r4, [r1]
1814:.\sd/ff.c     **** 	c = (c <= ' ') ? NS_LAST : 0;		/* Set last segment flag if end of path */
 861              		.loc 1 1814 0
 862 00bc 202D     		cmp	r5, #32
 863 00be 01D8     		bhi	.L90
 864              	.LVL109:
 865 00c0 0423     		mov	r3, #4
 866 00c2 00E0     		b	.L82
 867              	.L90:
 868 00c4 0023     		mov	r3, #0
 869              	.L82:
 870              	.LVL110:
1815:.\sd/ff.c     **** 
1816:.\sd/ff.c     **** 	if (!i) return FR_INVALID_NAME;		/* Reject nul string */
 871              		.loc 1 1816 0 discriminator 3
 872 00c6 002E     		cmp	r6, #0
 873 00c8 23D0     		beq	.L91
1817:.\sd/ff.c     **** 	if (sfn[0] == DDE) sfn[0] = NDDE;	/* When first char collides with DDE, replace it with 0x05 */
 874              		.loc 1 1817 0
 875 00ca 4146     		mov	r1, r8
 876              	.LVL111:
 877 00cc 0A78     		ldrb	r2, [r1]
 878 00ce E52A     		cmp	r2, #229
 879 00d0 01D1     		bne	.L83
 880              	.LVL112:
 881              		.loc 1 1817 0 is_stmt 0 discriminator 1
 882 00d2 0522     		mov	r2, #5
 883 00d4 0A70     		strb	r2, [r1]
 884              	.L83:
1818:.\sd/ff.c     **** 
1819:.\sd/ff.c     **** 	if (ni == 8) b <<= 2;
 885              		.loc 1 1819 0 is_stmt 1
 886 00d6 082F     		cmp	r7, #8
 887 00d8 03D1     		bne	.L84
 888              		.loc 1 1819 0 is_stmt 0 discriminator 1
 889 00da 5146     		mov	r1, r10
 890              	.LVL113:
 891 00dc 8A00     		lsl	r2, r1, #2
 892 00de D2B2     		uxtb	r2, r2
 893 00e0 9246     		mov	r10, r2
 894              	.LVL114:
 895              	.L84:
ARM GAS  C:\Users\Jarik\AppData\Local\Temp\ccOwmDxA.s 			page 49


1820:.\sd/ff.c     **** 	if ((b & 0x03) == 0x01) c |= NS_EXT;	/* NT flag (Name extension has only small capital) */
 896              		.loc 1 1820 0 is_stmt 1
 897 00e2 0322     		mov	r2, #3
 898 00e4 5146     		mov	r1, r10
 899 00e6 0A40     		and	r2, r1
 900 00e8 012A     		cmp	r2, #1
 901 00ea 01D1     		bne	.L85
 902              		.loc 1 1820 0 is_stmt 0 discriminator 1
 903 00ec 1022     		mov	r2, #16
 904 00ee 1343     		orr	r3, r2
 905              	.LVL115:
 906              	.L85:
1821:.\sd/ff.c     **** 	if ((b & 0x0C) == 0x04) c |= NS_BODY;	/* NT flag (Name body has only small capital) */
 907              		.loc 1 1821 0 is_stmt 1
 908 00f0 0C22     		mov	r2, #12
 909 00f2 5146     		mov	r1, r10
 910 00f4 0A40     		and	r2, r1
 911 00f6 042A     		cmp	r2, #4
 912 00f8 01D1     		bne	.L86
 913              	.LVL116:
 914              		.loc 1 1821 0 is_stmt 0 discriminator 1
 915 00fa 0822     		mov	r2, #8
 916 00fc 1343     		orr	r3, r2
 917              	.LVL117:
 918              	.L86:
1822:.\sd/ff.c     **** 
1823:.\sd/ff.c     **** 	sfn[NS] = c;		/* Store NT flag, File name is created */
 919              		.loc 1 1823 0 is_stmt 1
 920 00fe 4246     		mov	r2, r8
 921 0100 D372     		strb	r3, [r2, #11]
1824:.\sd/ff.c     **** 
1825:.\sd/ff.c     **** 	return FR_OK;
 922              		.loc 1 1825 0
 923 0102 0020     		mov	r0, #0
 924 0104 06E0     		b	.L77
 925              	.LVL118:
 926              	.L87:
1780:.\sd/ff.c     **** 			if (ni != 8 || c != '.') return FR_INVALID_NAME;
 927              		.loc 1 1780 0
 928 0106 0620     		mov	r0, #6
 929 0108 04E0     		b	.L77
 930              	.L88:
 931 010a 0620     		mov	r0, #6
 932 010c 02E0     		b	.L77
 933              	.LVL119:
 934              	.L89:
1802:.\sd/ff.c     **** 				return FR_INVALID_NAME;
 935              		.loc 1 1802 0
 936 010e 0620     		mov	r0, #6
 937 0110 00E0     		b	.L77
 938              	.LVL120:
 939              	.L91:
1816:.\sd/ff.c     **** 	if (!i) return FR_INVALID_NAME;		/* Reject nul string */
 940              		.loc 1 1816 0
 941 0112 0620     		mov	r0, #6
 942              	.LVL121:
 943              	.L77:
ARM GAS  C:\Users\Jarik\AppData\Local\Temp\ccOwmDxA.s 			page 50


1826:.\sd/ff.c     **** #endif
1827:.\sd/ff.c     **** }
 944              		.loc 1 1827 0
 945              		@ sp needed
 946              	.LVL122:
 947              	.LVL123:
 948              	.LVL124:
 949              	.LVL125:
 950              	.LVL126:
 951 0114 3CBC     		pop	{r2, r3, r4, r5}
 952 0116 9046     		mov	r8, r2
 953 0118 9946     		mov	r9, r3
 954 011a A246     		mov	r10, r4
 955 011c AB46     		mov	fp, r5
 956 011e F8BD     		pop	{r3, r4, r5, r6, r7, pc}
 957              	.L93:
 958              		.align	2
 959              	.L92:
 960 0120 00000000 		.word	.LANCHOR1
 961 0124 00000000 		.word	.LC6
 962              		.cfi_endproc
 963              	.LFE22:
 964              		.size	create_name, .-create_name
 965              		.section	.text.get_fileinfo,"ax",%progbits
 966              		.align	2
 967              		.code	16
 968              		.thumb_func
 969              		.type	get_fileinfo, %function
 970              	get_fileinfo:
 971              	.LFB23:
1828:.\sd/ff.c     **** 
1829:.\sd/ff.c     **** 
1830:.\sd/ff.c     **** 
1831:.\sd/ff.c     **** 
1832:.\sd/ff.c     **** /*-----------------------------------------------------------------------*/
1833:.\sd/ff.c     **** /* Get file information from directory entry                             */
1834:.\sd/ff.c     **** /*-----------------------------------------------------------------------*/
1835:.\sd/ff.c     **** #if _FS_MINIMIZE <= 1
1836:.\sd/ff.c     **** static
1837:.\sd/ff.c     **** void get_fileinfo (		/* No return code */
1838:.\sd/ff.c     **** 	DIR *dj,			/* Pointer to the directory object */
1839:.\sd/ff.c     **** 	FILINFO *fno	 	/* Pointer to the file information to be filled */
1840:.\sd/ff.c     **** )
1841:.\sd/ff.c     **** {
 972              		.loc 1 1841 0
 973              		.cfi_startproc
 974              	.LVL127:
 975 0000 30B5     		push	{r4, r5, lr}
 976              		.cfi_def_cfa_offset 12
 977              		.cfi_offset 4, -12
 978              		.cfi_offset 5, -8
 979              		.cfi_offset 14, -4
1842:.\sd/ff.c     **** 	UINT i;
1843:.\sd/ff.c     **** 	BYTE nt, *dir;
1844:.\sd/ff.c     **** 	TCHAR *p, c;
1845:.\sd/ff.c     **** 
1846:.\sd/ff.c     **** 
ARM GAS  C:\Users\Jarik\AppData\Local\Temp\ccOwmDxA.s 			page 51


1847:.\sd/ff.c     **** 	p = fno->fname;
 980              		.loc 1 1847 0
 981 0002 0B1C     		mov	r3, r1
 982 0004 0933     		add	r3, r3, #9
 983              	.LVL128:
1848:.\sd/ff.c     **** 	if (dj->sect) {
 984              		.loc 1 1848 0
 985 0006 0269     		ldr	r2, [r0, #16]
 986 0008 002A     		cmp	r2, #0
 987 000a 35D0     		beq	.L95
1849:.\sd/ff.c     **** 		dir = dj->dir;
 988              		.loc 1 1849 0
 989 000c 4469     		ldr	r4, [r0, #20]
 990              	.LVL129:
1850:.\sd/ff.c     **** 		nt = dir[DIR_NTres];		/* NT flag */
1851:.\sd/ff.c     **** 		for (i = 0; i < 8; i++) {	/* Copy name body */
 991              		.loc 1 1851 0
 992 000e 0022     		mov	r2, #0
1852:.\sd/ff.c     **** 			c = dir[i];
1853:.\sd/ff.c     **** 			if (c == ' ') break;
1854:.\sd/ff.c     **** 			if (c == NDDE) c = (TCHAR)DDE;
 993              		.loc 1 1854 0
 994 0010 E525     		mov	r5, #229
1851:.\sd/ff.c     **** 		for (i = 0; i < 8; i++) {	/* Copy name body */
 995              		.loc 1 1851 0
 996 0012 08E0     		b	.L96
 997              	.LVL130:
 998              	.L99:
1852:.\sd/ff.c     **** 			c = dir[i];
 999              		.loc 1 1852 0
 1000 0014 A05C     		ldrb	r0, [r4, r2]
 1001              	.LVL131:
1853:.\sd/ff.c     **** 			if (c == ' ') break;
 1002              		.loc 1 1853 0
 1003 0016 2028     		cmp	r0, #32
 1004 0018 07D0     		beq	.L97
 1005              		.loc 1 1854 0
 1006 001a 0528     		cmp	r0, #5
 1007 001c 00D1     		bne	.L98
 1008 001e 281C     		mov	r0, r5
 1009              	.L98:
 1010              	.LVL132:
1855:.\sd/ff.c     **** 			if (_USE_LFN && (nt & NS_BODY) && IsUpper(c)) c += 0x20;
1856:.\sd/ff.c     **** #if _LFN_UNICODE
1857:.\sd/ff.c     **** 			if (IsDBCS1(c) && i < 7 && IsDBCS2(dir[i+1]))
1858:.\sd/ff.c     **** 				c = (c << 8) | dir[++i];
1859:.\sd/ff.c     **** 			c = ff_convert(c, 1);
1860:.\sd/ff.c     **** 			if (!c) c = '?';
1861:.\sd/ff.c     **** #endif
1862:.\sd/ff.c     **** 			*p++ = c;
 1011              		.loc 1 1862 0
 1012 0020 1870     		strb	r0, [r3]
1851:.\sd/ff.c     **** 		for (i = 0; i < 8; i++) {	/* Copy name body */
 1013              		.loc 1 1851 0
 1014 0022 0132     		add	r2, r2, #1
 1015              	.LVL133:
 1016              		.loc 1 1862 0
ARM GAS  C:\Users\Jarik\AppData\Local\Temp\ccOwmDxA.s 			page 52


 1017 0024 0133     		add	r3, r3, #1
 1018              	.LVL134:
 1019              	.L96:
1851:.\sd/ff.c     **** 		for (i = 0; i < 8; i++) {	/* Copy name body */
 1020              		.loc 1 1851 0 discriminator 1
 1021 0026 072A     		cmp	r2, #7
 1022 0028 F4D9     		bls	.L99
 1023              	.L97:
1863:.\sd/ff.c     **** 		}
1864:.\sd/ff.c     **** 		if (dir[8] != ' ') {		/* Copy name extension */
 1024              		.loc 1 1864 0
 1025 002a 227A     		ldrb	r2, [r4, #8]
 1026              	.LVL135:
 1027 002c 202A     		cmp	r2, #32
 1028 002e 0CD0     		beq	.L100
 1029              	.LVL136:
1865:.\sd/ff.c     **** 			*p++ = '.';
 1030              		.loc 1 1865 0
 1031 0030 2E22     		mov	r2, #46
 1032 0032 1A70     		strb	r2, [r3]
 1033              	.LVL137:
 1034 0034 0133     		add	r3, r3, #1
 1035              	.LVL138:
1866:.\sd/ff.c     **** 			for (i = 8; i < 11; i++) {
 1036              		.loc 1 1866 0
 1037 0036 0822     		mov	r2, #8
 1038 0038 05E0     		b	.L101
 1039              	.LVL139:
 1040              	.L102:
1867:.\sd/ff.c     **** 				c = dir[i];
 1041              		.loc 1 1867 0
 1042 003a A05C     		ldrb	r0, [r4, r2]
 1043              	.LVL140:
1868:.\sd/ff.c     **** 				if (c == ' ') break;
 1044              		.loc 1 1868 0
 1045 003c 2028     		cmp	r0, #32
 1046 003e 04D0     		beq	.L100
 1047              	.LVL141:
1869:.\sd/ff.c     **** 				if (_USE_LFN && (nt & NS_EXT) && IsUpper(c)) c += 0x20;
1870:.\sd/ff.c     **** #if _LFN_UNICODE
1871:.\sd/ff.c     **** 				if (IsDBCS1(c) && i < 10 && IsDBCS2(dir[i+1]))
1872:.\sd/ff.c     **** 					c = (c << 8) | dir[++i];
1873:.\sd/ff.c     **** 				c = ff_convert(c, 1);
1874:.\sd/ff.c     **** 				if (!c) c = '?';
1875:.\sd/ff.c     **** #endif
1876:.\sd/ff.c     **** 				*p++ = c;
 1048              		.loc 1 1876 0
 1049 0040 1870     		strb	r0, [r3]
 1050              	.LVL142:
1866:.\sd/ff.c     **** 			for (i = 8; i < 11; i++) {
 1051              		.loc 1 1866 0
 1052 0042 0132     		add	r2, r2, #1
 1053              	.LVL143:
 1054              		.loc 1 1876 0
 1055 0044 0133     		add	r3, r3, #1
 1056              	.LVL144:
 1057              	.L101:
ARM GAS  C:\Users\Jarik\AppData\Local\Temp\ccOwmDxA.s 			page 53


1866:.\sd/ff.c     **** 			for (i = 8; i < 11; i++) {
 1058              		.loc 1 1866 0 discriminator 1
 1059 0046 0A2A     		cmp	r2, #10
 1060 0048 F7D9     		bls	.L102
 1061              	.LVL145:
 1062              	.L100:
1877:.\sd/ff.c     **** 			}
1878:.\sd/ff.c     **** 		}
1879:.\sd/ff.c     **** 		fno->fattrib = dir[DIR_Attr];				/* Attribute */
 1063              		.loc 1 1879 0
 1064 004a E27A     		ldrb	r2, [r4, #11]
 1065 004c 0A72     		strb	r2, [r1, #8]
1880:.\sd/ff.c     **** 		fno->fsize = LD_DWORD(dir+DIR_FileSize);	/* Size */
 1066              		.loc 1 1880 0
 1067 004e E07F     		ldrb	r0, [r4, #31]
 1068 0050 0006     		lsl	r0, r0, #24
 1069 0052 A27F     		ldrb	r2, [r4, #30]
 1070 0054 1204     		lsl	r2, r2, #16
 1071 0056 0243     		orr	r2, r0
 1072 0058 607F     		ldrb	r0, [r4, #29]
 1073 005a 0002     		lsl	r0, r0, #8
 1074 005c 0243     		orr	r2, r0
 1075 005e 207F     		ldrb	r0, [r4, #28]
 1076 0060 0243     		orr	r2, r0
 1077 0062 0A60     		str	r2, [r1]
1881:.\sd/ff.c     **** 		fno->fdate = LD_WORD(dir+DIR_WrtDate);		/* Date */
 1078              		.loc 1 1881 0
 1079 0064 627E     		ldrb	r2, [r4, #25]
 1080 0066 1202     		lsl	r2, r2, #8
 1081 0068 207E     		ldrb	r0, [r4, #24]
 1082 006a 0243     		orr	r2, r0
 1083 006c 8A80     		strh	r2, [r1, #4]
1882:.\sd/ff.c     **** 		fno->ftime = LD_WORD(dir+DIR_WrtTime);		/* Time */
 1084              		.loc 1 1882 0
 1085 006e E27D     		ldrb	r2, [r4, #23]
 1086 0070 1202     		lsl	r2, r2, #8
 1087 0072 A07D     		ldrb	r0, [r4, #22]
 1088 0074 0243     		orr	r2, r0
 1089 0076 CA80     		strh	r2, [r1, #6]
 1090              	.LVL146:
 1091              	.L95:
1883:.\sd/ff.c     **** 	}
1884:.\sd/ff.c     **** 	*p = 0;		/* Terminate SFN str by a \0 */
 1092              		.loc 1 1884 0
 1093 0078 0022     		mov	r2, #0
 1094 007a 1A70     		strb	r2, [r3]
1885:.\sd/ff.c     **** 
1886:.\sd/ff.c     **** #if _USE_LFN
1887:.\sd/ff.c     **** 	if (fno->lfname && fno->lfsize) {
1888:.\sd/ff.c     **** 		TCHAR *tp = fno->lfname;
1889:.\sd/ff.c     **** 		WCHAR w, *lfn;
1890:.\sd/ff.c     **** 
1891:.\sd/ff.c     **** 		i = 0;
1892:.\sd/ff.c     **** 		if (dj->sect && dj->lfn_idx != 0xFFFF) {/* Get LFN if available */
1893:.\sd/ff.c     **** 			lfn = dj->lfn;
1894:.\sd/ff.c     **** 			while ((w = *lfn++) != 0) {			/* Get an LFN char */
1895:.\sd/ff.c     **** #if !_LFN_UNICODE
ARM GAS  C:\Users\Jarik\AppData\Local\Temp\ccOwmDxA.s 			page 54


1896:.\sd/ff.c     **** 				w = ff_convert(w, 0);			/* Unicode -> OEM conversion */
1897:.\sd/ff.c     **** 				if (!w) { i = 0; break; }		/* Could not convert, no LFN */
1898:.\sd/ff.c     **** 				if (_DF1S && w >= 0x100)		/* Put 1st byte if it is a DBC (always false on SBCS cfg) */
1899:.\sd/ff.c     **** 					tp[i++] = (TCHAR)(w >> 8);
1900:.\sd/ff.c     **** #endif
1901:.\sd/ff.c     **** 				if (i >= fno->lfsize - 1) { i = 0; break; }	/* Buffer overflow, no LFN */
1902:.\sd/ff.c     **** 				tp[i++] = (TCHAR)w;
1903:.\sd/ff.c     **** 			}
1904:.\sd/ff.c     **** 		}
1905:.\sd/ff.c     **** 		tp[i] = 0;	/* Terminate the LFN str by a \0 */
1906:.\sd/ff.c     **** 	}
1907:.\sd/ff.c     **** #endif
1908:.\sd/ff.c     **** }
 1095              		.loc 1 1908 0
 1096              		@ sp needed
 1097 007c 30BD     		pop	{r4, r5, pc}
 1098              		.cfi_endproc
 1099              	.LFE23:
 1100              		.size	get_fileinfo, .-get_fileinfo
 1101 007e C046     		.section	.text.move_window,"ax",%progbits
 1102              		.align	2
 1103              		.code	16
 1104              		.thumb_func
 1105              		.type	move_window, %function
 1106              	move_window:
 1107              	.LFB9:
 723:.\sd/ff.c     **** {
 1108              		.loc 1 723 0
 1109              		.cfi_startproc
 1110              	.LVL147:
 1111 0000 F0B5     		push	{r4, r5, r6, r7, lr}
 1112              		.cfi_def_cfa_offset 20
 1113              		.cfi_offset 4, -20
 1114              		.cfi_offset 5, -16
 1115              		.cfi_offset 6, -12
 1116              		.cfi_offset 7, -8
 1117              		.cfi_offset 14, -4
 1118 0002 4746     		mov	r7, r8
 1119 0004 80B4     		push	{r7}
 1120              		.cfi_def_cfa_offset 24
 1121              		.cfi_offset 8, -24
 1122 0006 041C     		mov	r4, r0
 1123 0008 0E1C     		mov	r6, r1
 727:.\sd/ff.c     **** 	wsect = fs->winsect;
 1124              		.loc 1 727 0
 1125 000a C56A     		ldr	r5, [r0, #44]
 1126              	.LVL148:
 728:.\sd/ff.c     **** 	if (wsect != sector) {	/* Changed current window */
 1127              		.loc 1 728 0
 1128 000c 8D42     		cmp	r5, r1
 1129 000e 2ED0     		beq	.L109
 730:.\sd/ff.c     **** 		if (fs->wflag) {	/* Write back dirty window if needed */
 1130              		.loc 1 730 0
 1131 0010 0379     		ldrb	r3, [r0, #4]
 1132 0012 002B     		cmp	r3, #0
 1133 0014 1ED0     		beq	.L106
 731:.\sd/ff.c     **** 			if (disk_write(fs->drv, fs->win, wsect, 1) != RES_OK)
ARM GAS  C:\Users\Jarik\AppData\Local\Temp\ccOwmDxA.s 			page 55


 1134              		.loc 1 731 0
 1135 0016 3021     		mov	r1, #48
 1136              	.LVL149:
 1137 0018 0918     		add	r1, r1, r0
 1138 001a 8846     		mov	r8, r1
 1139 001c 4078     		ldrb	r0, [r0, #1]
 1140              	.LVL150:
 1141 001e 2A1C     		mov	r2, r5
 1142 0020 0123     		mov	r3, #1
 1143 0022 FFF7FEFF 		bl	disk_write
 1144              	.LVL151:
 1145 0026 0028     		cmp	r0, #0
 1146 0028 23D1     		bne	.L110
 733:.\sd/ff.c     **** 			fs->wflag = 0;
 1147              		.loc 1 733 0
 1148 002a 0023     		mov	r3, #0
 1149 002c 2371     		strb	r3, [r4, #4]
 734:.\sd/ff.c     **** 			if (wsect < (fs->fatbase + fs->fsize)) {	/* In FAT area */
 1150              		.loc 1 734 0
 1151 002e 226A     		ldr	r2, [r4, #32]
 1152 0030 E169     		ldr	r1, [r4, #28]
 1153 0032 5318     		add	r3, r2, r1
 1154 0034 AB42     		cmp	r3, r5
 1155 0036 0DD9     		bls	.L106
 1156              	.LBB2:
 736:.\sd/ff.c     **** 				for (nf = fs->n_fats; nf > 1; nf--) {	/* Reflect the change to all FAT copies */
 1157              		.loc 1 736 0
 1158 0038 E778     		ldrb	r7, [r4, #3]
 1159              	.LVL152:
 1160 003a 09E0     		b	.L107
 1161              	.LVL153:
 1162              	.L108:
 737:.\sd/ff.c     **** 					wsect += fs->fsize;
 1163              		.loc 1 737 0 discriminator 2
 1164 003c E269     		ldr	r2, [r4, #28]
 1165 003e AD18     		add	r5, r5, r2
 1166              	.LVL154:
 738:.\sd/ff.c     **** 					disk_write(fs->drv, fs->win, wsect, 1);
 1167              		.loc 1 738 0 discriminator 2
 1168 0040 6078     		ldrb	r0, [r4, #1]
 1169 0042 4146     		mov	r1, r8
 1170 0044 2A1C     		mov	r2, r5
 1171 0046 0123     		mov	r3, #1
 1172 0048 FFF7FEFF 		bl	disk_write
 1173              	.LVL155:
 736:.\sd/ff.c     **** 				for (nf = fs->n_fats; nf > 1; nf--) {	/* Reflect the change to all FAT copies */
 1174              		.loc 1 736 0 discriminator 2
 1175 004c 013F     		sub	r7, r7, #1
 1176              	.LVL156:
 1177 004e FFB2     		uxtb	r7, r7
 1178              	.LVL157:
 1179              	.L107:
 736:.\sd/ff.c     **** 				for (nf = fs->n_fats; nf > 1; nf--) {	/* Reflect the change to all FAT copies */
 1180              		.loc 1 736 0 is_stmt 0 discriminator 1
 1181 0050 012F     		cmp	r7, #1
 1182 0052 F3D8     		bhi	.L108
 1183              	.LVL158:
ARM GAS  C:\Users\Jarik\AppData\Local\Temp\ccOwmDxA.s 			page 56


 1184              	.L106:
 1185              	.LBE2:
 743:.\sd/ff.c     **** 		if (sector) {
 1186              		.loc 1 743 0 is_stmt 1
 1187 0054 002E     		cmp	r6, #0
 1188 0056 0ED0     		beq	.L111
 744:.\sd/ff.c     **** 			if (disk_read(fs->drv, fs->win, sector, 1) != RES_OK)
 1189              		.loc 1 744 0
 1190 0058 211C     		mov	r1, r4
 1191 005a 3031     		add	r1, r1, #48
 1192 005c 6078     		ldrb	r0, [r4, #1]
 1193 005e 321C     		mov	r2, r6
 1194 0060 0123     		mov	r3, #1
 1195 0062 FFF7FEFF 		bl	disk_read
 1196              	.LVL159:
 1197 0066 0028     		cmp	r0, #0
 1198 0068 07D1     		bne	.L112
 746:.\sd/ff.c     **** 			fs->winsect = sector;
 1199              		.loc 1 746 0
 1200 006a E662     		str	r6, [r4, #44]
 1201 006c 06E0     		b	.L105
 1202              	.LVL160:
 1203              	.L109:
 750:.\sd/ff.c     **** 	return FR_OK;
 1204              		.loc 1 750 0
 1205 006e 0020     		mov	r0, #0
 1206              	.LVL161:
 1207 0070 04E0     		b	.L105
 1208              	.LVL162:
 1209              	.L110:
 732:.\sd/ff.c     **** 				return FR_DISK_ERR;
 1210              		.loc 1 732 0
 1211 0072 0120     		mov	r0, #1
 1212 0074 02E0     		b	.L105
 1213              	.L111:
 750:.\sd/ff.c     **** 	return FR_OK;
 1214              		.loc 1 750 0
 1215 0076 0020     		mov	r0, #0
 1216 0078 00E0     		b	.L105
 1217              	.L112:
 745:.\sd/ff.c     **** 				return FR_DISK_ERR;
 1218              		.loc 1 745 0
 1219 007a 0120     		mov	r0, #1
 1220              	.L105:
 751:.\sd/ff.c     **** }
 1221              		.loc 1 751 0
 1222              		@ sp needed
 1223              	.LVL163:
 1224              	.LVL164:
 1225              	.LVL165:
 1226 007c 04BC     		pop	{r2}
 1227 007e 9046     		mov	r8, r2
 1228 0080 F0BD     		pop	{r4, r5, r6, r7, pc}
 1229              		.cfi_endproc
 1230              	.LFE9:
 1231              		.size	move_window, .-move_window
 1232 0082 C046     		.section	.text.check_fs,"ax",%progbits
ARM GAS  C:\Users\Jarik\AppData\Local\Temp\ccOwmDxA.s 			page 57


 1233              		.align	2
 1234              		.code	16
 1235              		.thumb_func
 1236              		.type	check_fs, %function
 1237              	check_fs:
 1238              	.LFB25:
1909:.\sd/ff.c     **** #endif /* _FS_MINIMIZE <= 1 */
1910:.\sd/ff.c     **** 
1911:.\sd/ff.c     **** 
1912:.\sd/ff.c     **** 
1913:.\sd/ff.c     **** 
1914:.\sd/ff.c     **** /*-----------------------------------------------------------------------*/
1915:.\sd/ff.c     **** /* Follow a file path                                                    */
1916:.\sd/ff.c     **** /*-----------------------------------------------------------------------*/
1917:.\sd/ff.c     **** 
1918:.\sd/ff.c     **** static
1919:.\sd/ff.c     **** FRESULT follow_path (	/* FR_OK(0): successful, !=0: error code */
1920:.\sd/ff.c     **** 	DIR *dj,			/* Directory object to return last directory and found object */
1921:.\sd/ff.c     **** 	const TCHAR *path	/* Full-path string to find a file or directory */
1922:.\sd/ff.c     **** )
1923:.\sd/ff.c     **** {
1924:.\sd/ff.c     **** 	FRESULT res;
1925:.\sd/ff.c     **** 	BYTE *dir, ns;
1926:.\sd/ff.c     **** 
1927:.\sd/ff.c     **** 
1928:.\sd/ff.c     **** #if _FS_RPATH
1929:.\sd/ff.c     **** 	if (*path == '/' || *path == '\\') { /* There is a heading separator */
1930:.\sd/ff.c     **** 		path++;	dj->sclust = 0;		/* Strip it and start from the root dir */
1931:.\sd/ff.c     **** 	} else {							/* No heading separator */
1932:.\sd/ff.c     **** 		dj->sclust = dj->fs->cdir;	/* Start from the current dir */
1933:.\sd/ff.c     **** 	}
1934:.\sd/ff.c     **** #else
1935:.\sd/ff.c     **** 	if (*path == '/' || *path == '\\')	/* Strip heading separator if exist */
1936:.\sd/ff.c     **** 		path++;
1937:.\sd/ff.c     **** 	dj->sclust = 0;						/* Start from the root dir */
1938:.\sd/ff.c     **** #endif
1939:.\sd/ff.c     **** 
1940:.\sd/ff.c     **** 	if ((UINT)*path < ' ') {			/* Nul path means the start directory itself */
1941:.\sd/ff.c     **** 		res = dir_sdi(dj, 0);
1942:.\sd/ff.c     **** 		dj->dir = 0;
1943:.\sd/ff.c     **** 
1944:.\sd/ff.c     **** 	} else {							/* Follow path */
1945:.\sd/ff.c     **** 		for (;;) {
1946:.\sd/ff.c     **** 			res = create_name(dj, &path);	/* Get a segment */
1947:.\sd/ff.c     **** 			if (res != FR_OK) break;
1948:.\sd/ff.c     **** 			res = dir_find(dj);				/* Find it */
1949:.\sd/ff.c     **** 			ns = *(dj->fn+NS);
1950:.\sd/ff.c     **** 			if (res != FR_OK) {				/* Failed to find the object */
1951:.\sd/ff.c     **** 				if (res != FR_NO_FILE) break;	/* Abort if any hard error occured */
1952:.\sd/ff.c     **** 				/* Object not found */
1953:.\sd/ff.c     **** 				if (_FS_RPATH && (ns & NS_DOT)) {	/* If dot entry is not exit */
1954:.\sd/ff.c     **** 					dj->sclust = 0; dj->dir = 0;	/* It is the root dir */
1955:.\sd/ff.c     **** 					res = FR_OK;
1956:.\sd/ff.c     **** 					if (!(ns & NS_LAST)) continue;
1957:.\sd/ff.c     **** 				} else {							/* Could not find the object */
1958:.\sd/ff.c     **** 					if (!(ns & NS_LAST)) res = FR_NO_PATH;
1959:.\sd/ff.c     **** 				}
ARM GAS  C:\Users\Jarik\AppData\Local\Temp\ccOwmDxA.s 			page 58


1960:.\sd/ff.c     **** 				break;
1961:.\sd/ff.c     **** 			}
1962:.\sd/ff.c     **** 			if (ns & NS_LAST) break;			/* Last segment match. Function completed. */
1963:.\sd/ff.c     **** 			dir = dj->dir;						/* There is next segment. Follow the sub directory */
1964:.\sd/ff.c     **** 			if (!(dir[DIR_Attr] & AM_DIR)) {	/* Cannot follow because it is a file */
1965:.\sd/ff.c     **** 				res = FR_NO_PATH; break;
1966:.\sd/ff.c     **** 			}
1967:.\sd/ff.c     **** 			dj->sclust = LD_CLUST(dir);
1968:.\sd/ff.c     **** 		}
1969:.\sd/ff.c     **** 	}
1970:.\sd/ff.c     **** 
1971:.\sd/ff.c     **** 	return res;
1972:.\sd/ff.c     **** }
1973:.\sd/ff.c     **** 
1974:.\sd/ff.c     **** 
1975:.\sd/ff.c     **** 
1976:.\sd/ff.c     **** 
1977:.\sd/ff.c     **** /*-----------------------------------------------------------------------*/
1978:.\sd/ff.c     **** /* Load a sector and check if it is an FAT Volume Boot Record            */
1979:.\sd/ff.c     **** /*-----------------------------------------------------------------------*/
1980:.\sd/ff.c     **** 
1981:.\sd/ff.c     **** static
1982:.\sd/ff.c     **** BYTE check_fs (	/* 0:FAT-VBR, 1:Valid BR but not FAT, 2:Not a BR, 3:Disk error */
1983:.\sd/ff.c     **** 	FATFS *fs,	/* File system object */
1984:.\sd/ff.c     **** 	DWORD sect	/* Sector# (lba) to check if it is an FAT boot record or not */
1985:.\sd/ff.c     **** )
1986:.\sd/ff.c     **** {
 1239              		.loc 1 1986 0
 1240              		.cfi_startproc
 1241              	.LVL166:
 1242 0000 10B5     		push	{r4, lr}
 1243              		.cfi_def_cfa_offset 8
 1244              		.cfi_offset 4, -8
 1245              		.cfi_offset 14, -4
 1246 0002 041C     		mov	r4, r0
 1247 0004 0A1C     		mov	r2, r1
1987:.\sd/ff.c     **** 	if (disk_read(fs->drv, fs->win, sect, 1) != RES_OK)	/* Load boot record */
 1248              		.loc 1 1987 0
 1249 0006 011C     		mov	r1, r0
 1250              	.LVL167:
 1251 0008 3031     		add	r1, r1, #48
 1252 000a 4078     		ldrb	r0, [r0, #1]
 1253              	.LVL168:
 1254 000c 0123     		mov	r3, #1
 1255 000e FFF7FEFF 		bl	disk_read
 1256              	.LVL169:
 1257 0012 0028     		cmp	r0, #0
 1258 0014 30D1     		bne	.L115
1988:.\sd/ff.c     **** 		return 3;
1989:.\sd/ff.c     **** 	if (LD_WORD(&fs->win[BS_55AA]) != 0xAA55)		/* Check record signature (always placed at offset 510 
 1259              		.loc 1 1989 0
 1260 0016 1C4B     		ldr	r3, .L119
 1261 0018 E25C     		ldrb	r2, [r4, r3]
 1262 001a 1202     		lsl	r2, r2, #8
 1263 001c 1B4B     		ldr	r3, .L119+4
 1264 001e E35C     		ldrb	r3, [r4, r3]
 1265 0020 1A43     		orr	r2, r3
ARM GAS  C:\Users\Jarik\AppData\Local\Temp\ccOwmDxA.s 			page 59


 1266 0022 12B2     		sxth	r2, r2
 1267 0024 1A4B     		ldr	r3, .L119+8
 1268 0026 9A42     		cmp	r2, r3
 1269 0028 28D1     		bne	.L116
1990:.\sd/ff.c     **** 		return 2;
1991:.\sd/ff.c     **** 
1992:.\sd/ff.c     **** 	if ((LD_DWORD(&fs->win[BS_FilSysType]) & 0xFFFFFF) == 0x544146)	/* Check "FAT" string */
 1270              		.loc 1 1992 0
 1271 002a 6923     		mov	r3, #105
 1272 002c E25C     		ldrb	r2, [r4, r3]
 1273 002e 1206     		lsl	r2, r2, #24
 1274 0030 6823     		mov	r3, #104
 1275 0032 E35C     		ldrb	r3, [r4, r3]
 1276 0034 1B04     		lsl	r3, r3, #16
 1277 0036 1A43     		orr	r2, r3
 1278 0038 6723     		mov	r3, #103
 1279 003a E35C     		ldrb	r3, [r4, r3]
 1280 003c 1B02     		lsl	r3, r3, #8
 1281 003e 1A43     		orr	r2, r3
 1282 0040 6623     		mov	r3, #102
 1283 0042 E35C     		ldrb	r3, [r4, r3]
 1284 0044 1A43     		orr	r2, r3
 1285 0046 1202     		lsl	r2, r2, #8
 1286 0048 120A     		lsr	r2, r2, #8
 1287 004a 124B     		ldr	r3, .L119+12
 1288 004c 9A42     		cmp	r2, r3
 1289 004e 17D0     		beq	.L117
1993:.\sd/ff.c     **** 		return 0;
1994:.\sd/ff.c     **** 	if ((LD_DWORD(&fs->win[BS_FilSysType32]) & 0xFFFFFF) == 0x544146)
 1290              		.loc 1 1994 0
 1291 0050 8523     		mov	r3, #133
 1292 0052 E25C     		ldrb	r2, [r4, r3]
 1293 0054 1206     		lsl	r2, r2, #24
 1294 0056 8423     		mov	r3, #132
 1295 0058 E35C     		ldrb	r3, [r4, r3]
 1296 005a 1B04     		lsl	r3, r3, #16
 1297 005c 1A43     		orr	r2, r3
 1298 005e 8323     		mov	r3, #131
 1299 0060 E35C     		ldrb	r3, [r4, r3]
 1300 0062 1B02     		lsl	r3, r3, #8
 1301 0064 1A43     		orr	r2, r3
 1302 0066 8223     		mov	r3, #130
 1303 0068 E35C     		ldrb	r3, [r4, r3]
 1304 006a 1A43     		orr	r2, r3
 1305 006c 1202     		lsl	r2, r2, #8
 1306 006e 120A     		lsr	r2, r2, #8
 1307 0070 084B     		ldr	r3, .L119+12
 1308 0072 9A42     		cmp	r2, r3
 1309 0074 06D1     		bne	.L118
 1310 0076 06E0     		b	.L114
 1311              	.L115:
1988:.\sd/ff.c     **** 		return 3;
 1312              		.loc 1 1988 0
 1313 0078 0320     		mov	r0, #3
 1314 007a 04E0     		b	.L114
 1315              	.L116:
1990:.\sd/ff.c     **** 		return 2;
ARM GAS  C:\Users\Jarik\AppData\Local\Temp\ccOwmDxA.s 			page 60


 1316              		.loc 1 1990 0
 1317 007c 0220     		mov	r0, #2
 1318 007e 02E0     		b	.L114
 1319              	.L117:
1993:.\sd/ff.c     **** 		return 0;
 1320              		.loc 1 1993 0
 1321 0080 0020     		mov	r0, #0
 1322 0082 00E0     		b	.L114
 1323              	.L118:
1995:.\sd/ff.c     **** 		return 0;
1996:.\sd/ff.c     **** 
1997:.\sd/ff.c     **** 	return 1;
 1324              		.loc 1 1997 0
 1325 0084 0120     		mov	r0, #1
 1326              	.L114:
1998:.\sd/ff.c     **** }
 1327              		.loc 1 1998 0
 1328              		@ sp needed
 1329              	.LVL170:
 1330 0086 10BD     		pop	{r4, pc}
 1331              	.L120:
 1332              		.align	2
 1333              	.L119:
 1334 0088 2F020000 		.word	559
 1335 008c 2E020000 		.word	558
 1336 0090 55AAFFFF 		.word	-21931
 1337 0094 46415400 		.word	5521734
 1338              		.cfi_endproc
 1339              	.LFE25:
 1340              		.size	check_fs, .-check_fs
 1341              		.section	.text.validate,"ax",%progbits
 1342              		.align	2
 1343              		.code	16
 1344              		.thumb_func
 1345              		.type	validate, %function
 1346              	validate:
 1347              	.LFB27:
1999:.\sd/ff.c     **** 
2000:.\sd/ff.c     **** 
2001:.\sd/ff.c     **** 
2002:.\sd/ff.c     **** 
2003:.\sd/ff.c     **** /*-----------------------------------------------------------------------*/
2004:.\sd/ff.c     **** /* Check if the file system object is valid or not                       */
2005:.\sd/ff.c     **** /*-----------------------------------------------------------------------*/
2006:.\sd/ff.c     **** 
2007:.\sd/ff.c     **** static
2008:.\sd/ff.c     **** FRESULT chk_mounted (	/* FR_OK(0): successful, !=0: any error occurred */
2009:.\sd/ff.c     **** 	const TCHAR **path,	/* Pointer to pointer to the path name (drive number) */
2010:.\sd/ff.c     **** 	FATFS **rfs,		/* Pointer to pointer to the found file system object */
2011:.\sd/ff.c     **** 	BYTE chk_wp			/* !=0: Check media write protection for write access */
2012:.\sd/ff.c     **** )
2013:.\sd/ff.c     **** {
2014:.\sd/ff.c     **** 	BYTE fmt, b, pi, *tbl;
2015:.\sd/ff.c     **** 	UINT vol;
2016:.\sd/ff.c     **** 	DSTATUS stat;
2017:.\sd/ff.c     **** 	DWORD bsect, fasize, tsect, sysect, nclst, szbfat;
2018:.\sd/ff.c     **** 	WORD nrsv;
ARM GAS  C:\Users\Jarik\AppData\Local\Temp\ccOwmDxA.s 			page 61


2019:.\sd/ff.c     **** 	const TCHAR *p = *path;
2020:.\sd/ff.c     **** 	FATFS *fs;
2021:.\sd/ff.c     **** 
2022:.\sd/ff.c     **** 	/* Get logical drive number from the path name */
2023:.\sd/ff.c     **** 	vol = p[0] - '0';					/* Is there a drive number? */
2024:.\sd/ff.c     **** 	if (vol <= 9 && p[1] == ':') {		/* Found a drive number, get and strip it */
2025:.\sd/ff.c     **** 		p += 2; *path = p;				/* Return pointer to the path name */
2026:.\sd/ff.c     **** 	} else {							/* No drive number is given */
2027:.\sd/ff.c     **** #if _FS_RPATH
2028:.\sd/ff.c     **** 		vol = CurrVol;					/* Use current drive */
2029:.\sd/ff.c     **** #else
2030:.\sd/ff.c     **** 		vol = 0;						/* Use drive 0 */
2031:.\sd/ff.c     **** #endif
2032:.\sd/ff.c     **** 	}
2033:.\sd/ff.c     **** 
2034:.\sd/ff.c     **** 	/* Check if the file system object is valid or not */
2035:.\sd/ff.c     **** 	if (vol >= _VOLUMES) 				/* Is the drive number valid? */
2036:.\sd/ff.c     **** 		return FR_INVALID_DRIVE;
2037:.\sd/ff.c     **** 	*rfs = fs = FatFs[vol];				/* Return pointer to the corresponding file system object */
2038:.\sd/ff.c     **** 	if (!fs) return FR_NOT_ENABLED;		/* Is the file system object available? */
2039:.\sd/ff.c     **** 
2040:.\sd/ff.c     **** 	ENTER_FF(fs);						/* Lock file system */
2041:.\sd/ff.c     **** 
2042:.\sd/ff.c     **** 	if (fs->fs_type) {					/* If the logical drive has been mounted */
2043:.\sd/ff.c     **** 		stat = disk_status(fs->drv);
2044:.\sd/ff.c     **** 		if (!(stat & STA_NOINIT)) {		/* and the physical drive is kept initialized (has not been changed)
2045:.\sd/ff.c     **** 			if (!_FS_READONLY && chk_wp && (stat & STA_PROTECT))	/* Check write protection if needed */
2046:.\sd/ff.c     **** 				return FR_WRITE_PROTECTED;
2047:.\sd/ff.c     **** 			return FR_OK;				/* The file system object is valid */
2048:.\sd/ff.c     **** 		}
2049:.\sd/ff.c     **** 	}
2050:.\sd/ff.c     **** 
2051:.\sd/ff.c     **** 	/* The file system object is not valid. */
2052:.\sd/ff.c     **** 	/* Following code attempts to mount the volume. (analyze BPB and initialize the fs object) */
2053:.\sd/ff.c     **** 
2054:.\sd/ff.c     **** 	fs->fs_type = 0;					/* Clear the file system object */
2055:.\sd/ff.c     **** 	fs->drv = LD2PD(vol);				/* Bind the logical drive and a physical drive */
2056:.\sd/ff.c     **** 	stat = disk_initialize(fs->drv);	/* Initialize low level disk I/O layer */
2057:.\sd/ff.c     **** 	if (stat & STA_NOINIT)				/* Check if the initialization succeeded */
2058:.\sd/ff.c     **** 		return FR_NOT_READY;			/* Failed to initialize due to no media or hard error */
2059:.\sd/ff.c     **** 	if (!_FS_READONLY && chk_wp && (stat & STA_PROTECT))	/* Check disk write protection if needed */
2060:.\sd/ff.c     **** 		return FR_WRITE_PROTECTED;
2061:.\sd/ff.c     **** #if _MAX_SS != 512						/* Get disk sector size (variable sector size cfg only) */
2062:.\sd/ff.c     **** 	if (disk_ioctl(fs->drv, GET_SECTOR_SIZE, &fs->ssize) != RES_OK)
2063:.\sd/ff.c     **** 		return FR_DISK_ERR;
2064:.\sd/ff.c     **** #endif
2065:.\sd/ff.c     **** 	/* Search FAT partition on the drive. Supports only generic partitionings, FDISK and SFD. */
2066:.\sd/ff.c     **** 	fmt = check_fs(fs, bsect = 0);		/* Load sector 0 and check if it is an FAT-VBR (in SFD) */
2067:.\sd/ff.c     **** 	if (LD2PT(vol) && !fmt) fmt = 1;	/* Force non-SFD if the volume is forced partition */
2068:.\sd/ff.c     **** 	if (fmt == 1) {						/* Not an FAT-VBR, the physical drive can be partitioned */
2069:.\sd/ff.c     **** 		/* Check the partition listed in the partition table */
2070:.\sd/ff.c     **** 		pi = LD2PT(vol);
2071:.\sd/ff.c     **** 		if (pi) pi--;
2072:.\sd/ff.c     **** 		tbl = &fs->win[MBR_Table + pi * SZ_PTE];/* Partition table */
2073:.\sd/ff.c     **** 		if (tbl[4]) {						/* Is the partition existing? */
2074:.\sd/ff.c     **** 			bsect = LD_DWORD(&tbl[8]);		/* Partition offset in LBA */
2075:.\sd/ff.c     **** 			fmt = check_fs(fs, bsect);		/* Check the partition */
ARM GAS  C:\Users\Jarik\AppData\Local\Temp\ccOwmDxA.s 			page 62


2076:.\sd/ff.c     **** 		}
2077:.\sd/ff.c     **** 	}
2078:.\sd/ff.c     **** 	if (fmt == 3) return FR_DISK_ERR;
2079:.\sd/ff.c     **** 	if (fmt) return FR_NO_FILESYSTEM;		/* No FAT volume is found */
2080:.\sd/ff.c     **** 
2081:.\sd/ff.c     **** 	/* An FAT volume is found. Following code initializes the file system object */
2082:.\sd/ff.c     **** 
2083:.\sd/ff.c     **** 	if (LD_WORD(fs->win+BPB_BytsPerSec) != SS(fs))		/* (BPB_BytsPerSec must be equal to the physical s
2084:.\sd/ff.c     **** 		return FR_NO_FILESYSTEM;
2085:.\sd/ff.c     **** 
2086:.\sd/ff.c     **** 	fasize = LD_WORD(fs->win+BPB_FATSz16);				/* Number of sectors per FAT */
2087:.\sd/ff.c     **** 	if (!fasize) fasize = LD_DWORD(fs->win+BPB_FATSz32);
2088:.\sd/ff.c     **** 	fs->fsize = fasize;
2089:.\sd/ff.c     **** 
2090:.\sd/ff.c     **** 	fs->n_fats = b = fs->win[BPB_NumFATs];				/* Number of FAT copies */
2091:.\sd/ff.c     **** 	if (b != 1 && b != 2) return FR_NO_FILESYSTEM;		/* (Must be 1 or 2) */
2092:.\sd/ff.c     **** 	fasize *= b;										/* Number of sectors for FAT area */
2093:.\sd/ff.c     **** 
2094:.\sd/ff.c     **** 	fs->csize = b = fs->win[BPB_SecPerClus];			/* Number of sectors per cluster */
2095:.\sd/ff.c     **** 	if (!b || (b & (b - 1))) return FR_NO_FILESYSTEM;	/* (Must be power of 2) */
2096:.\sd/ff.c     **** 
2097:.\sd/ff.c     **** 	fs->n_rootdir = LD_WORD(fs->win+BPB_RootEntCnt);	/* Number of root directory entries */
2098:.\sd/ff.c     **** 	if (fs->n_rootdir % (SS(fs) / SZ_DIR)) return FR_NO_FILESYSTEM;	/* (BPB_RootEntCnt must be sector 
2099:.\sd/ff.c     **** 
2100:.\sd/ff.c     **** 	tsect = LD_WORD(fs->win+BPB_TotSec16);				/* Number of sectors on the volume */
2101:.\sd/ff.c     **** 	if (!tsect) tsect = LD_DWORD(fs->win+BPB_TotSec32);
2102:.\sd/ff.c     **** 
2103:.\sd/ff.c     **** 	nrsv = LD_WORD(fs->win+BPB_RsvdSecCnt);				/* Number of reserved sectors */
2104:.\sd/ff.c     **** 	if (!nrsv) return FR_NO_FILESYSTEM;					/* (BPB_RsvdSecCnt must not be 0) */
2105:.\sd/ff.c     **** 
2106:.\sd/ff.c     **** 	/* Determine the FAT sub type */
2107:.\sd/ff.c     **** 	sysect = nrsv + fasize + fs->n_rootdir / (SS(fs) / SZ_DIR);	/* RSV+FAT+DIR */
2108:.\sd/ff.c     **** 	if (tsect < sysect) return FR_NO_FILESYSTEM;		/* (Invalid volume size) */
2109:.\sd/ff.c     **** 	nclst = (tsect - sysect) / fs->csize;				/* Number of clusters */
2110:.\sd/ff.c     **** 	if (!nclst) return FR_NO_FILESYSTEM;				/* (Invalid volume size) */
2111:.\sd/ff.c     **** 	fmt = FS_FAT12;
2112:.\sd/ff.c     **** 	if (nclst >= MIN_FAT16) fmt = FS_FAT16;
2113:.\sd/ff.c     **** 	if (nclst >= MIN_FAT32) fmt = FS_FAT32;
2114:.\sd/ff.c     **** 
2115:.\sd/ff.c     **** 	/* Boundaries and Limits */
2116:.\sd/ff.c     **** 	fs->n_fatent = nclst + 2;							/* Number of FAT entries */
2117:.\sd/ff.c     **** 	fs->database = bsect + sysect;						/* Data start sector */
2118:.\sd/ff.c     **** 	fs->fatbase = bsect + nrsv; 						/* FAT start sector */
2119:.\sd/ff.c     **** 	if (fmt == FS_FAT32) {
2120:.\sd/ff.c     **** 		if (fs->n_rootdir) return FR_NO_FILESYSTEM;		/* (BPB_RootEntCnt must be 0) */
2121:.\sd/ff.c     **** 		fs->dirbase = LD_DWORD(fs->win+BPB_RootClus);	/* Root directory start cluster */
2122:.\sd/ff.c     **** 		szbfat = fs->n_fatent * 4;						/* (Required FAT size) */
2123:.\sd/ff.c     **** 	} else {
2124:.\sd/ff.c     **** 		if (!fs->n_rootdir)	return FR_NO_FILESYSTEM;	/* (BPB_RootEntCnt must not be 0) */
2125:.\sd/ff.c     **** 		fs->dirbase = fs->fatbase + fasize;				/* Root directory start sector */
2126:.\sd/ff.c     **** 		szbfat = (fmt == FS_FAT16) ?					/* (Required FAT size) */
2127:.\sd/ff.c     **** 			fs->n_fatent * 2 : fs->n_fatent * 3 / 2 + (fs->n_fatent & 1);
2128:.\sd/ff.c     **** 	}
2129:.\sd/ff.c     **** 	if (fs->fsize < (szbfat + (SS(fs) - 1)) / SS(fs))	/* (BPB_FATSz must not be less than required) */
2130:.\sd/ff.c     **** 		return FR_NO_FILESYSTEM;
2131:.\sd/ff.c     **** 
2132:.\sd/ff.c     **** #if !_FS_READONLY
ARM GAS  C:\Users\Jarik\AppData\Local\Temp\ccOwmDxA.s 			page 63


2133:.\sd/ff.c     **** 	/* Initialize cluster allocation information */
2134:.\sd/ff.c     **** 	fs->free_clust = 0xFFFFFFFF;
2135:.\sd/ff.c     **** 	fs->last_clust = 0;
2136:.\sd/ff.c     **** 
2137:.\sd/ff.c     **** 	/* Get fsinfo if available */
2138:.\sd/ff.c     **** 	if (fmt == FS_FAT32) {
2139:.\sd/ff.c     **** 	 	fs->fsi_flag = 0;
2140:.\sd/ff.c     **** 		fs->fsi_sector = bsect + LD_WORD(fs->win+BPB_FSInfo);
2141:.\sd/ff.c     **** 		if (disk_read(fs->drv, fs->win, fs->fsi_sector, 1) == RES_OK &&
2142:.\sd/ff.c     **** 			LD_WORD(fs->win+BS_55AA) == 0xAA55 &&
2143:.\sd/ff.c     **** 			LD_DWORD(fs->win+FSI_LeadSig) == 0x41615252 &&
2144:.\sd/ff.c     **** 			LD_DWORD(fs->win+FSI_StrucSig) == 0x61417272) {
2145:.\sd/ff.c     **** 				fs->last_clust = LD_DWORD(fs->win+FSI_Nxt_Free);
2146:.\sd/ff.c     **** 				fs->free_clust = LD_DWORD(fs->win+FSI_Free_Count);
2147:.\sd/ff.c     **** 		}
2148:.\sd/ff.c     **** 	}
2149:.\sd/ff.c     **** #endif
2150:.\sd/ff.c     **** 	fs->fs_type = fmt;		/* FAT sub-type */
2151:.\sd/ff.c     **** 	fs->id = ++Fsid;		/* File system mount ID */
2152:.\sd/ff.c     **** 	fs->winsect = 0;		/* Invalidate sector cache */
2153:.\sd/ff.c     **** 	fs->wflag = 0;
2154:.\sd/ff.c     **** #if _FS_RPATH
2155:.\sd/ff.c     **** 	fs->cdir = 0;			/* Current directory (root dir) */
2156:.\sd/ff.c     **** #endif
2157:.\sd/ff.c     **** #if _FS_SHARE				/* Clear file lock semaphores */
2158:.\sd/ff.c     **** 	clear_lock(fs);
2159:.\sd/ff.c     **** #endif
2160:.\sd/ff.c     **** 
2161:.\sd/ff.c     **** 	return FR_OK;
2162:.\sd/ff.c     **** }
2163:.\sd/ff.c     **** 
2164:.\sd/ff.c     **** 
2165:.\sd/ff.c     **** 
2166:.\sd/ff.c     **** 
2167:.\sd/ff.c     **** /*-----------------------------------------------------------------------*/
2168:.\sd/ff.c     **** /* Check if the file/dir object is valid or not                          */
2169:.\sd/ff.c     **** /*-----------------------------------------------------------------------*/
2170:.\sd/ff.c     **** 
2171:.\sd/ff.c     **** static
2172:.\sd/ff.c     **** FRESULT validate (	/* FR_OK(0): The object is valid, !=0: Invalid */
2173:.\sd/ff.c     **** 	FATFS *fs,		/* Pointer to the file system object */
2174:.\sd/ff.c     **** 	WORD id			/* Member id of the target object to be checked */
2175:.\sd/ff.c     **** )
2176:.\sd/ff.c     **** {
 1348              		.loc 1 2176 0
 1349              		.cfi_startproc
 1350              	.LVL171:
 1351 0000 08B5     		push	{r3, lr}
 1352              		.cfi_def_cfa_offset 8
 1353              		.cfi_offset 3, -8
 1354              		.cfi_offset 14, -4
2177:.\sd/ff.c     **** 	if (!fs || !fs->fs_type || fs->id != id)
 1355              		.loc 1 2177 0
 1356 0002 0028     		cmp	r0, #0
 1357 0004 0CD0     		beq	.L123
 1358              		.loc 1 2177 0 is_stmt 0 discriminator 1
 1359 0006 0378     		ldrb	r3, [r0]
ARM GAS  C:\Users\Jarik\AppData\Local\Temp\ccOwmDxA.s 			page 64


 1360 0008 002B     		cmp	r3, #0
 1361 000a 0BD0     		beq	.L124
 1362 000c C388     		ldrh	r3, [r0, #6]
 1363 000e 8B42     		cmp	r3, r1
 1364 0010 0AD1     		bne	.L125
2178:.\sd/ff.c     **** 		return FR_INVALID_OBJECT;
2179:.\sd/ff.c     **** 
2180:.\sd/ff.c     **** 	ENTER_FF(fs);		/* Lock file system */
2181:.\sd/ff.c     **** 
2182:.\sd/ff.c     **** 	if (disk_status(fs->drv) & STA_NOINIT)
 1365              		.loc 1 2182 0 is_stmt 1
 1366 0012 4078     		ldrb	r0, [r0, #1]
 1367              	.LVL172:
 1368 0014 FFF7FEFF 		bl	disk_status
 1369              	.LVL173:
 1370 0018 C307     		lsl	r3, r0, #31
 1371 001a 07D5     		bpl	.L126
2183:.\sd/ff.c     **** 		return FR_NOT_READY;
 1372              		.loc 1 2183 0
 1373 001c 0320     		mov	r0, #3
 1374 001e 06E0     		b	.L122
 1375              	.LVL174:
 1376              	.L123:
2178:.\sd/ff.c     **** 		return FR_INVALID_OBJECT;
 1377              		.loc 1 2178 0
 1378 0020 0920     		mov	r0, #9
 1379              	.LVL175:
 1380 0022 04E0     		b	.L122
 1381              	.LVL176:
 1382              	.L124:
 1383 0024 0920     		mov	r0, #9
 1384              	.LVL177:
 1385 0026 02E0     		b	.L122
 1386              	.LVL178:
 1387              	.L125:
 1388 0028 0920     		mov	r0, #9
 1389              	.LVL179:
 1390 002a 00E0     		b	.L122
 1391              	.LVL180:
 1392              	.L126:
2184:.\sd/ff.c     **** 
2185:.\sd/ff.c     **** 	return FR_OK;
 1393              		.loc 1 2185 0
 1394 002c 0020     		mov	r0, #0
 1395              	.L122:
2186:.\sd/ff.c     **** }
 1396              		.loc 1 2186 0
 1397              		@ sp needed
 1398 002e 08BD     		pop	{r3, pc}
 1399              		.cfi_endproc
 1400              	.LFE27:
 1401              		.size	validate, .-validate
 1402              		.global	__aeabi_uidiv
 1403              		.section	.text.chk_mounted,"ax",%progbits
 1404              		.align	2
 1405              		.code	16
 1406              		.thumb_func
ARM GAS  C:\Users\Jarik\AppData\Local\Temp\ccOwmDxA.s 			page 65


 1407              		.type	chk_mounted, %function
 1408              	chk_mounted:
 1409              	.LFB26:
2013:.\sd/ff.c     **** {
 1410              		.loc 1 2013 0
 1411              		.cfi_startproc
 1412              	.LVL181:
 1413 0000 F8B5     		push	{r3, r4, r5, r6, r7, lr}
 1414              		.cfi_def_cfa_offset 24
 1415              		.cfi_offset 3, -24
 1416              		.cfi_offset 4, -20
 1417              		.cfi_offset 5, -16
 1418              		.cfi_offset 6, -12
 1419              		.cfi_offset 7, -8
 1420              		.cfi_offset 14, -4
 1421 0002 5F46     		mov	r7, fp
 1422 0004 5646     		mov	r6, r10
 1423 0006 4D46     		mov	r5, r9
 1424 0008 4446     		mov	r4, r8
 1425 000a F0B4     		push	{r4, r5, r6, r7}
 1426              		.cfi_def_cfa_offset 40
 1427              		.cfi_offset 8, -40
 1428              		.cfi_offset 9, -36
 1429              		.cfi_offset 10, -32
 1430              		.cfi_offset 11, -28
 1431 000c 161C     		mov	r6, r2
2019:.\sd/ff.c     **** 	const TCHAR *p = *path;
 1432              		.loc 1 2019 0
 1433 000e 0368     		ldr	r3, [r0]
 1434              	.LVL182:
2023:.\sd/ff.c     **** 	vol = p[0] - '0';					/* Is there a drive number? */
 1435              		.loc 1 2023 0
 1436 0010 1C78     		ldrb	r4, [r3]
 1437 0012 303C     		sub	r4, r4, #48
 1438              	.LVL183:
2024:.\sd/ff.c     **** 	if (vol <= 9 && p[1] == ':') {		/* Found a drive number, get and strip it */
 1439              		.loc 1 2024 0
 1440 0014 092C     		cmp	r4, #9
 1441 0016 05D8     		bhi	.L142
2024:.\sd/ff.c     **** 	if (vol <= 9 && p[1] == ':') {		/* Found a drive number, get and strip it */
 1442              		.loc 1 2024 0 is_stmt 0 discriminator 1
 1443 0018 5A78     		ldrb	r2, [r3, #1]
 1444              	.LVL184:
 1445 001a 3A2A     		cmp	r2, #58
 1446 001c 04D1     		bne	.L143
2025:.\sd/ff.c     **** 		p += 2; *path = p;				/* Return pointer to the path name */
 1447              		.loc 1 2025 0 is_stmt 1
 1448 001e 0233     		add	r3, r3, #2
 1449              	.LVL185:
 1450 0020 0360     		str	r3, [r0]
 1451 0022 02E0     		b	.L128
 1452              	.LVL186:
 1453              	.L142:
2030:.\sd/ff.c     **** 		vol = 0;						/* Use drive 0 */
 1454              		.loc 1 2030 0
 1455 0024 0024     		mov	r4, #0
 1456              	.LVL187:
ARM GAS  C:\Users\Jarik\AppData\Local\Temp\ccOwmDxA.s 			page 66


 1457 0026 00E0     		b	.L128
 1458              	.LVL188:
 1459              	.L143:
 1460 0028 0024     		mov	r4, #0
 1461              	.LVL189:
 1462              	.L128:
2035:.\sd/ff.c     **** 	if (vol >= _VOLUMES) 				/* Is the drive number valid? */
 1463              		.loc 1 2035 0
 1464 002a 002C     		cmp	r4, #0
 1465 002c 00D0     		beq	.LCB1667
 1466 002e 71E1     		b	.L144	@long jump
 1467              	.LCB1667:
2037:.\sd/ff.c     **** 	*rfs = fs = FatFs[vol];				/* Return pointer to the corresponding file system object */
 1468              		.loc 1 2037 0
 1469 0030 A300     		lsl	r3, r4, #2
 1470              	.LVL190:
 1471 0032 CE4A     		ldr	r2, .L167
 1472 0034 D318     		add	r3, r2, r3
 1473 0036 5D6A     		ldr	r5, [r3, #36]
 1474              	.LVL191:
 1475 0038 0D60     		str	r5, [r1]
 1476              	.LVL192:
2038:.\sd/ff.c     **** 	if (!fs) return FR_NOT_ENABLED;		/* Is the file system object available? */
 1477              		.loc 1 2038 0
 1478 003a 002D     		cmp	r5, #0
 1479 003c 00D1     		bne	.LCB1677
 1480 003e 6BE1     		b	.L145	@long jump
 1481              	.LCB1677:
2042:.\sd/ff.c     **** 	if (fs->fs_type) {					/* If the logical drive has been mounted */
 1482              		.loc 1 2042 0
 1483 0040 2B78     		ldrb	r3, [r5]
 1484 0042 002B     		cmp	r3, #0
 1485 0044 0CD0     		beq	.L130
2043:.\sd/ff.c     **** 		stat = disk_status(fs->drv);
 1486              		.loc 1 2043 0
 1487 0046 6878     		ldrb	r0, [r5, #1]
 1488              	.LVL193:
 1489 0048 FFF7FEFF 		bl	disk_status
 1490              	.LVL194:
2044:.\sd/ff.c     **** 		if (!(stat & STA_NOINIT)) {		/* and the physical drive is kept initialized (has not been changed)
 1491              		.loc 1 2044 0
 1492 004c C107     		lsl	r1, r0, #31
 1493 004e 07D4     		bmi	.L130
2045:.\sd/ff.c     **** 			if (!_FS_READONLY && chk_wp && (stat & STA_PROTECT))	/* Check write protection if needed */
 1494              		.loc 1 2045 0
 1495 0050 002E     		cmp	r6, #0
 1496 0052 00D1     		bne	.LCB1693
 1497 0054 62E1     		b	.L146	@long jump
 1498              	.LCB1693:
2045:.\sd/ff.c     **** 			if (!_FS_READONLY && chk_wp && (stat & STA_PROTECT))	/* Check write protection if needed */
 1499              		.loc 1 2045 0 is_stmt 0 discriminator 1
 1500 0056 4207     		lsl	r2, r0, #29
 1501 0058 00D5     		bpl	.LCB1698
 1502 005a 61E1     		b	.L147	@long jump
 1503              	.LCB1698:
2047:.\sd/ff.c     **** 			return FR_OK;				/* The file system object is valid */
 1504              		.loc 1 2047 0 is_stmt 1
ARM GAS  C:\Users\Jarik\AppData\Local\Temp\ccOwmDxA.s 			page 67


 1505 005c 0020     		mov	r0, #0
 1506              	.LVL195:
 1507 005e 7EE1     		b	.L129
 1508              	.L130:
2054:.\sd/ff.c     **** 	fs->fs_type = 0;					/* Clear the file system object */
 1509              		.loc 1 2054 0
 1510 0060 0023     		mov	r3, #0
 1511 0062 2B70     		strb	r3, [r5]
2055:.\sd/ff.c     **** 	fs->drv = LD2PD(vol);				/* Bind the logical drive and a physical drive */
 1512              		.loc 1 2055 0
 1513 0064 E0B2     		uxtb	r0, r4
 1514 0066 6870     		strb	r0, [r5, #1]
2056:.\sd/ff.c     **** 	stat = disk_initialize(fs->drv);	/* Initialize low level disk I/O layer */
 1515              		.loc 1 2056 0
 1516 0068 FFF7FEFF 		bl	disk_initialize
 1517              	.LVL196:
2057:.\sd/ff.c     **** 	if (stat & STA_NOINIT)				/* Check if the initialization succeeded */
 1518              		.loc 1 2057 0
 1519 006c C307     		lsl	r3, r0, #31
 1520 006e 00D5     		bpl	.LCB1717
 1521 0070 58E1     		b	.L148	@long jump
 1522              	.LCB1717:
2059:.\sd/ff.c     **** 	if (!_FS_READONLY && chk_wp && (stat & STA_PROTECT))	/* Check disk write protection if needed */
 1523              		.loc 1 2059 0
 1524 0072 002E     		cmp	r6, #0
 1525 0074 02D0     		beq	.L131
2059:.\sd/ff.c     **** 	if (!_FS_READONLY && chk_wp && (stat & STA_PROTECT))	/* Check disk write protection if needed */
 1526              		.loc 1 2059 0 is_stmt 0 discriminator 1
 1527 0076 4607     		lsl	r6, r0, #29
 1528 0078 00D5     		bpl	.LCB1724
 1529 007a 55E1     		b	.L149	@long jump
 1530              	.LCB1724:
 1531              	.L131:
 1532              	.LVL197:
2066:.\sd/ff.c     **** 	fmt = check_fs(fs, bsect = 0);		/* Load sector 0 and check if it is an FAT-VBR (in SFD) */
 1533              		.loc 1 2066 0 is_stmt 1
 1534 007c 281C     		mov	r0, r5
 1535              	.LVL198:
 1536 007e 0021     		mov	r1, #0
 1537 0080 FFF7FEFF 		bl	check_fs
 1538              	.LVL199:
2068:.\sd/ff.c     **** 	if (fmt == 1) {						/* Not an FAT-VBR, the physical drive can be partitioned */
 1539              		.loc 1 2068 0
 1540 0084 0128     		cmp	r0, #1
 1541 0086 1BD1     		bne	.L150
 1542              	.LVL200:
2073:.\sd/ff.c     **** 		if (tbl[4]) {						/* Is the partition existing? */
 1543              		.loc 1 2073 0
 1544 0088 F923     		mov	r3, #249
 1545 008a 5B00     		lsl	r3, r3, #1
 1546 008c EB5C     		ldrb	r3, [r5, r3]
 1547 008e 002B     		cmp	r3, #0
 1548 0090 18D0     		beq	.L151
2074:.\sd/ff.c     **** 			bsect = LD_DWORD(&tbl[8]);		/* Partition offset in LBA */
 1549              		.loc 1 2074 0
 1550 0092 FA23     		mov	r3, #250
 1551 0094 FF33     		add	r3, r3, #255
ARM GAS  C:\Users\Jarik\AppData\Local\Temp\ccOwmDxA.s 			page 68


 1552 0096 EC5C     		ldrb	r4, [r5, r3]
 1553              	.LVL201:
 1554 0098 2406     		lsl	r4, r4, #24
 1555 009a FC23     		mov	r3, #252
 1556 009c 5B00     		lsl	r3, r3, #1
 1557 009e EB5C     		ldrb	r3, [r5, r3]
 1558 00a0 1B04     		lsl	r3, r3, #16
 1559 00a2 1C43     		orr	r4, r3
 1560 00a4 F823     		mov	r3, #248
 1561 00a6 FF33     		add	r3, r3, #255
 1562 00a8 EB5C     		ldrb	r3, [r5, r3]
 1563 00aa 1B02     		lsl	r3, r3, #8
 1564 00ac 1C43     		orr	r4, r3
 1565 00ae FB23     		mov	r3, #251
 1566 00b0 5B00     		lsl	r3, r3, #1
 1567 00b2 EB5C     		ldrb	r3, [r5, r3]
 1568 00b4 1C43     		orr	r4, r3
 1569              	.LVL202:
2075:.\sd/ff.c     **** 			fmt = check_fs(fs, bsect);		/* Check the partition */
 1570              		.loc 1 2075 0
 1571 00b6 281C     		mov	r0, r5
 1572              	.LVL203:
 1573 00b8 211C     		mov	r1, r4
 1574 00ba FFF7FEFF 		bl	check_fs
 1575              	.LVL204:
 1576 00be 02E0     		b	.L132
 1577              	.LVL205:
 1578              	.L150:
2066:.\sd/ff.c     **** 	fmt = check_fs(fs, bsect = 0);		/* Load sector 0 and check if it is an FAT-VBR (in SFD) */
 1579              		.loc 1 2066 0
 1580 00c0 0024     		mov	r4, #0
 1581              	.LVL206:
 1582 00c2 00E0     		b	.L132
 1583              	.LVL207:
 1584              	.L151:
 1585 00c4 0024     		mov	r4, #0
 1586              	.LVL208:
 1587              	.L132:
2078:.\sd/ff.c     **** 	if (fmt == 3) return FR_DISK_ERR;
 1588              		.loc 1 2078 0
 1589 00c6 0328     		cmp	r0, #3
 1590 00c8 00D1     		bne	.LCB1797
 1591 00ca 2FE1     		b	.L152	@long jump
 1592              	.LCB1797:
2079:.\sd/ff.c     **** 	if (fmt) return FR_NO_FILESYSTEM;		/* No FAT volume is found */
 1593              		.loc 1 2079 0
 1594 00cc 0028     		cmp	r0, #0
 1595 00ce 00D0     		beq	.LCB1799
 1596 00d0 2EE1     		b	.L153	@long jump
 1597              	.LCB1799:
2083:.\sd/ff.c     **** 	if (LD_WORD(fs->win+BPB_BytsPerSec) != SS(fs))		/* (BPB_BytsPerSec must be equal to the physical s
 1598              		.loc 1 2083 0
 1599 00d2 3C23     		mov	r3, #60
 1600 00d4 EA5C     		ldrb	r2, [r5, r3]
 1601 00d6 1202     		lsl	r2, r2, #8
 1602 00d8 3B23     		mov	r3, #59
 1603 00da EB5C     		ldrb	r3, [r5, r3]
ARM GAS  C:\Users\Jarik\AppData\Local\Temp\ccOwmDxA.s 			page 69


 1604 00dc 1A43     		orr	r2, r3
 1605 00de 12B2     		sxth	r2, r2
 1606 00e0 8023     		mov	r3, #128
 1607 00e2 9B00     		lsl	r3, r3, #2
 1608 00e4 9A42     		cmp	r2, r3
 1609 00e6 00D0     		beq	.LCB1811
 1610 00e8 24E1     		b	.L154	@long jump
 1611              	.LCB1811:
2086:.\sd/ff.c     **** 	fasize = LD_WORD(fs->win+BPB_FATSz16);				/* Number of sectors per FAT */
 1612              		.loc 1 2086 0
 1613 00ea 4723     		mov	r3, #71
 1614 00ec EF5C     		ldrb	r7, [r5, r3]
 1615 00ee 3F02     		lsl	r7, r7, #8
 1616 00f0 4623     		mov	r3, #70
 1617 00f2 EB5C     		ldrb	r3, [r5, r3]
 1618 00f4 1F43     		orr	r7, r3
 1619              	.LVL209:
2087:.\sd/ff.c     **** 	if (!fasize) fasize = LD_DWORD(fs->win+BPB_FATSz32);
 1620              		.loc 1 2087 0
 1621 00f6 0DD1     		bne	.L133
2087:.\sd/ff.c     **** 	if (!fasize) fasize = LD_DWORD(fs->win+BPB_FATSz32);
 1622              		.loc 1 2087 0 is_stmt 0 discriminator 1
 1623 00f8 5723     		mov	r3, #87
 1624 00fa EF5C     		ldrb	r7, [r5, r3]
 1625              	.LVL210:
 1626 00fc 3F06     		lsl	r7, r7, #24
 1627 00fe 5623     		mov	r3, #86
 1628 0100 EB5C     		ldrb	r3, [r5, r3]
 1629 0102 1B04     		lsl	r3, r3, #16
 1630 0104 1F43     		orr	r7, r3
 1631 0106 5523     		mov	r3, #85
 1632 0108 EB5C     		ldrb	r3, [r5, r3]
 1633 010a 1B02     		lsl	r3, r3, #8
 1634 010c 1F43     		orr	r7, r3
 1635 010e 5423     		mov	r3, #84
 1636 0110 EB5C     		ldrb	r3, [r5, r3]
 1637 0112 1F43     		orr	r7, r3
 1638              	.LVL211:
 1639              	.L133:
2088:.\sd/ff.c     **** 	fs->fsize = fasize;
 1640              		.loc 1 2088 0 is_stmt 1
 1641 0114 EF61     		str	r7, [r5, #28]
2090:.\sd/ff.c     **** 	fs->n_fats = b = fs->win[BPB_NumFATs];				/* Number of FAT copies */
 1642              		.loc 1 2090 0
 1643 0116 4023     		mov	r3, #64
 1644 0118 EB5C     		ldrb	r3, [r5, r3]
 1645              	.LVL212:
 1646 011a EB70     		strb	r3, [r5, #3]
 1647              	.LVL213:
2091:.\sd/ff.c     **** 	if (b != 1 && b != 2) return FR_NO_FILESYSTEM;		/* (Must be 1 or 2) */
 1648              		.loc 1 2091 0
 1649 011c 5A1E     		sub	r2, r3, #1
 1650 011e 012A     		cmp	r2, #1
 1651 0120 00D9     		bls	.LCB1851
 1652 0122 09E1     		b	.L155	@long jump
 1653              	.LCB1851:
2092:.\sd/ff.c     **** 	fasize *= b;										/* Number of sectors for FAT area */
ARM GAS  C:\Users\Jarik\AppData\Local\Temp\ccOwmDxA.s 			page 70


 1654              		.loc 1 2092 0
 1655 0124 7B43     		mul	r3, r7
 1656              	.LVL214:
 1657 0126 9B46     		mov	fp, r3
 1658              	.LVL215:
2094:.\sd/ff.c     **** 	fs->csize = b = fs->win[BPB_SecPerClus];			/* Number of sectors per cluster */
 1659              		.loc 1 2094 0
 1660 0128 3D23     		mov	r3, #61
 1661              	.LVL216:
 1662 012a E95C     		ldrb	r1, [r5, r3]
 1663              	.LVL217:
 1664 012c A970     		strb	r1, [r5, #2]
 1665              	.LVL218:
2095:.\sd/ff.c     **** 	if (!b || (b & (b - 1))) return FR_NO_FILESYSTEM;	/* (Must be power of 2) */
 1666              		.loc 1 2095 0
 1667 012e 0029     		cmp	r1, #0
 1668 0130 00D1     		bne	.LCB1864
 1669 0132 03E1     		b	.L156	@long jump
 1670              	.LCB1864:
2095:.\sd/ff.c     **** 	if (!b || (b & (b - 1))) return FR_NO_FILESYSTEM;	/* (Must be power of 2) */
 1671              		.loc 1 2095 0 is_stmt 0 discriminator 2
 1672 0134 4B1E     		sub	r3, r1, #1
 1673 0136 0B42     		tst	r3, r1
 1674 0138 00D0     		beq	.LCB1868
 1675 013a 01E1     		b	.L157	@long jump
 1676              	.LCB1868:
2097:.\sd/ff.c     **** 	fs->n_rootdir = LD_WORD(fs->win+BPB_RootEntCnt);	/* Number of root directory entries */
 1677              		.loc 1 2097 0 is_stmt 1
 1678 013c 4223     		mov	r3, #66
 1679 013e EA5C     		ldrb	r2, [r5, r3]
 1680 0140 1202     		lsl	r2, r2, #8
 1681 0142 4123     		mov	r3, #65
 1682 0144 EB5C     		ldrb	r3, [r5, r3]
 1683 0146 1A43     		orr	r2, r3
 1684 0148 9046     		mov	r8, r2
 1685 014a 2A81     		strh	r2, [r5, #8]
2098:.\sd/ff.c     **** 	if (fs->n_rootdir % (SS(fs) / SZ_DIR)) return FR_NO_FILESYSTEM;	/* (BPB_RootEntCnt must be sector 
 1686              		.loc 1 2098 0
 1687 014c 4346     		mov	r3, r8
 1688 014e 1B07     		lsl	r3, r3, #28
 1689 0150 00D0     		beq	.LCB1883
 1690 0152 F7E0     		b	.L158	@long jump
 1691              	.LCB1883:
2100:.\sd/ff.c     **** 	tsect = LD_WORD(fs->win+BPB_TotSec16);				/* Number of sectors on the volume */
 1692              		.loc 1 2100 0
 1693 0154 4423     		mov	r3, #68
 1694 0156 E85C     		ldrb	r0, [r5, r3]
 1695              	.LVL219:
 1696 0158 0002     		lsl	r0, r0, #8
 1697 015a 4323     		mov	r3, #67
 1698 015c EB5C     		ldrb	r3, [r5, r3]
 1699 015e 1843     		orr	r0, r3
 1700              	.LVL220:
2101:.\sd/ff.c     **** 	if (!tsect) tsect = LD_DWORD(fs->win+BPB_TotSec32);
 1701              		.loc 1 2101 0
 1702 0160 0DD1     		bne	.L134
2101:.\sd/ff.c     **** 	if (!tsect) tsect = LD_DWORD(fs->win+BPB_TotSec32);
ARM GAS  C:\Users\Jarik\AppData\Local\Temp\ccOwmDxA.s 			page 71


 1703              		.loc 1 2101 0 is_stmt 0 discriminator 1
 1704 0162 5323     		mov	r3, #83
 1705 0164 E85C     		ldrb	r0, [r5, r3]
 1706              	.LVL221:
 1707 0166 0006     		lsl	r0, r0, #24
 1708 0168 5223     		mov	r3, #82
 1709 016a EB5C     		ldrb	r3, [r5, r3]
 1710 016c 1B04     		lsl	r3, r3, #16
 1711 016e 1843     		orr	r0, r3
 1712 0170 5123     		mov	r3, #81
 1713 0172 EB5C     		ldrb	r3, [r5, r3]
 1714 0174 1B02     		lsl	r3, r3, #8
 1715 0176 1843     		orr	r0, r3
 1716 0178 5023     		mov	r3, #80
 1717 017a EB5C     		ldrb	r3, [r5, r3]
 1718 017c 1843     		orr	r0, r3
 1719              	.LVL222:
 1720              	.L134:
2103:.\sd/ff.c     **** 	nrsv = LD_WORD(fs->win+BPB_RsvdSecCnt);				/* Number of reserved sectors */
 1721              		.loc 1 2103 0 is_stmt 1
 1722 017e 3F23     		mov	r3, #63
 1723 0180 EA5C     		ldrb	r2, [r5, r3]
 1724 0182 1202     		lsl	r2, r2, #8
 1725 0184 3E23     		mov	r3, #62
 1726 0186 EB5C     		ldrb	r3, [r5, r3]
 1727 0188 1A43     		orr	r2, r3
 1728 018a 9146     		mov	r9, r2
 1729              	.LVL223:
2104:.\sd/ff.c     **** 	if (!nrsv) return FR_NO_FILESYSTEM;					/* (BPB_RsvdSecCnt must not be 0) */
 1730              		.loc 1 2104 0
 1731 018c 00D1     		bne	.LCB1926
 1732 018e DBE0     		b	.L159	@long jump
 1733              	.LCB1926:
2107:.\sd/ff.c     **** 	sysect = nrsv + fasize + fs->n_rootdir / (SS(fs) / SZ_DIR);	/* RSV+FAT+DIR */
 1734              		.loc 1 2107 0
 1735 0190 131C     		mov	r3, r2
 1736 0192 5B44     		add	r3, r3, fp
 1737 0194 4646     		mov	r6, r8
 1738 0196 3209     		lsr	r2, r6, #4
 1739              	.LVL224:
 1740 0198 9B18     		add	r3, r3, r2
 1741 019a 9A46     		mov	r10, r3
 1742              	.LVL225:
2108:.\sd/ff.c     **** 	if (tsect < sysect) return FR_NO_FILESYSTEM;		/* (Invalid volume size) */
 1743              		.loc 1 2108 0
 1744 019c 9842     		cmp	r0, r3
 1745 019e 00D2     		bcs	.LCB1938
 1746 01a0 D4E0     		b	.L160	@long jump
 1747              	.LCB1938:
2109:.\sd/ff.c     **** 	nclst = (tsect - sysect) / fs->csize;				/* Number of clusters */
 1748              		.loc 1 2109 0
 1749 01a2 C01A     		sub	r0, r0, r3
 1750              	.LVL226:
 1751 01a4 FFF7FEFF 		bl	__aeabi_uidiv
 1752              	.LVL227:
2110:.\sd/ff.c     **** 	if (!nclst) return FR_NO_FILESYSTEM;				/* (Invalid volume size) */
 1753              		.loc 1 2110 0
ARM GAS  C:\Users\Jarik\AppData\Local\Temp\ccOwmDxA.s 			page 72


 1754 01a8 0028     		cmp	r0, #0
 1755 01aa 00D1     		bne	.LCB1947
 1756 01ac D0E0     		b	.L161	@long jump
 1757              	.LCB1947:
 1758              	.LVL228:
2112:.\sd/ff.c     **** 	if (nclst >= MIN_FAT16) fmt = FS_FAT16;
 1759              		.loc 1 2112 0
 1760 01ae 704B     		ldr	r3, .L167+4
 1761 01b0 9842     		cmp	r0, r3
 1762 01b2 01D8     		bhi	.L162
2111:.\sd/ff.c     **** 	fmt = FS_FAT12;
 1763              		.loc 1 2111 0
 1764 01b4 0126     		mov	r6, #1
 1765 01b6 00E0     		b	.L135
 1766              	.L162:
2112:.\sd/ff.c     **** 	if (nclst >= MIN_FAT16) fmt = FS_FAT16;
 1767              		.loc 1 2112 0
 1768 01b8 0226     		mov	r6, #2
 1769              	.L135:
 1770              	.LVL229:
2113:.\sd/ff.c     **** 	if (nclst >= MIN_FAT32) fmt = FS_FAT32;
 1771              		.loc 1 2113 0
 1772 01ba 6E4B     		ldr	r3, .L167+8
 1773 01bc 9842     		cmp	r0, r3
 1774 01be 00D9     		bls	.L136
 1775 01c0 0326     		mov	r6, #3
 1776              	.LVL230:
 1777              	.L136:
2116:.\sd/ff.c     **** 	fs->n_fatent = nclst + 2;							/* Number of FAT entries */
 1778              		.loc 1 2116 0
 1779 01c2 831C     		add	r3, r0, #2
 1780 01c4 AB61     		str	r3, [r5, #24]
2117:.\sd/ff.c     **** 	fs->database = bsect + sysect;						/* Data start sector */
 1781              		.loc 1 2117 0
 1782 01c6 5146     		mov	r1, r10
 1783 01c8 6218     		add	r2, r4, r1
 1784 01ca AA62     		str	r2, [r5, #40]
2118:.\sd/ff.c     **** 	fs->fatbase = bsect + nrsv; 						/* FAT start sector */
 1785              		.loc 1 2118 0
 1786 01cc 4946     		mov	r1, r9
 1787 01ce 6218     		add	r2, r4, r1
 1788 01d0 2A62     		str	r2, [r5, #32]
2119:.\sd/ff.c     **** 	if (fmt == FS_FAT32) {
 1789              		.loc 1 2119 0
 1790 01d2 032E     		cmp	r6, #3
 1791 01d4 14D1     		bne	.L137
 1792              	.LVL231:
2120:.\sd/ff.c     **** 		if (fs->n_rootdir) return FR_NO_FILESYSTEM;		/* (BPB_RootEntCnt must be 0) */
 1793              		.loc 1 2120 0
 1794 01d6 4246     		mov	r2, r8
 1795 01d8 002A     		cmp	r2, #0
 1796 01da 00D0     		beq	.LCB1982
 1797 01dc BAE0     		b	.L164	@long jump
 1798              	.LCB1982:
2121:.\sd/ff.c     **** 		fs->dirbase = LD_DWORD(fs->win+BPB_RootClus);	/* Root directory start cluster */
 1799              		.loc 1 2121 0
 1800 01de 5F22     		mov	r2, #95
ARM GAS  C:\Users\Jarik\AppData\Local\Temp\ccOwmDxA.s 			page 73


 1801 01e0 A95C     		ldrb	r1, [r5, r2]
 1802              	.LVL232:
 1803 01e2 0906     		lsl	r1, r1, #24
 1804 01e4 5E22     		mov	r2, #94
 1805 01e6 AA5C     		ldrb	r2, [r5, r2]
 1806 01e8 1204     		lsl	r2, r2, #16
 1807 01ea 1143     		orr	r1, r2
 1808 01ec 5D22     		mov	r2, #93
 1809 01ee AA5C     		ldrb	r2, [r5, r2]
 1810 01f0 1202     		lsl	r2, r2, #8
 1811 01f2 1143     		orr	r1, r2
 1812 01f4 5C22     		mov	r2, #92
 1813 01f6 AA5C     		ldrb	r2, [r5, r2]
 1814 01f8 0A43     		orr	r2, r1
 1815 01fa 6A62     		str	r2, [r5, #36]
2122:.\sd/ff.c     **** 		szbfat = fs->n_fatent * 4;						/* (Required FAT size) */
 1816              		.loc 1 2122 0
 1817 01fc 9B00     		lsl	r3, r3, #2
 1818              	.LVL233:
 1819 01fe 0FE0     		b	.L138
 1820              	.LVL234:
 1821              	.L137:
2124:.\sd/ff.c     **** 		if (!fs->n_rootdir)	return FR_NO_FILESYSTEM;	/* (BPB_RootEntCnt must not be 0) */
 1822              		.loc 1 2124 0
 1823 0200 4146     		mov	r1, r8
 1824              	.LVL235:
 1825 0202 0029     		cmp	r1, #0
 1826 0204 00D1     		bne	.LCB2010
 1827 0206 A7E0     		b	.L165	@long jump
 1828              	.LCB2010:
2125:.\sd/ff.c     **** 		fs->dirbase = fs->fatbase + fasize;				/* Root directory start sector */
 1829              		.loc 1 2125 0
 1830 0208 5A44     		add	r2, r2, fp
 1831 020a 6A62     		str	r2, [r5, #36]
2127:.\sd/ff.c     **** 			fs->n_fatent * 2 : fs->n_fatent * 3 / 2 + (fs->n_fatent & 1);
 1832              		.loc 1 2127 0
 1833 020c 022E     		cmp	r6, #2
 1834 020e 01D1     		bne	.L139
2127:.\sd/ff.c     **** 			fs->n_fatent * 2 : fs->n_fatent * 3 / 2 + (fs->n_fatent & 1);
 1835              		.loc 1 2127 0 is_stmt 0 discriminator 1
 1836 0210 5B00     		lsl	r3, r3, #1
 1837 0212 05E0     		b	.L138
 1838              	.L139:
2127:.\sd/ff.c     **** 			fs->n_fatent * 2 : fs->n_fatent * 3 / 2 + (fs->n_fatent & 1);
 1839              		.loc 1 2127 0 discriminator 2
 1840 0214 0322     		mov	r2, #3
 1841 0216 5A43     		mul	r2, r3
 1842 0218 5208     		lsr	r2, r2, #1
 1843 021a 0121     		mov	r1, #1
 1844 021c 0B40     		and	r3, r1
 1845 021e D318     		add	r3, r2, r3
 1846              	.LVL236:
 1847              	.L138:
2129:.\sd/ff.c     **** 	if (fs->fsize < (szbfat + (SS(fs) - 1)) / SS(fs))	/* (BPB_FATSz must not be less than required) */
 1848              		.loc 1 2129 0 is_stmt 1
 1849 0220 554A     		ldr	r2, .L167+12
 1850 0222 9B18     		add	r3, r3, r2
ARM GAS  C:\Users\Jarik\AppData\Local\Temp\ccOwmDxA.s 			page 74


 1851              	.LVL237:
 1852 0224 5B0A     		lsr	r3, r3, #9
 1853              	.LVL238:
 1854 0226 9F42     		cmp	r7, r3
 1855 0228 00D2     		bcs	.LCB2039
 1856 022a 97E0     		b	.L166	@long jump
 1857              	.LCB2039:
2134:.\sd/ff.c     **** 	fs->free_clust = 0xFFFFFFFF;
 1858              		.loc 1 2134 0
 1859 022c 0123     		mov	r3, #1
 1860 022e 5B42     		neg	r3, r3
 1861 0230 2B61     		str	r3, [r5, #16]
2135:.\sd/ff.c     **** 	fs->last_clust = 0;
 1862              		.loc 1 2135 0
 1863 0232 0023     		mov	r3, #0
 1864 0234 EB60     		str	r3, [r5, #12]
2138:.\sd/ff.c     **** 	if (fmt == FS_FAT32) {
 1865              		.loc 1 2138 0
 1866 0236 032E     		cmp	r6, #3
 1867 0238 5DD1     		bne	.L141
2139:.\sd/ff.c     **** 	 	fs->fsi_flag = 0;
 1868              		.loc 1 2139 0
 1869 023a 6B71     		strb	r3, [r5, #5]
2140:.\sd/ff.c     **** 		fs->fsi_sector = bsect + LD_WORD(fs->win+BPB_FSInfo);
 1870              		.loc 1 2140 0
 1871 023c 6123     		mov	r3, #97
 1872 023e EA5C     		ldrb	r2, [r5, r3]
 1873 0240 1202     		lsl	r2, r2, #8
 1874 0242 6023     		mov	r3, #96
 1875 0244 EB5C     		ldrb	r3, [r5, r3]
 1876 0246 1A43     		orr	r2, r3
 1877 0248 1219     		add	r2, r2, r4
 1878 024a 6A61     		str	r2, [r5, #20]
2141:.\sd/ff.c     **** 		if (disk_read(fs->drv, fs->win, fs->fsi_sector, 1) == RES_OK &&
 1879              		.loc 1 2141 0
 1880 024c 291C     		mov	r1, r5
 1881 024e 3031     		add	r1, r1, #48
 1882 0250 6878     		ldrb	r0, [r5, #1]
 1883              	.LVL239:
 1884 0252 0123     		mov	r3, #1
 1885 0254 FFF7FEFF 		bl	disk_read
 1886              	.LVL240:
 1887 0258 0028     		cmp	r0, #0
 1888 025a 4CD1     		bne	.L141
2142:.\sd/ff.c     **** 			LD_WORD(fs->win+BS_55AA) == 0xAA55 &&
 1889              		.loc 1 2142 0 discriminator 1
 1890 025c 474B     		ldr	r3, .L167+16
 1891 025e EA5C     		ldrb	r2, [r5, r3]
 1892 0260 1202     		lsl	r2, r2, #8
 1893 0262 474B     		ldr	r3, .L167+20
 1894 0264 EB5C     		ldrb	r3, [r5, r3]
 1895 0266 1A43     		orr	r2, r3
2141:.\sd/ff.c     **** 		if (disk_read(fs->drv, fs->win, fs->fsi_sector, 1) == RES_OK &&
 1896              		.loc 1 2141 0 discriminator 1
 1897 0268 12B2     		sxth	r2, r2
 1898 026a 464B     		ldr	r3, .L167+24
 1899 026c 9A42     		cmp	r2, r3
ARM GAS  C:\Users\Jarik\AppData\Local\Temp\ccOwmDxA.s 			page 75


 1900 026e 42D1     		bne	.L141
2143:.\sd/ff.c     **** 			LD_DWORD(fs->win+FSI_LeadSig) == 0x41615252 &&
 1901              		.loc 1 2143 0
 1902 0270 3323     		mov	r3, #51
 1903 0272 EA5C     		ldrb	r2, [r5, r3]
 1904 0274 1206     		lsl	r2, r2, #24
 1905 0276 3223     		mov	r3, #50
 1906 0278 EB5C     		ldrb	r3, [r5, r3]
 1907 027a 1B04     		lsl	r3, r3, #16
 1908 027c 1A43     		orr	r2, r3
 1909 027e 3123     		mov	r3, #49
 1910 0280 EB5C     		ldrb	r3, [r5, r3]
 1911 0282 1B02     		lsl	r3, r3, #8
 1912 0284 1A43     		orr	r2, r3
 1913 0286 3023     		mov	r3, #48
 1914 0288 EB5C     		ldrb	r3, [r5, r3]
 1915 028a 1A43     		orr	r2, r3
2142:.\sd/ff.c     **** 			LD_WORD(fs->win+BS_55AA) == 0xAA55 &&
 1916              		.loc 1 2142 0
 1917 028c 3E4B     		ldr	r3, .L167+28
 1918 028e 9A42     		cmp	r2, r3
 1919 0290 31D1     		bne	.L141
2144:.\sd/ff.c     **** 			LD_DWORD(fs->win+FSI_StrucSig) == 0x61417272) {
 1920              		.loc 1 2144 0
 1921 0292 3E4B     		ldr	r3, .L167+32
 1922 0294 EA5C     		ldrb	r2, [r5, r3]
 1923 0296 1206     		lsl	r2, r2, #24
 1924 0298 3D4B     		ldr	r3, .L167+36
 1925 029a EB5C     		ldrb	r3, [r5, r3]
 1926 029c 1B04     		lsl	r3, r3, #16
 1927 029e 1A43     		orr	r2, r3
 1928 02a0 3C4B     		ldr	r3, .L167+40
 1929 02a2 EB5C     		ldrb	r3, [r5, r3]
 1930 02a4 1B02     		lsl	r3, r3, #8
 1931 02a6 1A43     		orr	r2, r3
 1932 02a8 8523     		mov	r3, #133
 1933 02aa 9B00     		lsl	r3, r3, #2
 1934 02ac EB5C     		ldrb	r3, [r5, r3]
 1935 02ae 1A43     		orr	r2, r3
2143:.\sd/ff.c     **** 			LD_DWORD(fs->win+FSI_LeadSig) == 0x41615252 &&
 1936              		.loc 1 2143 0
 1937 02b0 394B     		ldr	r3, .L167+44
 1938 02b2 9A42     		cmp	r2, r3
 1939 02b4 1FD1     		bne	.L141
2145:.\sd/ff.c     **** 				fs->last_clust = LD_DWORD(fs->win+FSI_Nxt_Free);
 1940              		.loc 1 2145 0
 1941 02b6 394B     		ldr	r3, .L167+48
 1942 02b8 EA5C     		ldrb	r2, [r5, r3]
 1943 02ba 1206     		lsl	r2, r2, #24
 1944 02bc 384B     		ldr	r3, .L167+52
 1945 02be EB5C     		ldrb	r3, [r5, r3]
 1946 02c0 1B04     		lsl	r3, r3, #16
 1947 02c2 1A43     		orr	r2, r3
 1948 02c4 374B     		ldr	r3, .L167+56
 1949 02c6 EB5C     		ldrb	r3, [r5, r3]
 1950 02c8 1B02     		lsl	r3, r3, #8
 1951 02ca 1A43     		orr	r2, r3
ARM GAS  C:\Users\Jarik\AppData\Local\Temp\ccOwmDxA.s 			page 76


 1952 02cc 8723     		mov	r3, #135
 1953 02ce 9B00     		lsl	r3, r3, #2
 1954 02d0 EB5C     		ldrb	r3, [r5, r3]
 1955 02d2 1343     		orr	r3, r2
 1956 02d4 EB60     		str	r3, [r5, #12]
2146:.\sd/ff.c     **** 				fs->free_clust = LD_DWORD(fs->win+FSI_Free_Count);
 1957              		.loc 1 2146 0
 1958 02d6 344B     		ldr	r3, .L167+60
 1959 02d8 EA5C     		ldrb	r2, [r5, r3]
 1960 02da 1206     		lsl	r2, r2, #24
 1961 02dc 334B     		ldr	r3, .L167+64
 1962 02de EB5C     		ldrb	r3, [r5, r3]
 1963 02e0 1B04     		lsl	r3, r3, #16
 1964 02e2 1A43     		orr	r2, r3
 1965 02e4 324B     		ldr	r3, .L167+68
 1966 02e6 EB5C     		ldrb	r3, [r5, r3]
 1967 02e8 1B02     		lsl	r3, r3, #8
 1968 02ea 1A43     		orr	r2, r3
 1969 02ec 8623     		mov	r3, #134
 1970 02ee 9B00     		lsl	r3, r3, #2
 1971 02f0 EB5C     		ldrb	r3, [r5, r3]
 1972 02f2 1343     		orr	r3, r2
 1973 02f4 2B61     		str	r3, [r5, #16]
 1974              	.L141:
2150:.\sd/ff.c     **** 	fs->fs_type = fmt;		/* FAT sub-type */
 1975              		.loc 1 2150 0
 1976 02f6 2E70     		strb	r6, [r5]
2151:.\sd/ff.c     **** 	fs->id = ++Fsid;		/* File system mount ID */
 1977              		.loc 1 2151 0
 1978 02f8 1C4A     		ldr	r2, .L167
 1979 02fa 138D     		ldrh	r3, [r2, #40]
 1980 02fc 0133     		add	r3, r3, #1
 1981 02fe 9BB2     		uxth	r3, r3
 1982 0300 1385     		strh	r3, [r2, #40]
 1983 0302 EB80     		strh	r3, [r5, #6]
2152:.\sd/ff.c     **** 	fs->winsect = 0;		/* Invalidate sector cache */
 1984              		.loc 1 2152 0
 1985 0304 0024     		mov	r4, #0
 1986              	.LVL241:
 1987 0306 EC62     		str	r4, [r5, #44]
2153:.\sd/ff.c     **** 	fs->wflag = 0;
 1988              		.loc 1 2153 0
 1989 0308 2C71     		strb	r4, [r5, #4]
2158:.\sd/ff.c     **** 	clear_lock(fs);
 1990              		.loc 1 2158 0
 1991 030a 281C     		mov	r0, r5
 1992 030c FFF7FEFF 		bl	clear_lock
 1993              	.LVL242:
2161:.\sd/ff.c     **** 	return FR_OK;
 1994              		.loc 1 2161 0
 1995 0310 201C     		mov	r0, r4
 1996 0312 24E0     		b	.L129
 1997              	.LVL243:
 1998              	.L144:
2036:.\sd/ff.c     **** 		return FR_INVALID_DRIVE;
 1999              		.loc 1 2036 0
 2000 0314 0B20     		mov	r0, #11
ARM GAS  C:\Users\Jarik\AppData\Local\Temp\ccOwmDxA.s 			page 77


 2001              	.LVL244:
 2002 0316 22E0     		b	.L129
 2003              	.LVL245:
 2004              	.L145:
2038:.\sd/ff.c     **** 	if (!fs) return FR_NOT_ENABLED;		/* Is the file system object available? */
 2005              		.loc 1 2038 0
 2006 0318 0C20     		mov	r0, #12
 2007              	.LVL246:
 2008 031a 20E0     		b	.L129
 2009              	.LVL247:
 2010              	.L146:
2047:.\sd/ff.c     **** 			return FR_OK;				/* The file system object is valid */
 2011              		.loc 1 2047 0
 2012 031c 0020     		mov	r0, #0
 2013              	.LVL248:
 2014 031e 1EE0     		b	.L129
 2015              	.LVL249:
 2016              	.L147:
2046:.\sd/ff.c     **** 				return FR_WRITE_PROTECTED;
 2017              		.loc 1 2046 0
 2018 0320 0A20     		mov	r0, #10
 2019              	.LVL250:
 2020 0322 1CE0     		b	.L129
 2021              	.LVL251:
 2022              	.L148:
2058:.\sd/ff.c     **** 		return FR_NOT_READY;			/* Failed to initialize due to no media or hard error */
 2023              		.loc 1 2058 0
 2024 0324 0320     		mov	r0, #3
 2025              	.LVL252:
 2026 0326 1AE0     		b	.L129
 2027              	.LVL253:
 2028              	.L149:
2060:.\sd/ff.c     **** 		return FR_WRITE_PROTECTED;
 2029              		.loc 1 2060 0
 2030 0328 0A20     		mov	r0, #10
 2031              	.LVL254:
 2032 032a 18E0     		b	.L129
 2033              	.LVL255:
 2034              	.L152:
2078:.\sd/ff.c     **** 	if (fmt == 3) return FR_DISK_ERR;
 2035              		.loc 1 2078 0
 2036 032c 0120     		mov	r0, #1
 2037              	.LVL256:
 2038 032e 16E0     		b	.L129
 2039              	.LVL257:
 2040              	.L153:
2079:.\sd/ff.c     **** 	if (fmt) return FR_NO_FILESYSTEM;		/* No FAT volume is found */
 2041              		.loc 1 2079 0
 2042 0330 0D20     		mov	r0, #13
 2043              	.LVL258:
 2044 0332 14E0     		b	.L129
 2045              	.LVL259:
 2046              	.L154:
2084:.\sd/ff.c     **** 		return FR_NO_FILESYSTEM;
 2047              		.loc 1 2084 0
 2048 0334 0D20     		mov	r0, #13
 2049              	.LVL260:
ARM GAS  C:\Users\Jarik\AppData\Local\Temp\ccOwmDxA.s 			page 78


 2050 0336 12E0     		b	.L129
 2051              	.LVL261:
 2052              	.L155:
2091:.\sd/ff.c     **** 	if (b != 1 && b != 2) return FR_NO_FILESYSTEM;		/* (Must be 1 or 2) */
 2053              		.loc 1 2091 0
 2054 0338 0D20     		mov	r0, #13
 2055              	.LVL262:
 2056 033a 10E0     		b	.L129
 2057              	.LVL263:
 2058              	.L156:
2095:.\sd/ff.c     **** 	if (!b || (b & (b - 1))) return FR_NO_FILESYSTEM;	/* (Must be power of 2) */
 2059              		.loc 1 2095 0
 2060 033c 0D20     		mov	r0, #13
 2061              	.LVL264:
 2062 033e 0EE0     		b	.L129
 2063              	.LVL265:
 2064              	.L157:
 2065 0340 0D20     		mov	r0, #13
 2066              	.LVL266:
 2067 0342 0CE0     		b	.L129
 2068              	.LVL267:
 2069              	.L158:
2098:.\sd/ff.c     **** 	if (fs->n_rootdir % (SS(fs) / SZ_DIR)) return FR_NO_FILESYSTEM;	/* (BPB_RootEntCnt must be sector 
 2070              		.loc 1 2098 0
 2071 0344 0D20     		mov	r0, #13
 2072              	.LVL268:
 2073 0346 0AE0     		b	.L129
 2074              	.LVL269:
 2075              	.L159:
2104:.\sd/ff.c     **** 	if (!nrsv) return FR_NO_FILESYSTEM;					/* (BPB_RsvdSecCnt must not be 0) */
 2076              		.loc 1 2104 0
 2077 0348 0D20     		mov	r0, #13
 2078              	.LVL270:
 2079 034a 08E0     		b	.L129
 2080              	.LVL271:
 2081              	.L160:
2108:.\sd/ff.c     **** 	if (tsect < sysect) return FR_NO_FILESYSTEM;		/* (Invalid volume size) */
 2082              		.loc 1 2108 0
 2083 034c 0D20     		mov	r0, #13
 2084              	.LVL272:
 2085 034e 06E0     		b	.L129
 2086              	.LVL273:
 2087              	.L161:
2110:.\sd/ff.c     **** 	if (!nclst) return FR_NO_FILESYSTEM;				/* (Invalid volume size) */
 2088              		.loc 1 2110 0
 2089 0350 0D20     		mov	r0, #13
 2090              	.LVL274:
 2091 0352 04E0     		b	.L129
 2092              	.LVL275:
 2093              	.L164:
2120:.\sd/ff.c     **** 		if (fs->n_rootdir) return FR_NO_FILESYSTEM;		/* (BPB_RootEntCnt must be 0) */
 2094              		.loc 1 2120 0
 2095 0354 0D20     		mov	r0, #13
 2096              	.LVL276:
 2097 0356 02E0     		b	.L129
 2098              	.LVL277:
 2099              	.L165:
ARM GAS  C:\Users\Jarik\AppData\Local\Temp\ccOwmDxA.s 			page 79


2124:.\sd/ff.c     **** 		if (!fs->n_rootdir)	return FR_NO_FILESYSTEM;	/* (BPB_RootEntCnt must not be 0) */
 2100              		.loc 1 2124 0
 2101 0358 0D20     		mov	r0, #13
 2102              	.LVL278:
 2103 035a 00E0     		b	.L129
 2104              	.LVL279:
 2105              	.L166:
2130:.\sd/ff.c     **** 		return FR_NO_FILESYSTEM;
 2106              		.loc 1 2130 0
 2107 035c 0D20     		mov	r0, #13
 2108              	.LVL280:
 2109              	.L129:
2162:.\sd/ff.c     **** }
 2110              		.loc 1 2162 0
 2111              		@ sp needed
 2112 035e 3CBC     		pop	{r2, r3, r4, r5}
 2113 0360 9046     		mov	r8, r2
 2114 0362 9946     		mov	r9, r3
 2115 0364 A246     		mov	r10, r4
 2116 0366 AB46     		mov	fp, r5
 2117 0368 F8BD     		pop	{r3, r4, r5, r6, r7, pc}
 2118              	.L168:
 2119 036a C046     		.align	2
 2120              	.L167:
 2121 036c 00000000 		.word	.LANCHOR0
 2122 0370 F50F0000 		.word	4085
 2123 0374 F5FF0000 		.word	65525
 2124 0378 FF010000 		.word	511
 2125 037c 2F020000 		.word	559
 2126 0380 2E020000 		.word	558
 2127 0384 55AAFFFF 		.word	-21931
 2128 0388 52526141 		.word	1096897106
 2129 038c 17020000 		.word	535
 2130 0390 16020000 		.word	534
 2131 0394 15020000 		.word	533
 2132 0398 72724161 		.word	1631679090
 2133 039c 1F020000 		.word	543
 2134 03a0 1E020000 		.word	542
 2135 03a4 1D020000 		.word	541
 2136 03a8 1B020000 		.word	539
 2137 03ac 1A020000 		.word	538
 2138 03b0 19020000 		.word	537
 2139              		.cfi_endproc
 2140              	.LFE26:
 2141              		.size	chk_mounted, .-chk_mounted
 2142              		.section	.text.sync,"ax",%progbits
 2143              		.align	2
 2144              		.code	16
 2145              		.thumb_func
 2146              		.type	sync, %function
 2147              	sync:
 2148              	.LFB10:
 764:.\sd/ff.c     **** {
 2149              		.loc 1 764 0
 2150              		.cfi_startproc
 2151              	.LVL281:
 2152 0000 F8B5     		push	{r3, r4, r5, r6, r7, lr}
ARM GAS  C:\Users\Jarik\AppData\Local\Temp\ccOwmDxA.s 			page 80


 2153              		.cfi_def_cfa_offset 24
 2154              		.cfi_offset 3, -24
 2155              		.cfi_offset 4, -20
 2156              		.cfi_offset 5, -16
 2157              		.cfi_offset 6, -12
 2158              		.cfi_offset 7, -8
 2159              		.cfi_offset 14, -4
 2160 0002 041C     		mov	r4, r0
 768:.\sd/ff.c     **** 	res = move_window(fs, 0);
 2161              		.loc 1 768 0
 2162 0004 0021     		mov	r1, #0
 2163 0006 FFF7FEFF 		bl	move_window
 2164              	.LVL282:
 2165 000a 051E     		sub	r5, r0, #0
 2166              	.LVL283:
 769:.\sd/ff.c     **** 	if (res == FR_OK) {
 2167              		.loc 1 769 0
 2168 000c 53D1     		bne	.L170
 771:.\sd/ff.c     **** 		if (fs->fs_type == FS_FAT32 && fs->fsi_flag) {
 2169              		.loc 1 771 0
 2170 000e 2378     		ldrb	r3, [r4]
 2171 0010 032B     		cmp	r3, #3
 2172 0012 48D1     		bne	.L171
 771:.\sd/ff.c     **** 		if (fs->fs_type == FS_FAT32 && fs->fsi_flag) {
 2173              		.loc 1 771 0 is_stmt 0 discriminator 1
 2174 0014 6379     		ldrb	r3, [r4, #5]
 2175 0016 002B     		cmp	r3, #0
 2176 0018 45D0     		beq	.L171
 772:.\sd/ff.c     **** 			fs->winsect = 0;
 2177              		.loc 1 772 0 is_stmt 1
 2178 001a 0026     		mov	r6, #0
 2179 001c E662     		str	r6, [r4, #44]
 774:.\sd/ff.c     **** 			mem_set(fs->win, 0, 512);
 2180              		.loc 1 774 0
 2181 001e 271C     		mov	r7, r4
 2182 0020 3037     		add	r7, r7, #48
 2183 0022 381C     		mov	r0, r7
 2184              	.LVL284:
 2185 0024 0021     		mov	r1, #0
 2186 0026 8022     		mov	r2, #128
 2187 0028 9200     		lsl	r2, r2, #2
 2188 002a FFF7FEFF 		bl	mem_set
 2189              	.LVL285:
 775:.\sd/ff.c     **** 			ST_WORD(fs->win+BS_55AA, 0xAA55);
 2190              		.loc 1 775 0
 2191 002e 5522     		mov	r2, #85
 2192 0030 224B     		ldr	r3, .L173
 2193 0032 E254     		strb	r2, [r4, r3]
 2194 0034 AA22     		mov	r2, #170
 2195 0036 224B     		ldr	r3, .L173+4
 2196 0038 E254     		strb	r2, [r4, r3]
 776:.\sd/ff.c     **** 			ST_DWORD(fs->win+FSI_LeadSig, 0x41615252);
 2197              		.loc 1 776 0
 2198 003a 5223     		mov	r3, #82
 2199 003c 3022     		mov	r2, #48
 2200 003e A354     		strb	r3, [r4, r2]
 2201 0040 3122     		mov	r2, #49
ARM GAS  C:\Users\Jarik\AppData\Local\Temp\ccOwmDxA.s 			page 81


 2202 0042 A354     		strb	r3, [r4, r2]
 2203 0044 6123     		mov	r3, #97
 2204 0046 3222     		mov	r2, #50
 2205 0048 A354     		strb	r3, [r4, r2]
 2206 004a 4122     		mov	r2, #65
 2207 004c 3321     		mov	r1, #51
 2208 004e 6254     		strb	r2, [r4, r1]
 777:.\sd/ff.c     **** 			ST_DWORD(fs->win+FSI_StrucSig, 0x61417272);
 2209              		.loc 1 777 0
 2210 0050 7221     		mov	r1, #114
 2211 0052 8520     		mov	r0, #133
 2212 0054 8000     		lsl	r0, r0, #2
 2213 0056 2154     		strb	r1, [r4, r0]
 2214 0058 1A48     		ldr	r0, .L173+8
 2215 005a 2154     		strb	r1, [r4, r0]
 2216 005c 1A49     		ldr	r1, .L173+12
 2217 005e 6254     		strb	r2, [r4, r1]
 2218 0060 1A4A     		ldr	r2, .L173+16
 2219 0062 A354     		strb	r3, [r4, r2]
 778:.\sd/ff.c     **** 			ST_DWORD(fs->win+FSI_Free_Count, fs->free_clust);
 2220              		.loc 1 778 0
 2221 0064 2369     		ldr	r3, [r4, #16]
 2222 0066 8622     		mov	r2, #134
 2223 0068 9200     		lsl	r2, r2, #2
 2224 006a A354     		strb	r3, [r4, r2]
 2225 006c 190A     		lsr	r1, r3, #8
 2226 006e 184A     		ldr	r2, .L173+20
 2227 0070 A154     		strb	r1, [r4, r2]
 2228 0072 190C     		lsr	r1, r3, #16
 2229 0074 174A     		ldr	r2, .L173+24
 2230 0076 A154     		strb	r1, [r4, r2]
 2231 0078 1B0E     		lsr	r3, r3, #24
 2232 007a 174A     		ldr	r2, .L173+28
 2233 007c A354     		strb	r3, [r4, r2]
 779:.\sd/ff.c     **** 			ST_DWORD(fs->win+FSI_Nxt_Free, fs->last_clust);
 2234              		.loc 1 779 0
 2235 007e E368     		ldr	r3, [r4, #12]
 2236 0080 8722     		mov	r2, #135
 2237 0082 9200     		lsl	r2, r2, #2
 2238 0084 A354     		strb	r3, [r4, r2]
 2239 0086 190A     		lsr	r1, r3, #8
 2240 0088 144A     		ldr	r2, .L173+32
 2241 008a A154     		strb	r1, [r4, r2]
 2242 008c 190C     		lsr	r1, r3, #16
 2243 008e 144A     		ldr	r2, .L173+36
 2244 0090 A154     		strb	r1, [r4, r2]
 2245 0092 1B0E     		lsr	r3, r3, #24
 2246 0094 134A     		ldr	r2, .L173+40
 2247 0096 A354     		strb	r3, [r4, r2]
 781:.\sd/ff.c     **** 			disk_write(fs->drv, fs->win, fs->fsi_sector, 1);
 2248              		.loc 1 781 0
 2249 0098 6078     		ldrb	r0, [r4, #1]
 2250 009a 391C     		mov	r1, r7
 2251 009c 6269     		ldr	r2, [r4, #20]
 2252 009e 0123     		mov	r3, #1
 2253 00a0 FFF7FEFF 		bl	disk_write
 2254              	.LVL286:
ARM GAS  C:\Users\Jarik\AppData\Local\Temp\ccOwmDxA.s 			page 82


 782:.\sd/ff.c     **** 			fs->fsi_flag = 0;
 2255              		.loc 1 782 0
 2256 00a4 6671     		strb	r6, [r4, #5]
 2257              	.L171:
 785:.\sd/ff.c     **** 		if (disk_ioctl(fs->drv, CTRL_SYNC, 0) != RES_OK)
 2258              		.loc 1 785 0
 2259 00a6 6078     		ldrb	r0, [r4, #1]
 2260 00a8 0021     		mov	r1, #0
 2261 00aa 0022     		mov	r2, #0
 2262 00ac FFF7FEFF 		bl	disk_ioctl
 2263              	.LVL287:
 2264 00b0 0028     		cmp	r0, #0
 2265 00b2 00D0     		beq	.L170
 786:.\sd/ff.c     **** 			res = FR_DISK_ERR;
 2266              		.loc 1 786 0
 2267 00b4 0125     		mov	r5, #1
 2268              	.LVL288:
 2269              	.L170:
 790:.\sd/ff.c     **** }
 2270              		.loc 1 790 0
 2271 00b6 281C     		mov	r0, r5
 2272              		@ sp needed
 2273              	.LVL289:
 2274              	.LVL290:
 2275 00b8 F8BD     		pop	{r3, r4, r5, r6, r7, pc}
 2276              	.L174:
 2277 00ba C046     		.align	2
 2278              	.L173:
 2279 00bc 2E020000 		.word	558
 2280 00c0 2F020000 		.word	559
 2281 00c4 15020000 		.word	533
 2282 00c8 16020000 		.word	534
 2283 00cc 17020000 		.word	535
 2284 00d0 19020000 		.word	537
 2285 00d4 1A020000 		.word	538
 2286 00d8 1B020000 		.word	539
 2287 00dc 1D020000 		.word	541
 2288 00e0 1E020000 		.word	542
 2289 00e4 1F020000 		.word	543
 2290              		.cfi_endproc
 2291              	.LFE10:
 2292              		.size	sync, .-sync
 2293              		.section	.text.clust2sect,"ax",%progbits
 2294              		.align	2
 2295              		.global	clust2sect
 2296              		.code	16
 2297              		.thumb_func
 2298              		.type	clust2sect, %function
 2299              	clust2sect:
 2300              	.LFB11:
 805:.\sd/ff.c     **** {
 2301              		.loc 1 805 0
 2302              		.cfi_startproc
 2303              	.LVL291:
 806:.\sd/ff.c     **** 	clst -= 2;
 2304              		.loc 1 806 0
 2305 0000 0239     		sub	r1, r1, #2
ARM GAS  C:\Users\Jarik\AppData\Local\Temp\ccOwmDxA.s 			page 83


 2306              	.LVL292:
 807:.\sd/ff.c     **** 	if (clst >= (fs->n_fatent - 2)) return 0;		/* Invalid cluster# */
 2307              		.loc 1 807 0
 2308 0002 8369     		ldr	r3, [r0, #24]
 2309 0004 023B     		sub	r3, r3, #2
 2310 0006 8B42     		cmp	r3, r1
 2311 0008 04D9     		bls	.L177
 808:.\sd/ff.c     **** 	return clst * fs->csize + fs->database;
 2312              		.loc 1 808 0
 2313 000a 8378     		ldrb	r3, [r0, #2]
 2314 000c 5943     		mul	r1, r3
 2315              	.LVL293:
 2316 000e 836A     		ldr	r3, [r0, #40]
 2317 0010 C818     		add	r0, r1, r3
 2318              	.LVL294:
 2319 0012 00E0     		b	.L176
 2320              	.LVL295:
 2321              	.L177:
 807:.\sd/ff.c     **** 	if (clst >= (fs->n_fatent - 2)) return 0;		/* Invalid cluster# */
 2322              		.loc 1 807 0
 2323 0014 0020     		mov	r0, #0
 2324              	.LVL296:
 2325              	.L176:
 809:.\sd/ff.c     **** }
 2326              		.loc 1 809 0
 2327              		@ sp needed
 2328 0016 7047     		bx	lr
 2329              		.cfi_endproc
 2330              	.LFE11:
 2331              		.size	clust2sect, .-clust2sect
 2332              		.section	.text.get_fat,"ax",%progbits
 2333              		.align	2
 2334              		.global	get_fat
 2335              		.code	16
 2336              		.thumb_func
 2337              		.type	get_fat, %function
 2338              	get_fat:
 2339              	.LFB12:
 823:.\sd/ff.c     **** {
 2340              		.loc 1 823 0
 2341              		.cfi_startproc
 2342              	.LVL297:
 2343 0000 F8B5     		push	{r3, r4, r5, r6, r7, lr}
 2344              		.cfi_def_cfa_offset 24
 2345              		.cfi_offset 3, -24
 2346              		.cfi_offset 4, -20
 2347              		.cfi_offset 5, -16
 2348              		.cfi_offset 6, -12
 2349              		.cfi_offset 7, -8
 2350              		.cfi_offset 14, -4
 2351 0002 051C     		mov	r5, r0
 2352 0004 0C1E     		sub	r4, r1, #0
 828:.\sd/ff.c     **** 	if (clst < 2 || clst >= fs->n_fatent)	/* Chack range */
 2353              		.loc 1 828 0
 2354 0006 012C     		cmp	r4, #1
 2355 0008 60D9     		bls	.L185
 828:.\sd/ff.c     **** 	if (clst < 2 || clst >= fs->n_fatent)	/* Chack range */
ARM GAS  C:\Users\Jarik\AppData\Local\Temp\ccOwmDxA.s 			page 84


 2356              		.loc 1 828 0 is_stmt 0 discriminator 1
 2357 000a 8369     		ldr	r3, [r0, #24]
 2358 000c 8B42     		cmp	r3, r1
 2359 000e 5FD9     		bls	.L186
 831:.\sd/ff.c     **** 	switch (fs->fs_type) {
 2360              		.loc 1 831 0 is_stmt 1
 2361 0010 0378     		ldrb	r3, [r0]
 2362 0012 022B     		cmp	r3, #2
 2363 0014 28D0     		beq	.L180
 2364 0016 032B     		cmp	r3, #3
 2365 0018 3BD0     		beq	.L181
 2366 001a 012B     		cmp	r3, #1
 2367 001c 5AD1     		bne	.L192
 2368              	.LVL298:
 833:.\sd/ff.c     **** 		bc = (UINT)clst; bc += bc / 2;
 2369              		.loc 1 833 0
 2370 001e 4E08     		lsr	r6, r1, #1
 2371 0020 8E19     		add	r6, r1, r6
 2372              	.LVL299:
 834:.\sd/ff.c     **** 		if (move_window(fs, fs->fatbase + (bc / SS(fs)))) break;
 2373              		.loc 1 834 0
 2374 0022 710A     		lsr	r1, r6, #9
 2375              	.LVL300:
 2376 0024 036A     		ldr	r3, [r0, #32]
 2377 0026 5918     		add	r1, r3, r1
 2378 0028 FFF7FEFF 		bl	move_window
 2379              	.LVL301:
 2380 002c 0028     		cmp	r0, #0
 2381 002e 54D1     		bne	.L188
 835:.\sd/ff.c     **** 		wc = fs->win[bc % SS(fs)]; bc++;
 2382              		.loc 1 835 0
 2383 0030 F305     		lsl	r3, r6, #23
 2384 0032 DB0D     		lsr	r3, r3, #23
 2385 0034 EB18     		add	r3, r5, r3
 2386 0036 3033     		add	r3, r3, #48
 2387 0038 1F78     		ldrb	r7, [r3]
 2388              	.LVL302:
 2389 003a 0136     		add	r6, r6, #1
 2390              	.LVL303:
 836:.\sd/ff.c     **** 		if (move_window(fs, fs->fatbase + (bc / SS(fs)))) break;
 2391              		.loc 1 836 0
 2392 003c 710A     		lsr	r1, r6, #9
 2393 003e 2B6A     		ldr	r3, [r5, #32]
 2394 0040 5918     		add	r1, r3, r1
 2395 0042 281C     		mov	r0, r5
 2396 0044 FFF7FEFF 		bl	move_window
 2397              	.LVL304:
 2398 0048 0028     		cmp	r0, #0
 2399 004a 49D1     		bne	.L189
 837:.\sd/ff.c     **** 		wc |= fs->win[bc % SS(fs)] << 8;
 2400              		.loc 1 837 0
 2401 004c F605     		lsl	r6, r6, #23
 2402              	.LVL305:
 2403 004e F60D     		lsr	r6, r6, #23
 2404 0050 AD19     		add	r5, r5, r6
 2405              	.LVL306:
 2406 0052 3035     		add	r5, r5, #48
ARM GAS  C:\Users\Jarik\AppData\Local\Temp\ccOwmDxA.s 			page 85


 2407 0054 2878     		ldrb	r0, [r5]
 2408 0056 0002     		lsl	r0, r0, #8
 2409 0058 0743     		orr	r7, r0
 2410              	.LVL307:
 838:.\sd/ff.c     **** 		return (clst & 1) ? (wc >> 4) : (wc & 0xFFF);
 2411              		.loc 1 838 0
 2412 005a E307     		lsl	r3, r4, #31
 2413 005c 01D5     		bpl	.L183
 838:.\sd/ff.c     **** 		return (clst & 1) ? (wc >> 4) : (wc & 0xFFF);
 2414              		.loc 1 838 0 is_stmt 0 discriminator 1
 2415 005e 3809     		lsr	r0, r7, #4
 2416 0060 46E0     		b	.L179
 2417              	.L183:
 838:.\sd/ff.c     **** 		return (clst & 1) ? (wc >> 4) : (wc & 0xFFF);
 2418              		.loc 1 838 0 discriminator 2
 2419 0062 3805     		lsl	r0, r7, #20
 2420 0064 000D     		lsr	r0, r0, #20
 2421 0066 43E0     		b	.L179
 2422              	.LVL308:
 2423              	.L180:
 841:.\sd/ff.c     **** 		if (move_window(fs, fs->fatbase + (clst / (SS(fs) / 2)))) break;
 2424              		.loc 1 841 0 is_stmt 1
 2425 0068 090A     		lsr	r1, r1, #8
 2426              	.LVL309:
 2427 006a 036A     		ldr	r3, [r0, #32]
 2428 006c 5918     		add	r1, r3, r1
 2429 006e FFF7FEFF 		bl	move_window
 2430              	.LVL310:
 2431 0072 0028     		cmp	r0, #0
 2432 0074 37D1     		bne	.L190
 842:.\sd/ff.c     **** 		p = &fs->win[clst * 2 % SS(fs)];
 2433              		.loc 1 842 0
 2434 0076 6400     		lsl	r4, r4, #1
 2435              	.LVL311:
 2436 0078 FF23     		mov	r3, #255
 2437 007a 5B00     		lsl	r3, r3, #1
 2438 007c 1C40     		and	r4, r3
 2439 007e 231C     		mov	r3, r4
 2440 0080 3033     		add	r3, r3, #48
 2441 0082 EB18     		add	r3, r5, r3
 2442              	.LVL312:
 843:.\sd/ff.c     **** 		return LD_WORD(p);
 2443              		.loc 1 843 0
 2444 0084 5878     		ldrb	r0, [r3, #1]
 2445 0086 0002     		lsl	r0, r0, #8
 2446 0088 2C19     		add	r4, r5, r4
 2447 008a 3034     		add	r4, r4, #48
 2448 008c 2378     		ldrb	r3, [r4]
 2449              	.LVL313:
 2450 008e 1843     		orr	r0, r3
 2451 0090 2EE0     		b	.L179
 2452              	.LVL314:
 2453              	.L181:
 846:.\sd/ff.c     **** 		if (move_window(fs, fs->fatbase + (clst / (SS(fs) / 4)))) break;
 2454              		.loc 1 846 0
 2455 0092 C909     		lsr	r1, r1, #7
 2456              	.LVL315:
ARM GAS  C:\Users\Jarik\AppData\Local\Temp\ccOwmDxA.s 			page 86


 2457 0094 036A     		ldr	r3, [r0, #32]
 2458 0096 5918     		add	r1, r3, r1
 2459 0098 FFF7FEFF 		bl	move_window
 2460              	.LVL316:
 2461 009c 0028     		cmp	r0, #0
 2462 009e 25D1     		bne	.L191
 847:.\sd/ff.c     **** 		p = &fs->win[clst * 4 % SS(fs)];
 2463              		.loc 1 847 0
 2464 00a0 A400     		lsl	r4, r4, #2
 2465              	.LVL317:
 2466 00a2 FE23     		mov	r3, #254
 2467 00a4 5B00     		lsl	r3, r3, #1
 2468 00a6 1C40     		and	r4, r3
 2469 00a8 231C     		mov	r3, r4
 2470 00aa 3033     		add	r3, r3, #48
 2471 00ac EB18     		add	r3, r5, r3
 2472              	.LVL318:
 848:.\sd/ff.c     **** 		return LD_DWORD(p) & 0x0FFFFFFF;
 2473              		.loc 1 848 0
 2474 00ae D878     		ldrb	r0, [r3, #3]
 2475 00b0 0006     		lsl	r0, r0, #24
 2476 00b2 9A78     		ldrb	r2, [r3, #2]
 2477 00b4 1204     		lsl	r2, r2, #16
 2478 00b6 1043     		orr	r0, r2
 2479 00b8 5B78     		ldrb	r3, [r3, #1]
 2480              	.LVL319:
 2481 00ba 1B02     		lsl	r3, r3, #8
 2482 00bc 1843     		orr	r0, r3
 2483 00be 2C19     		add	r4, r5, r4
 2484              	.LVL320:
 2485 00c0 3034     		add	r4, r4, #48
 2486 00c2 2378     		ldrb	r3, [r4]
 2487 00c4 1843     		orr	r0, r3
 2488 00c6 0001     		lsl	r0, r0, #4
 2489 00c8 0009     		lsr	r0, r0, #4
 2490 00ca 11E0     		b	.L179
 2491              	.LVL321:
 2492              	.L185:
 829:.\sd/ff.c     **** 		return 1;
 2493              		.loc 1 829 0
 2494 00cc 0120     		mov	r0, #1
 2495              	.LVL322:
 2496 00ce 0FE0     		b	.L179
 2497              	.LVL323:
 2498              	.L186:
 2499 00d0 0120     		mov	r0, #1
 2500              	.LVL324:
 2501 00d2 0DE0     		b	.L179
 2502              	.LVL325:
 2503              	.L192:
 851:.\sd/ff.c     **** 	return 0xFFFFFFFF;	/* An error occurred at the disk I/O layer */
 2504              		.loc 1 851 0
 2505 00d4 0120     		mov	r0, #1
 2506              	.LVL326:
 2507 00d6 4042     		neg	r0, r0
 2508 00d8 0AE0     		b	.L179
 2509              	.LVL327:
ARM GAS  C:\Users\Jarik\AppData\Local\Temp\ccOwmDxA.s 			page 87


 2510              	.L188:
 2511 00da 0120     		mov	r0, #1
 2512 00dc 4042     		neg	r0, r0
 2513 00de 07E0     		b	.L179
 2514              	.LVL328:
 2515              	.L189:
 2516 00e0 0120     		mov	r0, #1
 2517 00e2 4042     		neg	r0, r0
 2518 00e4 04E0     		b	.L179
 2519              	.LVL329:
 2520              	.L190:
 2521 00e6 0120     		mov	r0, #1
 2522 00e8 4042     		neg	r0, r0
 2523 00ea 01E0     		b	.L179
 2524              	.L191:
 2525 00ec 0120     		mov	r0, #1
 2526 00ee 4042     		neg	r0, r0
 2527              	.LVL330:
 2528              	.L179:
 852:.\sd/ff.c     **** }
 2529              		.loc 1 852 0
 2530              		@ sp needed
 2531 00f0 F8BD     		pop	{r3, r4, r5, r6, r7, pc}
 2532              		.cfi_endproc
 2533              	.LFE12:
 2534              		.size	get_fat, .-get_fat
 2535 00f2 C046     		.section	.text.dir_sdi,"ax",%progbits
 2536              		.align	2
 2537              		.code	16
 2538              		.thumb_func
 2539              		.type	dir_sdi, %function
 2540              	dir_sdi:
 2541              	.LFB16:
1069:.\sd/ff.c     **** {
 2542              		.loc 1 1069 0
 2543              		.cfi_startproc
 2544              	.LVL331:
 2545 0000 70B5     		push	{r4, r5, r6, lr}
 2546              		.cfi_def_cfa_offset 16
 2547              		.cfi_offset 4, -16
 2548              		.cfi_offset 5, -12
 2549              		.cfi_offset 6, -8
 2550              		.cfi_offset 14, -4
 2551 0002 041C     		mov	r4, r0
 2552 0004 0D1C     		mov	r5, r1
1074:.\sd/ff.c     **** 	dj->index = idx;
 2553              		.loc 1 1074 0
 2554 0006 E180     		strh	r1, [r4, #6]
1075:.\sd/ff.c     **** 	clst = dj->sclust;
 2555              		.loc 1 1075 0
 2556 0008 8168     		ldr	r1, [r0, #8]
 2557              	.LVL332:
1076:.\sd/ff.c     **** 	if (clst == 1 || clst >= dj->fs->n_fatent)	/* Check start cluster range */
 2558              		.loc 1 1076 0
 2559 000a 0129     		cmp	r1, #1
 2560 000c 37D0     		beq	.L200
1076:.\sd/ff.c     **** 	if (clst == 1 || clst >= dj->fs->n_fatent)	/* Check start cluster range */
ARM GAS  C:\Users\Jarik\AppData\Local\Temp\ccOwmDxA.s 			page 88


 2561              		.loc 1 1076 0 is_stmt 0 discriminator 1
 2562 000e 0368     		ldr	r3, [r0]
 2563 0010 9A69     		ldr	r2, [r3, #24]
 2564 0012 8A42     		cmp	r2, r1
 2565 0014 35D9     		bls	.L201
1078:.\sd/ff.c     **** 	if (!clst && dj->fs->fs_type == FS_FAT32)	/* Replace cluster# 0 with root cluster# if in FAT32 */
 2566              		.loc 1 1078 0 is_stmt 1
 2567 0016 0029     		cmp	r1, #0
 2568 0018 03D1     		bne	.L195
1078:.\sd/ff.c     **** 	if (!clst && dj->fs->fs_type == FS_FAT32)	/* Replace cluster# 0 with root cluster# if in FAT32 */
 2569              		.loc 1 1078 0 is_stmt 0 discriminator 1
 2570 001a 1A78     		ldrb	r2, [r3]
 2571 001c 032A     		cmp	r2, #3
 2572 001e 00D1     		bne	.L195
1079:.\sd/ff.c     **** 		clst = dj->fs->dirbase;
 2573              		.loc 1 1079 0 is_stmt 1
 2574 0020 596A     		ldr	r1, [r3, #36]
 2575              	.LVL333:
 2576              	.L195:
1081:.\sd/ff.c     **** 	if (clst == 0) {	/* Static table (root-dir in FAT12/16) */
 2577              		.loc 1 1081 0
 2578 0022 0029     		cmp	r1, #0
 2579 0024 08D1     		bne	.L196
1082:.\sd/ff.c     **** 		dj->clust = clst;
 2580              		.loc 1 1082 0
 2581 0026 E160     		str	r1, [r4, #12]
1083:.\sd/ff.c     **** 		if (idx >= dj->fs->n_rootdir)		/* Index is out of range */
 2582              		.loc 1 1083 0
 2583 0028 1A89     		ldrh	r2, [r3, #8]
 2584 002a AA42     		cmp	r2, r5
 2585 002c 2BD9     		bls	.L202
1085:.\sd/ff.c     **** 		dj->sect = dj->fs->dirbase + idx / (SS(dj->fs) / SZ_DIR);	/* Sector# */
 2586              		.loc 1 1085 0
 2587 002e 5A6A     		ldr	r2, [r3, #36]
 2588 0030 2B09     		lsr	r3, r5, #4
 2589 0032 D318     		add	r3, r2, r3
 2590 0034 2361     		str	r3, [r4, #16]
 2591 0036 19E0     		b	.L197
 2592              	.L196:
1088:.\sd/ff.c     **** 		ic = SS(dj->fs) / SZ_DIR * dj->fs->csize;	/* Entries per cluster */
 2593              		.loc 1 1088 0
 2594 0038 9E78     		ldrb	r6, [r3, #2]
 2595 003a 3601     		lsl	r6, r6, #4
 2596              	.LVL334:
1089:.\sd/ff.c     **** 		while (idx >= ic) {	/* Follow cluster chain */
 2597              		.loc 1 1089 0
 2598 003c 0DE0     		b	.L198
 2599              	.LVL335:
 2600              	.L199:
1090:.\sd/ff.c     **** 			clst = get_fat(dj->fs, clst);				/* Get next cluster */
 2601              		.loc 1 1090 0
 2602 003e 2068     		ldr	r0, [r4]
 2603 0040 FFF7FEFF 		bl	get_fat
 2604              	.LVL336:
 2605 0044 011C     		mov	r1, r0
 2606              	.LVL337:
1091:.\sd/ff.c     **** 			if (clst == 0xFFFFFFFF) return FR_DISK_ERR;	/* Disk error */
ARM GAS  C:\Users\Jarik\AppData\Local\Temp\ccOwmDxA.s 			page 89


 2607              		.loc 1 1091 0
 2608 0046 431C     		add	r3, r0, #1
 2609 0048 1FD0     		beq	.L203
1092:.\sd/ff.c     **** 			if (clst < 2 || clst >= dj->fs->n_fatent)	/* Reached to end of table or int error */
 2610              		.loc 1 1092 0
 2611 004a 0128     		cmp	r0, #1
 2612 004c 1FD9     		bls	.L204
1092:.\sd/ff.c     **** 			if (clst < 2 || clst >= dj->fs->n_fatent)	/* Reached to end of table or int error */
 2613              		.loc 1 1092 0 is_stmt 0 discriminator 1
 2614 004e 2368     		ldr	r3, [r4]
 2615 0050 9B69     		ldr	r3, [r3, #24]
 2616 0052 8342     		cmp	r3, r0
 2617 0054 1DD9     		bls	.L205
1094:.\sd/ff.c     **** 			idx -= ic;
 2618              		.loc 1 1094 0 is_stmt 1
 2619 0056 AD1B     		sub	r5, r5, r6
 2620              	.LVL338:
 2621 0058 ADB2     		uxth	r5, r5
 2622              	.LVL339:
 2623              	.L198:
1089:.\sd/ff.c     **** 		while (idx >= ic) {	/* Follow cluster chain */
 2624              		.loc 1 1089 0 discriminator 1
 2625 005a B542     		cmp	r5, r6
 2626 005c EFD2     		bcs	.L199
1096:.\sd/ff.c     **** 		dj->clust = clst;
 2627              		.loc 1 1096 0
 2628 005e E160     		str	r1, [r4, #12]
1097:.\sd/ff.c     **** 		dj->sect = clust2sect(dj->fs, clst) + idx / (SS(dj->fs) / SZ_DIR);	/* Sector# */
 2629              		.loc 1 1097 0
 2630 0060 2068     		ldr	r0, [r4]
 2631 0062 FFF7FEFF 		bl	clust2sect
 2632              	.LVL340:
 2633 0066 2B09     		lsr	r3, r5, #4
 2634 0068 C018     		add	r0, r0, r3
 2635 006a 2061     		str	r0, [r4, #16]
 2636              	.LVL341:
 2637              	.L197:
1100:.\sd/ff.c     **** 	dj->dir = dj->fs->win + (idx % (SS(dj->fs) / SZ_DIR)) * SZ_DIR;	/* Ptr to the entry in the sector 
 2638              		.loc 1 1100 0
 2639 006c 0F23     		mov	r3, #15
 2640 006e 1D40     		and	r5, r3
 2641              	.LVL342:
 2642 0070 6B01     		lsl	r3, r5, #5
 2643 0072 3033     		add	r3, r3, #48
 2644 0074 2268     		ldr	r2, [r4]
 2645 0076 D318     		add	r3, r2, r3
 2646 0078 6361     		str	r3, [r4, #20]
1102:.\sd/ff.c     **** 	return FR_OK;	/* Seek succeeded */
 2647              		.loc 1 1102 0
 2648 007a 0020     		mov	r0, #0
 2649 007c 0AE0     		b	.L194
 2650              	.LVL343:
 2651              	.L200:
1077:.\sd/ff.c     **** 		return FR_INT_ERR;
 2652              		.loc 1 1077 0
 2653 007e 0220     		mov	r0, #2
 2654              	.LVL344:
ARM GAS  C:\Users\Jarik\AppData\Local\Temp\ccOwmDxA.s 			page 90


 2655 0080 08E0     		b	.L194
 2656              	.LVL345:
 2657              	.L201:
 2658 0082 0220     		mov	r0, #2
 2659              	.LVL346:
 2660 0084 06E0     		b	.L194
 2661              	.LVL347:
 2662              	.L202:
1084:.\sd/ff.c     **** 			return FR_INT_ERR;
 2663              		.loc 1 1084 0
 2664 0086 0220     		mov	r0, #2
 2665              	.LVL348:
 2666 0088 04E0     		b	.L194
 2667              	.LVL349:
 2668              	.L203:
1091:.\sd/ff.c     **** 			if (clst == 0xFFFFFFFF) return FR_DISK_ERR;	/* Disk error */
 2669              		.loc 1 1091 0
 2670 008a 0120     		mov	r0, #1
 2671              	.LVL350:
 2672 008c 02E0     		b	.L194
 2673              	.LVL351:
 2674              	.L204:
1093:.\sd/ff.c     **** 				return FR_INT_ERR;
 2675              		.loc 1 1093 0
 2676 008e 0220     		mov	r0, #2
 2677              	.LVL352:
 2678 0090 00E0     		b	.L194
 2679              	.LVL353:
 2680              	.L205:
 2681 0092 0220     		mov	r0, #2
 2682              	.LVL354:
 2683              	.L194:
1103:.\sd/ff.c     **** }
 2684              		.loc 1 1103 0
 2685              		@ sp needed
 2686              	.LVL355:
 2687 0094 70BD     		pop	{r4, r5, r6, pc}
 2688              		.cfi_endproc
 2689              	.LFE16:
 2690              		.size	dir_sdi, .-dir_sdi
 2691 0096 C046     		.section	.text.dir_remove,"ax",%progbits
 2692              		.align	2
 2693              		.code	16
 2694              		.thumb_func
 2695              		.type	dir_remove, %function
 2696              	dir_remove:
 2697              	.LFB21:
1581:.\sd/ff.c     **** {
 2698              		.loc 1 1581 0
 2699              		.cfi_startproc
 2700              	.LVL356:
 2701 0000 10B5     		push	{r4, lr}
 2702              		.cfi_def_cfa_offset 8
 2703              		.cfi_offset 4, -8
 2704              		.cfi_offset 14, -4
 2705 0002 041C     		mov	r4, r0
1601:.\sd/ff.c     **** 	res = dir_sdi(dj, dj->index);
ARM GAS  C:\Users\Jarik\AppData\Local\Temp\ccOwmDxA.s 			page 91


 2706              		.loc 1 1601 0
 2707 0004 C188     		ldrh	r1, [r0, #6]
 2708 0006 FFF7FEFF 		bl	dir_sdi
 2709              	.LVL357:
1602:.\sd/ff.c     **** 	if (res == FR_OK) {
 2710              		.loc 1 1602 0
 2711 000a 0028     		cmp	r0, #0
 2712 000c 0BD1     		bne	.L207
1603:.\sd/ff.c     **** 		res = move_window(dj->fs, dj->sect);
 2713              		.loc 1 1603 0
 2714 000e 2068     		ldr	r0, [r4]
 2715              	.LVL358:
 2716 0010 2169     		ldr	r1, [r4, #16]
 2717 0012 FFF7FEFF 		bl	move_window
 2718              	.LVL359:
1604:.\sd/ff.c     **** 		if (res == FR_OK) {
 2719              		.loc 1 1604 0
 2720 0016 0028     		cmp	r0, #0
 2721 0018 05D1     		bne	.L207
1605:.\sd/ff.c     **** 			*dj->dir = DDE;			/* Mark the entry "deleted" */
 2722              		.loc 1 1605 0
 2723 001a E523     		mov	r3, #229
 2724 001c 6269     		ldr	r2, [r4, #20]
 2725 001e 1370     		strb	r3, [r2]
1606:.\sd/ff.c     **** 			dj->fs->wflag = 1;
 2726              		.loc 1 1606 0
 2727 0020 2368     		ldr	r3, [r4]
 2728 0022 0122     		mov	r2, #1
 2729 0024 1A71     		strb	r2, [r3, #4]
 2730              	.LVL360:
 2731              	.L207:
1612:.\sd/ff.c     **** }
 2732              		.loc 1 1612 0
 2733              		@ sp needed
 2734              	.LVL361:
 2735 0026 10BD     		pop	{r4, pc}
 2736              		.cfi_endproc
 2737              	.LFE21:
 2738              		.size	dir_remove, .-dir_remove
