ARM GAS  C:\Users\Jarik\AppData\Local\Temp\cctFZqzD.s 			page 1


   1              		.cpu cortex-m0
   2              		.fpu softvfp
   3              		.eabi_attribute 20, 1
   4              		.eabi_attribute 21, 1
   5              		.eabi_attribute 23, 3
   6              		.eabi_attribute 24, 1
   7              		.eabi_attribute 25, 1
   8              		.eabi_attribute 26, 1
   9              		.eabi_attribute 30, 1
  10              		.eabi_attribute 34, 0
  11              		.eabi_attribute 18, 4
  12              		.code	16
  13              		.file	"SD_routines.c"
  14              		.text
  15              	.Ltext0:
  16              		.cfi_sections	.debug_frame
  17              		.section	.text.SD_sendCommand,"ax",%progbits
  18              		.align	2
  19              		.global	SD_sendCommand
  20              		.code	16
  21              		.thumb_func
  22              		.type	SD_sendCommand, %function
  23              	SD_sendCommand:
  24              	.LFB34:
  25              		.file 1 ".\\sd\\SD_routines.c"
   1:.\sd/SD_routines.c **** //**************************************************************
   2:.\sd/SD_routines.c **** // ****** FUNCTIONS FOR SD RAW DATA TRANSFER *******
   3:.\sd/SD_routines.c **** //**************************************************************
   4:.\sd/SD_routines.c **** //Controller: ATmega32 (Clock: 8 Mhz-internal)
   5:.\sd/SD_routines.c **** //Compiler	: AVR-GCC (winAVR with AVRStudio)
   6:.\sd/SD_routines.c **** //Version 	: 2.3
   7:.\sd/SD_routines.c **** //Author	: CC Dharmani, Chennai (India)
   8:.\sd/SD_routines.c **** //			  www.dharmanitech.com
   9:.\sd/SD_routines.c **** //Date		: 08 May 2010
  10:.\sd/SD_routines.c **** //**************************************************************
  11:.\sd/SD_routines.c **** 
  12:.\sd/SD_routines.c **** //**************************************************
  13:.\sd/SD_routines.c **** // ***** SOURCE FILE : SD_routines.c ******
  14:.\sd/SD_routines.c **** //**************************************************
  15:.\sd/SD_routines.c **** //#include <avr/io.h>
  16:.\sd/SD_routines.c **** //#include <avr/pgmspace.h>
  17:.\sd/SD_routines.c **** #include <project.h>
  18:.\sd/SD_routines.c **** #include "sd/SPI_routines.h"
  19:.\sd/SD_routines.c **** #include "sd/SD_routines.h"
  20:.\sd/SD_routines.c **** //#include "UART_routines.h"
  21:.\sd/SD_routines.c **** #define TX_NEWLINE 
  22:.\sd/SD_routines.c **** 
  23:.\sd/SD_routines.c **** //******************************************************************
  24:.\sd/SD_routines.c **** //Function	: to initialize the SD/SDHC card in SPI mode
  25:.\sd/SD_routines.c **** //Arguments	: none
  26:.\sd/SD_routines.c **** //return	: unsigned char; will be 0 if no error,
  27:.\sd/SD_routines.c **** // 			  otherwise the response byte will be sent
  28:.\sd/SD_routines.c **** //******************************************************************
  29:.\sd/SD_routines.c **** unsigned char SD_init(void)
  30:.\sd/SD_routines.c **** {
  31:.\sd/SD_routines.c **** unsigned char i, response, SD_version;
  32:.\sd/SD_routines.c **** unsigned int retry=0 ;
ARM GAS  C:\Users\Jarik\AppData\Local\Temp\cctFZqzD.s 			page 2


  33:.\sd/SD_routines.c **** //transmitString_F(PSTR("SD card init..\n"));
  34:.\sd/SD_routines.c ****  for(i=0;i<20;i++)
  35:.\sd/SD_routines.c ****       SPI_transmit(0xff);   //80 clock pulses spent before sending the first command
  36:.\sd/SD_routines.c **** 
  37:.\sd/SD_routines.c **** SD_CS_ASSERT;
  38:.\sd/SD_routines.c **** //transmitString_F(PSTR("CS down\n"));
  39:.\sd/SD_routines.c **** do
  40:.\sd/SD_routines.c **** {
  41:.\sd/SD_routines.c ****   
  42:.\sd/SD_routines.c ****    response = SD_sendCommand(GO_IDLE_STATE, 0); //send 'reset & go idle' command
  43:.\sd/SD_routines.c ****    retry++;
  44:.\sd/SD_routines.c **** //   printf("send comand retry %d\n",retry);
  45:.\sd/SD_routines.c ****    if(retry>0x40) 
  46:.\sd/SD_routines.c ****    	  return 1;   //time out, card not detected
  47:.\sd/SD_routines.c ****    
  48:.\sd/SD_routines.c **** } while(response != 0x01);
  49:.\sd/SD_routines.c **** //transmitString_F(PSTR("SD card respond \n"));
  50:.\sd/SD_routines.c **** SD_CS_DEASSERT;
  51:.\sd/SD_routines.c **** SPI_transmit (0xff);
  52:.\sd/SD_routines.c **** SPI_transmit (0xff);
  53:.\sd/SD_routines.c **** 
  54:.\sd/SD_routines.c **** retry = 0;
  55:.\sd/SD_routines.c **** 
  56:.\sd/SD_routines.c **** SD_version = 2; //default set to SD compliance with ver2.x; 
  57:.\sd/SD_routines.c **** 				//this may change after checking the next command
  58:.\sd/SD_routines.c **** //transmitString_F(PSTR("send command \n"));
  59:.\sd/SD_routines.c **** do
  60:.\sd/SD_routines.c **** {
  61:.\sd/SD_routines.c **** response = SD_sendCommand(SEND_IF_COND,0x000001AA); //Check power supply status, mendatory for SDHC
  62:.\sd/SD_routines.c **** retry++;
  63:.\sd/SD_routines.c **** if(retry>0xfe) 
  64:.\sd/SD_routines.c ****    {
  65:.\sd/SD_routines.c ****       TX_NEWLINE;
  66:.\sd/SD_routines.c **** 	  SD_version = 1;
  67:.\sd/SD_routines.c **** 	  cardType = 1;
  68:.\sd/SD_routines.c **** 	  break;
  69:.\sd/SD_routines.c ****    } //time out
  70:.\sd/SD_routines.c **** 
  71:.\sd/SD_routines.c **** }while(response != 0x01);
  72:.\sd/SD_routines.c **** 
  73:.\sd/SD_routines.c **** retry = 0;
  74:.\sd/SD_routines.c **** 
  75:.\sd/SD_routines.c **** do
  76:.\sd/SD_routines.c **** {
  77:.\sd/SD_routines.c **** response = SD_sendCommand(APP_CMD,0); //CMD55, must be sent before sending any ACMD command
  78:.\sd/SD_routines.c **** response = SD_sendCommand(SD_SEND_OP_COND,0x40000000); //ACMD41
  79:.\sd/SD_routines.c **** 
  80:.\sd/SD_routines.c **** retry++;
  81:.\sd/SD_routines.c **** if(retry>0xfe) 
  82:.\sd/SD_routines.c ****    {
  83:.\sd/SD_routines.c ****       TX_NEWLINE;
  84:.\sd/SD_routines.c **** 	  return 2;  //time out, card initialization failed
  85:.\sd/SD_routines.c ****    } 
  86:.\sd/SD_routines.c **** 
  87:.\sd/SD_routines.c **** }while(response != 0x00);
  88:.\sd/SD_routines.c **** 
  89:.\sd/SD_routines.c **** 
ARM GAS  C:\Users\Jarik\AppData\Local\Temp\cctFZqzD.s 			page 3


  90:.\sd/SD_routines.c **** retry = 0;
  91:.\sd/SD_routines.c **** SDHC_flag = 0;
  92:.\sd/SD_routines.c **** 
  93:.\sd/SD_routines.c **** if (SD_version == 2)
  94:.\sd/SD_routines.c **** { 
  95:.\sd/SD_routines.c ****    do
  96:.\sd/SD_routines.c ****    {
  97:.\sd/SD_routines.c **** 	 response = SD_sendCommand(READ_OCR,0);
  98:.\sd/SD_routines.c **** 	 retry++;
  99:.\sd/SD_routines.c **** 	 if(retry>0xfe) 
 100:.\sd/SD_routines.c ****      {
 101:.\sd/SD_routines.c ****        TX_NEWLINE;
 102:.\sd/SD_routines.c **** 	   cardType = 0;
 103:.\sd/SD_routines.c **** 	   break;
 104:.\sd/SD_routines.c ****      } //time out
 105:.\sd/SD_routines.c **** 
 106:.\sd/SD_routines.c ****    }while(response != 0x00);
 107:.\sd/SD_routines.c **** 
 108:.\sd/SD_routines.c ****    if(SDHC_flag == 1) cardType = 2;
 109:.\sd/SD_routines.c ****    else cardType = 3;
 110:.\sd/SD_routines.c **** }
 111:.\sd/SD_routines.c **** 
 112:.\sd/SD_routines.c **** //SD_sendCommand(CRC_ON_OFF, OFF); //disable CRC; deafault - CRC disabled in SPI mode
 113:.\sd/SD_routines.c **** //SD_sendCommand(SET_BLOCK_LEN, 512); //set block size to 512; default size is 512
 114:.\sd/SD_routines.c **** 
 115:.\sd/SD_routines.c **** 
 116:.\sd/SD_routines.c **** return 0; //successful return
 117:.\sd/SD_routines.c **** }
 118:.\sd/SD_routines.c **** 
 119:.\sd/SD_routines.c **** //******************************************************************
 120:.\sd/SD_routines.c **** //Function	: to send a command to SD card
 121:.\sd/SD_routines.c **** //Arguments	: unsigned char (8-bit command value)
 122:.\sd/SD_routines.c **** // 			  & unsigned long (32-bit command argument)
 123:.\sd/SD_routines.c **** //return	: unsigned char; response byte
 124:.\sd/SD_routines.c **** //******************************************************************
 125:.\sd/SD_routines.c **** unsigned char SD_sendCommand(unsigned char cmd, unsigned long arg)
 126:.\sd/SD_routines.c **** {
  26              		.loc 1 126 0
  27              		.cfi_startproc
  28              	.LVL0:
  29 0000 F8B5     		push	{r3, r4, r5, r6, r7, lr}
  30              		.cfi_def_cfa_offset 24
  31              		.cfi_offset 3, -24
  32              		.cfi_offset 4, -20
  33              		.cfi_offset 5, -16
  34              		.cfi_offset 6, -12
  35              		.cfi_offset 7, -8
  36              		.cfi_offset 14, -4
  37 0002 071C     		mov	r7, r0
  38 0004 0C1C     		mov	r4, r1
  39              	.LVL1:
 127:.\sd/SD_routines.c **** unsigned char response, status;
 128:.\sd/SD_routines.c **** unsigned int  retry=0;
 129:.\sd/SD_routines.c **** 
 130:.\sd/SD_routines.c **** //SD card accepts byte address while SDHC accepts block address in multiples of 512
 131:.\sd/SD_routines.c **** //so, if it's SD card we need to convert block address into corresponding byte address by 
 132:.\sd/SD_routines.c **** //multipying it with 512. which is equivalent to shifting it left 9 times
ARM GAS  C:\Users\Jarik\AppData\Local\Temp\cctFZqzD.s 			page 4


 133:.\sd/SD_routines.c **** //following 'if' loop does that
 134:.\sd/SD_routines.c **** 
 135:.\sd/SD_routines.c **** if(SDHC_flag == 0)		
  40              		.loc 1 135 0
  41 0006 2C4B     		ldr	r3, .L12
  42 0008 1B78     		ldrb	r3, [r3]
  43 000a 002B     		cmp	r3, #0
  44 000c 0CD1     		bne	.L2
 136:.\sd/SD_routines.c **** if(cmd == READ_SINGLE_BLOCK     ||
  45              		.loc 1 136 0
  46 000e 031C     		mov	r3, r0
  47 0010 113B     		sub	r3, r3, #17
  48 0012 012B     		cmp	r3, #1
  49 0014 07D9     		bls	.L3
 137:.\sd/SD_routines.c ****    cmd == READ_MULTIPLE_BLOCKS  ||
  50              		.loc 1 137 0
  51 0016 1828     		cmp	r0, #24
  52 0018 05D0     		beq	.L3
 138:.\sd/SD_routines.c ****    cmd == WRITE_SINGLE_BLOCK    ||
  53              		.loc 1 138 0
  54 001a 1928     		cmp	r0, #25
  55 001c 03D0     		beq	.L3
 139:.\sd/SD_routines.c ****    cmd == WRITE_MULTIPLE_BLOCKS ||
  56              		.loc 1 139 0
  57 001e 2028     		cmp	r0, #32
  58 0020 01D0     		beq	.L3
 140:.\sd/SD_routines.c ****    cmd == ERASE_BLOCK_START_ADDR|| 
  59              		.loc 1 140 0
  60 0022 2128     		cmp	r0, #33
  61 0024 00D1     		bne	.L2
  62              	.L3:
 141:.\sd/SD_routines.c ****    cmd == ERASE_BLOCK_END_ADDR ) 
 142:.\sd/SD_routines.c ****    {
 143:.\sd/SD_routines.c ****      arg = arg << 9;
  63              		.loc 1 143 0
  64 0026 6402     		lsl	r4, r4, #9
  65              	.LVL2:
  66              	.L2:
 144:.\sd/SD_routines.c ****    }	   
 145:.\sd/SD_routines.c **** 
 146:.\sd/SD_routines.c **** SD_CS_ASSERT;
  67              		.loc 1 146 0
  68 0028 0020     		mov	r0, #0
  69              	.LVL3:
  70 002a FFF7FEFF 		bl	SPI_CS_Write
  71              	.LVL4:
 147:.\sd/SD_routines.c **** 
 148:.\sd/SD_routines.c **** SPI_transmit(cmd | 0x40); //send command, first two bits always '01'
  72              		.loc 1 148 0
  73 002e 4020     		mov	r0, #64
  74 0030 3843     		orr	r0, r7
  75 0032 FFF7FEFF 		bl	SPI_transmit
  76              	.LVL5:
 149:.\sd/SD_routines.c **** SPI_transmit(arg>>24);
  77              		.loc 1 149 0
  78 0036 200E     		lsr	r0, r4, #24
  79 0038 FFF7FEFF 		bl	SPI_transmit
ARM GAS  C:\Users\Jarik\AppData\Local\Temp\cctFZqzD.s 			page 5


  80              	.LVL6:
 150:.\sd/SD_routines.c **** SPI_transmit(arg>>16);
  81              		.loc 1 150 0
  82 003c 200C     		lsr	r0, r4, #16
  83 003e C0B2     		uxtb	r0, r0
  84 0040 FFF7FEFF 		bl	SPI_transmit
  85              	.LVL7:
 151:.\sd/SD_routines.c **** SPI_transmit(arg>>8);
  86              		.loc 1 151 0
  87 0044 200A     		lsr	r0, r4, #8
  88 0046 C0B2     		uxtb	r0, r0
  89 0048 FFF7FEFF 		bl	SPI_transmit
  90              	.LVL8:
 152:.\sd/SD_routines.c **** SPI_transmit(arg);
  91              		.loc 1 152 0
  92 004c E0B2     		uxtb	r0, r4
  93 004e FFF7FEFF 		bl	SPI_transmit
  94              	.LVL9:
 153:.\sd/SD_routines.c **** 
 154:.\sd/SD_routines.c **** if(cmd == SEND_IF_COND)	 //it is compulsory to send correct CRC for CMD8 (CRC=0x87) & CMD0 (CRC=0x9
  95              		.loc 1 154 0
  96 0052 082F     		cmp	r7, #8
  97 0054 03D1     		bne	.L4
 155:.\sd/SD_routines.c ****   SPI_transmit(0x87);    //for remaining commands, CRC is ignored in SPI mode
  98              		.loc 1 155 0
  99 0056 8720     		mov	r0, #135
 100 0058 FFF7FEFF 		bl	SPI_transmit
 101              	.LVL10:
 102 005c 08E0     		b	.L5
 103              	.L4:
 156:.\sd/SD_routines.c **** else 
 157:.\sd/SD_routines.c ****   SPI_transmit(0x95); 
 104              		.loc 1 157 0
 105 005e 9520     		mov	r0, #149
 106 0060 FFF7FEFF 		bl	SPI_transmit
 107              	.LVL11:
 108 0064 04E0     		b	.L5
 109              	.LVL12:
 110              	.L8:
 158:.\sd/SD_routines.c **** 
 159:.\sd/SD_routines.c **** while((response = SPI_receive()) == 0xff) //wait response
 160:.\sd/SD_routines.c ****    if(retry++ > 0x4ffff) break; //time out error
 111              		.loc 1 160 0
 112 0066 631C     		add	r3, r4, #1
 113              	.LVL13:
 114 0068 B442     		cmp	r4, r6
 115 006a 08D8     		bhi	.L6
 116 006c 1C1C     		mov	r4, r3
 117 006e 01E0     		b	.L7
 118              	.LVL14:
 119              	.L5:
 126:.\sd/SD_routines.c **** {
 120              		.loc 1 126 0 discriminator 1
 121 0070 0024     		mov	r4, #0
 122              	.LVL15:
 123              		.loc 1 160 0 discriminator 1
 124 0072 124E     		ldr	r6, .L12+4
ARM GAS  C:\Users\Jarik\AppData\Local\Temp\cctFZqzD.s 			page 6


 125              	.LVL16:
 126              	.L7:
 159:.\sd/SD_routines.c **** while((response = SPI_receive()) == 0xff) //wait response
 127              		.loc 1 159 0 discriminator 1
 128 0074 FFF7FEFF 		bl	SPI_receive
 129              	.LVL17:
 130 0078 051E     		sub	r5, r0, #0
 131              	.LVL18:
 132 007a FF2D     		cmp	r5, #255
 133 007c F3D0     		beq	.L8
 134              	.LVL19:
 135              	.L6:
 161:.\sd/SD_routines.c **** 
 162:.\sd/SD_routines.c **** if(response == 0x00 && cmd == 58)  //checking response of CMD58
 136              		.loc 1 162 0
 137 007e 002D     		cmp	r5, #0
 138 0080 12D1     		bne	.L9
 139              		.loc 1 162 0 is_stmt 0 discriminator 1
 140 0082 3A2F     		cmp	r7, #58
 141 0084 10D1     		bne	.L9
 163:.\sd/SD_routines.c **** {
 164:.\sd/SD_routines.c ****   status = SPI_receive() & 0x40;     //first byte of the OCR register (bit 31:24)
 142              		.loc 1 164 0 is_stmt 1
 143 0086 FFF7FEFF 		bl	SPI_receive
 144              	.LVL20:
 165:.\sd/SD_routines.c ****   if(status == 0x40) SDHC_flag = 1;  //we need it to verify SDHC card
 145              		.loc 1 165 0
 146 008a 4306     		lsl	r3, r0, #25
 147 008c 03D5     		bpl	.L10
 148              		.loc 1 165 0 is_stmt 0 discriminator 1
 149 008e 0122     		mov	r2, #1
 150 0090 094B     		ldr	r3, .L12
 151 0092 1A70     		strb	r2, [r3]
 152 0094 02E0     		b	.L11
 153              	.L10:
 166:.\sd/SD_routines.c ****   else SDHC_flag = 0;
 154              		.loc 1 166 0 is_stmt 1
 155 0096 0022     		mov	r2, #0
 156 0098 074B     		ldr	r3, .L12
 157 009a 1A70     		strb	r2, [r3]
 158              	.L11:
 167:.\sd/SD_routines.c **** 
 168:.\sd/SD_routines.c ****   SPI_receive(); //remaining 3 bytes of the OCR register are ignored here
 159              		.loc 1 168 0
 160 009c FFF7FEFF 		bl	SPI_receive
 161              	.LVL21:
 169:.\sd/SD_routines.c ****   SPI_receive(); //one can use these bytes to check power supply limits of SD
 162              		.loc 1 169 0
 163 00a0 FFF7FEFF 		bl	SPI_receive
 164              	.LVL22:
 170:.\sd/SD_routines.c ****   SPI_receive(); 
 165              		.loc 1 170 0
 166 00a4 FFF7FEFF 		bl	SPI_receive
 167              	.LVL23:
 168              	.L9:
 171:.\sd/SD_routines.c **** }
 172:.\sd/SD_routines.c **** 
ARM GAS  C:\Users\Jarik\AppData\Local\Temp\cctFZqzD.s 			page 7


 173:.\sd/SD_routines.c **** SPI_receive(); //extra 8 CLK
 169              		.loc 1 173 0
 170 00a8 FFF7FEFF 		bl	SPI_receive
 171              	.LVL24:
 174:.\sd/SD_routines.c **** SD_CS_DEASSERT;
 172              		.loc 1 174 0
 173 00ac 0120     		mov	r0, #1
 174 00ae FFF7FEFF 		bl	SPI_CS_Write
 175              	.LVL25:
 175:.\sd/SD_routines.c **** 
 176:.\sd/SD_routines.c **** return response; //return state
 177:.\sd/SD_routines.c **** }
 176              		.loc 1 177 0
 177 00b2 281C     		mov	r0, r5
 178              		@ sp needed
 179              	.LVL26:
 180 00b4 F8BD     		pop	{r3, r4, r5, r6, r7, pc}
 181              	.L13:
 182 00b6 C046     		.align	2
 183              	.L12:
 184 00b8 00000000 		.word	SDHC_flag
 185 00bc FFFF0400 		.word	327679
 186              		.cfi_endproc
 187              	.LFE34:
 188              		.size	SD_sendCommand, .-SD_sendCommand
 189              		.section	.text.SD_init,"ax",%progbits
 190              		.align	2
 191              		.global	SD_init
 192              		.code	16
 193              		.thumb_func
 194              		.type	SD_init, %function
 195              	SD_init:
 196              	.LFB33:
  30:.\sd/SD_routines.c **** {
 197              		.loc 1 30 0
 198              		.cfi_startproc
 199 0000 70B5     		push	{r4, r5, r6, lr}
 200              		.cfi_def_cfa_offset 16
 201              		.cfi_offset 4, -16
 202              		.cfi_offset 5, -12
 203              		.cfi_offset 6, -8
 204              		.cfi_offset 14, -4
 205              	.LVL27:
  34:.\sd/SD_routines.c ****  for(i=0;i<20;i++)
 206              		.loc 1 34 0
 207 0002 0024     		mov	r4, #0
 208 0004 04E0     		b	.L15
 209              	.LVL28:
 210              	.L16:
  35:.\sd/SD_routines.c ****       SPI_transmit(0xff);   //80 clock pulses spent before sending the first command
 211              		.loc 1 35 0 discriminator 2
 212 0006 FF20     		mov	r0, #255
 213 0008 FFF7FEFF 		bl	SPI_transmit
 214              	.LVL29:
  34:.\sd/SD_routines.c ****  for(i=0;i<20;i++)
 215              		.loc 1 34 0 discriminator 2
 216 000c 0134     		add	r4, r4, #1
ARM GAS  C:\Users\Jarik\AppData\Local\Temp\cctFZqzD.s 			page 8


 217              	.LVL30:
 218 000e E4B2     		uxtb	r4, r4
 219              	.LVL31:
 220              	.L15:
  34:.\sd/SD_routines.c ****  for(i=0;i<20;i++)
 221              		.loc 1 34 0 is_stmt 0 discriminator 1
 222 0010 132C     		cmp	r4, #19
 223 0012 F8D9     		bls	.L16
  37:.\sd/SD_routines.c **** SD_CS_ASSERT;
 224              		.loc 1 37 0 is_stmt 1
 225 0014 0020     		mov	r0, #0
 226 0016 FFF7FEFF 		bl	SPI_CS_Write
 227              	.LVL32:
  32:.\sd/SD_routines.c **** unsigned int retry=0 ;
 228              		.loc 1 32 0
 229 001a 0024     		mov	r4, #0
 230              	.LVL33:
 231              	.L18:
  42:.\sd/SD_routines.c ****    response = SD_sendCommand(GO_IDLE_STATE, 0); //send 'reset & go idle' command
 232              		.loc 1 42 0
 233 001c 0020     		mov	r0, #0
 234 001e 0021     		mov	r1, #0
 235 0020 FFF7FEFF 		bl	SD_sendCommand
 236              	.LVL34:
  43:.\sd/SD_routines.c ****    retry++;
 237              		.loc 1 43 0
 238 0024 0134     		add	r4, r4, #1
 239              	.LVL35:
  45:.\sd/SD_routines.c ****    if(retry>0x40) 
 240              		.loc 1 45 0
 241 0026 402C     		cmp	r4, #64
 242 0028 4CD8     		bhi	.L27
  48:.\sd/SD_routines.c **** } while(response != 0x01);
 243              		.loc 1 48 0
 244 002a 0128     		cmp	r0, #1
 245 002c F6D1     		bne	.L18
  50:.\sd/SD_routines.c **** SD_CS_DEASSERT;
 246              		.loc 1 50 0
 247 002e FFF7FEFF 		bl	SPI_CS_Write
 248              	.LVL36:
  51:.\sd/SD_routines.c **** SPI_transmit (0xff);
 249              		.loc 1 51 0
 250 0032 FF20     		mov	r0, #255
 251 0034 FFF7FEFF 		bl	SPI_transmit
 252              	.LVL37:
  52:.\sd/SD_routines.c **** SPI_transmit (0xff);
 253              		.loc 1 52 0
 254 0038 FF20     		mov	r0, #255
 255 003a FFF7FEFF 		bl	SPI_transmit
 256              	.LVL38:
  54:.\sd/SD_routines.c **** retry = 0;
 257              		.loc 1 54 0
 258 003e 0024     		mov	r4, #0
  61:.\sd/SD_routines.c **** response = SD_sendCommand(SEND_IF_COND,0x000001AA); //Check power supply status, mendatory for SDHC
 259              		.loc 1 61 0
 260 0040 D525     		mov	r5, #213
 261 0042 6D00     		lsl	r5, r5, #1
ARM GAS  C:\Users\Jarik\AppData\Local\Temp\cctFZqzD.s 			page 9


 262              	.LVL39:
 263              	.L21:
 264 0044 0820     		mov	r0, #8
 265 0046 291C     		mov	r1, r5
 266 0048 FFF7FEFF 		bl	SD_sendCommand
 267              	.LVL40:
  62:.\sd/SD_routines.c **** retry++;
 268              		.loc 1 62 0
 269 004c 0134     		add	r4, r4, #1
 270              	.LVL41:
  63:.\sd/SD_routines.c **** if(retry>0xfe) 
 271              		.loc 1 63 0
 272 004e FE2C     		cmp	r4, #254
 273 0050 04D9     		bls	.L19
 274              	.LVL42:
  67:.\sd/SD_routines.c **** 	  cardType = 1;
 275              		.loc 1 67 0
 276 0052 0122     		mov	r2, #1
 277 0054 1E4B     		ldr	r3, .L34
 278 0056 1A70     		strb	r2, [r3]
  66:.\sd/SD_routines.c **** 	  SD_version = 1;
 279              		.loc 1 66 0
 280 0058 0126     		mov	r6, #1
  68:.\sd/SD_routines.c **** 	  break;
 281              		.loc 1 68 0
 282 005a 02E0     		b	.L20
 283              	.LVL43:
 284              	.L19:
  71:.\sd/SD_routines.c **** }while(response != 0x01);
 285              		.loc 1 71 0
 286 005c 0128     		cmp	r0, #1
 287 005e F1D1     		bne	.L21
  56:.\sd/SD_routines.c **** SD_version = 2; //default set to SD compliance with ver2.x; 
 288              		.loc 1 56 0
 289 0060 0226     		mov	r6, #2
 290              	.LVL44:
 291              	.L20:
  73:.\sd/SD_routines.c **** retry = 0;
 292              		.loc 1 73 0
 293 0062 0024     		mov	r4, #0
  78:.\sd/SD_routines.c **** response = SD_sendCommand(SD_SEND_OP_COND,0x40000000); //ACMD41
 294              		.loc 1 78 0
 295 0064 8025     		mov	r5, #128
 296 0066 ED05     		lsl	r5, r5, #23
 297              	.LVL45:
 298              	.L22:
  77:.\sd/SD_routines.c **** response = SD_sendCommand(APP_CMD,0); //CMD55, must be sent before sending any ACMD command
 299              		.loc 1 77 0
 300 0068 3720     		mov	r0, #55
 301 006a 0021     		mov	r1, #0
 302 006c FFF7FEFF 		bl	SD_sendCommand
 303              	.LVL46:
  78:.\sd/SD_routines.c **** response = SD_sendCommand(SD_SEND_OP_COND,0x40000000); //ACMD41
 304              		.loc 1 78 0
 305 0070 2920     		mov	r0, #41
 306 0072 291C     		mov	r1, r5
 307 0074 FFF7FEFF 		bl	SD_sendCommand
ARM GAS  C:\Users\Jarik\AppData\Local\Temp\cctFZqzD.s 			page 10


 308              	.LVL47:
  80:.\sd/SD_routines.c **** retry++;
 309              		.loc 1 80 0
 310 0078 0134     		add	r4, r4, #1
 311              	.LVL48:
  81:.\sd/SD_routines.c **** if(retry>0xfe) 
 312              		.loc 1 81 0
 313 007a FE2C     		cmp	r4, #254
 314 007c 24D8     		bhi	.L28
  87:.\sd/SD_routines.c **** }while(response != 0x00);
 315              		.loc 1 87 0
 316 007e 0028     		cmp	r0, #0
 317 0080 F2D1     		bne	.L22
 318              	.LVL49:
  91:.\sd/SD_routines.c **** SDHC_flag = 0;
 319              		.loc 1 91 0
 320 0082 0022     		mov	r2, #0
 321 0084 134B     		ldr	r3, .L34+4
 322 0086 1A70     		strb	r2, [r3]
  93:.\sd/SD_routines.c **** if (SD_version == 2)
 323              		.loc 1 93 0
 324 0088 022E     		cmp	r6, #2
 325 008a 1FD1     		bne	.L29
 326 008c 0024     		mov	r4, #0
 327              	.LVL50:
 328              	.L25:
  97:.\sd/SD_routines.c **** 	 response = SD_sendCommand(READ_OCR,0);
 329              		.loc 1 97 0
 330 008e 3A20     		mov	r0, #58
 331 0090 0021     		mov	r1, #0
 332 0092 FFF7FEFF 		bl	SD_sendCommand
 333              	.LVL51:
  98:.\sd/SD_routines.c **** 	 retry++;
 334              		.loc 1 98 0
 335 0096 0134     		add	r4, r4, #1
 336              	.LVL52:
  99:.\sd/SD_routines.c **** 	 if(retry>0xfe) 
 337              		.loc 1 99 0
 338 0098 FE2C     		cmp	r4, #254
 339 009a 03D9     		bls	.L23
 102:.\sd/SD_routines.c **** 	   cardType = 0;
 340              		.loc 1 102 0
 341 009c 0022     		mov	r2, #0
 342 009e 0C4B     		ldr	r3, .L34
 343 00a0 1A70     		strb	r2, [r3]
 103:.\sd/SD_routines.c **** 	   break;
 344              		.loc 1 103 0
 345 00a2 01E0     		b	.L24
 346              	.L23:
 106:.\sd/SD_routines.c ****    }while(response != 0x00);
 347              		.loc 1 106 0
 348 00a4 0028     		cmp	r0, #0
 349 00a6 F2D1     		bne	.L25
 350              	.L24:
 108:.\sd/SD_routines.c ****    if(SDHC_flag == 1) cardType = 2;
 351              		.loc 1 108 0
 352 00a8 0A4B     		ldr	r3, .L34+4
ARM GAS  C:\Users\Jarik\AppData\Local\Temp\cctFZqzD.s 			page 11


 353 00aa 1B78     		ldrb	r3, [r3]
 354 00ac 012B     		cmp	r3, #1
 355 00ae 04D1     		bne	.L26
 108:.\sd/SD_routines.c ****    if(SDHC_flag == 1) cardType = 2;
 356              		.loc 1 108 0 is_stmt 0 discriminator 1
 357 00b0 0222     		mov	r2, #2
 358 00b2 074B     		ldr	r3, .L34
 359 00b4 1A70     		strb	r2, [r3]
 116:.\sd/SD_routines.c **** return 0; //successful return
 360              		.loc 1 116 0 is_stmt 1 discriminator 1
 361 00b6 0020     		mov	r0, #0
 362              	.LVL53:
 363 00b8 09E0     		b	.L17
 364              	.LVL54:
 365              	.L26:
 109:.\sd/SD_routines.c ****    else cardType = 3;
 366              		.loc 1 109 0
 367 00ba 0322     		mov	r2, #3
 368 00bc 044B     		ldr	r3, .L34
 369 00be 1A70     		strb	r2, [r3]
 116:.\sd/SD_routines.c **** return 0; //successful return
 370              		.loc 1 116 0
 371 00c0 0020     		mov	r0, #0
 372              	.LVL55:
 373 00c2 04E0     		b	.L17
 374              	.LVL56:
 375              	.L27:
  46:.\sd/SD_routines.c ****    	  return 1;   //time out, card not detected
 376              		.loc 1 46 0
 377 00c4 0120     		mov	r0, #1
 378              	.LVL57:
 379 00c6 02E0     		b	.L17
 380              	.LVL58:
 381              	.L28:
  84:.\sd/SD_routines.c **** 	  return 2;  //time out, card initialization failed
 382              		.loc 1 84 0
 383 00c8 0220     		mov	r0, #2
 384              	.LVL59:
 385 00ca 00E0     		b	.L17
 386              	.LVL60:
 387              	.L29:
 116:.\sd/SD_routines.c **** return 0; //successful return
 388              		.loc 1 116 0
 389 00cc 0020     		mov	r0, #0
 390              	.LVL61:
 391              	.L17:
 117:.\sd/SD_routines.c **** }
 392              		.loc 1 117 0
 393              		@ sp needed
 394 00ce 70BD     		pop	{r4, r5, r6, pc}
 395              	.L35:
 396              		.align	2
 397              	.L34:
 398 00d0 00000000 		.word	cardType
 399 00d4 00000000 		.word	SDHC_flag
 400              		.cfi_endproc
 401              	.LFE33:
ARM GAS  C:\Users\Jarik\AppData\Local\Temp\cctFZqzD.s 			page 12


 402              		.size	SD_init, .-SD_init
 403              		.section	.text.SD_erase,"ax",%progbits
 404              		.align	2
 405              		.global	SD_erase
 406              		.code	16
 407              		.thumb_func
 408              		.type	SD_erase, %function
 409              	SD_erase:
 410              	.LFB35:
 178:.\sd/SD_routines.c **** 
 179:.\sd/SD_routines.c **** //*****************************************************************
 180:.\sd/SD_routines.c **** //Function	: to erase specified no. of blocks of SD card
 181:.\sd/SD_routines.c **** //Arguments	: none
 182:.\sd/SD_routines.c **** //return	: unsigned char; will be 0 if no error,
 183:.\sd/SD_routines.c **** // 			  otherwise the response byte will be sent
 184:.\sd/SD_routines.c **** //*****************************************************************
 185:.\sd/SD_routines.c **** unsigned char SD_erase (unsigned long startBlock, unsigned long totalBlocks)
 186:.\sd/SD_routines.c **** {
 411              		.loc 1 186 0
 412              		.cfi_startproc
 413              	.LVL62:
 414 0000 38B5     		push	{r3, r4, r5, lr}
 415              		.cfi_def_cfa_offset 16
 416              		.cfi_offset 3, -16
 417              		.cfi_offset 4, -12
 418              		.cfi_offset 5, -8
 419              		.cfi_offset 14, -4
 420 0002 041C     		mov	r4, r0
 421 0004 0D1C     		mov	r5, r1
 187:.\sd/SD_routines.c **** unsigned char response;
 188:.\sd/SD_routines.c **** 
 189:.\sd/SD_routines.c **** response = SD_sendCommand(ERASE_BLOCK_START_ADDR, startBlock); //send starting block address
 422              		.loc 1 189 0
 423 0006 2020     		mov	r0, #32
 424              	.LVL63:
 425 0008 211C     		mov	r1, r4
 426              	.LVL64:
 427 000a FFF7FEFF 		bl	SD_sendCommand
 428              	.LVL65:
 190:.\sd/SD_routines.c **** if(response != 0x00) //check for SD status: 0x00 - OK (No flags set)
 429              		.loc 1 190 0
 430 000e 0028     		cmp	r0, #0
 431 0010 0AD1     		bne	.L37
 191:.\sd/SD_routines.c ****   return response;
 192:.\sd/SD_routines.c **** 
 193:.\sd/SD_routines.c **** response = SD_sendCommand(ERASE_BLOCK_END_ADDR,(startBlock + totalBlocks - 1)); //send end block ad
 432              		.loc 1 193 0
 433 0012 6419     		add	r4, r4, r5
 434              	.LVL66:
 435 0014 611E     		sub	r1, r4, #1
 436 0016 2120     		mov	r0, #33
 437              	.LVL67:
 438 0018 FFF7FEFF 		bl	SD_sendCommand
 439              	.LVL68:
 194:.\sd/SD_routines.c **** if(response != 0x00)
 440              		.loc 1 194 0
 441 001c 0028     		cmp	r0, #0
ARM GAS  C:\Users\Jarik\AppData\Local\Temp\cctFZqzD.s 			page 13


 442 001e 03D1     		bne	.L37
 195:.\sd/SD_routines.c ****   return response;
 196:.\sd/SD_routines.c **** 
 197:.\sd/SD_routines.c **** response = SD_sendCommand(ERASE_SELECTED_BLOCKS, 0); //erase all selected blocks
 443              		.loc 1 197 0
 444 0020 2620     		mov	r0, #38
 445              	.LVL69:
 446 0022 0021     		mov	r1, #0
 447 0024 FFF7FEFF 		bl	SD_sendCommand
 448              	.LVL70:
 449              	.L37:
 198:.\sd/SD_routines.c **** if(response != 0x00)
 199:.\sd/SD_routines.c ****   return response;
 200:.\sd/SD_routines.c **** 
 201:.\sd/SD_routines.c **** return 0; //normal return
 202:.\sd/SD_routines.c **** }
 450              		.loc 1 202 0
 451              		@ sp needed
 452              	.LVL71:
 453 0028 38BD     		pop	{r3, r4, r5, pc}
 454              		.cfi_endproc
 455              	.LFE35:
 456              		.size	SD_erase, .-SD_erase
 457 002a C046     		.section	.text.SD_readMultipleBlock,"ax",%progbits
 458              		.align	2
 459              		.global	SD_readMultipleBlock
 460              		.code	16
 461              		.thumb_func
 462              		.type	SD_readMultipleBlock, %function
 463              	SD_readMultipleBlock:
 464              	.LFB36:
 203:.\sd/SD_routines.c **** 
 204:.\sd/SD_routines.c **** 
 205:.\sd/SD_routines.c **** 
 206:.\sd/SD_routines.c **** //***************************************************************************
 207:.\sd/SD_routines.c **** //Function	: to read multiple blocks from SD card & send every block to UART
 208:.\sd/SD_routines.c **** //Arguments	: none
 209:.\sd/SD_routines.c **** //return	: unsigned char; will be 0 if no error,
 210:.\sd/SD_routines.c **** // 			  otherwise the response byte will be sent
 211:.\sd/SD_routines.c **** //****************************************************************************
 212:.\sd/SD_routines.c **** unsigned char SD_readMultipleBlock (unsigned long startBlock, unsigned long totalBlocks, uint8_t *d
 213:.\sd/SD_routines.c **** {
 465              		.loc 1 213 0
 466              		.cfi_startproc
 467              	.LVL72:
 468 0000 F0B5     		push	{r4, r5, r6, r7, lr}
 469              		.cfi_def_cfa_offset 20
 470              		.cfi_offset 4, -20
 471              		.cfi_offset 5, -16
 472              		.cfi_offset 6, -12
 473              		.cfi_offset 7, -8
 474              		.cfi_offset 14, -4
 475 0002 5746     		mov	r7, r10
 476 0004 4E46     		mov	r6, r9
 477 0006 4546     		mov	r5, r8
 478 0008 E0B4     		push	{r5, r6, r7}
 479              		.cfi_def_cfa_offset 32
ARM GAS  C:\Users\Jarik\AppData\Local\Temp\cctFZqzD.s 			page 14


 480              		.cfi_offset 8, -32
 481              		.cfi_offset 9, -28
 482              		.cfi_offset 10, -24
 483 000a 031C     		mov	r3, r0
 484 000c 8946     		mov	r9, r1
 485 000e 171C     		mov	r7, r2
 486              	.LVL73:
 214:.\sd/SD_routines.c **** unsigned char response;
 215:.\sd/SD_routines.c **** unsigned int i, retry=0;
 216:.\sd/SD_routines.c **** 
 217:.\sd/SD_routines.c **** retry = 0;
 218:.\sd/SD_routines.c **** 
 219:.\sd/SD_routines.c **** response = SD_sendCommand(READ_MULTIPLE_BLOCKS, startBlock); //write a Block command
 487              		.loc 1 219 0
 488 0010 1220     		mov	r0, #18
 489              	.LVL74:
 490 0012 191C     		mov	r1, r3
 491              	.LVL75:
 492 0014 FFF7FEFF 		bl	SD_sendCommand
 493              	.LVL76:
 220:.\sd/SD_routines.c ****   
 221:.\sd/SD_routines.c **** if(response != 0x00) return response; //check for SD status: 0x00 - OK (No flags set)
 494              		.loc 1 221 0
 495 0018 0028     		cmp	r0, #0
 496 001a 3CD1     		bne	.L42
 222:.\sd/SD_routines.c **** 
 223:.\sd/SD_routines.c **** SD_CS_ASSERT;
 497              		.loc 1 223 0
 498 001c FFF7FEFF 		bl	SPI_CS_Write
 499              	.LVL77:
 500 0020 0023     		mov	r3, #0
 501 0022 9A46     		mov	r10, r3
 224:.\sd/SD_routines.c **** 
 225:.\sd/SD_routines.c **** while( totalBlocks )
 226:.\sd/SD_routines.c **** {
 227:.\sd/SD_routines.c ****   retry = 0;
 228:.\sd/SD_routines.c ****   while(SPI_receive() != 0xfe) //wait for start block token 0xfe (0x11111110)
 229:.\sd/SD_routines.c ****   if(retry++ > 0xfffe){SD_CS_DEASSERT; return 1;} //return if time-out
 502              		.loc 1 229 0
 503 0024 1E4B     		ldr	r3, .L52
 504 0026 9846     		mov	r8, r3
 230:.\sd/SD_routines.c ****   if(retry++ > 0xfffe){SD_CS_DEASSERT; return 1;} //return if time-out
 231:.\sd/SD_routines.c **** 
 232:.\sd/SD_routines.c ****   for(i=0; i<512; i++) //read 512 bytes
 505              		.loc 1 232 0
 506 0028 1E4E     		ldr	r6, .L52+4
 225:.\sd/SD_routines.c **** while( totalBlocks )
 507              		.loc 1 225 0
 508 002a 27E0     		b	.L43
 509              	.LVL78:
 510              	.L45:
 229:.\sd/SD_routines.c ****   if(retry++ > 0xfffe){SD_CS_DEASSERT; return 1;} //return if time-out
 511              		.loc 1 229 0
 512 002c 631C     		add	r3, r4, #1
 513              	.LVL79:
 514 002e 4445     		cmp	r4, r8
 515 0030 04D9     		bls	.L49
ARM GAS  C:\Users\Jarik\AppData\Local\Temp\cctFZqzD.s 			page 15


 229:.\sd/SD_routines.c ****   if(retry++ > 0xfffe){SD_CS_DEASSERT; return 1;} //return if time-out
 516              		.loc 1 229 0 is_stmt 0 discriminator 1
 517 0032 0120     		mov	r0, #1
 518 0034 FFF7FEFF 		bl	SPI_CS_Write
 519              	.LVL80:
 520 0038 0120     		mov	r0, #1
 521 003a 2CE0     		b	.L42
 522              	.LVL81:
 523              	.L49:
 229:.\sd/SD_routines.c ****   if(retry++ > 0xfffe){SD_CS_DEASSERT; return 1;} //return if time-out
 524              		.loc 1 229 0
 525 003c 1C1C     		mov	r4, r3
 526 003e 00E0     		b	.L44
 527              	.LVL82:
 528              	.L51:
 529 0040 5446     		mov	r4, r10
 530              	.LVL83:
 531              	.L44:
 228:.\sd/SD_routines.c ****   while(SPI_receive() != 0xfe) //wait for start block token 0xfe (0x11111110)
 532              		.loc 1 228 0 is_stmt 1 discriminator 1
 533 0042 FFF7FEFF 		bl	SPI_receive
 534              	.LVL84:
 535 0046 FE28     		cmp	r0, #254
 536 0048 F0D1     		bne	.L45
 537              	.LVL85:
 230:.\sd/SD_routines.c ****   if(retry++ > 0xfffe){SD_CS_DEASSERT; return 1;} //return if time-out
 538              		.loc 1 230 0
 539 004a 4445     		cmp	r4, r8
 540 004c 0AD9     		bls	.L50
 230:.\sd/SD_routines.c ****   if(retry++ > 0xfffe){SD_CS_DEASSERT; return 1;} //return if time-out
 541              		.loc 1 230 0 is_stmt 0 discriminator 1
 542 004e 0120     		mov	r0, #1
 543 0050 FFF7FEFF 		bl	SPI_CS_Write
 544              	.LVL86:
 545 0054 0120     		mov	r0, #1
 546 0056 1EE0     		b	.L42
 547              	.LVL87:
 548              	.L47:
 233:.\sd/SD_routines.c ****     data[i] = SPI_receive();
 549              		.loc 1 233 0 is_stmt 1 discriminator 2
 550 0058 3D19     		add	r5, r7, r4
 551 005a FFF7FEFF 		bl	SPI_receive
 552              	.LVL88:
 553 005e 2870     		strb	r0, [r5]
 232:.\sd/SD_routines.c ****   for(i=0; i<512; i++) //read 512 bytes
 554              		.loc 1 232 0 discriminator 2
 555 0060 0134     		add	r4, r4, #1
 556              	.LVL89:
 557 0062 00E0     		b	.L46
 558              	.LVL90:
 559              	.L50:
 560 0064 5446     		mov	r4, r10
 561              	.LVL91:
 562              	.L46:
 232:.\sd/SD_routines.c ****   for(i=0; i<512; i++) //read 512 bytes
 563              		.loc 1 232 0 is_stmt 0 discriminator 1
 564 0066 B442     		cmp	r4, r6
ARM GAS  C:\Users\Jarik\AppData\Local\Temp\cctFZqzD.s 			page 16


 565 0068 F6D9     		bls	.L47
 234:.\sd/SD_routines.c **** 
 235:.\sd/SD_routines.c ****   SPI_receive(); //receive incoming CRC (16-bit), CRC is ignored here
 566              		.loc 1 235 0 is_stmt 1
 567 006a FFF7FEFF 		bl	SPI_receive
 568              	.LVL92:
 236:.\sd/SD_routines.c ****   SPI_receive();
 569              		.loc 1 236 0
 570 006e FFF7FEFF 		bl	SPI_receive
 571              	.LVL93:
 237:.\sd/SD_routines.c **** 
 238:.\sd/SD_routines.c ****   SPI_receive(); //extra 8 cycles
 572              		.loc 1 238 0
 573 0072 FFF7FEFF 		bl	SPI_receive
 574              	.LVL94:
 239:.\sd/SD_routines.c ****    totalBlocks--;
 575              		.loc 1 239 0
 576 0076 0123     		mov	r3, #1
 577 0078 5B42     		neg	r3, r3
 578 007a 9944     		add	r9, r9, r3
 579              	.LVL95:
 580              	.L43:
 225:.\sd/SD_routines.c **** while( totalBlocks )
 581              		.loc 1 225 0 discriminator 1
 582 007c 4B46     		mov	r3, r9
 583 007e 002B     		cmp	r3, #0
 584 0080 DED1     		bne	.L51
 585              	.LVL96:
 240:.\sd/SD_routines.c **** }
 241:.\sd/SD_routines.c **** 
 242:.\sd/SD_routines.c **** SD_sendCommand(STOP_TRANSMISSION, 0); //command to stop transmission
 586              		.loc 1 242 0
 587 0082 0C20     		mov	r0, #12
 588 0084 0021     		mov	r1, #0
 589 0086 FFF7FEFF 		bl	SD_sendCommand
 590              	.LVL97:
 243:.\sd/SD_routines.c **** SD_CS_DEASSERT;
 591              		.loc 1 243 0
 592 008a 0120     		mov	r0, #1
 593 008c FFF7FEFF 		bl	SPI_CS_Write
 594              	.LVL98:
 244:.\sd/SD_routines.c **** SPI_receive(); //extra 8 clock pulses
 595              		.loc 1 244 0
 596 0090 FFF7FEFF 		bl	SPI_receive
 597              	.LVL99:
 245:.\sd/SD_routines.c **** 
 246:.\sd/SD_routines.c **** return 0;
 598              		.loc 1 246 0
 599 0094 0020     		mov	r0, #0
 600              	.L42:
 247:.\sd/SD_routines.c **** }
 601              		.loc 1 247 0
 602              		@ sp needed
 603              	.LVL100:
 604              	.LVL101:
 605 0096 1CBC     		pop	{r2, r3, r4}
 606 0098 9046     		mov	r8, r2
ARM GAS  C:\Users\Jarik\AppData\Local\Temp\cctFZqzD.s 			page 17


 607 009a 9946     		mov	r9, r3
 608 009c A246     		mov	r10, r4
 609 009e F0BD     		pop	{r4, r5, r6, r7, pc}
 610              	.L53:
 611              		.align	2
 612              	.L52:
 613 00a0 FEFF0000 		.word	65534
 614 00a4 FF010000 		.word	511
 615              		.cfi_endproc
 616              	.LFE36:
 617              		.size	SD_readMultipleBlock, .-SD_readMultipleBlock
 618              		.section	.text.SD_writeMultipleBlock,"ax",%progbits
 619              		.align	2
 620              		.global	SD_writeMultipleBlock
 621              		.code	16
 622              		.thumb_func
 623              		.type	SD_writeMultipleBlock, %function
 624              	SD_writeMultipleBlock:
 625              	.LFB37:
 248:.\sd/SD_routines.c **** 
 249:.\sd/SD_routines.c **** //***************************************************************************
 250:.\sd/SD_routines.c **** //Function: to receive data from UART and write to multiple blocks of SD card
 251:.\sd/SD_routines.c **** //Arguments: none
 252:.\sd/SD_routines.c **** //return: unsigned char; will be 0 if no error,
 253:.\sd/SD_routines.c **** // otherwise the response byte will be sent
 254:.\sd/SD_routines.c **** //****************************************************************************
 255:.\sd/SD_routines.c **** unsigned char SD_writeMultipleBlock(unsigned long startBlock, unsigned long totalBlocks, const uint
 256:.\sd/SD_routines.c **** {
 626              		.loc 1 256 0
 627              		.cfi_startproc
 628              	.LVL102:
 629 0000 F8B5     		push	{r3, r4, r5, r6, r7, lr}
 630              		.cfi_def_cfa_offset 24
 631              		.cfi_offset 3, -24
 632              		.cfi_offset 4, -20
 633              		.cfi_offset 5, -16
 634              		.cfi_offset 6, -12
 635              		.cfi_offset 7, -8
 636              		.cfi_offset 14, -4
 637 0002 5F46     		mov	r7, fp
 638 0004 5646     		mov	r6, r10
 639 0006 4D46     		mov	r5, r9
 640 0008 4446     		mov	r4, r8
 641 000a F0B4     		push	{r4, r5, r6, r7}
 642              		.cfi_def_cfa_offset 40
 643              		.cfi_offset 8, -40
 644              		.cfi_offset 9, -36
 645              		.cfi_offset 10, -32
 646              		.cfi_offset 11, -28
 647 000c 031C     		mov	r3, r0
 648 000e 8946     		mov	r9, r1
 649 0010 161C     		mov	r6, r2
 650              	.LVL103:
 257:.\sd/SD_routines.c **** unsigned char response;
 258:.\sd/SD_routines.c **** unsigned int i, retry=0;
 259:.\sd/SD_routines.c **** unsigned long blockCounter=0;
 260:.\sd/SD_routines.c **** 
ARM GAS  C:\Users\Jarik\AppData\Local\Temp\cctFZqzD.s 			page 18


 261:.\sd/SD_routines.c **** response = SD_sendCommand(WRITE_MULTIPLE_BLOCKS, startBlock); //write a Block command
 651              		.loc 1 261 0
 652 0012 1920     		mov	r0, #25
 653              	.LVL104:
 654 0014 191C     		mov	r1, r3
 655              	.LVL105:
 656 0016 FFF7FEFF 		bl	SD_sendCommand
 657              	.LVL106:
 262:.\sd/SD_routines.c **** 
 263:.\sd/SD_routines.c **** if(response != 0x00) return response; //check for SD status: 0x00 - OK (No flags set)
 658              		.loc 1 263 0
 659 001a 0028     		cmp	r0, #0
 660 001c 6AD1     		bne	.L55
 264:.\sd/SD_routines.c **** 
 265:.\sd/SD_routines.c **** SD_CS_ASSERT;
 661              		.loc 1 265 0
 662 001e FFF7FEFF 		bl	SPI_CS_Write
 663              	.LVL107:
 259:.\sd/SD_routines.c **** unsigned long blockCounter=0;
 664              		.loc 1 259 0
 665 0022 0023     		mov	r3, #0
 666 0024 9846     		mov	r8, r3
 258:.\sd/SD_routines.c **** unsigned int i, retry=0;
 667              		.loc 1 258 0
 668 0026 0027     		mov	r7, #0
 266:.\sd/SD_routines.c **** 
 267:.\sd/SD_routines.c **** while( blockCounter < totalBlocks )
 268:.\sd/SD_routines.c **** {
 269:.\sd/SD_routines.c **** 
 270:.\sd/SD_routines.c ****    SPI_transmit(0xfc); //Send start block token 0xfc (0x11111100)
 271:.\sd/SD_routines.c **** 
 272:.\sd/SD_routines.c ****    for(i=0; i<512; i++) //send 512 bytes data
 669              		.loc 1 272 0
 670 0028 BB46     		mov	fp, r7
 671 002a 354D     		ldr	r5, .L71
 273:.\sd/SD_routines.c ****      SPI_transmit( data[i] );
 274:.\sd/SD_routines.c **** 
 275:.\sd/SD_routines.c ****    SPI_transmit(0xff); //transmit dummy CRC (16-bit), CRC is ignored here
 276:.\sd/SD_routines.c ****    SPI_transmit(0xff);
 277:.\sd/SD_routines.c **** 
 278:.\sd/SD_routines.c ****    response = SPI_receive();
 279:.\sd/SD_routines.c ****    if( (response & 0x1f) != 0x05) //response= 0xXXX0AAA1 ; AAA='010' - data accepted
 672              		.loc 1 279 0
 673 002c 1F23     		mov	r3, #31
 674 002e 9A46     		mov	r10, r3
 267:.\sd/SD_routines.c **** while( blockCounter < totalBlocks )
 675              		.loc 1 267 0
 676 0030 2FE0     		b	.L56
 677              	.LVL108:
 678              	.L61:
 270:.\sd/SD_routines.c ****    SPI_transmit(0xfc); //Send start block token 0xfc (0x11111100)
 679              		.loc 1 270 0
 680 0032 FC20     		mov	r0, #252
 681 0034 FFF7FEFF 		bl	SPI_transmit
 682              	.LVL109:
 272:.\sd/SD_routines.c ****    for(i=0; i<512; i++) //send 512 bytes data
 683              		.loc 1 272 0
ARM GAS  C:\Users\Jarik\AppData\Local\Temp\cctFZqzD.s 			page 19


 684 0038 5C46     		mov	r4, fp
 685 003a 03E0     		b	.L57
 686              	.LVL110:
 687              	.L58:
 273:.\sd/SD_routines.c ****      SPI_transmit( data[i] );
 688              		.loc 1 273 0 discriminator 2
 689 003c 305D     		ldrb	r0, [r6, r4]
 690 003e FFF7FEFF 		bl	SPI_transmit
 691              	.LVL111:
 272:.\sd/SD_routines.c ****    for(i=0; i<512; i++) //send 512 bytes data
 692              		.loc 1 272 0 discriminator 2
 693 0042 0134     		add	r4, r4, #1
 694              	.LVL112:
 695              	.L57:
 272:.\sd/SD_routines.c ****    for(i=0; i<512; i++) //send 512 bytes data
 696              		.loc 1 272 0 is_stmt 0 discriminator 1
 697 0044 AC42     		cmp	r4, r5
 698 0046 F9D9     		bls	.L58
 275:.\sd/SD_routines.c ****    SPI_transmit(0xff); //transmit dummy CRC (16-bit), CRC is ignored here
 699              		.loc 1 275 0 is_stmt 1
 700 0048 FF20     		mov	r0, #255
 701 004a FFF7FEFF 		bl	SPI_transmit
 702              	.LVL113:
 276:.\sd/SD_routines.c ****    SPI_transmit(0xff);
 703              		.loc 1 276 0
 704 004e FF20     		mov	r0, #255
 705 0050 FFF7FEFF 		bl	SPI_transmit
 706              	.LVL114:
 278:.\sd/SD_routines.c ****    response = SPI_receive();
 707              		.loc 1 278 0
 708 0054 FFF7FEFF 		bl	SPI_receive
 709              	.LVL115:
 710 0058 041C     		mov	r4, r0
 711              	.LVL116:
 712              		.loc 1 279 0
 713 005a 5346     		mov	r3, r10
 714 005c 1840     		and	r0, r3
 715              	.LVL117:
 716 005e 0528     		cmp	r0, #5
 717 0060 0ED0     		beq	.L59
 280:.\sd/SD_routines.c ****    {                              //AAA='101'-data rejected due to CRC error
 281:.\sd/SD_routines.c ****       SD_CS_DEASSERT;             //AAA='110'-data rejected due to write error
 718              		.loc 1 281 0
 719 0062 0120     		mov	r0, #1
 720 0064 FFF7FEFF 		bl	SPI_CS_Write
 721              	.LVL118:
 282:.\sd/SD_routines.c ****       return response;
 722              		.loc 1 282 0
 723 0068 201C     		mov	r0, r4
 724 006a 43E0     		b	.L55
 725              	.LVL119:
 726              	.L60:
 283:.\sd/SD_routines.c ****    }
 284:.\sd/SD_routines.c **** 
 285:.\sd/SD_routines.c ****    while(!SPI_receive()) //wait for SD card to complete writing and get idle
 286:.\sd/SD_routines.c ****      if(retry++ > 0xfffe){SD_CS_DEASSERT; return 1;}
 727              		.loc 1 286 0
ARM GAS  C:\Users\Jarik\AppData\Local\Temp\cctFZqzD.s 			page 20


 728 006c 7B1C     		add	r3, r7, #1
 729              	.LVL120:
 730 006e A742     		cmp	r7, r4
 731 0070 04D9     		bls	.L67
 732              		.loc 1 286 0 is_stmt 0 discriminator 1
 733 0072 0120     		mov	r0, #1
 734 0074 FFF7FEFF 		bl	SPI_CS_Write
 735              	.LVL121:
 736 0078 0120     		mov	r0, #1
 737 007a 3BE0     		b	.L55
 738              	.LVL122:
 739              	.L67:
 740              		.loc 1 286 0
 741 007c 1F1C     		mov	r7, r3
 742 007e 00E0     		b	.L70
 743              	.LVL123:
 744              	.L59:
 745              		.loc 1 286 0 discriminator 1
 746 0080 204C     		ldr	r4, .L71+4
 747              	.LVL124:
 748              	.L70:
 285:.\sd/SD_routines.c ****    while(!SPI_receive()) //wait for SD card to complete writing and get idle
 749              		.loc 1 285 0 is_stmt 1 discriminator 1
 750 0082 FFF7FEFF 		bl	SPI_receive
 751              	.LVL125:
 752 0086 0028     		cmp	r0, #0
 753 0088 F0D0     		beq	.L60
 287:.\sd/SD_routines.c **** 
 288:.\sd/SD_routines.c ****    SPI_receive(); //extra 8 bits
 754              		.loc 1 288 0
 755 008a FFF7FEFF 		bl	SPI_receive
 756              	.LVL126:
 289:.\sd/SD_routines.c ****    blockCounter++;
 757              		.loc 1 289 0
 758 008e 0123     		mov	r3, #1
 759 0090 9844     		add	r8, r8, r3
 760              	.LVL127:
 761              	.L56:
 267:.\sd/SD_routines.c **** while( blockCounter < totalBlocks )
 762              		.loc 1 267 0 discriminator 1
 763 0092 C845     		cmp	r8, r9
 764 0094 CDD3     		bcc	.L61
 290:.\sd/SD_routines.c **** }
 291:.\sd/SD_routines.c **** 
 292:.\sd/SD_routines.c **** SPI_transmit(0xfd); //send 'stop transmission token'
 765              		.loc 1 292 0
 766 0096 FD20     		mov	r0, #253
 767 0098 FFF7FEFF 		bl	SPI_transmit
 768              	.LVL128:
 293:.\sd/SD_routines.c **** 
 294:.\sd/SD_routines.c **** retry = 0;
 769              		.loc 1 294 0
 770 009c 0024     		mov	r4, #0
 295:.\sd/SD_routines.c **** 
 296:.\sd/SD_routines.c **** while(!SPI_receive()) //wait for SD card to complete writing and get idle
 297:.\sd/SD_routines.c ****    if(retry++ > 0xfffe){SD_CS_DEASSERT; return 1;}
 771              		.loc 1 297 0
ARM GAS  C:\Users\Jarik\AppData\Local\Temp\cctFZqzD.s 			page 21


 772 009e 194D     		ldr	r5, .L71+4
 296:.\sd/SD_routines.c **** while(!SPI_receive()) //wait for SD card to complete writing and get idle
 773              		.loc 1 296 0
 774 00a0 08E0     		b	.L62
 775              	.LVL129:
 776              	.L63:
 777              		.loc 1 297 0
 778 00a2 631C     		add	r3, r4, #1
 779              	.LVL130:
 780 00a4 AC42     		cmp	r4, r5
 781 00a6 04D9     		bls	.L68
 782              		.loc 1 297 0 is_stmt 0 discriminator 1
 783 00a8 0120     		mov	r0, #1
 784 00aa FFF7FEFF 		bl	SPI_CS_Write
 785              	.LVL131:
 786 00ae 0120     		mov	r0, #1
 787 00b0 20E0     		b	.L55
 788              	.LVL132:
 789              	.L68:
 790              		.loc 1 297 0
 791 00b2 1C1C     		mov	r4, r3
 792              	.LVL133:
 793              	.L62:
 296:.\sd/SD_routines.c **** while(!SPI_receive()) //wait for SD card to complete writing and get idle
 794              		.loc 1 296 0 is_stmt 1 discriminator 1
 795 00b4 FFF7FEFF 		bl	SPI_receive
 796              	.LVL134:
 797 00b8 0028     		cmp	r0, #0
 798 00ba F2D0     		beq	.L63
 298:.\sd/SD_routines.c **** 
 299:.\sd/SD_routines.c **** SD_CS_DEASSERT;
 799              		.loc 1 299 0
 800 00bc 0120     		mov	r0, #1
 801 00be FFF7FEFF 		bl	SPI_CS_Write
 802              	.LVL135:
 300:.\sd/SD_routines.c **** SPI_transmit(0xff); //just spend 8 clock cycle delay before reasserting the CS signal
 803              		.loc 1 300 0
 804 00c2 FF20     		mov	r0, #255
 805 00c4 FFF7FEFF 		bl	SPI_transmit
 806              	.LVL136:
 301:.\sd/SD_routines.c **** SD_CS_ASSERT; //re assertion of the CS signal is required to verify if card is still busy
 807              		.loc 1 301 0
 808 00c8 0020     		mov	r0, #0
 809 00ca FFF7FEFF 		bl	SPI_CS_Write
 810              	.LVL137:
 302:.\sd/SD_routines.c **** 
 303:.\sd/SD_routines.c **** while(!SPI_receive()) //wait for SD card to complete writing and get idle
 304:.\sd/SD_routines.c ****    if(retry++ > 0xfffe){SD_CS_DEASSERT; return 1;}
 811              		.loc 1 304 0
 812 00ce 0D4D     		ldr	r5, .L71+4
 303:.\sd/SD_routines.c **** while(!SPI_receive()) //wait for SD card to complete writing and get idle
 813              		.loc 1 303 0
 814 00d0 08E0     		b	.L64
 815              	.L65:
 816              		.loc 1 304 0
 817 00d2 631C     		add	r3, r4, #1
 818              	.LVL138:
ARM GAS  C:\Users\Jarik\AppData\Local\Temp\cctFZqzD.s 			page 22


 819 00d4 AC42     		cmp	r4, r5
 820 00d6 04D9     		bls	.L69
 821              		.loc 1 304 0 is_stmt 0 discriminator 1
 822 00d8 0120     		mov	r0, #1
 823 00da FFF7FEFF 		bl	SPI_CS_Write
 824              	.LVL139:
 825 00de 0120     		mov	r0, #1
 826 00e0 08E0     		b	.L55
 827              	.LVL140:
 828              	.L69:
 829              		.loc 1 304 0
 830 00e2 1C1C     		mov	r4, r3
 831              	.LVL141:
 832              	.L64:
 303:.\sd/SD_routines.c **** while(!SPI_receive()) //wait for SD card to complete writing and get idle
 833              		.loc 1 303 0 is_stmt 1 discriminator 1
 834 00e4 FFF7FEFF 		bl	SPI_receive
 835              	.LVL142:
 836 00e8 0028     		cmp	r0, #0
 837 00ea F2D0     		beq	.L65
 305:.\sd/SD_routines.c **** SD_CS_DEASSERT;
 838              		.loc 1 305 0
 839 00ec 0120     		mov	r0, #1
 840 00ee FFF7FEFF 		bl	SPI_CS_Write
 841              	.LVL143:
 306:.\sd/SD_routines.c **** 
 307:.\sd/SD_routines.c **** return 0;
 842              		.loc 1 307 0
 843 00f2 0020     		mov	r0, #0
 844              	.LVL144:
 845              	.L55:
 308:.\sd/SD_routines.c **** }
 846              		.loc 1 308 0
 847              		@ sp needed
 848              	.LVL145:
 849              	.LVL146:
 850 00f4 3CBC     		pop	{r2, r3, r4, r5}
 851 00f6 9046     		mov	r8, r2
 852 00f8 9946     		mov	r9, r3
 853 00fa A246     		mov	r10, r4
 854 00fc AB46     		mov	fp, r5
 855 00fe F8BD     		pop	{r3, r4, r5, r6, r7, pc}
 856              	.L72:
 857              		.align	2
 858              	.L71:
 859 0100 FF010000 		.word	511
 860 0104 FEFF0000 		.word	65534
 861              		.cfi_endproc
 862              	.LFE37:
 863              		.size	SD_writeMultipleBlock, .-SD_writeMultipleBlock
 864              		.comm	cardType,1,1
 865              		.comm	SDHC_flag,1,1
 866              		.comm	totalBlocks,4,4
 867              		.comm	startBlock,4,4
 868              		.text
 869              	.Letext0:
 870              		.file 2 "c:\\program files\\cypress\\psoc creator\\3.2\\psoc creator\\import\\gnu\\arm\\4.8.4\\arm
ARM GAS  C:\Users\Jarik\AppData\Local\Temp\cctFZqzD.s 			page 23


 871              		.file 3 "c:\\program files\\cypress\\psoc creator\\3.2\\psoc creator\\import\\gnu\\arm\\4.8.4\\arm
 872              		.file 4 "Generated_Source\\PSoC4/cytypes.h"
 873              		.file 5 "./sd/SD_routines.h"
 874              		.file 6 "Generated_Source\\PSoC4/SPI_CS.h"
 875              		.file 7 "./sd/SPI_routines.h"