ARM GAS  C:\Users\Jarik\AppData\Local\Temp\cc1sI7lU.s 			page 1


   1              		.cpu cortex-m0
   2              		.fpu softvfp
   3              		.eabi_attribute 20, 1
   4              		.eabi_attribute 21, 1
   5              		.eabi_attribute 23, 3
   6              		.eabi_attribute 24, 1
   7              		.eabi_attribute 25, 1
   8              		.eabi_attribute 26, 1
   9              		.eabi_attribute 30, 1
  10              		.eabi_attribute 34, 0
  11              		.eabi_attribute 18, 4
  12              		.code	16
  13              		.file	"SPI_routines.c"
  14              		.text
  15              	.Ltext0:
  16              		.cfi_sections	.debug_frame
  17              		.section	.text.spi_init,"ax",%progbits
  18              		.align	2
  19              		.global	spi_init
  20              		.code	16
  21              		.thumb_func
  22              		.type	spi_init, %function
  23              	spi_init:
  24              	.LFB33:
  25              		.file 1 ".\\sd\\SPI_routines.c"
   1:.\sd/SPI_routines.c **** //**************************************************************
   2:.\sd/SPI_routines.c **** // ****** FUNCTIONS FOR SPI COMMUNICATION *******
   3:.\sd/SPI_routines.c **** //**************************************************************
   4:.\sd/SPI_routines.c **** //**************************************************
   5:.\sd/SPI_routines.c **** // ***** SOURCE FILE : SPI_routines.c ******
   6:.\sd/SPI_routines.c **** //**************************************************
   7:.\sd/SPI_routines.c **** #include <project.h>
   8:.\sd/SPI_routines.c **** #include "sd/SPI_routines.h"
   9:.\sd/SPI_routines.c **** 
  10:.\sd/SPI_routines.c **** //SPI initialize for SD card
  11:.\sd/SPI_routines.c **** 
  12:.\sd/SPI_routines.c **** void spi_init(void)
  13:.\sd/SPI_routines.c **** {
  26              		.loc 1 13 0
  27              		.cfi_startproc
  28 0000 08B5     		push	{r3, lr}
  29              		.cfi_def_cfa_offset 8
  30              		.cfi_offset 3, -8
  31              		.cfi_offset 14, -4
  14:.\sd/SPI_routines.c **** 	SPI_1_Start();
  32              		.loc 1 14 0
  33 0002 FFF7FEFF 		bl	SPI_1_Start
  34              	.LVL0:
  15:.\sd/SPI_routines.c ****     
  16:.\sd/SPI_routines.c **** }
  35              		.loc 1 16 0
  36              		@ sp needed
  37 0006 08BD     		pop	{r3, pc}
  38              		.cfi_endproc
  39              	.LFE33:
  40              		.size	spi_init, .-spi_init
  41              		.section	.text.SPI_transmit,"ax",%progbits
ARM GAS  C:\Users\Jarik\AppData\Local\Temp\cc1sI7lU.s 			page 2


  42              		.align	2
  43              		.global	SPI_transmit
  44              		.code	16
  45              		.thumb_func
  46              		.type	SPI_transmit, %function
  47              	SPI_transmit:
  48              	.LFB34:
  17:.\sd/SPI_routines.c **** 
  18:.\sd/SPI_routines.c **** unsigned char SPI_transmit(unsigned char data)
  19:.\sd/SPI_routines.c **** {
  49              		.loc 1 19 0
  50              		.cfi_startproc
  51              	.LVL1:
  52 0000 08B5     		push	{r3, lr}
  53              		.cfi_def_cfa_offset 8
  54              		.cfi_offset 3, -8
  55              		.cfi_offset 14, -4
  20:.\sd/SPI_routines.c ****     SPI_1_SpiUartWriteTxData(data);
  56              		.loc 1 20 0
  57 0002 FFF7FEFF 		bl	SPI_1_SpiUartWriteTxData
  58              	.LVL2:
  59              	.L3:
  21:.\sd/SPI_routines.c ****     while(SPI_1_SpiUartGetTxBufferSize()!=0);
  60              		.loc 1 21 0 discriminator 1
  61 0006 FFF7FEFF 		bl	SPI_1_SpiUartGetTxBufferSize
  62              	.LVL3:
  63 000a 0028     		cmp	r0, #0
  64 000c FBD1     		bne	.L3
  65              	.L5:
  22:.\sd/SPI_routines.c ****     while(SPI_1_SpiUartGetRxBufferSize()==0);
  66              		.loc 1 22 0 discriminator 1
  67 000e FFF7FEFF 		bl	SPI_1_SpiUartGetRxBufferSize
  68              	.LVL4:
  69 0012 0028     		cmp	r0, #0
  70 0014 FBD0     		beq	.L5
  23:.\sd/SPI_routines.c ****     return SPI_1_SpiUartReadRxData();
  71              		.loc 1 23 0
  72 0016 FFF7FEFF 		bl	SPI_1_SpiUartReadRxData
  73              	.LVL5:
  74 001a C0B2     		uxtb	r0, r0
  24:.\sd/SPI_routines.c **** }
  75              		.loc 1 24 0
  76              		@ sp needed
  77 001c 08BD     		pop	{r3, pc}
  78              		.cfi_endproc
  79              	.LFE34:
  80              		.size	SPI_transmit, .-SPI_transmit
  81 001e C046     		.section	.text.SPI_receive,"ax",%progbits
  82              		.align	2
  83              		.global	SPI_receive
  84              		.code	16
  85              		.thumb_func
  86              		.type	SPI_receive, %function
  87              	SPI_receive:
  88              	.LFB35:
  25:.\sd/SPI_routines.c **** 
  26:.\sd/SPI_routines.c **** unsigned char SPI_receive(void)
ARM GAS  C:\Users\Jarik\AppData\Local\Temp\cc1sI7lU.s 			page 3


  27:.\sd/SPI_routines.c **** {
  89              		.loc 1 27 0
  90              		.cfi_startproc
  91 0000 08B5     		push	{r3, lr}
  92              		.cfi_def_cfa_offset 8
  93              		.cfi_offset 3, -8
  94              		.cfi_offset 14, -4
  28:.\sd/SPI_routines.c ****    return  SPI_transmit(0xff);
  95              		.loc 1 28 0
  96 0002 FF20     		mov	r0, #255
  97 0004 FFF7FEFF 		bl	SPI_transmit
  98              	.LVL6:
  29:.\sd/SPI_routines.c **** }
  99              		.loc 1 29 0
 100              		@ sp needed
 101 0008 08BD     		pop	{r3, pc}
 102              		.cfi_endproc
 103              	.LFE35:
 104              		.size	SPI_receive, .-SPI_receive
 105 000a C046     		.text
 106              	.Letext0:
 107              		.file 2 "Generated_Source\\PSoC4/SPI_1_SPI_UART.h"
 108              		.file 3 "Generated_Source\\PSoC4/cytypes.h"
 109              		.file 4 "Generated_Source\\PSoC4/SPI_1.h"