ARM GAS  C:\Users\Jarik\AppData\Local\Temp\ccZZ3a7D.s 			page 1


   1              		.cpu cortex-m0
   2              		.fpu softvfp
   3              		.eabi_attribute 20, 1
   4              		.eabi_attribute 21, 1
   5              		.eabi_attribute 23, 3
   6              		.eabi_attribute 24, 1
   7              		.eabi_attribute 25, 1
   8              		.eabi_attribute 26, 1
   9              		.eabi_attribute 30, 1
  10              		.eabi_attribute 34, 0
  11              		.eabi_attribute 18, 4
  12              		.code	16
  13              		.file	"SPI_1_SPI_UART.c"
  14              		.text
  15              	.Ltext0:
  16              		.cfi_sections	.debug_frame
  17              		.section	.text.SPI_1_SpiUartReadRxData,"ax",%progbits
  18              		.align	2
  19              		.global	SPI_1_SpiUartReadRxData
  20              		.code	16
  21              		.thumb_func
  22              		.type	SPI_1_SpiUartReadRxData, %function
  23              	SPI_1_SpiUartReadRxData:
  24              	.LFB0:
  25              		.file 1 ".\\Generated_Source\\PSoC4\\SPI_1_SPI_UART.c"
   1:.\Generated_Source\PSoC4/SPI_1_SPI_UART.c **** /*******************************************************************************
   2:.\Generated_Source\PSoC4/SPI_1_SPI_UART.c **** * File Name: SPI_1_SPI_UART.c
   3:.\Generated_Source\PSoC4/SPI_1_SPI_UART.c **** * Version 2.0
   4:.\Generated_Source\PSoC4/SPI_1_SPI_UART.c **** *
   5:.\Generated_Source\PSoC4/SPI_1_SPI_UART.c **** * Description:
   6:.\Generated_Source\PSoC4/SPI_1_SPI_UART.c **** *  This file provides the source code to the API for the SCB Component in
   7:.\Generated_Source\PSoC4/SPI_1_SPI_UART.c **** *  SPI and UART modes.
   8:.\Generated_Source\PSoC4/SPI_1_SPI_UART.c **** *
   9:.\Generated_Source\PSoC4/SPI_1_SPI_UART.c **** * Note:
  10:.\Generated_Source\PSoC4/SPI_1_SPI_UART.c **** *
  11:.\Generated_Source\PSoC4/SPI_1_SPI_UART.c **** *******************************************************************************
  12:.\Generated_Source\PSoC4/SPI_1_SPI_UART.c **** * Copyright 2013-2014, Cypress Semiconductor Corporation.  All rights reserved.
  13:.\Generated_Source\PSoC4/SPI_1_SPI_UART.c **** * You may use this file only in accordance with the license, terms, conditions,
  14:.\Generated_Source\PSoC4/SPI_1_SPI_UART.c **** * disclaimers, and limitations in the end user license agreement accompanying
  15:.\Generated_Source\PSoC4/SPI_1_SPI_UART.c **** * the software package with which this file was provided.
  16:.\Generated_Source\PSoC4/SPI_1_SPI_UART.c **** *******************************************************************************/
  17:.\Generated_Source\PSoC4/SPI_1_SPI_UART.c **** 
  18:.\Generated_Source\PSoC4/SPI_1_SPI_UART.c **** #include "SPI_1_PVT.h"
  19:.\Generated_Source\PSoC4/SPI_1_SPI_UART.c **** #include "SPI_1_SPI_UART_PVT.h"
  20:.\Generated_Source\PSoC4/SPI_1_SPI_UART.c **** 
  21:.\Generated_Source\PSoC4/SPI_1_SPI_UART.c **** /***************************************
  22:.\Generated_Source\PSoC4/SPI_1_SPI_UART.c **** *        SPI/UART Private Vars
  23:.\Generated_Source\PSoC4/SPI_1_SPI_UART.c **** ***************************************/
  24:.\Generated_Source\PSoC4/SPI_1_SPI_UART.c **** 
  25:.\Generated_Source\PSoC4/SPI_1_SPI_UART.c **** #if(SPI_1_INTERNAL_RX_SW_BUFFER_CONST)
  26:.\Generated_Source\PSoC4/SPI_1_SPI_UART.c ****     volatile uint32 SPI_1_rxBufferHead;
  27:.\Generated_Source\PSoC4/SPI_1_SPI_UART.c ****     volatile uint32 SPI_1_rxBufferTail;
  28:.\Generated_Source\PSoC4/SPI_1_SPI_UART.c ****     volatile uint8  SPI_1_rxBufferOverflow;
  29:.\Generated_Source\PSoC4/SPI_1_SPI_UART.c **** #endif /* (SPI_1_INTERNAL_RX_SW_BUFFER_CONST) */
  30:.\Generated_Source\PSoC4/SPI_1_SPI_UART.c **** 
  31:.\Generated_Source\PSoC4/SPI_1_SPI_UART.c **** #if(SPI_1_INTERNAL_TX_SW_BUFFER_CONST)
  32:.\Generated_Source\PSoC4/SPI_1_SPI_UART.c ****     volatile uint32 SPI_1_txBufferHead;
ARM GAS  C:\Users\Jarik\AppData\Local\Temp\ccZZ3a7D.s 			page 2


  33:.\Generated_Source\PSoC4/SPI_1_SPI_UART.c ****     volatile uint32 SPI_1_txBufferTail;
  34:.\Generated_Source\PSoC4/SPI_1_SPI_UART.c **** #endif /* (SPI_1_INTERNAL_TX_SW_BUFFER_CONST) */
  35:.\Generated_Source\PSoC4/SPI_1_SPI_UART.c **** 
  36:.\Generated_Source\PSoC4/SPI_1_SPI_UART.c **** #if(SPI_1_INTERNAL_RX_SW_BUFFER)
  37:.\Generated_Source\PSoC4/SPI_1_SPI_UART.c ****     /* Add one element to the buffer to receive full packet. One byte in receive buffer is always e
  38:.\Generated_Source\PSoC4/SPI_1_SPI_UART.c ****     volatile uint8 SPI_1_rxBufferInternal[SPI_1_RX_BUFFER_SIZE];
  39:.\Generated_Source\PSoC4/SPI_1_SPI_UART.c **** #endif /* (SPI_1_INTERNAL_RX_SW_BUFFER) */
  40:.\Generated_Source\PSoC4/SPI_1_SPI_UART.c **** 
  41:.\Generated_Source\PSoC4/SPI_1_SPI_UART.c **** #if(SPI_1_INTERNAL_TX_SW_BUFFER)
  42:.\Generated_Source\PSoC4/SPI_1_SPI_UART.c ****     volatile uint8 SPI_1_txBufferInternal[SPI_1_TX_BUFFER_SIZE];
  43:.\Generated_Source\PSoC4/SPI_1_SPI_UART.c **** #endif /* (SPI_1_INTERNAL_TX_SW_BUFFER) */
  44:.\Generated_Source\PSoC4/SPI_1_SPI_UART.c **** 
  45:.\Generated_Source\PSoC4/SPI_1_SPI_UART.c **** 
  46:.\Generated_Source\PSoC4/SPI_1_SPI_UART.c **** #if(SPI_1_RX_DIRECTION)
  47:.\Generated_Source\PSoC4/SPI_1_SPI_UART.c **** 
  48:.\Generated_Source\PSoC4/SPI_1_SPI_UART.c ****     /*******************************************************************************
  49:.\Generated_Source\PSoC4/SPI_1_SPI_UART.c ****     * Function Name: SPI_1_SpiUartReadRxData
  50:.\Generated_Source\PSoC4/SPI_1_SPI_UART.c ****     ********************************************************************************
  51:.\Generated_Source\PSoC4/SPI_1_SPI_UART.c ****     *
  52:.\Generated_Source\PSoC4/SPI_1_SPI_UART.c ****     * Summary:
  53:.\Generated_Source\PSoC4/SPI_1_SPI_UART.c ****     *  Retrieves the next data element from the receive buffer.
  54:.\Generated_Source\PSoC4/SPI_1_SPI_UART.c ****     *   - RX software buffer is disabled: Returns data element retrieved from
  55:.\Generated_Source\PSoC4/SPI_1_SPI_UART.c ****     *     RX FIFO. Undefined data will be returned if the RX FIFO is empty.
  56:.\Generated_Source\PSoC4/SPI_1_SPI_UART.c ****     *   - RX software buffer is enabled: Returns data element from the software
  57:.\Generated_Source\PSoC4/SPI_1_SPI_UART.c ****     *     receive buffer. Zero value is returned if the software receive buffer
  58:.\Generated_Source\PSoC4/SPI_1_SPI_UART.c ****     *     is empty.
  59:.\Generated_Source\PSoC4/SPI_1_SPI_UART.c ****     *
  60:.\Generated_Source\PSoC4/SPI_1_SPI_UART.c ****     * Parameters:
  61:.\Generated_Source\PSoC4/SPI_1_SPI_UART.c ****     *  None
  62:.\Generated_Source\PSoC4/SPI_1_SPI_UART.c ****     *
  63:.\Generated_Source\PSoC4/SPI_1_SPI_UART.c ****     * Return:
  64:.\Generated_Source\PSoC4/SPI_1_SPI_UART.c ****     *  Next data element from the receive buffer.
  65:.\Generated_Source\PSoC4/SPI_1_SPI_UART.c ****     *
  66:.\Generated_Source\PSoC4/SPI_1_SPI_UART.c ****     * Global Variables:
  67:.\Generated_Source\PSoC4/SPI_1_SPI_UART.c ****     *  Look into SPI_1_SpiInit for description.
  68:.\Generated_Source\PSoC4/SPI_1_SPI_UART.c ****     *
  69:.\Generated_Source\PSoC4/SPI_1_SPI_UART.c ****     *******************************************************************************/
  70:.\Generated_Source\PSoC4/SPI_1_SPI_UART.c ****     uint32 SPI_1_SpiUartReadRxData(void)
  71:.\Generated_Source\PSoC4/SPI_1_SPI_UART.c ****     {
  26              		.loc 1 71 0
  27              		.cfi_startproc
  28              	.LVL0:
  72:.\Generated_Source\PSoC4/SPI_1_SPI_UART.c ****         uint32 rxData = 0u;
  73:.\Generated_Source\PSoC4/SPI_1_SPI_UART.c **** 
  74:.\Generated_Source\PSoC4/SPI_1_SPI_UART.c ****         #if(SPI_1_INTERNAL_RX_SW_BUFFER_CONST)
  75:.\Generated_Source\PSoC4/SPI_1_SPI_UART.c ****             uint32 locTail;
  76:.\Generated_Source\PSoC4/SPI_1_SPI_UART.c ****         #endif /* (SPI_1_INTERNAL_RX_SW_BUFFER_CONST) */
  77:.\Generated_Source\PSoC4/SPI_1_SPI_UART.c **** 
  78:.\Generated_Source\PSoC4/SPI_1_SPI_UART.c ****         #if(SPI_1_CHECK_RX_SW_BUFFER)
  79:.\Generated_Source\PSoC4/SPI_1_SPI_UART.c ****         {
  80:.\Generated_Source\PSoC4/SPI_1_SPI_UART.c ****             if(SPI_1_rxBufferHead != SPI_1_rxBufferTail)
  81:.\Generated_Source\PSoC4/SPI_1_SPI_UART.c ****             {
  82:.\Generated_Source\PSoC4/SPI_1_SPI_UART.c ****                 /* There is data in RX software buffer */
  83:.\Generated_Source\PSoC4/SPI_1_SPI_UART.c **** 
  84:.\Generated_Source\PSoC4/SPI_1_SPI_UART.c ****                 /* Calculate index to read from */
  85:.\Generated_Source\PSoC4/SPI_1_SPI_UART.c ****                 locTail = (SPI_1_rxBufferTail + 1u);
  86:.\Generated_Source\PSoC4/SPI_1_SPI_UART.c **** 
ARM GAS  C:\Users\Jarik\AppData\Local\Temp\ccZZ3a7D.s 			page 3


  87:.\Generated_Source\PSoC4/SPI_1_SPI_UART.c ****                 if(SPI_1_RX_BUFFER_SIZE == locTail)
  88:.\Generated_Source\PSoC4/SPI_1_SPI_UART.c ****                 {
  89:.\Generated_Source\PSoC4/SPI_1_SPI_UART.c ****                     locTail = 0u;
  90:.\Generated_Source\PSoC4/SPI_1_SPI_UART.c ****                 }
  91:.\Generated_Source\PSoC4/SPI_1_SPI_UART.c **** 
  92:.\Generated_Source\PSoC4/SPI_1_SPI_UART.c ****                 /* Get data from RX software buffer */
  93:.\Generated_Source\PSoC4/SPI_1_SPI_UART.c ****                 rxData = SPI_1_GetWordFromRxBuffer(locTail);
  94:.\Generated_Source\PSoC4/SPI_1_SPI_UART.c **** 
  95:.\Generated_Source\PSoC4/SPI_1_SPI_UART.c ****                 /* Change index in the buffer */
  96:.\Generated_Source\PSoC4/SPI_1_SPI_UART.c ****                 SPI_1_rxBufferTail = locTail;
  97:.\Generated_Source\PSoC4/SPI_1_SPI_UART.c ****             }
  98:.\Generated_Source\PSoC4/SPI_1_SPI_UART.c ****         }
  99:.\Generated_Source\PSoC4/SPI_1_SPI_UART.c ****         #else
 100:.\Generated_Source\PSoC4/SPI_1_SPI_UART.c ****         {
 101:.\Generated_Source\PSoC4/SPI_1_SPI_UART.c ****             rxData = SPI_1_RX_FIFO_RD_REG; /* Read data from RX FIFO */
  29              		.loc 1 101 0
  30 0000 014B     		ldr	r3, .L2
  31 0002 1868     		ldr	r0, [r3]
  32              	.LVL1:
 102:.\Generated_Source\PSoC4/SPI_1_SPI_UART.c ****         }
 103:.\Generated_Source\PSoC4/SPI_1_SPI_UART.c ****         #endif
 104:.\Generated_Source\PSoC4/SPI_1_SPI_UART.c **** 
 105:.\Generated_Source\PSoC4/SPI_1_SPI_UART.c ****         return(rxData);
 106:.\Generated_Source\PSoC4/SPI_1_SPI_UART.c ****     }
  33              		.loc 1 106 0
  34              		@ sp needed
  35 0004 7047     		bx	lr
  36              	.L3:
  37 0006 C046     		.align	2
  38              	.L2:
  39 0008 40030640 		.word	1074135872
  40              		.cfi_endproc
  41              	.LFE0:
  42              		.size	SPI_1_SpiUartReadRxData, .-SPI_1_SpiUartReadRxData
  43              		.section	.text.SPI_1_SpiUartGetRxBufferSize,"ax",%progbits
  44              		.align	2
  45              		.global	SPI_1_SpiUartGetRxBufferSize
  46              		.code	16
  47              		.thumb_func
  48              		.type	SPI_1_SpiUartGetRxBufferSize, %function
  49              	SPI_1_SpiUartGetRxBufferSize:
  50              	.LFB1:
 107:.\Generated_Source\PSoC4/SPI_1_SPI_UART.c **** 
 108:.\Generated_Source\PSoC4/SPI_1_SPI_UART.c **** 
 109:.\Generated_Source\PSoC4/SPI_1_SPI_UART.c ****     /*******************************************************************************
 110:.\Generated_Source\PSoC4/SPI_1_SPI_UART.c ****     * Function Name: SPI_1_SpiUartGetRxBufferSize
 111:.\Generated_Source\PSoC4/SPI_1_SPI_UART.c ****     ********************************************************************************
 112:.\Generated_Source\PSoC4/SPI_1_SPI_UART.c ****     *
 113:.\Generated_Source\PSoC4/SPI_1_SPI_UART.c ****     * Summary:
 114:.\Generated_Source\PSoC4/SPI_1_SPI_UART.c ****     *  Returns the number of received data elements in the receive buffer.
 115:.\Generated_Source\PSoC4/SPI_1_SPI_UART.c ****     *   - RX software buffer disabled: returns the number of used entries in
 116:.\Generated_Source\PSoC4/SPI_1_SPI_UART.c ****     *     RX FIFO.
 117:.\Generated_Source\PSoC4/SPI_1_SPI_UART.c ****     *   - RX software buffer enabled: returns the number of elements which were
 118:.\Generated_Source\PSoC4/SPI_1_SPI_UART.c ****     *     placed in the receive buffer. This does not include the hardware RX FIFO.
 119:.\Generated_Source\PSoC4/SPI_1_SPI_UART.c ****     *
 120:.\Generated_Source\PSoC4/SPI_1_SPI_UART.c ****     * Parameters:
 121:.\Generated_Source\PSoC4/SPI_1_SPI_UART.c ****     *  None
ARM GAS  C:\Users\Jarik\AppData\Local\Temp\ccZZ3a7D.s 			page 4


 122:.\Generated_Source\PSoC4/SPI_1_SPI_UART.c ****     *
 123:.\Generated_Source\PSoC4/SPI_1_SPI_UART.c ****     * Return:
 124:.\Generated_Source\PSoC4/SPI_1_SPI_UART.c ****     *  Number of received data elements
 125:.\Generated_Source\PSoC4/SPI_1_SPI_UART.c ****     *
 126:.\Generated_Source\PSoC4/SPI_1_SPI_UART.c ****     *******************************************************************************/
 127:.\Generated_Source\PSoC4/SPI_1_SPI_UART.c ****     uint32 SPI_1_SpiUartGetRxBufferSize(void)
 128:.\Generated_Source\PSoC4/SPI_1_SPI_UART.c ****     {
  51              		.loc 1 128 0
  52              		.cfi_startproc
 129:.\Generated_Source\PSoC4/SPI_1_SPI_UART.c ****         uint32 size;
 130:.\Generated_Source\PSoC4/SPI_1_SPI_UART.c ****         #if(SPI_1_INTERNAL_RX_SW_BUFFER_CONST)
 131:.\Generated_Source\PSoC4/SPI_1_SPI_UART.c ****             uint32 locHead;
 132:.\Generated_Source\PSoC4/SPI_1_SPI_UART.c ****         #endif /* (SPI_1_INTERNAL_RX_SW_BUFFER_CONST) */
 133:.\Generated_Source\PSoC4/SPI_1_SPI_UART.c **** 
 134:.\Generated_Source\PSoC4/SPI_1_SPI_UART.c ****         #if(SPI_1_CHECK_RX_SW_BUFFER)
 135:.\Generated_Source\PSoC4/SPI_1_SPI_UART.c ****         {
 136:.\Generated_Source\PSoC4/SPI_1_SPI_UART.c ****             locHead = SPI_1_rxBufferHead;
 137:.\Generated_Source\PSoC4/SPI_1_SPI_UART.c **** 
 138:.\Generated_Source\PSoC4/SPI_1_SPI_UART.c ****             if(locHead >= SPI_1_rxBufferTail)
 139:.\Generated_Source\PSoC4/SPI_1_SPI_UART.c ****             {
 140:.\Generated_Source\PSoC4/SPI_1_SPI_UART.c ****                 size = (locHead - SPI_1_rxBufferTail);
 141:.\Generated_Source\PSoC4/SPI_1_SPI_UART.c ****             }
 142:.\Generated_Source\PSoC4/SPI_1_SPI_UART.c ****             else
 143:.\Generated_Source\PSoC4/SPI_1_SPI_UART.c ****             {
 144:.\Generated_Source\PSoC4/SPI_1_SPI_UART.c ****                 size = (locHead + (SPI_1_RX_BUFFER_SIZE - SPI_1_rxBufferTail));
 145:.\Generated_Source\PSoC4/SPI_1_SPI_UART.c ****             }
 146:.\Generated_Source\PSoC4/SPI_1_SPI_UART.c ****         }
 147:.\Generated_Source\PSoC4/SPI_1_SPI_UART.c ****         #else
 148:.\Generated_Source\PSoC4/SPI_1_SPI_UART.c ****         {
 149:.\Generated_Source\PSoC4/SPI_1_SPI_UART.c ****             size = SPI_1_GET_RX_FIFO_ENTRIES;
  53              		.loc 1 149 0
  54 0000 024B     		ldr	r3, .L5
  55 0002 1B68     		ldr	r3, [r3]
  56 0004 0F20     		mov	r0, #15
  57 0006 1840     		and	r0, r3
  58              	.LVL2:
 150:.\Generated_Source\PSoC4/SPI_1_SPI_UART.c ****         }
 151:.\Generated_Source\PSoC4/SPI_1_SPI_UART.c ****         #endif
 152:.\Generated_Source\PSoC4/SPI_1_SPI_UART.c **** 
 153:.\Generated_Source\PSoC4/SPI_1_SPI_UART.c ****         return(size);
 154:.\Generated_Source\PSoC4/SPI_1_SPI_UART.c ****     }
  59              		.loc 1 154 0
  60              		@ sp needed
  61 0008 7047     		bx	lr
  62              	.L6:
  63 000a C046     		.align	2
  64              	.L5:
  65 000c 08030640 		.word	1074135816
  66              		.cfi_endproc
  67              	.LFE1:
  68              		.size	SPI_1_SpiUartGetRxBufferSize, .-SPI_1_SpiUartGetRxBufferSize
  69              		.section	.text.SPI_1_SpiUartClearRxBuffer,"ax",%progbits
  70              		.align	2
  71              		.global	SPI_1_SpiUartClearRxBuffer
  72              		.code	16
  73              		.thumb_func
  74              		.type	SPI_1_SpiUartClearRxBuffer, %function
ARM GAS  C:\Users\Jarik\AppData\Local\Temp\ccZZ3a7D.s 			page 5


  75              	SPI_1_SpiUartClearRxBuffer:
  76              	.LFB2:
 155:.\Generated_Source\PSoC4/SPI_1_SPI_UART.c **** 
 156:.\Generated_Source\PSoC4/SPI_1_SPI_UART.c **** 
 157:.\Generated_Source\PSoC4/SPI_1_SPI_UART.c ****     /*******************************************************************************
 158:.\Generated_Source\PSoC4/SPI_1_SPI_UART.c ****     * Function Name: SPI_1_SpiUartClearRxBuffer
 159:.\Generated_Source\PSoC4/SPI_1_SPI_UART.c ****     ********************************************************************************
 160:.\Generated_Source\PSoC4/SPI_1_SPI_UART.c ****     *
 161:.\Generated_Source\PSoC4/SPI_1_SPI_UART.c ****     * Summary:
 162:.\Generated_Source\PSoC4/SPI_1_SPI_UART.c ****     *  Clears the receive buffer and RX FIFO.
 163:.\Generated_Source\PSoC4/SPI_1_SPI_UART.c ****     *
 164:.\Generated_Source\PSoC4/SPI_1_SPI_UART.c ****     * Parameters:
 165:.\Generated_Source\PSoC4/SPI_1_SPI_UART.c ****     *  None
 166:.\Generated_Source\PSoC4/SPI_1_SPI_UART.c ****     *
 167:.\Generated_Source\PSoC4/SPI_1_SPI_UART.c ****     * Return:
 168:.\Generated_Source\PSoC4/SPI_1_SPI_UART.c ****     *  None
 169:.\Generated_Source\PSoC4/SPI_1_SPI_UART.c ****     *
 170:.\Generated_Source\PSoC4/SPI_1_SPI_UART.c ****     *******************************************************************************/
 171:.\Generated_Source\PSoC4/SPI_1_SPI_UART.c ****     void SPI_1_SpiUartClearRxBuffer(void)
 172:.\Generated_Source\PSoC4/SPI_1_SPI_UART.c ****     {
  77              		.loc 1 172 0
  78              		.cfi_startproc
 173:.\Generated_Source\PSoC4/SPI_1_SPI_UART.c ****         #if(SPI_1_INTERNAL_RX_SW_BUFFER_CONST)
 174:.\Generated_Source\PSoC4/SPI_1_SPI_UART.c ****             uint32 intSourceMask;
 175:.\Generated_Source\PSoC4/SPI_1_SPI_UART.c ****         #endif /* (SPI_1_INTERNAL_RX_SW_BUFFER_CONST) */
 176:.\Generated_Source\PSoC4/SPI_1_SPI_UART.c **** 
 177:.\Generated_Source\PSoC4/SPI_1_SPI_UART.c ****         #if(SPI_1_CHECK_RX_SW_BUFFER)
 178:.\Generated_Source\PSoC4/SPI_1_SPI_UART.c ****         {
 179:.\Generated_Source\PSoC4/SPI_1_SPI_UART.c ****             intSourceMask = SPI_1_SpiUartDisableIntRx();
 180:.\Generated_Source\PSoC4/SPI_1_SPI_UART.c **** 
 181:.\Generated_Source\PSoC4/SPI_1_SPI_UART.c ****             SPI_1_CLEAR_RX_FIFO;
 182:.\Generated_Source\PSoC4/SPI_1_SPI_UART.c **** 
 183:.\Generated_Source\PSoC4/SPI_1_SPI_UART.c ****             /* Flush RX software buffer */
 184:.\Generated_Source\PSoC4/SPI_1_SPI_UART.c ****             SPI_1_rxBufferHead     = SPI_1_rxBufferTail;
 185:.\Generated_Source\PSoC4/SPI_1_SPI_UART.c ****             SPI_1_rxBufferOverflow = 0u;
 186:.\Generated_Source\PSoC4/SPI_1_SPI_UART.c **** 
 187:.\Generated_Source\PSoC4/SPI_1_SPI_UART.c ****             /* End RX transfer */
 188:.\Generated_Source\PSoC4/SPI_1_SPI_UART.c ****             SPI_1_ClearRxInterruptSource(SPI_1_INTR_RX_ALL);
 189:.\Generated_Source\PSoC4/SPI_1_SPI_UART.c **** 
 190:.\Generated_Source\PSoC4/SPI_1_SPI_UART.c ****             SPI_1_SpiUartEnableIntRx(intSourceMask);
 191:.\Generated_Source\PSoC4/SPI_1_SPI_UART.c ****         }
 192:.\Generated_Source\PSoC4/SPI_1_SPI_UART.c ****         #else
 193:.\Generated_Source\PSoC4/SPI_1_SPI_UART.c ****         {
 194:.\Generated_Source\PSoC4/SPI_1_SPI_UART.c ****             SPI_1_CLEAR_RX_FIFO;
  79              		.loc 1 194 0
  80 0000 054B     		ldr	r3, .L8
  81 0002 1968     		ldr	r1, [r3]
  82 0004 8022     		mov	r2, #128
  83 0006 5202     		lsl	r2, r2, #9
  84 0008 0A43     		orr	r2, r1
  85 000a 1A60     		str	r2, [r3]
  86 000c 1968     		ldr	r1, [r3]
  87 000e 034A     		ldr	r2, .L8+4
  88 0010 0A40     		and	r2, r1
  89 0012 1A60     		str	r2, [r3]
 195:.\Generated_Source\PSoC4/SPI_1_SPI_UART.c ****         }
 196:.\Generated_Source\PSoC4/SPI_1_SPI_UART.c ****         #endif
ARM GAS  C:\Users\Jarik\AppData\Local\Temp\ccZZ3a7D.s 			page 6


 197:.\Generated_Source\PSoC4/SPI_1_SPI_UART.c ****     }
  90              		.loc 1 197 0
  91              		@ sp needed
  92 0014 7047     		bx	lr
  93              	.L9:
  94 0016 C046     		.align	2
  95              	.L8:
  96 0018 04030640 		.word	1074135812
  97 001c FFFFFEFF 		.word	-65537
  98              		.cfi_endproc
  99              	.LFE2:
 100              		.size	SPI_1_SpiUartClearRxBuffer, .-SPI_1_SpiUartClearRxBuffer
 101              		.section	.text.SPI_1_SpiUartWriteTxData,"ax",%progbits
 102              		.align	2
 103              		.global	SPI_1_SpiUartWriteTxData
 104              		.code	16
 105              		.thumb_func
 106              		.type	SPI_1_SpiUartWriteTxData, %function
 107              	SPI_1_SpiUartWriteTxData:
 108              	.LFB3:
 198:.\Generated_Source\PSoC4/SPI_1_SPI_UART.c **** 
 199:.\Generated_Source\PSoC4/SPI_1_SPI_UART.c **** #endif /* (SPI_1_RX_DIRECTION) */
 200:.\Generated_Source\PSoC4/SPI_1_SPI_UART.c **** 
 201:.\Generated_Source\PSoC4/SPI_1_SPI_UART.c **** 
 202:.\Generated_Source\PSoC4/SPI_1_SPI_UART.c **** #if(SPI_1_TX_DIRECTION)
 203:.\Generated_Source\PSoC4/SPI_1_SPI_UART.c **** 
 204:.\Generated_Source\PSoC4/SPI_1_SPI_UART.c ****     /*******************************************************************************
 205:.\Generated_Source\PSoC4/SPI_1_SPI_UART.c ****     * Function Name: SPI_1_SpiUartWriteTxData
 206:.\Generated_Source\PSoC4/SPI_1_SPI_UART.c ****     ********************************************************************************
 207:.\Generated_Source\PSoC4/SPI_1_SPI_UART.c ****     *
 208:.\Generated_Source\PSoC4/SPI_1_SPI_UART.c ****     * Summary:
 209:.\Generated_Source\PSoC4/SPI_1_SPI_UART.c ****     *  Places a data entry into the transmit buffer to be sent at the next available
 210:.\Generated_Source\PSoC4/SPI_1_SPI_UART.c ****     *  bus time.
 211:.\Generated_Source\PSoC4/SPI_1_SPI_UART.c ****     *  This function is blocking and waits until there is space available to put the
 212:.\Generated_Source\PSoC4/SPI_1_SPI_UART.c ****     *  requested data in the transmit buffer.
 213:.\Generated_Source\PSoC4/SPI_1_SPI_UART.c ****     *
 214:.\Generated_Source\PSoC4/SPI_1_SPI_UART.c ****     * Parameters:
 215:.\Generated_Source\PSoC4/SPI_1_SPI_UART.c ****     *  txDataByte: the data to be transmitted.
 216:.\Generated_Source\PSoC4/SPI_1_SPI_UART.c ****     *
 217:.\Generated_Source\PSoC4/SPI_1_SPI_UART.c ****     * Return:
 218:.\Generated_Source\PSoC4/SPI_1_SPI_UART.c ****     *  None
 219:.\Generated_Source\PSoC4/SPI_1_SPI_UART.c ****     *
 220:.\Generated_Source\PSoC4/SPI_1_SPI_UART.c ****     *******************************************************************************/
 221:.\Generated_Source\PSoC4/SPI_1_SPI_UART.c ****     void SPI_1_SpiUartWriteTxData(uint32 txData)
 222:.\Generated_Source\PSoC4/SPI_1_SPI_UART.c ****     {
 109              		.loc 1 222 0
 110              		.cfi_startproc
 111              	.LVL3:
 223:.\Generated_Source\PSoC4/SPI_1_SPI_UART.c ****         #if(SPI_1_INTERNAL_TX_SW_BUFFER_CONST)
 224:.\Generated_Source\PSoC4/SPI_1_SPI_UART.c ****             uint32 locHead;
 225:.\Generated_Source\PSoC4/SPI_1_SPI_UART.c ****             uint32 intSourceMask;
 226:.\Generated_Source\PSoC4/SPI_1_SPI_UART.c ****         #endif /* (SPI_1_INTERNAL_TX_SW_BUFFER_CONST) */
 227:.\Generated_Source\PSoC4/SPI_1_SPI_UART.c **** 
 228:.\Generated_Source\PSoC4/SPI_1_SPI_UART.c ****         #if(SPI_1_CHECK_TX_SW_BUFFER)
 229:.\Generated_Source\PSoC4/SPI_1_SPI_UART.c ****         {
 230:.\Generated_Source\PSoC4/SPI_1_SPI_UART.c ****             /* Head index to put data */
 231:.\Generated_Source\PSoC4/SPI_1_SPI_UART.c ****             locHead = (SPI_1_txBufferHead + 1u);
ARM GAS  C:\Users\Jarik\AppData\Local\Temp\ccZZ3a7D.s 			page 7


 232:.\Generated_Source\PSoC4/SPI_1_SPI_UART.c **** 
 233:.\Generated_Source\PSoC4/SPI_1_SPI_UART.c ****             /* Adjust TX software buffer index */
 234:.\Generated_Source\PSoC4/SPI_1_SPI_UART.c ****             if(SPI_1_TX_BUFFER_SIZE == locHead)
 235:.\Generated_Source\PSoC4/SPI_1_SPI_UART.c ****             {
 236:.\Generated_Source\PSoC4/SPI_1_SPI_UART.c ****                 locHead = 0u;
 237:.\Generated_Source\PSoC4/SPI_1_SPI_UART.c ****             }
 238:.\Generated_Source\PSoC4/SPI_1_SPI_UART.c **** 
 239:.\Generated_Source\PSoC4/SPI_1_SPI_UART.c ****             while(locHead == SPI_1_txBufferTail)
 240:.\Generated_Source\PSoC4/SPI_1_SPI_UART.c ****             {
 241:.\Generated_Source\PSoC4/SPI_1_SPI_UART.c ****                 /* Wait for space in TX software buffer */
 242:.\Generated_Source\PSoC4/SPI_1_SPI_UART.c ****             }
 243:.\Generated_Source\PSoC4/SPI_1_SPI_UART.c **** 
 244:.\Generated_Source\PSoC4/SPI_1_SPI_UART.c ****             /* TX software buffer has at least one room */
 245:.\Generated_Source\PSoC4/SPI_1_SPI_UART.c **** 
 246:.\Generated_Source\PSoC4/SPI_1_SPI_UART.c ****             if((SPI_1_txBufferHead == SPI_1_txBufferTail) &&
 247:.\Generated_Source\PSoC4/SPI_1_SPI_UART.c ****                (SPI_1_SPI_UART_FIFO_SIZE != SPI_1_GET_TX_FIFO_ENTRIES))
 248:.\Generated_Source\PSoC4/SPI_1_SPI_UART.c ****             {
 249:.\Generated_Source\PSoC4/SPI_1_SPI_UART.c ****                 /* TX software buffer is empty: put data directly in TX FIFO */
 250:.\Generated_Source\PSoC4/SPI_1_SPI_UART.c ****                 SPI_1_TX_FIFO_WR_REG = txData;
 251:.\Generated_Source\PSoC4/SPI_1_SPI_UART.c ****             }
 252:.\Generated_Source\PSoC4/SPI_1_SPI_UART.c ****             /* Put data in TX software buffer */
 253:.\Generated_Source\PSoC4/SPI_1_SPI_UART.c ****             else
 254:.\Generated_Source\PSoC4/SPI_1_SPI_UART.c ****             {
 255:.\Generated_Source\PSoC4/SPI_1_SPI_UART.c ****                 /* Clear old status of INTR_TX_NOT_FULL. It sets at the end of transfer when TX FIF
 256:.\Generated_Source\PSoC4/SPI_1_SPI_UART.c ****                 SPI_1_ClearTxInterruptSource(SPI_1_INTR_TX_NOT_FULL);
 257:.\Generated_Source\PSoC4/SPI_1_SPI_UART.c **** 
 258:.\Generated_Source\PSoC4/SPI_1_SPI_UART.c ****                 SPI_1_PutWordInTxBuffer(locHead, txData);
 259:.\Generated_Source\PSoC4/SPI_1_SPI_UART.c **** 
 260:.\Generated_Source\PSoC4/SPI_1_SPI_UART.c ****                 SPI_1_txBufferHead = locHead;
 261:.\Generated_Source\PSoC4/SPI_1_SPI_UART.c **** 
 262:.\Generated_Source\PSoC4/SPI_1_SPI_UART.c ****                 /* Enable interrupt to transmit */
 263:.\Generated_Source\PSoC4/SPI_1_SPI_UART.c ****                 intSourceMask  = SPI_1_INTR_TX_NOT_FULL;
 264:.\Generated_Source\PSoC4/SPI_1_SPI_UART.c ****                 intSourceMask |= SPI_1_GetTxInterruptMode();
 265:.\Generated_Source\PSoC4/SPI_1_SPI_UART.c ****                 SPI_1_SpiUartEnableIntTx(intSourceMask);
 266:.\Generated_Source\PSoC4/SPI_1_SPI_UART.c ****             }
 267:.\Generated_Source\PSoC4/SPI_1_SPI_UART.c ****         }
 268:.\Generated_Source\PSoC4/SPI_1_SPI_UART.c ****         #else
 269:.\Generated_Source\PSoC4/SPI_1_SPI_UART.c ****         {
 270:.\Generated_Source\PSoC4/SPI_1_SPI_UART.c ****             while(SPI_1_SPI_UART_FIFO_SIZE == SPI_1_GET_TX_FIFO_ENTRIES)
 112              		.loc 1 270 0
 113 0000 0449     		ldr	r1, .L13
 114 0002 0F22     		mov	r2, #15
 115              	.L11:
 116              		.loc 1 270 0 is_stmt 0 discriminator 1
 117 0004 0B68     		ldr	r3, [r1]
 118 0006 1340     		and	r3, r2
 119 0008 082B     		cmp	r3, #8
 120 000a FBD0     		beq	.L11
 271:.\Generated_Source\PSoC4/SPI_1_SPI_UART.c ****             {
 272:.\Generated_Source\PSoC4/SPI_1_SPI_UART.c ****                 /* Block while TX FIFO is FULL */
 273:.\Generated_Source\PSoC4/SPI_1_SPI_UART.c ****             }
 274:.\Generated_Source\PSoC4/SPI_1_SPI_UART.c **** 
 275:.\Generated_Source\PSoC4/SPI_1_SPI_UART.c ****             SPI_1_TX_FIFO_WR_REG = txData;
 121              		.loc 1 275 0 is_stmt 1
 122 000c 024B     		ldr	r3, .L13+4
 123 000e 1860     		str	r0, [r3]
 276:.\Generated_Source\PSoC4/SPI_1_SPI_UART.c ****         }
ARM GAS  C:\Users\Jarik\AppData\Local\Temp\ccZZ3a7D.s 			page 8


 277:.\Generated_Source\PSoC4/SPI_1_SPI_UART.c ****         #endif
 278:.\Generated_Source\PSoC4/SPI_1_SPI_UART.c ****     }
 124              		.loc 1 278 0
 125              		@ sp needed
 126 0010 7047     		bx	lr
 127              	.L14:
 128 0012 C046     		.align	2
 129              	.L13:
 130 0014 08020640 		.word	1074135560
 131 0018 40020640 		.word	1074135616
 132              		.cfi_endproc
 133              	.LFE3:
 134              		.size	SPI_1_SpiUartWriteTxData, .-SPI_1_SpiUartWriteTxData
 135              		.section	.text.SPI_1_SpiUartPutArray,"ax",%progbits
 136              		.align	2
 137              		.global	SPI_1_SpiUartPutArray
 138              		.code	16
 139              		.thumb_func
 140              		.type	SPI_1_SpiUartPutArray, %function
 141              	SPI_1_SpiUartPutArray:
 142              	.LFB4:
 279:.\Generated_Source\PSoC4/SPI_1_SPI_UART.c **** 
 280:.\Generated_Source\PSoC4/SPI_1_SPI_UART.c **** 
 281:.\Generated_Source\PSoC4/SPI_1_SPI_UART.c ****     /*******************************************************************************
 282:.\Generated_Source\PSoC4/SPI_1_SPI_UART.c ****     * Function Name: SPI_1_SpiUartPutArray
 283:.\Generated_Source\PSoC4/SPI_1_SPI_UART.c ****     ********************************************************************************
 284:.\Generated_Source\PSoC4/SPI_1_SPI_UART.c ****     *
 285:.\Generated_Source\PSoC4/SPI_1_SPI_UART.c ****     * Summary:
 286:.\Generated_Source\PSoC4/SPI_1_SPI_UART.c ****     *  Places an array of data into the transmit buffer to be sent.
 287:.\Generated_Source\PSoC4/SPI_1_SPI_UART.c ****     *  This function is blocking and waits until there is a space available to put
 288:.\Generated_Source\PSoC4/SPI_1_SPI_UART.c ****     *  all the requested data in the transmit buffer. The array size can be greater
 289:.\Generated_Source\PSoC4/SPI_1_SPI_UART.c ****     *  than transmit buffer size.
 290:.\Generated_Source\PSoC4/SPI_1_SPI_UART.c ****     *
 291:.\Generated_Source\PSoC4/SPI_1_SPI_UART.c ****     * Parameters:
 292:.\Generated_Source\PSoC4/SPI_1_SPI_UART.c ****     *  wrBuf:  pointer to an array with data to be placed in transmit buffer.
 293:.\Generated_Source\PSoC4/SPI_1_SPI_UART.c ****     *  count:  number of data elements to be placed in the transmit buffer.
 294:.\Generated_Source\PSoC4/SPI_1_SPI_UART.c ****     *
 295:.\Generated_Source\PSoC4/SPI_1_SPI_UART.c ****     * Return:
 296:.\Generated_Source\PSoC4/SPI_1_SPI_UART.c ****     *  None
 297:.\Generated_Source\PSoC4/SPI_1_SPI_UART.c ****     *
 298:.\Generated_Source\PSoC4/SPI_1_SPI_UART.c ****     *******************************************************************************/
 299:.\Generated_Source\PSoC4/SPI_1_SPI_UART.c ****     void SPI_1_SpiUartPutArray(const uint8 wrBuf[], uint32 count)
 300:.\Generated_Source\PSoC4/SPI_1_SPI_UART.c ****     {
 143              		.loc 1 300 0
 144              		.cfi_startproc
 145              	.LVL4:
 146 0000 70B5     		push	{r4, r5, r6, lr}
 147              		.cfi_def_cfa_offset 16
 148              		.cfi_offset 4, -16
 149              		.cfi_offset 5, -12
 150              		.cfi_offset 6, -8
 151              		.cfi_offset 14, -4
 152 0002 061C     		mov	r6, r0
 153 0004 0D1C     		mov	r5, r1
 154              	.LVL5:
 301:.\Generated_Source\PSoC4/SPI_1_SPI_UART.c ****         uint32 i;
 302:.\Generated_Source\PSoC4/SPI_1_SPI_UART.c **** 
ARM GAS  C:\Users\Jarik\AppData\Local\Temp\ccZZ3a7D.s 			page 9


 303:.\Generated_Source\PSoC4/SPI_1_SPI_UART.c ****         for(i=0u; i < count; i++)
 155              		.loc 1 303 0
 156 0006 0024     		mov	r4, #0
 157 0008 03E0     		b	.L16
 158              	.LVL6:
 159              	.L17:
 304:.\Generated_Source\PSoC4/SPI_1_SPI_UART.c ****         {
 305:.\Generated_Source\PSoC4/SPI_1_SPI_UART.c ****             SPI_1_SpiUartWriteTxData((uint32) wrBuf[i]);
 160              		.loc 1 305 0 discriminator 2
 161 000a 305D     		ldrb	r0, [r6, r4]
 162 000c FFF7FEFF 		bl	SPI_1_SpiUartWriteTxData
 163              	.LVL7:
 303:.\Generated_Source\PSoC4/SPI_1_SPI_UART.c ****         for(i=0u; i < count; i++)
 164              		.loc 1 303 0 discriminator 2
 165 0010 0134     		add	r4, r4, #1
 166              	.LVL8:
 167              	.L16:
 303:.\Generated_Source\PSoC4/SPI_1_SPI_UART.c ****         for(i=0u; i < count; i++)
 168              		.loc 1 303 0 is_stmt 0 discriminator 1
 169 0012 AC42     		cmp	r4, r5
 170 0014 F9D3     		bcc	.L17
 306:.\Generated_Source\PSoC4/SPI_1_SPI_UART.c ****         }
 307:.\Generated_Source\PSoC4/SPI_1_SPI_UART.c ****     }
 171              		.loc 1 307 0 is_stmt 1
 172              		@ sp needed
 173              	.LVL9:
 174              	.LVL10:
 175              	.LVL11:
 176 0016 70BD     		pop	{r4, r5, r6, pc}
 177              		.cfi_endproc
 178              	.LFE4:
 179              		.size	SPI_1_SpiUartPutArray, .-SPI_1_SpiUartPutArray
 180              		.section	.text.SPI_1_SpiUartGetTxBufferSize,"ax",%progbits
 181              		.align	2
 182              		.global	SPI_1_SpiUartGetTxBufferSize
 183              		.code	16
 184              		.thumb_func
 185              		.type	SPI_1_SpiUartGetTxBufferSize, %function
 186              	SPI_1_SpiUartGetTxBufferSize:
 187              	.LFB5:
 308:.\Generated_Source\PSoC4/SPI_1_SPI_UART.c **** 
 309:.\Generated_Source\PSoC4/SPI_1_SPI_UART.c **** 
 310:.\Generated_Source\PSoC4/SPI_1_SPI_UART.c ****     /*******************************************************************************
 311:.\Generated_Source\PSoC4/SPI_1_SPI_UART.c ****     * Function Name: SPI_1_SpiUartGetTxBufferSize
 312:.\Generated_Source\PSoC4/SPI_1_SPI_UART.c ****     ********************************************************************************
 313:.\Generated_Source\PSoC4/SPI_1_SPI_UART.c ****     *
 314:.\Generated_Source\PSoC4/SPI_1_SPI_UART.c ****     * Summary:
 315:.\Generated_Source\PSoC4/SPI_1_SPI_UART.c ****     * Returns the number of elements currently in the transmit buffer.
 316:.\Generated_Source\PSoC4/SPI_1_SPI_UART.c ****     *  - TX software buffer is disabled: returns the number of used entries in
 317:.\Generated_Source\PSoC4/SPI_1_SPI_UART.c ****     *    TX FIFO.
 318:.\Generated_Source\PSoC4/SPI_1_SPI_UART.c ****     *  - TX software buffer is enabled: returns the number of elements currently
 319:.\Generated_Source\PSoC4/SPI_1_SPI_UART.c ****     *    used in the transmit buffer. This number does not include used entries in
 320:.\Generated_Source\PSoC4/SPI_1_SPI_UART.c ****     *    the TX FIFO. The transmit buffer size is zero until the TX FIFO is
 321:.\Generated_Source\PSoC4/SPI_1_SPI_UART.c ****     *    not full.
 322:.\Generated_Source\PSoC4/SPI_1_SPI_UART.c ****     *
 323:.\Generated_Source\PSoC4/SPI_1_SPI_UART.c ****     * Parameters:
 324:.\Generated_Source\PSoC4/SPI_1_SPI_UART.c ****     *  None
ARM GAS  C:\Users\Jarik\AppData\Local\Temp\ccZZ3a7D.s 			page 10


 325:.\Generated_Source\PSoC4/SPI_1_SPI_UART.c ****     *
 326:.\Generated_Source\PSoC4/SPI_1_SPI_UART.c ****     * Return:
 327:.\Generated_Source\PSoC4/SPI_1_SPI_UART.c ****     *  Number of data elements ready to transmit.
 328:.\Generated_Source\PSoC4/SPI_1_SPI_UART.c ****     *
 329:.\Generated_Source\PSoC4/SPI_1_SPI_UART.c ****     *******************************************************************************/
 330:.\Generated_Source\PSoC4/SPI_1_SPI_UART.c ****     uint32 SPI_1_SpiUartGetTxBufferSize(void)
 331:.\Generated_Source\PSoC4/SPI_1_SPI_UART.c ****     {
 188              		.loc 1 331 0
 189              		.cfi_startproc
 332:.\Generated_Source\PSoC4/SPI_1_SPI_UART.c ****         uint32 size;
 333:.\Generated_Source\PSoC4/SPI_1_SPI_UART.c ****         #if(SPI_1_INTERNAL_TX_SW_BUFFER_CONST)
 334:.\Generated_Source\PSoC4/SPI_1_SPI_UART.c ****             uint32 locTail;
 335:.\Generated_Source\PSoC4/SPI_1_SPI_UART.c ****         #endif /* (SPI_1_INTERNAL_TX_SW_BUFFER_CONST) */
 336:.\Generated_Source\PSoC4/SPI_1_SPI_UART.c **** 
 337:.\Generated_Source\PSoC4/SPI_1_SPI_UART.c ****         #if(SPI_1_CHECK_TX_SW_BUFFER)
 338:.\Generated_Source\PSoC4/SPI_1_SPI_UART.c ****         {
 339:.\Generated_Source\PSoC4/SPI_1_SPI_UART.c ****             /* Get current Tail index */
 340:.\Generated_Source\PSoC4/SPI_1_SPI_UART.c ****             locTail = SPI_1_txBufferTail;
 341:.\Generated_Source\PSoC4/SPI_1_SPI_UART.c **** 
 342:.\Generated_Source\PSoC4/SPI_1_SPI_UART.c ****             if(SPI_1_txBufferHead >= locTail)
 343:.\Generated_Source\PSoC4/SPI_1_SPI_UART.c ****             {
 344:.\Generated_Source\PSoC4/SPI_1_SPI_UART.c ****                 size = (SPI_1_txBufferHead - locTail);
 345:.\Generated_Source\PSoC4/SPI_1_SPI_UART.c ****             }
 346:.\Generated_Source\PSoC4/SPI_1_SPI_UART.c ****             else
 347:.\Generated_Source\PSoC4/SPI_1_SPI_UART.c ****             {
 348:.\Generated_Source\PSoC4/SPI_1_SPI_UART.c ****                 size = (SPI_1_txBufferHead + (SPI_1_TX_BUFFER_SIZE - locTail));
 349:.\Generated_Source\PSoC4/SPI_1_SPI_UART.c ****             }
 350:.\Generated_Source\PSoC4/SPI_1_SPI_UART.c ****         }
 351:.\Generated_Source\PSoC4/SPI_1_SPI_UART.c ****         #else
 352:.\Generated_Source\PSoC4/SPI_1_SPI_UART.c ****         {
 353:.\Generated_Source\PSoC4/SPI_1_SPI_UART.c ****             size = SPI_1_GET_TX_FIFO_ENTRIES;
 190              		.loc 1 353 0
 191 0000 024B     		ldr	r3, .L19
 192 0002 1B68     		ldr	r3, [r3]
 193 0004 0F20     		mov	r0, #15
 194 0006 1840     		and	r0, r3
 195              	.LVL12:
 354:.\Generated_Source\PSoC4/SPI_1_SPI_UART.c ****         }
 355:.\Generated_Source\PSoC4/SPI_1_SPI_UART.c ****         #endif
 356:.\Generated_Source\PSoC4/SPI_1_SPI_UART.c **** 
 357:.\Generated_Source\PSoC4/SPI_1_SPI_UART.c ****         return(size);
 358:.\Generated_Source\PSoC4/SPI_1_SPI_UART.c ****     }
 196              		.loc 1 358 0
 197              		@ sp needed
 198 0008 7047     		bx	lr
 199              	.L20:
 200 000a C046     		.align	2
 201              	.L19:
 202 000c 08020640 		.word	1074135560
 203              		.cfi_endproc
 204              	.LFE5:
 205              		.size	SPI_1_SpiUartGetTxBufferSize, .-SPI_1_SpiUartGetTxBufferSize
 206              		.section	.text.SPI_1_SpiUartClearTxBuffer,"ax",%progbits
 207              		.align	2
 208              		.global	SPI_1_SpiUartClearTxBuffer
 209              		.code	16
 210              		.thumb_func
ARM GAS  C:\Users\Jarik\AppData\Local\Temp\ccZZ3a7D.s 			page 11


 211              		.type	SPI_1_SpiUartClearTxBuffer, %function
 212              	SPI_1_SpiUartClearTxBuffer:
 213              	.LFB6:
 359:.\Generated_Source\PSoC4/SPI_1_SPI_UART.c **** 
 360:.\Generated_Source\PSoC4/SPI_1_SPI_UART.c **** 
 361:.\Generated_Source\PSoC4/SPI_1_SPI_UART.c ****     /*******************************************************************************
 362:.\Generated_Source\PSoC4/SPI_1_SPI_UART.c ****     * Function Name: SPI_1_SpiUartClearTxBuffer
 363:.\Generated_Source\PSoC4/SPI_1_SPI_UART.c ****     ********************************************************************************
 364:.\Generated_Source\PSoC4/SPI_1_SPI_UART.c ****     *
 365:.\Generated_Source\PSoC4/SPI_1_SPI_UART.c ****     * Summary:
 366:.\Generated_Source\PSoC4/SPI_1_SPI_UART.c ****     *  Clears the transmit buffer and TX FIFO.
 367:.\Generated_Source\PSoC4/SPI_1_SPI_UART.c ****     *
 368:.\Generated_Source\PSoC4/SPI_1_SPI_UART.c ****     * Parameters:
 369:.\Generated_Source\PSoC4/SPI_1_SPI_UART.c ****     *  None
 370:.\Generated_Source\PSoC4/SPI_1_SPI_UART.c ****     *
 371:.\Generated_Source\PSoC4/SPI_1_SPI_UART.c ****     * Return:
 372:.\Generated_Source\PSoC4/SPI_1_SPI_UART.c ****     *  None
 373:.\Generated_Source\PSoC4/SPI_1_SPI_UART.c ****     *
 374:.\Generated_Source\PSoC4/SPI_1_SPI_UART.c ****     *******************************************************************************/
 375:.\Generated_Source\PSoC4/SPI_1_SPI_UART.c ****     void SPI_1_SpiUartClearTxBuffer(void)
 376:.\Generated_Source\PSoC4/SPI_1_SPI_UART.c ****     {
 214              		.loc 1 376 0
 215              		.cfi_startproc
 377:.\Generated_Source\PSoC4/SPI_1_SPI_UART.c ****         #if(SPI_1_INTERNAL_TX_SW_BUFFER_CONST)
 378:.\Generated_Source\PSoC4/SPI_1_SPI_UART.c ****             uint32 intSourceMask;
 379:.\Generated_Source\PSoC4/SPI_1_SPI_UART.c ****         #endif /* (SPI_1_INTERNAL_TX_SW_BUFFER_CONST) */
 380:.\Generated_Source\PSoC4/SPI_1_SPI_UART.c **** 
 381:.\Generated_Source\PSoC4/SPI_1_SPI_UART.c ****         #if(SPI_1_CHECK_TX_SW_BUFFER)
 382:.\Generated_Source\PSoC4/SPI_1_SPI_UART.c ****         {
 383:.\Generated_Source\PSoC4/SPI_1_SPI_UART.c ****             intSourceMask = SPI_1_SpiUartDisableIntTx();
 384:.\Generated_Source\PSoC4/SPI_1_SPI_UART.c **** 
 385:.\Generated_Source\PSoC4/SPI_1_SPI_UART.c ****             SPI_1_CLEAR_TX_FIFO;
 386:.\Generated_Source\PSoC4/SPI_1_SPI_UART.c **** 
 387:.\Generated_Source\PSoC4/SPI_1_SPI_UART.c ****             /* Flush TX software buffer */
 388:.\Generated_Source\PSoC4/SPI_1_SPI_UART.c ****             SPI_1_txBufferHead = SPI_1_txBufferTail;
 389:.\Generated_Source\PSoC4/SPI_1_SPI_UART.c **** 
 390:.\Generated_Source\PSoC4/SPI_1_SPI_UART.c ****             /* End TX transfer if it is in progress */
 391:.\Generated_Source\PSoC4/SPI_1_SPI_UART.c ****             intSourceMask &= (uint32) ~SPI_1_INTR_TX_NOT_FULL;
 392:.\Generated_Source\PSoC4/SPI_1_SPI_UART.c **** 
 393:.\Generated_Source\PSoC4/SPI_1_SPI_UART.c ****             SPI_1_SpiUartEnableIntTx(intSourceMask);
 394:.\Generated_Source\PSoC4/SPI_1_SPI_UART.c ****         }
 395:.\Generated_Source\PSoC4/SPI_1_SPI_UART.c ****         #else
 396:.\Generated_Source\PSoC4/SPI_1_SPI_UART.c ****         {
 397:.\Generated_Source\PSoC4/SPI_1_SPI_UART.c ****             SPI_1_CLEAR_TX_FIFO;
 216              		.loc 1 397 0
 217 0000 054B     		ldr	r3, .L22
 218 0002 1968     		ldr	r1, [r3]
 219 0004 8022     		mov	r2, #128
 220 0006 5202     		lsl	r2, r2, #9
 221 0008 0A43     		orr	r2, r1
 222 000a 1A60     		str	r2, [r3]
 223 000c 1968     		ldr	r1, [r3]
 224 000e 034A     		ldr	r2, .L22+4
 225 0010 0A40     		and	r2, r1
 226 0012 1A60     		str	r2, [r3]
 398:.\Generated_Source\PSoC4/SPI_1_SPI_UART.c ****         }
 399:.\Generated_Source\PSoC4/SPI_1_SPI_UART.c ****         #endif
ARM GAS  C:\Users\Jarik\AppData\Local\Temp\ccZZ3a7D.s 			page 12


 400:.\Generated_Source\PSoC4/SPI_1_SPI_UART.c ****     }
 227              		.loc 1 400 0
 228              		@ sp needed
 229 0014 7047     		bx	lr
 230              	.L23:
 231 0016 C046     		.align	2
 232              	.L22:
 233 0018 04020640 		.word	1074135556
 234 001c FFFFFEFF 		.word	-65537
 235              		.cfi_endproc
 236              	.LFE6:
 237              		.size	SPI_1_SpiUartClearTxBuffer, .-SPI_1_SpiUartClearTxBuffer
 238              		.section	.text.SPI_1_SpiUartDisableIntRx,"ax",%progbits
 239              		.align	2
 240              		.global	SPI_1_SpiUartDisableIntRx
 241              		.code	16
 242              		.thumb_func
 243              		.type	SPI_1_SpiUartDisableIntRx, %function
 244              	SPI_1_SpiUartDisableIntRx:
 245              	.LFB7:
 401:.\Generated_Source\PSoC4/SPI_1_SPI_UART.c **** 
 402:.\Generated_Source\PSoC4/SPI_1_SPI_UART.c **** #endif /* (SPI_1_TX_DIRECTION) */
 403:.\Generated_Source\PSoC4/SPI_1_SPI_UART.c **** 
 404:.\Generated_Source\PSoC4/SPI_1_SPI_UART.c **** 
 405:.\Generated_Source\PSoC4/SPI_1_SPI_UART.c **** /*******************************************************************************
 406:.\Generated_Source\PSoC4/SPI_1_SPI_UART.c **** * Function Name: SPI_1_SpiUartDisableIntRx
 407:.\Generated_Source\PSoC4/SPI_1_SPI_UART.c **** ********************************************************************************
 408:.\Generated_Source\PSoC4/SPI_1_SPI_UART.c **** *
 409:.\Generated_Source\PSoC4/SPI_1_SPI_UART.c **** * Summary:
 410:.\Generated_Source\PSoC4/SPI_1_SPI_UART.c **** *  Disables the RX interrupt sources.
 411:.\Generated_Source\PSoC4/SPI_1_SPI_UART.c **** *
 412:.\Generated_Source\PSoC4/SPI_1_SPI_UART.c **** * Parameters:
 413:.\Generated_Source\PSoC4/SPI_1_SPI_UART.c **** *  None
 414:.\Generated_Source\PSoC4/SPI_1_SPI_UART.c **** *
 415:.\Generated_Source\PSoC4/SPI_1_SPI_UART.c **** * Return:
 416:.\Generated_Source\PSoC4/SPI_1_SPI_UART.c **** *  Returns the RX interrupt sources enabled before the function call.
 417:.\Generated_Source\PSoC4/SPI_1_SPI_UART.c **** *
 418:.\Generated_Source\PSoC4/SPI_1_SPI_UART.c **** *******************************************************************************/
 419:.\Generated_Source\PSoC4/SPI_1_SPI_UART.c **** uint32 SPI_1_SpiUartDisableIntRx(void)
 420:.\Generated_Source\PSoC4/SPI_1_SPI_UART.c **** {
 246              		.loc 1 420 0
 247              		.cfi_startproc
 421:.\Generated_Source\PSoC4/SPI_1_SPI_UART.c ****     uint32 intSource;
 422:.\Generated_Source\PSoC4/SPI_1_SPI_UART.c **** 
 423:.\Generated_Source\PSoC4/SPI_1_SPI_UART.c ****     intSource = SPI_1_GetRxInterruptMode();
 248              		.loc 1 423 0
 249 0000 024B     		ldr	r3, .L25
 250 0002 1868     		ldr	r0, [r3]
 251              	.LVL13:
 424:.\Generated_Source\PSoC4/SPI_1_SPI_UART.c **** 
 425:.\Generated_Source\PSoC4/SPI_1_SPI_UART.c ****     SPI_1_SetRxInterruptMode(SPI_1_NO_INTR_SOURCES);
 252              		.loc 1 425 0
 253 0004 0022     		mov	r2, #0
 254 0006 1A60     		str	r2, [r3]
 426:.\Generated_Source\PSoC4/SPI_1_SPI_UART.c **** 
 427:.\Generated_Source\PSoC4/SPI_1_SPI_UART.c ****     return(intSource);
 428:.\Generated_Source\PSoC4/SPI_1_SPI_UART.c **** }
ARM GAS  C:\Users\Jarik\AppData\Local\Temp\ccZZ3a7D.s 			page 13


 255              		.loc 1 428 0
 256              		@ sp needed
 257 0008 7047     		bx	lr
 258              	.L26:
 259 000a C046     		.align	2
 260              	.L25:
 261 000c C80F0640 		.word	1074139080
 262              		.cfi_endproc
 263              	.LFE7:
 264              		.size	SPI_1_SpiUartDisableIntRx, .-SPI_1_SpiUartDisableIntRx
 265              		.section	.text.SPI_1_SpiUartDisableIntTx,"ax",%progbits
 266              		.align	2
 267              		.global	SPI_1_SpiUartDisableIntTx
 268              		.code	16
 269              		.thumb_func
 270              		.type	SPI_1_SpiUartDisableIntTx, %function
 271              	SPI_1_SpiUartDisableIntTx:
 272              	.LFB8:
 429:.\Generated_Source\PSoC4/SPI_1_SPI_UART.c **** 
 430:.\Generated_Source\PSoC4/SPI_1_SPI_UART.c **** 
 431:.\Generated_Source\PSoC4/SPI_1_SPI_UART.c **** /*******************************************************************************
 432:.\Generated_Source\PSoC4/SPI_1_SPI_UART.c **** * Function Name: SPI_1_SpiUartDisableIntTx
 433:.\Generated_Source\PSoC4/SPI_1_SPI_UART.c **** ********************************************************************************
 434:.\Generated_Source\PSoC4/SPI_1_SPI_UART.c **** *
 435:.\Generated_Source\PSoC4/SPI_1_SPI_UART.c **** * Summary:
 436:.\Generated_Source\PSoC4/SPI_1_SPI_UART.c **** *  Disables TX interrupt sources.
 437:.\Generated_Source\PSoC4/SPI_1_SPI_UART.c **** *
 438:.\Generated_Source\PSoC4/SPI_1_SPI_UART.c **** * Parameters:
 439:.\Generated_Source\PSoC4/SPI_1_SPI_UART.c **** *  None
 440:.\Generated_Source\PSoC4/SPI_1_SPI_UART.c **** *
 441:.\Generated_Source\PSoC4/SPI_1_SPI_UART.c **** * Return:
 442:.\Generated_Source\PSoC4/SPI_1_SPI_UART.c **** *  Returns TX interrupt sources enabled before function call.
 443:.\Generated_Source\PSoC4/SPI_1_SPI_UART.c **** *
 444:.\Generated_Source\PSoC4/SPI_1_SPI_UART.c **** *******************************************************************************/
 445:.\Generated_Source\PSoC4/SPI_1_SPI_UART.c **** uint32 SPI_1_SpiUartDisableIntTx(void)
 446:.\Generated_Source\PSoC4/SPI_1_SPI_UART.c **** {
 273              		.loc 1 446 0
 274              		.cfi_startproc
 447:.\Generated_Source\PSoC4/SPI_1_SPI_UART.c ****     uint32 intSourceMask;
 448:.\Generated_Source\PSoC4/SPI_1_SPI_UART.c **** 
 449:.\Generated_Source\PSoC4/SPI_1_SPI_UART.c ****     intSourceMask = SPI_1_GetTxInterruptMode();
 275              		.loc 1 449 0
 276 0000 024B     		ldr	r3, .L28
 277 0002 1868     		ldr	r0, [r3]
 278              	.LVL14:
 450:.\Generated_Source\PSoC4/SPI_1_SPI_UART.c **** 
 451:.\Generated_Source\PSoC4/SPI_1_SPI_UART.c ****     SPI_1_SetTxInterruptMode(SPI_1_NO_INTR_SOURCES);
 279              		.loc 1 451 0
 280 0004 0022     		mov	r2, #0
 281 0006 1A60     		str	r2, [r3]
 452:.\Generated_Source\PSoC4/SPI_1_SPI_UART.c **** 
 453:.\Generated_Source\PSoC4/SPI_1_SPI_UART.c ****     return(intSourceMask);
 454:.\Generated_Source\PSoC4/SPI_1_SPI_UART.c **** }
 282              		.loc 1 454 0
 283              		@ sp needed
 284 0008 7047     		bx	lr
 285              	.L29:
ARM GAS  C:\Users\Jarik\AppData\Local\Temp\ccZZ3a7D.s 			page 14


 286 000a C046     		.align	2
 287              	.L28:
 288 000c 880F0640 		.word	1074139016
 289              		.cfi_endproc
 290              	.LFE8:
 291              		.size	SPI_1_SpiUartDisableIntTx, .-SPI_1_SpiUartDisableIntTx
 292              		.text
 293              	.Letext0:
 294              		.file 2 "Generated_Source\\PSoC4/cytypes.h"