ARM GAS  C:\Users\Jarik\AppData\Local\Temp\ccaqy0S0.s 			page 1


   1              		.cpu cortex-m0
   2              		.fpu softvfp
   3              		.eabi_attribute 20, 1
   4              		.eabi_attribute 21, 1
   5              		.eabi_attribute 23, 3
   6              		.eabi_attribute 24, 1
   7              		.eabi_attribute 25, 1
   8              		.eabi_attribute 26, 1
   9              		.eabi_attribute 30, 1
  10              		.eabi_attribute 34, 0
  11              		.eabi_attribute 18, 4
  12              		.code	16
  13              		.file	"STATE.c"
  14              		.text
  15              	.Ltext0:
  16              		.cfi_sections	.debug_frame
  17              		.section	.text.STATE_Read,"ax",%progbits
  18              		.align	2
  19              		.global	STATE_Read
  20              		.code	16
  21              		.thumb_func
  22              		.type	STATE_Read, %function
  23              	STATE_Read:
  24              	.LFB0:
  25              		.file 1 ".\\Generated_Source\\PSoC4\\STATE.c"
   1:.\Generated_Source\PSoC4/STATE.c **** /*******************************************************************************
   2:.\Generated_Source\PSoC4/STATE.c **** * File Name: STATE.c  
   3:.\Generated_Source\PSoC4/STATE.c **** * Version 1.80
   4:.\Generated_Source\PSoC4/STATE.c **** *
   5:.\Generated_Source\PSoC4/STATE.c **** * Description:
   6:.\Generated_Source\PSoC4/STATE.c **** *  This file contains API to enable firmware to read the value of a Status 
   7:.\Generated_Source\PSoC4/STATE.c **** *  Register.
   8:.\Generated_Source\PSoC4/STATE.c **** *
   9:.\Generated_Source\PSoC4/STATE.c **** * Note:
  10:.\Generated_Source\PSoC4/STATE.c **** *
  11:.\Generated_Source\PSoC4/STATE.c **** ********************************************************************************
  12:.\Generated_Source\PSoC4/STATE.c **** * Copyright 2008-2012, Cypress Semiconductor Corporation.  All rights reserved.
  13:.\Generated_Source\PSoC4/STATE.c **** * You may use this file only in accordance with the license, terms, conditions, 
  14:.\Generated_Source\PSoC4/STATE.c **** * disclaimers, and limitations in the end user license agreement accompanying 
  15:.\Generated_Source\PSoC4/STATE.c **** * the software package with which this file was provided.
  16:.\Generated_Source\PSoC4/STATE.c **** *******************************************************************************/
  17:.\Generated_Source\PSoC4/STATE.c **** 
  18:.\Generated_Source\PSoC4/STATE.c **** #include "STATE.h"
  19:.\Generated_Source\PSoC4/STATE.c **** 
  20:.\Generated_Source\PSoC4/STATE.c **** #if !defined(STATE_sts_sts_reg__REMOVED) /* Check for removal by optimization */
  21:.\Generated_Source\PSoC4/STATE.c **** 
  22:.\Generated_Source\PSoC4/STATE.c **** 
  23:.\Generated_Source\PSoC4/STATE.c **** /*******************************************************************************
  24:.\Generated_Source\PSoC4/STATE.c **** * Function Name: STATE_Read
  25:.\Generated_Source\PSoC4/STATE.c **** ********************************************************************************
  26:.\Generated_Source\PSoC4/STATE.c **** *
  27:.\Generated_Source\PSoC4/STATE.c **** * Summary:
  28:.\Generated_Source\PSoC4/STATE.c **** *  Reads the current value assigned to the Status Register.
  29:.\Generated_Source\PSoC4/STATE.c **** *
  30:.\Generated_Source\PSoC4/STATE.c **** * Parameters:
  31:.\Generated_Source\PSoC4/STATE.c **** *  None.
  32:.\Generated_Source\PSoC4/STATE.c **** *
ARM GAS  C:\Users\Jarik\AppData\Local\Temp\ccaqy0S0.s 			page 2


  33:.\Generated_Source\PSoC4/STATE.c **** * Return:
  34:.\Generated_Source\PSoC4/STATE.c **** *  The current value in the Status Register.
  35:.\Generated_Source\PSoC4/STATE.c **** *
  36:.\Generated_Source\PSoC4/STATE.c **** *******************************************************************************/
  37:.\Generated_Source\PSoC4/STATE.c **** uint8 STATE_Read(void) 
  38:.\Generated_Source\PSoC4/STATE.c **** { 
  26              		.loc 1 38 0
  27              		.cfi_startproc
  39:.\Generated_Source\PSoC4/STATE.c ****     return STATE_Status;
  28              		.loc 1 39 0
  29 0000 014B     		ldr	r3, .L2
  30 0002 1878     		ldrb	r0, [r3]
  31 0004 C0B2     		uxtb	r0, r0
  40:.\Generated_Source\PSoC4/STATE.c **** }
  32              		.loc 1 40 0
  33              		@ sp needed
  34 0006 7047     		bx	lr
  35              	.L3:
  36              		.align	2
  37              	.L2:
  38 0008 63000F40 		.word	1074724963
  39              		.cfi_endproc
  40              	.LFE0:
  41              		.size	STATE_Read, .-STATE_Read
  42              		.section	.text.STATE_InterruptEnable,"ax",%progbits
  43              		.align	2
  44              		.global	STATE_InterruptEnable
  45              		.code	16
  46              		.thumb_func
  47              		.type	STATE_InterruptEnable, %function
  48              	STATE_InterruptEnable:
  49              	.LFB1:
  41:.\Generated_Source\PSoC4/STATE.c **** 
  42:.\Generated_Source\PSoC4/STATE.c **** 
  43:.\Generated_Source\PSoC4/STATE.c **** /*******************************************************************************
  44:.\Generated_Source\PSoC4/STATE.c **** * Function Name: STATE_InterruptEnable
  45:.\Generated_Source\PSoC4/STATE.c **** ********************************************************************************
  46:.\Generated_Source\PSoC4/STATE.c **** *
  47:.\Generated_Source\PSoC4/STATE.c **** * Summary:
  48:.\Generated_Source\PSoC4/STATE.c **** *  Enables the Status Register interrupt.
  49:.\Generated_Source\PSoC4/STATE.c **** *
  50:.\Generated_Source\PSoC4/STATE.c **** * Parameters:
  51:.\Generated_Source\PSoC4/STATE.c **** *  None.
  52:.\Generated_Source\PSoC4/STATE.c **** *
  53:.\Generated_Source\PSoC4/STATE.c **** * Return:
  54:.\Generated_Source\PSoC4/STATE.c **** *  None.
  55:.\Generated_Source\PSoC4/STATE.c **** *
  56:.\Generated_Source\PSoC4/STATE.c **** *******************************************************************************/
  57:.\Generated_Source\PSoC4/STATE.c **** void STATE_InterruptEnable(void) 
  58:.\Generated_Source\PSoC4/STATE.c **** {
  50              		.loc 1 58 0
  51              		.cfi_startproc
  52 0000 08B5     		push	{r3, lr}
  53              		.cfi_def_cfa_offset 8
  54              		.cfi_offset 3, -8
  55              		.cfi_offset 14, -4
  59:.\Generated_Source\PSoC4/STATE.c ****     uint8 interruptState;
ARM GAS  C:\Users\Jarik\AppData\Local\Temp\ccaqy0S0.s 			page 3


  60:.\Generated_Source\PSoC4/STATE.c ****     interruptState = CyEnterCriticalSection();
  56              		.loc 1 60 0
  57 0002 FFF7FEFF 		bl	CyEnterCriticalSection
  58              	.LVL0:
  61:.\Generated_Source\PSoC4/STATE.c ****     STATE_Status_Aux_Ctrl |= STATE_STATUS_INTR_ENBL;
  59              		.loc 1 61 0
  60 0006 044B     		ldr	r3, .L5
  61 0008 1978     		ldrb	r1, [r3]
  62 000a 1022     		mov	r2, #16
  63 000c 0A43     		orr	r2, r1
  64 000e 1A70     		strb	r2, [r3]
  62:.\Generated_Source\PSoC4/STATE.c ****     CyExitCriticalSection(interruptState);
  65              		.loc 1 62 0
  66 0010 FFF7FEFF 		bl	CyExitCriticalSection
  67              	.LVL1:
  63:.\Generated_Source\PSoC4/STATE.c **** }
  68              		.loc 1 63 0
  69              		@ sp needed
  70 0014 08BD     		pop	{r3, pc}
  71              	.L6:
  72 0016 C046     		.align	2
  73              	.L5:
  74 0018 93000F40 		.word	1074725011
  75              		.cfi_endproc
  76              	.LFE1:
  77              		.size	STATE_InterruptEnable, .-STATE_InterruptEnable
  78              		.section	.text.STATE_InterruptDisable,"ax",%progbits
  79              		.align	2
  80              		.global	STATE_InterruptDisable
  81              		.code	16
  82              		.thumb_func
  83              		.type	STATE_InterruptDisable, %function
  84              	STATE_InterruptDisable:
  85              	.LFB2:
  64:.\Generated_Source\PSoC4/STATE.c **** 
  65:.\Generated_Source\PSoC4/STATE.c **** 
  66:.\Generated_Source\PSoC4/STATE.c **** /*******************************************************************************
  67:.\Generated_Source\PSoC4/STATE.c **** * Function Name: STATE_InterruptDisable
  68:.\Generated_Source\PSoC4/STATE.c **** ********************************************************************************
  69:.\Generated_Source\PSoC4/STATE.c **** *
  70:.\Generated_Source\PSoC4/STATE.c **** * Summary:
  71:.\Generated_Source\PSoC4/STATE.c **** *  Disables the Status Register interrupt.
  72:.\Generated_Source\PSoC4/STATE.c **** *
  73:.\Generated_Source\PSoC4/STATE.c **** * Parameters:
  74:.\Generated_Source\PSoC4/STATE.c **** *  None.
  75:.\Generated_Source\PSoC4/STATE.c **** *
  76:.\Generated_Source\PSoC4/STATE.c **** * Return:
  77:.\Generated_Source\PSoC4/STATE.c **** *  None.
  78:.\Generated_Source\PSoC4/STATE.c **** *
  79:.\Generated_Source\PSoC4/STATE.c **** *******************************************************************************/
  80:.\Generated_Source\PSoC4/STATE.c **** void STATE_InterruptDisable(void) 
  81:.\Generated_Source\PSoC4/STATE.c **** {
  86              		.loc 1 81 0
  87              		.cfi_startproc
  88 0000 08B5     		push	{r3, lr}
  89              		.cfi_def_cfa_offset 8
  90              		.cfi_offset 3, -8
ARM GAS  C:\Users\Jarik\AppData\Local\Temp\ccaqy0S0.s 			page 4


  91              		.cfi_offset 14, -4
  82:.\Generated_Source\PSoC4/STATE.c ****     uint8 interruptState;
  83:.\Generated_Source\PSoC4/STATE.c ****     interruptState = CyEnterCriticalSection();
  92              		.loc 1 83 0
  93 0002 FFF7FEFF 		bl	CyEnterCriticalSection
  94              	.LVL2:
  84:.\Generated_Source\PSoC4/STATE.c ****     STATE_Status_Aux_Ctrl &= (uint8)(~STATE_STATUS_INTR_ENBL);
  95              		.loc 1 84 0
  96 0006 044B     		ldr	r3, .L8
  97 0008 1A78     		ldrb	r2, [r3]
  98 000a 1021     		mov	r1, #16
  99 000c 8A43     		bic	r2, r1
 100 000e 1A70     		strb	r2, [r3]
  85:.\Generated_Source\PSoC4/STATE.c ****     CyExitCriticalSection(interruptState);
 101              		.loc 1 85 0
 102 0010 FFF7FEFF 		bl	CyExitCriticalSection
 103              	.LVL3:
  86:.\Generated_Source\PSoC4/STATE.c **** }
 104              		.loc 1 86 0
 105              		@ sp needed
 106 0014 08BD     		pop	{r3, pc}
 107              	.L9:
 108 0016 C046     		.align	2
 109              	.L8:
 110 0018 93000F40 		.word	1074725011
 111              		.cfi_endproc
 112              	.LFE2:
 113              		.size	STATE_InterruptDisable, .-STATE_InterruptDisable
 114              		.section	.text.STATE_WriteMask,"ax",%progbits
 115              		.align	2
 116              		.global	STATE_WriteMask
 117              		.code	16
 118              		.thumb_func
 119              		.type	STATE_WriteMask, %function
 120              	STATE_WriteMask:
 121              	.LFB3:
  87:.\Generated_Source\PSoC4/STATE.c **** 
  88:.\Generated_Source\PSoC4/STATE.c **** 
  89:.\Generated_Source\PSoC4/STATE.c **** /*******************************************************************************
  90:.\Generated_Source\PSoC4/STATE.c **** * Function Name: STATE_WriteMask
  91:.\Generated_Source\PSoC4/STATE.c **** ********************************************************************************
  92:.\Generated_Source\PSoC4/STATE.c **** *
  93:.\Generated_Source\PSoC4/STATE.c **** * Summary:
  94:.\Generated_Source\PSoC4/STATE.c **** *  Writes the current mask value assigned to the Status Register.
  95:.\Generated_Source\PSoC4/STATE.c **** *
  96:.\Generated_Source\PSoC4/STATE.c **** * Parameters:
  97:.\Generated_Source\PSoC4/STATE.c **** *  mask:  Value to write into the mask register.
  98:.\Generated_Source\PSoC4/STATE.c **** *
  99:.\Generated_Source\PSoC4/STATE.c **** * Return:
 100:.\Generated_Source\PSoC4/STATE.c **** *  None.
 101:.\Generated_Source\PSoC4/STATE.c **** *
 102:.\Generated_Source\PSoC4/STATE.c **** *******************************************************************************/
 103:.\Generated_Source\PSoC4/STATE.c **** void STATE_WriteMask(uint8 mask) 
 104:.\Generated_Source\PSoC4/STATE.c **** {
 122              		.loc 1 104 0
 123              		.cfi_startproc
 124              	.LVL4:
ARM GAS  C:\Users\Jarik\AppData\Local\Temp\ccaqy0S0.s 			page 5


 105:.\Generated_Source\PSoC4/STATE.c ****     #if(STATE_INPUTS < 8u)
 106:.\Generated_Source\PSoC4/STATE.c ****     	mask &= (uint8)((((uint8)1u) << STATE_INPUTS) - 1u);
 125              		.loc 1 106 0
 126 0000 0723     		mov	r3, #7
 127 0002 1840     		and	r0, r3
 128              	.LVL5:
 107:.\Generated_Source\PSoC4/STATE.c **** 	#endif /* End STATE_INPUTS < 8u */
 108:.\Generated_Source\PSoC4/STATE.c ****     STATE_Status_Mask = mask;
 129              		.loc 1 108 0
 130 0004 014B     		ldr	r3, .L11
 131 0006 1870     		strb	r0, [r3]
 109:.\Generated_Source\PSoC4/STATE.c **** }
 132              		.loc 1 109 0
 133              		@ sp needed
 134 0008 7047     		bx	lr
 135              	.L12:
 136 000a C046     		.align	2
 137              	.L11:
 138 000c 83000F40 		.word	1074724995
 139              		.cfi_endproc
 140              	.LFE3:
 141              		.size	STATE_WriteMask, .-STATE_WriteMask
 142              		.section	.text.STATE_ReadMask,"ax",%progbits
 143              		.align	2
 144              		.global	STATE_ReadMask
 145              		.code	16
 146              		.thumb_func
 147              		.type	STATE_ReadMask, %function
 148              	STATE_ReadMask:
 149              	.LFB4:
 110:.\Generated_Source\PSoC4/STATE.c **** 
 111:.\Generated_Source\PSoC4/STATE.c **** 
 112:.\Generated_Source\PSoC4/STATE.c **** /*******************************************************************************
 113:.\Generated_Source\PSoC4/STATE.c **** * Function Name: STATE_ReadMask
 114:.\Generated_Source\PSoC4/STATE.c **** ********************************************************************************
 115:.\Generated_Source\PSoC4/STATE.c **** *
 116:.\Generated_Source\PSoC4/STATE.c **** * Summary:
 117:.\Generated_Source\PSoC4/STATE.c **** *  Reads the current interrupt mask assigned to the Status Register.
 118:.\Generated_Source\PSoC4/STATE.c **** *
 119:.\Generated_Source\PSoC4/STATE.c **** * Parameters:
 120:.\Generated_Source\PSoC4/STATE.c **** *  None.
 121:.\Generated_Source\PSoC4/STATE.c **** *
 122:.\Generated_Source\PSoC4/STATE.c **** * Return:
 123:.\Generated_Source\PSoC4/STATE.c **** *  The value of the interrupt mask of the Status Register.
 124:.\Generated_Source\PSoC4/STATE.c **** *
 125:.\Generated_Source\PSoC4/STATE.c **** *******************************************************************************/
 126:.\Generated_Source\PSoC4/STATE.c **** uint8 STATE_ReadMask(void) 
 127:.\Generated_Source\PSoC4/STATE.c **** {
 150              		.loc 1 127 0
 151              		.cfi_startproc
 128:.\Generated_Source\PSoC4/STATE.c ****     return STATE_Status_Mask;
 152              		.loc 1 128 0
 153 0000 014B     		ldr	r3, .L14
 154 0002 1878     		ldrb	r0, [r3]
 155 0004 C0B2     		uxtb	r0, r0
 129:.\Generated_Source\PSoC4/STATE.c **** }
 156              		.loc 1 129 0
ARM GAS  C:\Users\Jarik\AppData\Local\Temp\ccaqy0S0.s 			page 6


 157              		@ sp needed
 158 0006 7047     		bx	lr
 159              	.L15:
 160              		.align	2
 161              	.L14:
 162 0008 83000F40 		.word	1074724995
 163              		.cfi_endproc
 164              	.LFE4:
 165              		.size	STATE_ReadMask, .-STATE_ReadMask
 166              		.text
 167              	.Letext0:
 168              		.file 2 ".\\Generated_Source\\PSoC4\\cytypes.h"
 169              		.file 3 ".\\Generated_Source\\PSoC4\\CyLib.h"