ARM GAS  C:\Users\Jarik\AppData\Local\Temp\ccGrYxOh.s 			page 1


   1              		.cpu cortex-m0
   2              		.fpu softvfp
   3              		.eabi_attribute 20, 1
   4              		.eabi_attribute 21, 1
   5              		.eabi_attribute 23, 3
   6              		.eabi_attribute 24, 1
   7              		.eabi_attribute 25, 1
   8              		.eabi_attribute 26, 1
   9              		.eabi_attribute 30, 4
  10              		.eabi_attribute 34, 0
  11              		.eabi_attribute 18, 4
  12              		.code	16
  13              		.file	"cmd.c"
  14              		.text
  15              	.Ltext0:
  16              		.cfi_sections	.debug_frame
  17              		.section	.text.ls_files,"ax",%progbits
  18              		.align	1
  19              		.global	ls_files
  20              		.code	16
  21              		.thumb_func
  22              		.type	ls_files, %function
  23              	ls_files:
  24              	.LFB34:
  25              		.file 1 ".\\cmd.c"
   1:.\cmd.c       **** /* ========================================
   2:.\cmd.c       ****  *
   3:.\cmd.c       ****  * Copyright YOUR COMPANY, THE YEAR
   4:.\cmd.c       ****  * All Rights Reserved
   5:.\cmd.c       ****  * UNPUBLISHED, LICENSED SOFTWARE.
   6:.\cmd.c       ****  *
   7:.\cmd.c       ****  * CONFIDENTIAL AND PROPRIETARY INFORMATION
   8:.\cmd.c       ****  * WHICH IS THE PROPERTY OF your company.
   9:.\cmd.c       ****  *
  10:.\cmd.c       ****  * ========================================
  11:.\cmd.c       **** */
  12:.\cmd.c       **** #include <stdint.h>
  13:.\cmd.c       **** #include <project.h>
  14:.\cmd.c       **** #include "sd/ff.h"
  15:.\cmd.c       **** 
  16:.\cmd.c       **** FRESULT f_closedir (
  17:.\cmd.c       ****   DIR* dp     /* [IN] Pointer to the directory object */
  18:.\cmd.c       **** );
  19:.\cmd.c       **** uint16_t sector_size=512;
  20:.\cmd.c       **** FIL disk;
  21:.\cmd.c       **** extern FIL log_file;
  22:.\cmd.c       **** void reinit_fs(void);
  23:.\cmd.c       **** void write_map(void);
  24:.\cmd.c       **** void fatal_error(void);
  25:.\cmd.c       **** char oct_buf[10];
  26:.\cmd.c       **** FRESULT map_image(uint8_t disk_n, FIL *img_file);
  27:.\cmd.c       **** void read_map(void);
  28:.\cmd.c       **** #define logging 1
  29:.\cmd.c       **** 
  30:.\cmd.c       **** 
  31:.\cmd.c       **** void ls_files(uint8_t *buf, int file_number, int files)
  32:.\cmd.c       **** {
ARM GAS  C:\Users\Jarik\AppData\Local\Temp\ccGrYxOh.s 			page 2


  26              		.loc 1 32 0
  27              		.cfi_startproc
  28              	.LVL0:
  29 0000 F0B5     		push	{r4, r5, r6, r7, lr}
  30              		.cfi_def_cfa_offset 20
  31              		.cfi_offset 4, -20
  32              		.cfi_offset 5, -16
  33              		.cfi_offset 6, -12
  34              		.cfi_offset 7, -8
  35              		.cfi_offset 14, -4
  36 0002 91B0     		sub	sp, sp, #68
  37              		.cfi_def_cfa_offset 88
  38              		.loc 1 32 0
  39 0004 061C     		mov	r6, r0
  40 0006 0091     		str	r1, [sp]
  33:.\cmd.c       ****     FRESULT res;
  34:.\cmd.c       ****     FILINFO fno;
  35:.\cmd.c       ****     DIR dir;
  36:.\cmd.c       ****     char *fn; 
  37:.\cmd.c       ****     int f_counter=0;
  38:.\cmd.c       ****     int length=0;
  39:.\cmd.c       ****     res = f_opendir(&dir, "/disks"); 
  41              		.loc 1 39 0
  42 0008 09A8     		add	r0, sp, #36
  43              	.LVL1:
  44 000a 1A49     		ldr	r1, .L16
  45              	.LVL2:
  32:.\cmd.c       ****     FRESULT res;
  46              		.loc 1 32 0
  47 000c 0192     		str	r2, [sp, #4]
  48              		.loc 1 39 0
  49 000e FFF7FEFF 		bl	f_opendir
  50              	.LVL3:
  40:.\cmd.c       ****     if(res!=FR_OK) fatal_error();
  51              		.loc 1 40 0
  52 0012 0028     		cmp	r0, #0
  53 0014 01D0     		beq	.L2
  54              		.loc 1 40 0 is_stmt 0 discriminator 1
  55 0016 FFF7FEFF 		bl	fatal_error
  56              	.LVL4:
  57              	.L2:
  32:.\cmd.c       ****     FRESULT res;
  58              		.loc 1 32 0 is_stmt 1
  59 001a 0025     		mov	r5, #0
  60 001c 2C1C     		mov	r4, r5
  61              	.LVL5:
  62              	.L4:
  41:.\cmd.c       ****     for (;;) {
  42:.\cmd.c       ****                 res = f_readdir(&dir, &fno);                   /* Read a directory item */
  63              		.loc 1 42 0
  64 001e 03AF     		add	r7, sp, #12
  65 0020 09A8     		add	r0, sp, #36
  66 0022 391C     		mov	r1, r7
  67 0024 FFF7FEFF 		bl	f_readdir
  68              	.LVL6:
  43:.\cmd.c       ****                 if (res != FR_OK || fno.fname[0] == 0) break;  /* Break on error or end of dir */
  69              		.loc 1 43 0
ARM GAS  C:\Users\Jarik\AppData\Local\Temp\ccGrYxOh.s 			page 3


  70 0028 0028     		cmp	r0, #0
  71 002a 1AD1     		bne	.L3
  72              		.loc 1 43 0 is_stmt 0 discriminator 1
  73 002c 7B7A     		ldrb	r3, [r7, #9]
  74 002e 002B     		cmp	r3, #0
  75 0030 17D0     		beq	.L3
  44:.\cmd.c       ****                 if (fno.fname[0] == '.') continue;             /* Ignore dot entry */
  76              		.loc 1 44 0 is_stmt 1
  77 0032 2E2B     		cmp	r3, #46
  78 0034 F3D0     		beq	.L4
  79              	.LVL7:
  45:.\cmd.c       ****                 fn = fno.fname;
  46:.\cmd.c       ****                 if((f_counter>=file_number) && (f_counter<(file_number+files)) && (files>0))
  80              		.loc 1 46 0
  81 0036 009B     		ldr	r3, [sp]
  82 0038 9C42     		cmp	r4, r3
  83 003a 10DB     		blt	.L5
  84              		.loc 1 46 0 is_stmt 0 discriminator 1
  85 003c 019A     		ldr	r2, [sp, #4]
  86 003e 9B18     		add	r3, r3, r2
  87 0040 9C42     		cmp	r4, r3
  88 0042 0CDA     		bge	.L5
  89              		.loc 1 46 0 discriminator 2
  90 0044 002A     		cmp	r2, #0
  91 0046 0ADD     		ble	.L5
  92 0048 2B1C     		mov	r3, r5
  93              	.LVL8:
  94              	.L6:
  47:.\cmd.c       ****                 {
  48:.\cmd.c       ****                     do
  49:.\cmd.c       ****                     {
  50:.\cmd.c       ****                         buf[4+length++]=*fn;
  95              		.loc 1 50 0 is_stmt 1 discriminator 1
  96 004a 0133     		add	r3, r3, #1
  97              	.LVL9:
  98 004c 03A9     		add	r1, sp, #12
  99 004e 5A1B     		sub	r2, r3, r5
 100 0050 8A18     		add	r2, r1, r2
 101 0052 127A     		ldrb	r2, [r2, #8]
 102 0054 F118     		add	r1, r6, r3
 103 0056 CA70     		strb	r2, [r1, #3]
 104              	.LVL10:
  51:.\cmd.c       ****                     }while(*fn++);
 105              		.loc 1 51 0 discriminator 1
 106 0058 002A     		cmp	r2, #0
 107 005a F6D1     		bne	.L6
  50:.\cmd.c       ****                     }while(*fn++);
 108              		.loc 1 50 0
 109 005c 1D1C     		mov	r5, r3
 110              	.LVL11:
 111              	.L5:
  52:.\cmd.c       ****                 }
  53:.\cmd.c       ****                 f_counter++;
 112              		.loc 1 53 0
 113 005e 0134     		add	r4, r4, #1
 114              	.LVL12:
 115 0060 DDE7     		b	.L4
ARM GAS  C:\Users\Jarik\AppData\Local\Temp\ccGrYxOh.s 			page 4


 116              	.L3:
  54:.\cmd.c       ****                 
  55:.\cmd.c       ****             }
  56:.\cmd.c       ****     buf[0]=length & 0xff;
 117              		.loc 1 56 0
 118 0062 3570     		strb	r5, [r6]
  57:.\cmd.c       ****     buf[1]=(length>>8) & 0xff;
  58:.\cmd.c       ****     buf[2]=f_counter & 0xff;
 119              		.loc 1 58 0
 120 0064 B470     		strb	r4, [r6, #2]
  57:.\cmd.c       ****     buf[1]=(length>>8) & 0xff;
 121              		.loc 1 57 0
 122 0066 2D12     		asr	r5, r5, #8
 123              	.LVL13:
  59:.\cmd.c       ****     buf[3]=(f_counter>>8) & 0xff;
 124              		.loc 1 59 0
 125 0068 2412     		asr	r4, r4, #8
 126              	.LVL14:
  57:.\cmd.c       ****     buf[1]=(length>>8) & 0xff;
 127              		.loc 1 57 0
 128 006a 7570     		strb	r5, [r6, #1]
 129              		.loc 1 59 0
 130 006c F470     		strb	r4, [r6, #3]
  60:.\cmd.c       **** //    f_closedir(&dir);
  61:.\cmd.c       ****         
  62:.\cmd.c       **** }
 131              		.loc 1 62 0
 132 006e 11B0     		add	sp, sp, #68
 133              	.LVL15:
 134              		@ sp needed
 135              	.LVL16:
 136 0070 F0BD     		pop	{r4, r5, r6, r7, pc}
 137              	.L17:
 138 0072 C046     		.align	2
 139              	.L16:
 140 0074 00000000 		.word	.LC2
 141              		.cfi_endproc
 142              	.LFE34:
 143              		.size	ls_files, .-ls_files
 144              		.section	.text.print_oct,"ax",%progbits
 145              		.align	1
 146              		.global	print_oct
 147              		.code	16
 148              		.thumb_func
 149              		.type	print_oct, %function
 150              	print_oct:
 151              	.LFB35:
  63:.\cmd.c       **** 
  64:.\cmd.c       **** void print_oct(uint16_t num)
  65:.\cmd.c       **** {
 152              		.loc 1 65 0
 153              		.cfi_startproc
 154              	.LVL17:
  66:.\cmd.c       ****     uint8_t i;
  67:.\cmd.c       ****     uint16_t s=num;
  68:.\cmd.c       ****     
  69:.\cmd.c       ****     for(i=0;i<6;i++) oct_buf[i]=32;
ARM GAS  C:\Users\Jarik\AppData\Local\Temp\ccGrYxOh.s 			page 5


 155              		.loc 1 69 0
 156 0000 2022     		mov	r2, #32
 157 0002 0C4B     		ldr	r3, .L22
  65:.\cmd.c       ****     uint8_t i;
 158              		.loc 1 65 0
 159 0004 10B5     		push	{r4, lr}
 160              		.cfi_def_cfa_offset 8
 161              		.cfi_offset 4, -8
 162              		.cfi_offset 14, -4
 163              		.loc 1 69 0
 164 0006 1A70     		strb	r2, [r3]
 165              	.LVL18:
 166 0008 5A70     		strb	r2, [r3, #1]
 167              	.LVL19:
 168 000a 9A70     		strb	r2, [r3, #2]
 169              	.LVL20:
 170 000c DA70     		strb	r2, [r3, #3]
 171              	.LVL21:
 172 000e 1A71     		strb	r2, [r3, #4]
 173              	.LVL22:
 174 0010 5A71     		strb	r2, [r3, #5]
  70:.\cmd.c       ****     i=5;
  71:.\cmd.c       ****     oct_buf[i+2]=0;
 175              		.loc 1 71 0
 176 0012 0022     		mov	r2, #0
  70:.\cmd.c       ****     i=5;
 177              		.loc 1 70 0
 178 0014 0521     		mov	r1, #5
 179              		.loc 1 71 0
 180 0016 DA71     		strb	r2, [r3, #7]
  72:.\cmd.c       ****     oct_buf[i+1]='\n';
 181              		.loc 1 72 0
 182 0018 0A32     		add	r2, r2, #10
 183 001a 9A71     		strb	r2, [r3, #6]
 184              	.LVL23:
 185              	.L19:
  73:.\cmd.c       ****     while(s)
 186              		.loc 1 73 0
 187 001c 0028     		cmp	r0, #0
 188 001e 07D0     		beq	.L21
  74:.\cmd.c       ****     {
  75:.\cmd.c       ****         oct_buf[i--]=48+(s & 0x07);
 189              		.loc 1 75 0
 190 0020 0722     		mov	r2, #7
 191 0022 0240     		and	r2, r0
 192 0024 4C1E     		sub	r4, r1, #1
 193              	.LVL24:
 194 0026 3032     		add	r2, r2, #48
 195 0028 5A54     		strb	r2, [r3, r1]
  76:.\cmd.c       ****         s=s>>3;
 196              		.loc 1 76 0
 197 002a C008     		lsr	r0, r0, #3
 198              	.LVL25:
  75:.\cmd.c       ****         s=s>>3;
 199              		.loc 1 75 0
 200 002c E1B2     		uxtb	r1, r4
 201 002e F5E7     		b	.L19
ARM GAS  C:\Users\Jarik\AppData\Local\Temp\ccGrYxOh.s 			page 6


 202              	.LVL26:
 203              	.L21:
  77:.\cmd.c       ****     }
  78:.\cmd.c       **** }
 204              		.loc 1 78 0
 205              		@ sp needed
 206 0030 10BD     		pop	{r4, pc}
 207              	.L23:
 208 0032 C046     		.align	2
 209              	.L22:
 210 0034 00000000 		.word	oct_buf
 211              		.cfi_endproc
 212              	.LFE35:
 213              		.size	print_oct, .-print_oct
 214              		.global	__aeabi_uidiv
 215              		.section	.text.execute_cmd,"ax",%progbits
 216              		.align	1
 217              		.global	execute_cmd
 218              		.code	16
 219              		.thumb_func
 220              		.type	execute_cmd, %function
 221              	execute_cmd:
 222              	.LFB36:
  79:.\cmd.c       **** 
  80:.\cmd.c       **** void execute_cmd(uint8_t *buf)
  81:.\cmd.c       **** {
 223              		.loc 1 81 0
 224              		.cfi_startproc
 225              	.LVL27:
 226 0000 F0B5     		push	{r4, r5, r6, r7, lr}
 227              		.cfi_def_cfa_offset 20
 228              		.cfi_offset 4, -20
 229              		.cfi_offset 5, -16
 230              		.cfi_offset 6, -12
 231              		.cfi_offset 7, -8
 232              		.cfi_offset 14, -4
  82:.\cmd.c       **** FRESULT rc;
  83:.\cmd.c       **** 
  84:.\cmd.c       **** #define RESPONCE buf[0]
  85:.\cmd.c       **** #define D_TYPE buf[2]
  86:.\cmd.c       **** #define DISK_N (buf[3] & 0x7f)
  87:.\cmd.c       **** #define SIDE    (buf[3] & 0x80)
  88:.\cmd.c       **** #define TRACK   buf[4]
  89:.\cmd.c       **** #define SECTOR  buf[5]
  90:.\cmd.c       **** #define CMD     buf[1022]
  91:.\cmd.c       ****     uint8_t spt,sides;
  92:.\cmd.c       ****     uint32_t img_size,file_size,offset,readed;
  93:.\cmd.c       ****     uint16_t tracks,i;
  94:.\cmd.c       ****     spt=10;
  95:.\cmd.c       ****     sides=1;
  96:.\cmd.c       ****     tracks=80;
  97:.\cmd.c       ****     static int log_N;
  98:.\cmd.c       ****     if(CMD==0)
 233              		.loc 1 98 0
 234 0002 B34A     		ldr	r2, .L103
  81:.\cmd.c       **** FRESULT rc;
 235              		.loc 1 81 0
ARM GAS  C:\Users\Jarik\AppData\Local\Temp\ccGrYxOh.s 			page 7


 236 0004 87B0     		sub	sp, sp, #28
 237              		.cfi_def_cfa_offset 48
 238              		.loc 1 98 0
 239 0006 835C     		ldrb	r3, [r0, r2]
  81:.\cmd.c       **** FRESULT rc;
 240              		.loc 1 81 0
 241 0008 041C     		mov	r4, r0
 242 000a 0392     		str	r2, [sp, #12]
 243              		.loc 1 98 0
 244 000c 002B     		cmp	r3, #0
 245 000e 02D1     		bne	.L25
  99:.\cmd.c       ****     {
 100:.\cmd.c       ****         reinit_fs();
 246              		.loc 1 100 0
 247 0010 FFF7FEFF 		bl	reinit_fs
 248              	.LVL28:
 101:.\cmd.c       ****         return;
 249              		.loc 1 101 0
 250 0014 59E1     		b	.L24
 251              	.LVL29:
 252              	.L25:
 102:.\cmd.c       ****     }
 103:.\cmd.c       ****     if(CMD==5)
 253              		.loc 1 103 0
 254 0016 052B     		cmp	r3, #5
 255 0018 04D1     		bne	.L27
 104:.\cmd.c       ****     {
 105:.\cmd.c       ****         CyDelayUs(1000);
 256              		.loc 1 105 0
 257 001a FA20     		mov	r0, #250
 258              	.LVL30:
 259 001c 8000     		lsl	r0, r0, #2
 260 001e FFF7FEFF 		bl	CyDelayUs
 261              	.LVL31:
 106:.\cmd.c       ****         return;
 262              		.loc 1 106 0
 263 0022 52E1     		b	.L24
 264              	.LVL32:
 265              	.L27:
 107:.\cmd.c       ****     }
 108:.\cmd.c       ****     if(CMD==4)
 266              		.loc 1 108 0
 267 0024 042B     		cmp	r3, #4
 268 0026 58D1     		bne	.L28
 109:.\cmd.c       ****         {
 110:.\cmd.c       ****             if(D_TYPE>0)
 269              		.loc 1 110 0
 270 0028 8378     		ldrb	r3, [r0, #2]
 271 002a 002B     		cmp	r3, #0
 272 002c 00D1     		bne	.LCB252
 273 002e 4CE1     		b	.L24	@long jump
 274              	.LCB252:
 275 0030 0023     		mov	r3, #0
 276              	.L30:
 277              	.LVL33:
 278 0032 8022     		mov	r2, #128
 111:.\cmd.c       ****             {
ARM GAS  C:\Users\Jarik\AppData\Local\Temp\ccGrYxOh.s 			page 8


 112:.\cmd.c       **** #ifdef  logging
 113:.\cmd.c       ****                 for(i=0;i<11;i++) buf[512+i]="Log entry:"[i];
 279              		.loc 1 113 0 discriminator 3
 280 0034 A749     		ldr	r1, .L103+4
 281 0036 9200     		lsl	r2, r2, #2
 282 0038 C95C     		ldrb	r1, [r1, r3]
 283 003a 9A18     		add	r2, r3, r2
 284 003c 0133     		add	r3, r3, #1
 285              	.LVL34:
 286 003e A154     		strb	r1, [r4, r2]
 287 0040 0B2B     		cmp	r3, #11
 288 0042 F6D1     		bne	.L30
 114:.\cmd.c       ****                 rc=f_open(&log_file,"/log.txt",FA_WRITE | FA_READ);
 289              		.loc 1 114 0
 290 0044 A44D     		ldr	r5, .L103+8
 291 0046 0322     		mov	r2, #3
 292 0048 A449     		ldr	r1, .L103+12
 293 004a 281C     		mov	r0, r5
 294              	.LVL35:
 295 004c FFF7FEFF 		bl	f_open
 296              	.LVL36:
 115:.\cmd.c       ****                 rc=f_lseek(&log_file,f_size(&log_file));
 297              		.loc 1 115 0
 298 0050 E968     		ldr	r1, [r5, #12]
 299 0052 281C     		mov	r0, r5
 300 0054 FFF7FEFF 		bl	f_lseek
 301              	.LVL37:
 116:.\cmd.c       ****                 rc=f_write(&log_file,&buf[512],10,&readed);
 302              		.loc 1 116 0
 303 0058 8023     		mov	r3, #128
 304 005a 9B00     		lsl	r3, r3, #2
 305 005c E118     		add	r1, r4, r3
 306 005e 281C     		mov	r0, r5
 307 0060 0A22     		mov	r2, #10
 308 0062 05AB     		add	r3, sp, #20
 309 0064 FFF7FEFF 		bl	f_write
 310              	.LVL38:
 117:.\cmd.c       ****                 if (rc!=FR_OK) RESPONCE=2;
 311              		.loc 1 117 0
 312 0068 0028     		cmp	r0, #0
 313 006a 01D0     		beq	.L31
 314              		.loc 1 117 0 is_stmt 0 discriminator 1
 315 006c 0223     		mov	r3, #2
 316 006e 2370     		strb	r3, [r4]
 317              	.L31:
 118:.\cmd.c       ****                 print_oct(log_N++);
 318              		.loc 1 118 0 is_stmt 1
 319 0070 9B4B     		ldr	r3, .L103+16
 320 0072 1868     		ldr	r0, [r3]
 321              	.LVL39:
 322 0074 421C     		add	r2, r0, #1
 323 0076 80B2     		uxth	r0, r0
 324 0078 1A60     		str	r2, [r3]
 325 007a FFF7FEFF 		bl	print_oct
 326              	.LVL40:
 119:.\cmd.c       ****                 rc=f_write(&log_file,oct_buf,7,&readed);
 327              		.loc 1 119 0
ARM GAS  C:\Users\Jarik\AppData\Local\Temp\ccGrYxOh.s 			page 9


 328 007e 994F     		ldr	r7, .L103+20
 329 0080 281C     		mov	r0, r5
 330 0082 391C     		mov	r1, r7
 331 0084 0722     		mov	r2, #7
 332 0086 05AB     		add	r3, sp, #20
 333 0088 FFF7FEFF 		bl	f_write
 334              	.LVL41:
 120:.\cmd.c       ****                 if (rc!=FR_OK) RESPONCE=2;
 335              		.loc 1 120 0
 336 008c 0028     		cmp	r0, #0
 337 008e 01D0     		beq	.L32
 338              		.loc 1 120 0 is_stmt 0 discriminator 1
 339 0090 0223     		mov	r3, #2
 340 0092 2370     		strb	r3, [r4]
 341              	.L32:
 342 0094 0026     		mov	r6, #0
 343              	.L33:
 344              	.LVL42:
 121:.\cmd.c       ****                 for(i=0;i<D_TYPE;i++)
 345              		.loc 1 121 0 is_stmt 1 discriminator 1
 346 0096 A378     		ldrb	r3, [r4, #2]
 347 0098 B342     		cmp	r3, r6
 348 009a 16D9     		bls	.L101
 122:.\cmd.c       ****                 {
 123:.\cmd.c       ****                     print_oct(buf[8+(i*2)]+(buf[9+(i*2)]<<8));
 349              		.loc 1 123 0
 350 009c 331D     		add	r3, r6, #4
 351 009e 5B00     		lsl	r3, r3, #1
 352 00a0 E218     		add	r2, r4, r3
 353 00a2 5078     		ldrb	r0, [r2, #1]
 354              	.LVL43:
 355 00a4 E35C     		ldrb	r3, [r4, r3]
 356 00a6 0002     		lsl	r0, r0, #8
 357 00a8 1818     		add	r0, r3, r0
 358 00aa 80B2     		uxth	r0, r0
 359 00ac FFF7FEFF 		bl	print_oct
 360              	.LVL44:
 124:.\cmd.c       ****                     rc=f_write(&log_file,oct_buf,7,&readed);
 361              		.loc 1 124 0
 362 00b0 281C     		mov	r0, r5
 363 00b2 391C     		mov	r1, r7
 364 00b4 0722     		mov	r2, #7
 365 00b6 05AB     		add	r3, sp, #20
 366 00b8 FFF7FEFF 		bl	f_write
 367              	.LVL45:
 125:.\cmd.c       ****                     if (rc!=FR_OK) RESPONCE=2;
 368              		.loc 1 125 0
 369 00bc 0028     		cmp	r0, #0
 370 00be 01D0     		beq	.L34
 371              		.loc 1 125 0 is_stmt 0 discriminator 1
 372 00c0 0223     		mov	r3, #2
 373 00c2 2370     		strb	r3, [r4]
 374              	.L34:
 121:.\cmd.c       ****                 {
 375              		.loc 1 121 0 is_stmt 1 discriminator 2
 376 00c4 0136     		add	r6, r6, #1
 377              	.LVL46:
ARM GAS  C:\Users\Jarik\AppData\Local\Temp\ccGrYxOh.s 			page 10


 378 00c6 B6B2     		uxth	r6, r6
 379              	.LVL47:
 380 00c8 E5E7     		b	.L33
 381              	.L101:
 126:.\cmd.c       ****                 }
 127:.\cmd.c       ****                 rc=f_close(&log_file);
 382              		.loc 1 127 0
 383 00ca 281C     		mov	r0, r5
 384              	.LVL48:
 385 00cc FFF7FEFF 		bl	f_close
 386              	.LVL49:
 128:.\cmd.c       ****                 if (rc!=FR_OK) RESPONCE=2;
 387              		.loc 1 128 0
 388 00d0 0223     		mov	r3, #2
 389 00d2 0028     		cmp	r0, #0
 390 00d4 00D0     		beq	.LCB371
 391 00d6 F1E0     		b	.L94	@long jump
 392              	.LCB371:
 393 00d8 F7E0     		b	.L24
 394              	.LVL50:
 395              	.L28:
 129:.\cmd.c       **** #endif                
 130:.\cmd.c       ****             }
 131:.\cmd.c       ****             return;
 132:.\cmd.c       ****         }
 133:.\cmd.c       ****     if(CMD==6)
 396              		.loc 1 133 0
 397 00da 062B     		cmp	r3, #6
 398 00dc 02D1     		bne	.L36
 134:.\cmd.c       ****     {
 135:.\cmd.c       ****         read_map();
 399              		.loc 1 135 0
 400 00de FFF7FEFF 		bl	read_map
 401              	.LVL51:
 136:.\cmd.c       ****         return;
 402              		.loc 1 136 0
 403 00e2 F2E0     		b	.L24
 404              	.LVL52:
 405              	.L36:
 137:.\cmd.c       ****     }
 138:.\cmd.c       ****     if(CMD==7)
 406              		.loc 1 138 0
 407 00e4 072B     		cmp	r3, #7
 408 00e6 02D1     		bne	.L37
 139:.\cmd.c       ****     {
 140:.\cmd.c       ****         write_map();
 409              		.loc 1 140 0
 410 00e8 FFF7FEFF 		bl	write_map
 411              	.LVL53:
 141:.\cmd.c       ****         return;
 412              		.loc 1 141 0
 413 00ec EDE0     		b	.L24
 414              	.LVL54:
 415              	.L37:
 142:.\cmd.c       ****     }
 143:.\cmd.c       ****     
 144:.\cmd.c       ****     if(CMD==8)
ARM GAS  C:\Users\Jarik\AppData\Local\Temp\ccGrYxOh.s 			page 11


 416              		.loc 1 144 0
 417 00ee 082B     		cmp	r3, #8
 418 00f0 0AD1     		bne	.L38
 145:.\cmd.c       ****     {
 146:.\cmd.c       ****         ls_files(buf,buf[0]+(buf[1]<<8),buf[2]+(buf[3]<<8));
 419              		.loc 1 146 0
 420 00f2 4178     		ldrb	r1, [r0, #1]
 421 00f4 0378     		ldrb	r3, [r0]
 422 00f6 C278     		ldrb	r2, [r0, #3]
 423 00f8 0902     		lsl	r1, r1, #8
 424 00fa 5918     		add	r1, r3, r1
 425 00fc 8378     		ldrb	r3, [r0, #2]
 426 00fe 1202     		lsl	r2, r2, #8
 427 0100 9A18     		add	r2, r3, r2
 428 0102 FFF7FEFF 		bl	ls_files
 429              	.LVL55:
 147:.\cmd.c       ****         return;
 430              		.loc 1 147 0
 431 0106 E0E0     		b	.L24
 432              	.LVL56:
 433              	.L38:
 434 0108 774D     		ldr	r5, .L103+24
 148:.\cmd.c       ****     }
 149:.\cmd.c       ****     
 150:.\cmd.c       ****     if(CMD<4) map_image(DISK_N, &disk);
 435              		.loc 1 150 0
 436 010a 032B     		cmp	r3, #3
 437 010c 05D8     		bhi	.L39
 438              		.loc 1 150 0 is_stmt 0 discriminator 1
 439 010e 7F23     		mov	r3, #127
 440 0110 C078     		ldrb	r0, [r0, #3]
 441              	.LVL57:
 442 0112 291C     		mov	r1, r5
 443 0114 1840     		and	r0, r3
 444 0116 FFF7FEFF 		bl	map_image
 445              	.LVL58:
 446              	.L39:
 151:.\cmd.c       ****     
 152:.\cmd.c       ****     if(D_TYPE==1) {   tracks=80;    sides=0;  }
 447              		.loc 1 152 0 is_stmt 1
 448 011a A378     		ldrb	r3, [r4, #2]
 449 011c 012B     		cmp	r3, #1
 450 011e 06D0     		beq	.L66
 153:.\cmd.c       ****     else
 154:.\cmd.c       ****     if(D_TYPE==2) {    tracks=80; }
 155:.\cmd.c       ****     else
 156:.\cmd.c       ****     if (D_TYPE==3){    tracks=256; spt=255; }
 451              		.loc 1 156 0
 452 0120 032B     		cmp	r3, #3
 453 0122 08D1     		bne	.L67
 454 0124 FD33     		add	r3, r3, #253
 455 0126 0293     		str	r3, [sp, #8]
  95:.\cmd.c       ****     tracks=80;
 456              		.loc 1 95 0
 457 0128 0127     		mov	r7, #1
 458              		.loc 1 156 0
 459 012a FF26     		mov	r6, #255
ARM GAS  C:\Users\Jarik\AppData\Local\Temp\ccGrYxOh.s 			page 12


 460 012c 07E0     		b	.L40
 461              	.L66:
 152:.\cmd.c       ****     else
 462              		.loc 1 152 0
 463 012e 5023     		mov	r3, #80
 464 0130 0027     		mov	r7, #0
 465 0132 0293     		str	r3, [sp, #8]
 466 0134 02E0     		b	.L92
 467              	.L67:
  96:.\cmd.c       ****     static int log_N;
 468              		.loc 1 96 0
 469 0136 5023     		mov	r3, #80
  95:.\cmd.c       ****     tracks=80;
 470              		.loc 1 95 0
 471 0138 0127     		mov	r7, #1
  96:.\cmd.c       ****     static int log_N;
 472              		.loc 1 96 0
 473 013a 0293     		str	r3, [sp, #8]
 474              	.L92:
  94:.\cmd.c       ****     sides=1;
 475              		.loc 1 94 0
 476 013c 0A26     		mov	r6, #10
 477              	.L40:
 478              	.LVL59:
 157:.\cmd.c       ****     
 158:.\cmd.c       ****     img_size=sector_size*spt*tracks;
 479              		.loc 1 158 0
 480 013e 311C     		mov	r1, r6
 481 0140 6A48     		ldr	r0, .L103+28
 482 0142 029A     		ldr	r2, [sp, #8]
 483 0144 0388     		ldrh	r3, [r0]
 484 0146 0190     		str	r0, [sp, #4]
 485 0148 5943     		mul	r1, r3
 486 014a 4A43     		mul	r2, r1
 487              	.LVL60:
 159:.\cmd.c       ****     if(sides) img_size*=2;
 488              		.loc 1 159 0
 489 014c 002F     		cmp	r7, #0
 490 014e 00D0     		beq	.L41
 491              	.LVL61:
 492              		.loc 1 159 0 is_stmt 0 discriminator 1
 493 0150 5200     		lsl	r2, r2, #1
 494              	.LVL62:
 495              	.L41:
 160:.\cmd.c       ****     file_size=f_size(&disk);
 496              		.loc 1 160 0 is_stmt 1
 497 0152 E868     		ldr	r0, [r5, #12]
 498              	.LVL63:
 161:.\cmd.c       ****     if ((file_size!=0) && (file_size!=img_size))
 499              		.loc 1 161 0
 500 0154 0028     		cmp	r0, #0
 501 0156 00D1     		bne	.LCB487
 502 0158 B2E0     		b	.L42	@long jump
 503              	.LCB487:
 504              		.loc 1 161 0 is_stmt 0 discriminator 1
 505 015a 9042     		cmp	r0, r2
 506 015c 07D0     		beq	.L64
ARM GAS  C:\Users\Jarik\AppData\Local\Temp\ccGrYxOh.s 			page 13


 507              	.LVL64:
 162:.\cmd.c       ****     {
 163:.\cmd.c       ****         img_size=file_size;
 164:.\cmd.c       ****         if (sides) tracks=(img_size/(2*sector_size*spt));
 508              		.loc 1 164 0 is_stmt 1
 509 015e 002F     		cmp	r7, #0
 510 0160 01D0     		beq	.L44
 511              		.loc 1 164 0 is_stmt 0 discriminator 1
 512 0162 5900     		lsl	r1, r3, #1
 513 0164 7143     		mul	r1, r6
 514              	.L44:
 165:.\cmd.c       ****         else tracks=(img_size/(sector_size*spt));
 515              		.loc 1 165 0 is_stmt 1
 516 0166 FFF7FEFF 		bl	__aeabi_uidiv
 517              	.LVL65:
 518 016a 83B2     		uxth	r3, r0
 519 016c 0293     		str	r3, [sp, #8]
 520              	.LVL66:
 521              	.L64:
 166:.\cmd.c       ****     }
 167:.\cmd.c       ****     
 168:.\cmd.c       ****     if(file_size==0) f_lseek(&disk,img_size);
 169:.\cmd.c       ****     if(CMD<3)
 522              		.loc 1 169 0
 523 016e 039B     		ldr	r3, [sp, #12]
 524 0170 E35C     		ldrb	r3, [r4, r3]
 525 0172 022B     		cmp	r3, #2
 526 0174 12D8     		bhi	.L45
 170:.\cmd.c       ****     {
 171:.\cmd.c       ****         if ((D_TYPE>3) || (TRACK>=tracks) || (SECTOR==0) || (SECTOR>spt) || ((sides==0) && (SIDE)))
 527              		.loc 1 171 0
 528 0176 A278     		ldrb	r2, [r4, #2]
 529 0178 032A     		cmp	r2, #3
 530 017a 0DD8     		bhi	.L46
 531              		.loc 1 171 0 is_stmt 0 discriminator 1
 532 017c 2279     		ldrb	r2, [r4, #4]
 533 017e 0299     		ldr	r1, [sp, #8]
 534 0180 8A42     		cmp	r2, r1
 535 0182 09D2     		bcs	.L46
 536              		.loc 1 171 0 discriminator 2
 537 0184 6279     		ldrb	r2, [r4, #5]
 538 0186 002A     		cmp	r2, #0
 539 0188 06D0     		beq	.L46
 540              		.loc 1 171 0 discriminator 3
 541 018a B242     		cmp	r2, r6
 542 018c 04D8     		bhi	.L46
 543              	.L96:
 544              		.loc 1 171 0 discriminator 4
 545 018e 002F     		cmp	r7, #0
 546 0190 11D1     		bne	.L47
 547              		.loc 1 171 0 discriminator 5
 548 0192 E278     		ldrb	r2, [r4, #3]
 549 0194 7F2A     		cmp	r2, #127
 550 0196 0ED9     		bls	.L47
 551              	.L46:
 172:.\cmd.c       ****         {
 173:.\cmd.c       ****             RESPONCE=1;
ARM GAS  C:\Users\Jarik\AppData\Local\Temp\ccGrYxOh.s 			page 14


 552              		.loc 1 173 0 is_stmt 1
 553 0198 0123     		mov	r3, #1
 554 019a 89E0     		b	.L97
 555              	.L45:
 174:.\cmd.c       ****             f_close(&disk);
 175:.\cmd.c       ****             return;
 176:.\cmd.c       ****         }
 177:.\cmd.c       ****     }else
 178:.\cmd.c       ****     if (CMD==3)
 556              		.loc 1 178 0
 557 019c 032B     		cmp	r3, #3
 558 019e 0AD1     		bne	.L47
 179:.\cmd.c       ****         if ((D_TYPE>3) || (TRACK>=tracks) || (SECTOR==0) || ((sides==0) && (SIDE)))
 559              		.loc 1 179 0
 560 01a0 A278     		ldrb	r2, [r4, #2]
 561 01a2 032A     		cmp	r2, #3
 562 01a4 F8D8     		bhi	.L46
 563              		.loc 1 179 0 is_stmt 0 discriminator 1
 564 01a6 2279     		ldrb	r2, [r4, #4]
 565 01a8 0299     		ldr	r1, [sp, #8]
 566 01aa 8A42     		cmp	r2, r1
 567 01ac F4D2     		bcs	.L46
 568              		.loc 1 179 0 discriminator 2
 569 01ae 6279     		ldrb	r2, [r4, #5]
 570 01b0 002A     		cmp	r2, #0
 571 01b2 F1D0     		beq	.L46
 572 01b4 EBE7     		b	.L96
 573              	.L47:
 180:.\cmd.c       ****             {
 181:.\cmd.c       ****                 RESPONCE=1;
 182:.\cmd.c       ****                 f_close(&disk);
 183:.\cmd.c       ****                 return;
 184:.\cmd.c       ****             }
 185:.\cmd.c       ****    RESPONCE=0;
 574              		.loc 1 185 0 is_stmt 1
 575 01b6 0022     		mov	r2, #0
 576 01b8 2270     		strb	r2, [r4]
 186:.\cmd.c       ****    
 187:.\cmd.c       ****    if(CMD==1)             //1 read sector
 577              		.loc 1 187 0
 578 01ba 012B     		cmp	r3, #1
 579 01bc 1FD1     		bne	.L48
 188:.\cmd.c       ****         {
 189:.\cmd.c       ****             offset=sector_size*((spt*TRACK*(sides+1))+(SECTOR-1));
 580              		.loc 1 189 0
 581 01be 2179     		ldrb	r1, [r4, #4]
 582 01c0 019B     		ldr	r3, [sp, #4]
 583 01c2 7143     		mul	r1, r6
 584 01c4 0137     		add	r7, r7, #1
 585 01c6 7943     		mul	r1, r7
 586 01c8 1A88     		ldrh	r2, [r3]
 587 01ca 6379     		ldrb	r3, [r4, #5]
 588 01cc 013B     		sub	r3, r3, #1
 589 01ce C918     		add	r1, r1, r3
 190:.\cmd.c       ****             if(SIDE) offset+=sector_size*spt;
 590              		.loc 1 190 0
 591 01d0 E378     		ldrb	r3, [r4, #3]
ARM GAS  C:\Users\Jarik\AppData\Local\Temp\ccGrYxOh.s 			page 15


 189:.\cmd.c       ****             if(SIDE) offset+=sector_size*spt;
 592              		.loc 1 189 0
 593 01d2 5143     		mul	r1, r2
 594              	.LVL67:
 595              		.loc 1 190 0
 596 01d4 7F2B     		cmp	r3, #127
 597 01d6 01D9     		bls	.L49
 598              		.loc 1 190 0 is_stmt 0 discriminator 1
 599 01d8 5643     		mul	r6, r2
 600              	.LVL68:
 601 01da 8919     		add	r1, r1, r6
 602              	.LVL69:
 603              	.L49:
 191:.\cmd.c       ****             rc=f_lseek(&disk,offset);
 604              		.loc 1 191 0 is_stmt 1
 605 01dc 281C     		mov	r0, r5
 606 01de FFF7FEFF 		bl	f_lseek
 607              	.LVL70:
 192:.\cmd.c       ****             rc=f_read(&disk,buf+8,sector_size,&readed);  // buf+8 - readed data
 608              		.loc 1 192 0
 609 01e2 211C     		mov	r1, r4
 610 01e4 019B     		ldr	r3, [sp, #4]
 611 01e6 281C     		mov	r0, r5
 612 01e8 1A88     		ldrh	r2, [r3]
 613 01ea 0831     		add	r1, r1, #8
 614 01ec 05AB     		add	r3, sp, #20
 615 01ee FFF7FEFF 		bl	f_read
 616              	.LVL71:
 617 01f2 059B     		ldr	r3, [sp, #20]
 193:.\cmd.c       ****             if(rc!=FR_OK) RESPONCE=5+rc;
 618              		.loc 1 193 0
 619 01f4 0028     		cmp	r0, #0
 620 01f6 1FD0     		beq	.L100
 621              		.loc 1 193 0 is_stmt 0 discriminator 1
 622 01f8 0530     		add	r0, r0, #5
 623              	.LVL72:
 624 01fa 2070     		strb	r0, [r4]
 625 01fc 22E0     		b	.L55
 626              	.LVL73:
 627              	.L48:
 194:.\cmd.c       ****             else
 195:.\cmd.c       ****                 if (readed<sector_size) RESPONCE=2;
 196:.\cmd.c       ****             buf[6]=readed & 0xff;                   // bytes readed
 197:.\cmd.c       ****             buf[7]=(readed>>8) & 0xff; 
 198:.\cmd.c       ****             f_close(&disk);
 199:.\cmd.c       ****         }
 200:.\cmd.c       ****     else if (CMD==2)
 628              		.loc 1 200 0 is_stmt 1
 629 01fe 022B     		cmp	r3, #2
 630 0200 24D1     		bne	.L53
 201:.\cmd.c       ****                          //2 write sector
 202:.\cmd.c       ****         {
 203:.\cmd.c       ****             offset=sector_size*((spt*TRACK*(sides+1))+(SECTOR-1));
 631              		.loc 1 203 0
 632 0202 2179     		ldrb	r1, [r4, #4]
 633 0204 019B     		ldr	r3, [sp, #4]
 634 0206 7143     		mul	r1, r6
ARM GAS  C:\Users\Jarik\AppData\Local\Temp\ccGrYxOh.s 			page 16


 635 0208 0137     		add	r7, r7, #1
 636 020a 7943     		mul	r1, r7
 637 020c 1A88     		ldrh	r2, [r3]
 638 020e 6379     		ldrb	r3, [r4, #5]
 639 0210 013B     		sub	r3, r3, #1
 640 0212 C918     		add	r1, r1, r3
 204:.\cmd.c       ****             if(SIDE) offset+=sector_size*spt;
 641              		.loc 1 204 0
 642 0214 E378     		ldrb	r3, [r4, #3]
 203:.\cmd.c       ****             if(SIDE) offset+=sector_size*spt;
 643              		.loc 1 203 0
 644 0216 5143     		mul	r1, r2
 645              	.LVL74:
 646              		.loc 1 204 0
 647 0218 7F2B     		cmp	r3, #127
 648 021a 01D9     		bls	.L54
 649              		.loc 1 204 0 is_stmt 0 discriminator 1
 650 021c 5643     		mul	r6, r2
 651              	.LVL75:
 652 021e 8919     		add	r1, r1, r6
 653              	.LVL76:
 654              	.L54:
 205:.\cmd.c       ****             rc=f_lseek(&disk,offset);
 655              		.loc 1 205 0 is_stmt 1
 656 0220 281C     		mov	r0, r5
 657 0222 FFF7FEFF 		bl	f_lseek
 658              	.LVL77:
 206:.\cmd.c       ****             rc=f_write(&disk,buf+8,sector_size,&readed);  // buf+8 - written data
 659              		.loc 1 206 0
 660 0226 211C     		mov	r1, r4
 661 0228 019B     		ldr	r3, [sp, #4]
 662 022a 281C     		mov	r0, r5
 663 022c 1A88     		ldrh	r2, [r3]
 664 022e 0831     		add	r1, r1, #8
 665 0230 05AB     		add	r3, sp, #20
 666 0232 FFF7FEFF 		bl	f_write
 667              	.LVL78:
 207:.\cmd.c       ****             if (readed<sector_size) RESPONCE=2;
 668              		.loc 1 207 0
 669 0236 059B     		ldr	r3, [sp, #20]
 670              	.L100:
 671 0238 019A     		ldr	r2, [sp, #4]
 672 023a 1288     		ldrh	r2, [r2]
 673 023c 9342     		cmp	r3, r2
 674 023e 01D2     		bcs	.L55
 675              		.loc 1 207 0 is_stmt 0 discriminator 1
 676 0240 0222     		mov	r2, #2
 677 0242 2270     		strb	r2, [r4]
 678              	.L55:
 208:.\cmd.c       ****             buf[6]=readed & 0xff;                   // bytes readed
 679              		.loc 1 208 0 is_stmt 1
 680 0244 A371     		strb	r3, [r4, #6]
 209:.\cmd.c       ****             buf[7]=(readed>>8) & 0xff; 
 681              		.loc 1 209 0
 682 0246 1B0A     		lsr	r3, r3, #8
 683 0248 E371     		strb	r3, [r4, #7]
 684 024a 32E0     		b	.L65
ARM GAS  C:\Users\Jarik\AppData\Local\Temp\ccGrYxOh.s 			page 17


 685              	.LVL79:
 686              	.L53:
 210:.\cmd.c       ****             f_close(&disk);
 211:.\cmd.c       ****         }
 212:.\cmd.c       ****     else if (CMD==3)
 687              		.loc 1 212 0
 688 024c 032B     		cmp	r3, #3
 689 024e 34D1     		bne	.L56
 213:.\cmd.c       ****                      //3 format track
 214:.\cmd.c       ****         {
 215:.\cmd.c       ****             offset=sector_size*((spt*TRACK*(sides+1)));
 690              		.loc 1 215 0
 691 0250 2179     		ldrb	r1, [r4, #4]
 692 0252 0137     		add	r7, r7, #1
 693 0254 7143     		mul	r1, r6
 694 0256 019B     		ldr	r3, [sp, #4]
 695 0258 7943     		mul	r1, r7
 696 025a 1B88     		ldrh	r3, [r3]
 216:.\cmd.c       ****             if(SIDE) offset+=sector_size*spt;
 697              		.loc 1 216 0
 698 025c E278     		ldrb	r2, [r4, #3]
 215:.\cmd.c       ****             if(SIDE) offset+=sector_size*spt;
 699              		.loc 1 215 0
 700 025e 5943     		mul	r1, r3
 701              	.LVL80:
 702              		.loc 1 216 0
 703 0260 7F2A     		cmp	r2, #127
 704 0262 01D9     		bls	.L57
 705              		.loc 1 216 0 is_stmt 0 discriminator 1
 706 0264 7343     		mul	r3, r6
 707 0266 C918     		add	r1, r1, r3
 708              	.LVL81:
 709              	.L57:
 217:.\cmd.c       ****             f_lseek(&disk,offset);
 710              		.loc 1 217 0 is_stmt 1
 711 0268 281C     		mov	r0, r5
 712 026a FFF7FEFF 		bl	f_lseek
 713              	.LVL82:
 218:.\cmd.c       ****             for(i=0;i<(sector_size/2);i++)
 714              		.loc 1 218 0
 715 026e 0023     		mov	r3, #0
 716              	.LVL83:
 717              	.L58:
 718              		.loc 1 218 0 is_stmt 0 discriminator 1
 719 0270 019A     		ldr	r2, [sp, #4]
 720 0272 1288     		ldrh	r2, [r2]
 721 0274 5208     		lsr	r2, r2, #1
 722 0276 9342     		cmp	r3, r2
 723 0278 09D2     		bcs	.L102
 219:.\cmd.c       ****             {
 220:.\cmd.c       ****                 buf[8+(i*2)]=buf[6];
 724              		.loc 1 220 0 is_stmt 1 discriminator 3
 725 027a A179     		ldrb	r1, [r4, #6]
 726 027c 1A1D     		add	r2, r3, #4
 727 027e 5200     		lsl	r2, r2, #1
 728 0280 A154     		strb	r1, [r4, r2]
 221:.\cmd.c       ****                 buf[9+(i*2)]=buf[7];
ARM GAS  C:\Users\Jarik\AppData\Local\Temp\ccGrYxOh.s 			page 18


 729              		.loc 1 221 0 discriminator 3
 730 0282 E179     		ldrb	r1, [r4, #7]
 731 0284 A218     		add	r2, r4, r2
 218:.\cmd.c       ****             for(i=0;i<(sector_size/2);i++)
 732              		.loc 1 218 0 discriminator 3
 733 0286 0133     		add	r3, r3, #1
 734              	.LVL84:
 735              		.loc 1 221 0 discriminator 3
 736 0288 5170     		strb	r1, [r2, #1]
 218:.\cmd.c       ****             for(i=0;i<(sector_size/2);i++)
 737              		.loc 1 218 0 discriminator 3
 738 028a 9BB2     		uxth	r3, r3
 739              	.LVL85:
 740 028c F0E7     		b	.L58
 741              	.L102:
 742 028e 0027     		mov	r7, #0
 743              	.LVL86:
 744              	.L60:
 222:.\cmd.c       ****             }
 223:.\cmd.c       ****             for(i=0;i<spt;i++)
 745              		.loc 1 223 0 discriminator 1
 746 0290 B742     		cmp	r7, r6
 747 0292 0ED2     		bcs	.L65
 224:.\cmd.c       ****             {
 225:.\cmd.c       ****                 rc=f_write(&disk,buf+8,sector_size,&readed);
 748              		.loc 1 225 0
 749 0294 211C     		mov	r1, r4
 750 0296 019B     		ldr	r3, [sp, #4]
 751 0298 281C     		mov	r0, r5
 752 029a 1A88     		ldrh	r2, [r3]
 753 029c 0831     		add	r1, r1, #8
 754 029e 05AB     		add	r3, sp, #20
 755 02a0 FFF7FEFF 		bl	f_write
 756              	.LVL87:
 226:.\cmd.c       ****                 if (rc!=FR_OK) break;
 757              		.loc 1 226 0
 758 02a4 0028     		cmp	r0, #0
 759 02a6 02D1     		bne	.L61
 223:.\cmd.c       ****             {
 760              		.loc 1 223 0 discriminator 2
 761 02a8 0137     		add	r7, r7, #1
 762              	.LVL88:
 763 02aa BFB2     		uxth	r7, r7
 764              	.LVL89:
 765 02ac F0E7     		b	.L60
 766              	.L61:
 227:.\cmd.c       ****             }
 228:.\cmd.c       ****             if (i<spt) RESPONCE=2;
 767              		.loc 1 228 0
 768 02ae 0223     		mov	r3, #2
 769              	.LVL90:
 770              	.L97:
 771 02b0 2370     		strb	r3, [r4]
 772              	.LVL91:
 773              	.L65:
 229:.\cmd.c       ****             f_close(&disk);
 774              		.loc 1 229 0
ARM GAS  C:\Users\Jarik\AppData\Local\Temp\ccGrYxOh.s 			page 19


 775 02b2 281C     		mov	r0, r5
 776 02b4 FFF7FEFF 		bl	f_close
 777              	.LVL92:
 778 02b8 07E0     		b	.L24
 779              	.LVL93:
 780              	.L56:
 230:.\cmd.c       ****         }
 231:.\cmd.c       ****     
 232:.\cmd.c       ****         else
 233:.\cmd.c       ****         {
 234:.\cmd.c       ****             RESPONCE=4;       // invalid cmd
 781              		.loc 1 234 0
 782 02ba 0423     		mov	r3, #4
 783              	.LVL94:
 784              	.L94:
 785 02bc 2370     		strb	r3, [r4]
 235:.\cmd.c       ****             return;
 786              		.loc 1 235 0
 787 02be 04E0     		b	.L24
 788              	.LVL95:
 789              	.L42:
 168:.\cmd.c       ****     if(CMD<3)
 790              		.loc 1 168 0
 791 02c0 281C     		mov	r0, r5
 792              	.LVL96:
 793 02c2 111C     		mov	r1, r2
 794 02c4 FFF7FEFF 		bl	f_lseek
 795              	.LVL97:
 796 02c8 51E7     		b	.L64
 797              	.LVL98:
 798              	.L24:
 236:.\cmd.c       ****         }
 237:.\cmd.c       ****     
 238:.\cmd.c       **** }
 799              		.loc 1 238 0
 800 02ca 07B0     		add	sp, sp, #28
 801              		@ sp needed
 802              	.LVL99:
 803 02cc F0BD     		pop	{r4, r5, r6, r7, pc}
 804              	.L104:
 805 02ce C046     		.align	2
 806              	.L103:
 807 02d0 FE030000 		.word	1022
 808 02d4 07000000 		.word	.LC5
 809 02d8 00000000 		.word	log_file
 810 02dc 12000000 		.word	.LC8
 811 02e0 00000000 		.word	.LANCHOR0
 812 02e4 00000000 		.word	oct_buf
 813 02e8 00000000 		.word	disk
 814 02ec 00000000 		.word	.LANCHOR1
 815              		.cfi_endproc
 816              	.LFE36:
 817              		.size	execute_cmd, .-execute_cmd
 818              		.comm	oct_buf,10,1
 819              		.comm	disk,40,4
 820              		.global	sector_size
 821              		.section	.rodata.str1.1,"aMS",%progbits,1
ARM GAS  C:\Users\Jarik\AppData\Local\Temp\ccGrYxOh.s 			page 20


 822              	.LC2:
 823 0000 2F646973 		.ascii	"/disks\000"
 823      6B7300
 824              	.LC5:
 825 0007 4C6F6720 		.ascii	"Log entry:\000"
 825      656E7472 
 825      793A00
 826              	.LC8:
 827 0012 2F6C6F67 		.ascii	"/log.txt\000"
 827      2E747874 
 827      00
 828              		.data
 829              		.align	1
 830              		.set	.LANCHOR1,. + 0
 831              		.type	sector_size, %object
 832              		.size	sector_size, 2
 833              	sector_size:
 834 0000 0002     		.short	512
 835              		.bss
 836              		.align	2
 837              		.set	.LANCHOR0,. + 0
 838              		.type	log_N.5734, %object
 839              		.size	log_N.5734, 4
 840              	log_N.5734:
 841 0000 00000000 		.space	4
 842              		.text
 843              	.Letext0:
 844              		.file 2 "c:\\program files\\cypress\\psoc creator\\3.3\\psoc creator\\import\\gnu\\arm\\4.9.3\\arm
 845              		.file 3 "c:\\program files\\cypress\\psoc creator\\3.3\\psoc creator\\import\\gnu\\arm\\4.9.3\\arm
 846              		.file 4 "Generated_Source\\PSoC4/cytypes.h"
 847              		.file 5 "./sd/integer.h"
 848              		.file 6 ".\\sd/ff.h"
 849              		.file 7 "Generated_Source\\PSoC4/CyLib.h"