ARM GAS  C:\Users\Jarik\AppData\Local\Temp\ccuSh2si.s 			page 1


   1              		.cpu cortex-m0
   2              		.fpu softvfp
   3              		.eabi_attribute 20, 1
   4              		.eabi_attribute 21, 1
   5              		.eabi_attribute 23, 3
   6              		.eabi_attribute 24, 1
   7              		.eabi_attribute 25, 1
   8              		.eabi_attribute 26, 1
   9              		.eabi_attribute 30, 4
  10              		.eabi_attribute 34, 0
  11              		.eabi_attribute 18, 4
  12              		.code	16
  13              		.file	"cyfitter_cfg.c"
  14              		.text
  15              	.Ltext0:
  16              		.cfi_sections	.debug_frame
  17              		.section	.psocinit,"ax",%progbits
  18              		.align	1
  19              		.global	cyfitter_cfg
  20              		.code	16
  21              		.thumb_func
  22              		.type	cyfitter_cfg, %function
  23              	cyfitter_cfg:
  24              	.LFB6:
  25              		.file 1 ".\\Generated_Source\\PSoC4\\cyfitter_cfg.c"
   1:.\Generated_Source\PSoC4/cyfitter_cfg.c **** /*******************************************************************************
   2:.\Generated_Source\PSoC4/cyfitter_cfg.c **** * File Name: cyfitter_cfg.c
   3:.\Generated_Source\PSoC4/cyfitter_cfg.c **** * 
   4:.\Generated_Source\PSoC4/cyfitter_cfg.c **** * PSoC Creator  3.3 CP1
   5:.\Generated_Source\PSoC4/cyfitter_cfg.c **** *
   6:.\Generated_Source\PSoC4/cyfitter_cfg.c **** * Description:
   7:.\Generated_Source\PSoC4/cyfitter_cfg.c **** * This file contains device initialization code.
   8:.\Generated_Source\PSoC4/cyfitter_cfg.c **** * Except for the user defined sections in CyClockStartupError(), this file should not be modified.
   9:.\Generated_Source\PSoC4/cyfitter_cfg.c **** * This file is automatically generated by PSoC Creator.
  10:.\Generated_Source\PSoC4/cyfitter_cfg.c **** *
  11:.\Generated_Source\PSoC4/cyfitter_cfg.c **** ********************************************************************************
  12:.\Generated_Source\PSoC4/cyfitter_cfg.c **** * Copyright (c) 2007-2015 Cypress Semiconductor.  All rights reserved.
  13:.\Generated_Source\PSoC4/cyfitter_cfg.c **** * You may use this file only in accordance with the license, terms, conditions, 
  14:.\Generated_Source\PSoC4/cyfitter_cfg.c **** * disclaimers, and limitations in the end user license agreement accompanying 
  15:.\Generated_Source\PSoC4/cyfitter_cfg.c **** * the software package with which this file was provided.
  16:.\Generated_Source\PSoC4/cyfitter_cfg.c **** ********************************************************************************/
  17:.\Generated_Source\PSoC4/cyfitter_cfg.c **** 
  18:.\Generated_Source\PSoC4/cyfitter_cfg.c **** #include <string.h>
  19:.\Generated_Source\PSoC4/cyfitter_cfg.c **** #include "cytypes.h"
  20:.\Generated_Source\PSoC4/cyfitter_cfg.c **** #include "cydevice_trm.h"
  21:.\Generated_Source\PSoC4/cyfitter_cfg.c **** #include "cyfitter.h"
  22:.\Generated_Source\PSoC4/cyfitter_cfg.c **** #include "CyLib.h"
  23:.\Generated_Source\PSoC4/cyfitter_cfg.c **** #include "cyfitter_cfg.h"
  24:.\Generated_Source\PSoC4/cyfitter_cfg.c **** 
  25:.\Generated_Source\PSoC4/cyfitter_cfg.c **** 
  26:.\Generated_Source\PSoC4/cyfitter_cfg.c **** #if defined(__GNUC__) || defined(__ARMCC_VERSION)
  27:.\Generated_Source\PSoC4/cyfitter_cfg.c ****     #define CYPACKED 
  28:.\Generated_Source\PSoC4/cyfitter_cfg.c ****     #define CYPACKED_ATTR __attribute__ ((packed))
  29:.\Generated_Source\PSoC4/cyfitter_cfg.c ****     #define CYALIGNED __attribute__ ((aligned))
  30:.\Generated_Source\PSoC4/cyfitter_cfg.c ****     #define CY_CFG_UNUSED __attribute__ ((unused))
  31:.\Generated_Source\PSoC4/cyfitter_cfg.c ****     #define CY_CFG_SECTION __attribute__ ((section(".psocinit")))
  32:.\Generated_Source\PSoC4/cyfitter_cfg.c ****     
ARM GAS  C:\Users\Jarik\AppData\Local\Temp\ccuSh2si.s 			page 2


  33:.\Generated_Source\PSoC4/cyfitter_cfg.c ****     #if defined(__ARMCC_VERSION)
  34:.\Generated_Source\PSoC4/cyfitter_cfg.c ****         #define CY_CFG_MEMORY_BARRIER() __memory_changed()
  35:.\Generated_Source\PSoC4/cyfitter_cfg.c ****     #else
  36:.\Generated_Source\PSoC4/cyfitter_cfg.c ****         #define CY_CFG_MEMORY_BARRIER() __sync_synchronize()
  37:.\Generated_Source\PSoC4/cyfitter_cfg.c ****     #endif
  38:.\Generated_Source\PSoC4/cyfitter_cfg.c ****     
  39:.\Generated_Source\PSoC4/cyfitter_cfg.c **** #elif defined(__ICCARM__)
  40:.\Generated_Source\PSoC4/cyfitter_cfg.c ****     #include <intrinsics.h>
  41:.\Generated_Source\PSoC4/cyfitter_cfg.c **** 
  42:.\Generated_Source\PSoC4/cyfitter_cfg.c ****     #define CYPACKED __packed
  43:.\Generated_Source\PSoC4/cyfitter_cfg.c ****     #define CYPACKED_ATTR 
  44:.\Generated_Source\PSoC4/cyfitter_cfg.c ****     #define CYALIGNED _Pragma("data_alignment=4")
  45:.\Generated_Source\PSoC4/cyfitter_cfg.c ****     #define CY_CFG_UNUSED _Pragma("diag_suppress=Pe177")
  46:.\Generated_Source\PSoC4/cyfitter_cfg.c ****     #define CY_CFG_SECTION _Pragma("location=\".psocinit\"")
  47:.\Generated_Source\PSoC4/cyfitter_cfg.c ****     
  48:.\Generated_Source\PSoC4/cyfitter_cfg.c ****     #define CY_CFG_MEMORY_BARRIER() __DMB()
  49:.\Generated_Source\PSoC4/cyfitter_cfg.c ****     
  50:.\Generated_Source\PSoC4/cyfitter_cfg.c **** #else
  51:.\Generated_Source\PSoC4/cyfitter_cfg.c ****     #error Unsupported toolchain
  52:.\Generated_Source\PSoC4/cyfitter_cfg.c **** #endif
  53:.\Generated_Source\PSoC4/cyfitter_cfg.c **** 
  54:.\Generated_Source\PSoC4/cyfitter_cfg.c **** 
  55:.\Generated_Source\PSoC4/cyfitter_cfg.c **** CY_CFG_UNUSED
  56:.\Generated_Source\PSoC4/cyfitter_cfg.c **** static void CYMEMZERO(void *s, size_t n);
  57:.\Generated_Source\PSoC4/cyfitter_cfg.c **** CY_CFG_UNUSED
  58:.\Generated_Source\PSoC4/cyfitter_cfg.c **** static void CYMEMZERO(void *s, size_t n)
  59:.\Generated_Source\PSoC4/cyfitter_cfg.c **** {
  60:.\Generated_Source\PSoC4/cyfitter_cfg.c **** 	(void)memset(s, 0, n);
  61:.\Generated_Source\PSoC4/cyfitter_cfg.c **** }
  62:.\Generated_Source\PSoC4/cyfitter_cfg.c **** CY_CFG_UNUSED
  63:.\Generated_Source\PSoC4/cyfitter_cfg.c **** static void CYCONFIGCPY(void *dest, const void *src, size_t n);
  64:.\Generated_Source\PSoC4/cyfitter_cfg.c **** CY_CFG_UNUSED
  65:.\Generated_Source\PSoC4/cyfitter_cfg.c **** static void CYCONFIGCPY(void *dest, const void *src, size_t n)
  66:.\Generated_Source\PSoC4/cyfitter_cfg.c **** {
  67:.\Generated_Source\PSoC4/cyfitter_cfg.c **** 	(void)memcpy(dest, src, n);
  68:.\Generated_Source\PSoC4/cyfitter_cfg.c **** }
  69:.\Generated_Source\PSoC4/cyfitter_cfg.c **** CY_CFG_UNUSED
  70:.\Generated_Source\PSoC4/cyfitter_cfg.c **** static void CYCONFIGCPYCODE(void *dest, const void *src, size_t n);
  71:.\Generated_Source\PSoC4/cyfitter_cfg.c **** CY_CFG_UNUSED
  72:.\Generated_Source\PSoC4/cyfitter_cfg.c **** static void CYCONFIGCPYCODE(void *dest, const void *src, size_t n)
  73:.\Generated_Source\PSoC4/cyfitter_cfg.c **** {
  74:.\Generated_Source\PSoC4/cyfitter_cfg.c **** 	(void)memcpy(dest, src, n);
  75:.\Generated_Source\PSoC4/cyfitter_cfg.c **** }
  76:.\Generated_Source\PSoC4/cyfitter_cfg.c **** 
  77:.\Generated_Source\PSoC4/cyfitter_cfg.c **** 
  78:.\Generated_Source\PSoC4/cyfitter_cfg.c **** 
  79:.\Generated_Source\PSoC4/cyfitter_cfg.c **** /* Clock startup error codes                                                   */
  80:.\Generated_Source\PSoC4/cyfitter_cfg.c **** #define CYCLOCKSTART_NO_ERROR    0u
  81:.\Generated_Source\PSoC4/cyfitter_cfg.c **** #define CYCLOCKSTART_XTAL_ERROR  1u
  82:.\Generated_Source\PSoC4/cyfitter_cfg.c **** #define CYCLOCKSTART_32KHZ_ERROR 2u
  83:.\Generated_Source\PSoC4/cyfitter_cfg.c **** #define CYCLOCKSTART_PLL_ERROR   3u
  84:.\Generated_Source\PSoC4/cyfitter_cfg.c **** 
  85:.\Generated_Source\PSoC4/cyfitter_cfg.c **** #ifdef CY_NEED_CYCLOCKSTARTUPERROR
  86:.\Generated_Source\PSoC4/cyfitter_cfg.c **** /*******************************************************************************
  87:.\Generated_Source\PSoC4/cyfitter_cfg.c **** * Function Name: CyClockStartupError
  88:.\Generated_Source\PSoC4/cyfitter_cfg.c **** ********************************************************************************
  89:.\Generated_Source\PSoC4/cyfitter_cfg.c **** * Summary:
ARM GAS  C:\Users\Jarik\AppData\Local\Temp\ccuSh2si.s 			page 3


  90:.\Generated_Source\PSoC4/cyfitter_cfg.c **** *  If an error is encountered during clock configuration (crystal startup error,
  91:.\Generated_Source\PSoC4/cyfitter_cfg.c **** *  PLL lock error, etc.), the system will end up here.  Unless reimplemented by
  92:.\Generated_Source\PSoC4/cyfitter_cfg.c **** *  the customer, this function will stop in an infinite loop.
  93:.\Generated_Source\PSoC4/cyfitter_cfg.c **** *
  94:.\Generated_Source\PSoC4/cyfitter_cfg.c **** * Parameters:
  95:.\Generated_Source\PSoC4/cyfitter_cfg.c **** *   void
  96:.\Generated_Source\PSoC4/cyfitter_cfg.c **** *
  97:.\Generated_Source\PSoC4/cyfitter_cfg.c **** * Return:
  98:.\Generated_Source\PSoC4/cyfitter_cfg.c **** *   void
  99:.\Generated_Source\PSoC4/cyfitter_cfg.c **** *
 100:.\Generated_Source\PSoC4/cyfitter_cfg.c **** *******************************************************************************/
 101:.\Generated_Source\PSoC4/cyfitter_cfg.c **** CY_CFG_UNUSED
 102:.\Generated_Source\PSoC4/cyfitter_cfg.c **** static void CyClockStartupError(uint8 errorCode);
 103:.\Generated_Source\PSoC4/cyfitter_cfg.c **** CY_CFG_UNUSED
 104:.\Generated_Source\PSoC4/cyfitter_cfg.c **** static void CyClockStartupError(uint8 errorCode)
 105:.\Generated_Source\PSoC4/cyfitter_cfg.c **** {
 106:.\Generated_Source\PSoC4/cyfitter_cfg.c ****     /* To remove the compiler warning if errorCode not used.                */
 107:.\Generated_Source\PSoC4/cyfitter_cfg.c ****     errorCode = errorCode;
 108:.\Generated_Source\PSoC4/cyfitter_cfg.c **** 
 109:.\Generated_Source\PSoC4/cyfitter_cfg.c ****     /* `#START CyClockStartupError` */
 110:.\Generated_Source\PSoC4/cyfitter_cfg.c **** 
 111:.\Generated_Source\PSoC4/cyfitter_cfg.c ****     /* If we have a clock startup error (bad MHz crystal, PLL lock, etc.),  */
 112:.\Generated_Source\PSoC4/cyfitter_cfg.c ****     /* we will end up here to allow the customer to implement something to  */
 113:.\Generated_Source\PSoC4/cyfitter_cfg.c ****     /* deal with the clock condition.                                       */
 114:.\Generated_Source\PSoC4/cyfitter_cfg.c **** 
 115:.\Generated_Source\PSoC4/cyfitter_cfg.c ****     /* `#END` */
 116:.\Generated_Source\PSoC4/cyfitter_cfg.c **** 
 117:.\Generated_Source\PSoC4/cyfitter_cfg.c ****     /* If nothing else, stop here since the clocks have not started         */
 118:.\Generated_Source\PSoC4/cyfitter_cfg.c ****     /* correctly.                                                           */
 119:.\Generated_Source\PSoC4/cyfitter_cfg.c ****     while(1) {}
 120:.\Generated_Source\PSoC4/cyfitter_cfg.c **** }
 121:.\Generated_Source\PSoC4/cyfitter_cfg.c **** #endif
 122:.\Generated_Source\PSoC4/cyfitter_cfg.c **** 
 123:.\Generated_Source\PSoC4/cyfitter_cfg.c **** #define CY_CFG_BASE_ADDR_COUNT 9u
 124:.\Generated_Source\PSoC4/cyfitter_cfg.c **** CYPACKED typedef struct
 125:.\Generated_Source\PSoC4/cyfitter_cfg.c **** {
 126:.\Generated_Source\PSoC4/cyfitter_cfg.c **** 	uint8 offset;
 127:.\Generated_Source\PSoC4/cyfitter_cfg.c **** 	uint8 value;
 128:.\Generated_Source\PSoC4/cyfitter_cfg.c **** } CYPACKED_ATTR cy_cfg_addrvalue_t;
 129:.\Generated_Source\PSoC4/cyfitter_cfg.c **** 
 130:.\Generated_Source\PSoC4/cyfitter_cfg.c **** 
 131:.\Generated_Source\PSoC4/cyfitter_cfg.c **** 
 132:.\Generated_Source\PSoC4/cyfitter_cfg.c **** /*******************************************************************************
 133:.\Generated_Source\PSoC4/cyfitter_cfg.c **** * Function Name: cfg_write_bytes32
 134:.\Generated_Source\PSoC4/cyfitter_cfg.c **** ********************************************************************************
 135:.\Generated_Source\PSoC4/cyfitter_cfg.c **** * Summary:
 136:.\Generated_Source\PSoC4/cyfitter_cfg.c **** *  This function is used for setting up the chip configuration areas that
 137:.\Generated_Source\PSoC4/cyfitter_cfg.c **** *  contain relatively sparse data.
 138:.\Generated_Source\PSoC4/cyfitter_cfg.c **** *
 139:.\Generated_Source\PSoC4/cyfitter_cfg.c **** * Parameters:
 140:.\Generated_Source\PSoC4/cyfitter_cfg.c **** *   void
 141:.\Generated_Source\PSoC4/cyfitter_cfg.c **** *
 142:.\Generated_Source\PSoC4/cyfitter_cfg.c **** * Return:
 143:.\Generated_Source\PSoC4/cyfitter_cfg.c **** *   void
 144:.\Generated_Source\PSoC4/cyfitter_cfg.c **** *
 145:.\Generated_Source\PSoC4/cyfitter_cfg.c **** *******************************************************************************/
 146:.\Generated_Source\PSoC4/cyfitter_cfg.c **** static void cfg_write_bytes32(const uint32 addr_table[], const cy_cfg_addrvalue_t data_table[]);
ARM GAS  C:\Users\Jarik\AppData\Local\Temp\ccuSh2si.s 			page 4


 147:.\Generated_Source\PSoC4/cyfitter_cfg.c **** static void cfg_write_bytes32(const uint32 addr_table[], const cy_cfg_addrvalue_t data_table[])
 148:.\Generated_Source\PSoC4/cyfitter_cfg.c **** {
 149:.\Generated_Source\PSoC4/cyfitter_cfg.c **** 	/* For 32-bit little-endian architectures */
 150:.\Generated_Source\PSoC4/cyfitter_cfg.c **** 	uint32 i, j = 0u;
 151:.\Generated_Source\PSoC4/cyfitter_cfg.c **** 	for (i = 0u; i < CY_CFG_BASE_ADDR_COUNT; i++)
 152:.\Generated_Source\PSoC4/cyfitter_cfg.c **** 	{
 153:.\Generated_Source\PSoC4/cyfitter_cfg.c **** 		uint32 baseAddr = addr_table[i];
 154:.\Generated_Source\PSoC4/cyfitter_cfg.c **** 		uint8 count = (uint8)baseAddr;
 155:.\Generated_Source\PSoC4/cyfitter_cfg.c **** 		baseAddr &= 0xFFFFFF00u;
 156:.\Generated_Source\PSoC4/cyfitter_cfg.c **** 		while (count != 0u)
 157:.\Generated_Source\PSoC4/cyfitter_cfg.c **** 		{
 158:.\Generated_Source\PSoC4/cyfitter_cfg.c **** 			CY_SET_XTND_REG8((void CYFAR *)(baseAddr + data_table[j].offset), data_table[j].value);
 159:.\Generated_Source\PSoC4/cyfitter_cfg.c **** 			j++;
 160:.\Generated_Source\PSoC4/cyfitter_cfg.c **** 			count--;
 161:.\Generated_Source\PSoC4/cyfitter_cfg.c **** 		}
 162:.\Generated_Source\PSoC4/cyfitter_cfg.c **** 	}
 163:.\Generated_Source\PSoC4/cyfitter_cfg.c **** }
 164:.\Generated_Source\PSoC4/cyfitter_cfg.c **** 
 165:.\Generated_Source\PSoC4/cyfitter_cfg.c **** 
 166:.\Generated_Source\PSoC4/cyfitter_cfg.c **** /*******************************************************************************
 167:.\Generated_Source\PSoC4/cyfitter_cfg.c **** * Function Name: ClockSetup
 168:.\Generated_Source\PSoC4/cyfitter_cfg.c **** ********************************************************************************
 169:.\Generated_Source\PSoC4/cyfitter_cfg.c **** *
 170:.\Generated_Source\PSoC4/cyfitter_cfg.c **** * Summary:
 171:.\Generated_Source\PSoC4/cyfitter_cfg.c **** *   Performs the initialization of all of the clocks in the device based on the
 172:.\Generated_Source\PSoC4/cyfitter_cfg.c **** *   settings in the Clock tab of the DWR.  This includes enabling the requested
 173:.\Generated_Source\PSoC4/cyfitter_cfg.c **** *   clocks and setting the necessary dividers to produce the desired frequency. 
 174:.\Generated_Source\PSoC4/cyfitter_cfg.c **** *
 175:.\Generated_Source\PSoC4/cyfitter_cfg.c **** * Parameters:
 176:.\Generated_Source\PSoC4/cyfitter_cfg.c **** *   void
 177:.\Generated_Source\PSoC4/cyfitter_cfg.c **** *
 178:.\Generated_Source\PSoC4/cyfitter_cfg.c **** * Return:
 179:.\Generated_Source\PSoC4/cyfitter_cfg.c **** *   void
 180:.\Generated_Source\PSoC4/cyfitter_cfg.c **** *
 181:.\Generated_Source\PSoC4/cyfitter_cfg.c **** *******************************************************************************/
 182:.\Generated_Source\PSoC4/cyfitter_cfg.c **** static void ClockSetup(void);
 183:.\Generated_Source\PSoC4/cyfitter_cfg.c **** CY_CFG_SECTION
 184:.\Generated_Source\PSoC4/cyfitter_cfg.c **** static void ClockSetup(void)
 185:.\Generated_Source\PSoC4/cyfitter_cfg.c **** {
 186:.\Generated_Source\PSoC4/cyfitter_cfg.c **** 	/* Enable HALF_EN before trimming for the flash accelerator. */
 187:.\Generated_Source\PSoC4/cyfitter_cfg.c **** 	CY_SET_REG32((void CYXDATA *)(CYREG_CLK_SELECT), (CY_GET_REG32((void *)CYREG_CLK_SELECT) | 0x00040
 188:.\Generated_Source\PSoC4/cyfitter_cfg.c **** 
 189:.\Generated_Source\PSoC4/cyfitter_cfg.c **** 	/* Setup and trim IMO based on desired frequency. */
 190:.\Generated_Source\PSoC4/cyfitter_cfg.c **** 	CySysClkWriteImoFreq(48u);
 191:.\Generated_Source\PSoC4/cyfitter_cfg.c **** 	/* CYDEV_CLK_ILO_CONFIG Starting address: CYDEV_CLK_ILO_CONFIG */
 192:.\Generated_Source\PSoC4/cyfitter_cfg.c **** 	CY_SET_XTND_REG32((void CYFAR *)(CYREG_CLK_ILO_CONFIG), 0x80000006u);
 193:.\Generated_Source\PSoC4/cyfitter_cfg.c **** 
 194:.\Generated_Source\PSoC4/cyfitter_cfg.c **** 
 195:.\Generated_Source\PSoC4/cyfitter_cfg.c **** 	/* CYDEV_CLK_SELECT00 Starting address: CYDEV_CLK_SELECT00 */
 196:.\Generated_Source\PSoC4/cyfitter_cfg.c **** 	CY_SET_XTND_REG32((void CYFAR *)(CYREG_CLK_SELECT02), 0x00000010u);
 197:.\Generated_Source\PSoC4/cyfitter_cfg.c **** 
 198:.\Generated_Source\PSoC4/cyfitter_cfg.c **** 	/* CYDEV_CLK_IMO_CONFIG Starting address: CYDEV_CLK_IMO_CONFIG */
 199:.\Generated_Source\PSoC4/cyfitter_cfg.c **** 	CY_SET_XTND_REG32((void CYFAR *)(CYREG_CLK_IMO_CONFIG), 0x80000000u);
 200:.\Generated_Source\PSoC4/cyfitter_cfg.c **** 
 201:.\Generated_Source\PSoC4/cyfitter_cfg.c **** 	/* CYDEV_CLK_SELECT Starting address: CYDEV_CLK_SELECT */
 202:.\Generated_Source\PSoC4/cyfitter_cfg.c **** 	CY_SET_XTND_REG32((void CYFAR *)(CYREG_CLK_SELECT), 0x00040000u);
 203:.\Generated_Source\PSoC4/cyfitter_cfg.c **** 
ARM GAS  C:\Users\Jarik\AppData\Local\Temp\ccuSh2si.s 			page 5


 204:.\Generated_Source\PSoC4/cyfitter_cfg.c **** 	/* CYDEV_CLK_DIVIDER_A00 Starting address: CYDEV_CLK_DIVIDER_A00 */
 205:.\Generated_Source\PSoC4/cyfitter_cfg.c **** 	CY_SET_XTND_REG32((void CYFAR *)(CYREG_CLK_DIVIDER_A00), 0x80000001u);
 206:.\Generated_Source\PSoC4/cyfitter_cfg.c **** 
 207:.\Generated_Source\PSoC4/cyfitter_cfg.c **** 	CY_SET_XTND_REG32((void CYFAR *)(CYREG_WDT_CONFIG), 0x00000000u);
 208:.\Generated_Source\PSoC4/cyfitter_cfg.c **** }
 209:.\Generated_Source\PSoC4/cyfitter_cfg.c **** 
 210:.\Generated_Source\PSoC4/cyfitter_cfg.c **** 
 211:.\Generated_Source\PSoC4/cyfitter_cfg.c **** /* Analog API Functions */
 212:.\Generated_Source\PSoC4/cyfitter_cfg.c **** 
 213:.\Generated_Source\PSoC4/cyfitter_cfg.c **** 
 214:.\Generated_Source\PSoC4/cyfitter_cfg.c **** /*******************************************************************************
 215:.\Generated_Source\PSoC4/cyfitter_cfg.c **** * Function Name: AnalogSetDefault
 216:.\Generated_Source\PSoC4/cyfitter_cfg.c **** ********************************************************************************
 217:.\Generated_Source\PSoC4/cyfitter_cfg.c **** *
 218:.\Generated_Source\PSoC4/cyfitter_cfg.c **** * Summary:
 219:.\Generated_Source\PSoC4/cyfitter_cfg.c **** *  Sets up the analog portions of the chip to default values based on chip
 220:.\Generated_Source\PSoC4/cyfitter_cfg.c **** *  configuration options from the project.
 221:.\Generated_Source\PSoC4/cyfitter_cfg.c **** *
 222:.\Generated_Source\PSoC4/cyfitter_cfg.c **** * Parameters:
 223:.\Generated_Source\PSoC4/cyfitter_cfg.c **** *  void
 224:.\Generated_Source\PSoC4/cyfitter_cfg.c **** *
 225:.\Generated_Source\PSoC4/cyfitter_cfg.c **** * Return:
 226:.\Generated_Source\PSoC4/cyfitter_cfg.c **** *  void
 227:.\Generated_Source\PSoC4/cyfitter_cfg.c **** *
 228:.\Generated_Source\PSoC4/cyfitter_cfg.c **** *******************************************************************************/
 229:.\Generated_Source\PSoC4/cyfitter_cfg.c **** static void AnalogSetDefault(void);
 230:.\Generated_Source\PSoC4/cyfitter_cfg.c **** static void AnalogSetDefault(void)
 231:.\Generated_Source\PSoC4/cyfitter_cfg.c **** {
 232:.\Generated_Source\PSoC4/cyfitter_cfg.c **** }
 233:.\Generated_Source\PSoC4/cyfitter_cfg.c **** 
 234:.\Generated_Source\PSoC4/cyfitter_cfg.c **** #define CY_AMUX_UNUSED CYREG_CM0_ROM_DWT
 235:.\Generated_Source\PSoC4/cyfitter_cfg.c **** 
 236:.\Generated_Source\PSoC4/cyfitter_cfg.c **** 
 237:.\Generated_Source\PSoC4/cyfitter_cfg.c **** /*******************************************************************************
 238:.\Generated_Source\PSoC4/cyfitter_cfg.c **** * Function Name: cyfitter_cfg
 239:.\Generated_Source\PSoC4/cyfitter_cfg.c **** ********************************************************************************
 240:.\Generated_Source\PSoC4/cyfitter_cfg.c **** * Summary:
 241:.\Generated_Source\PSoC4/cyfitter_cfg.c **** *  This function is called by the start-up code for the selected device. It
 242:.\Generated_Source\PSoC4/cyfitter_cfg.c **** *  performs all of the necessary device configuration based on the design
 243:.\Generated_Source\PSoC4/cyfitter_cfg.c **** *  settings.  This includes settings from the Design Wide Resources (DWR) such
 244:.\Generated_Source\PSoC4/cyfitter_cfg.c **** *  as Clocks and Pins as well as any component configuration that is necessary.
 245:.\Generated_Source\PSoC4/cyfitter_cfg.c **** *
 246:.\Generated_Source\PSoC4/cyfitter_cfg.c **** * Parameters:  
 247:.\Generated_Source\PSoC4/cyfitter_cfg.c **** *   void
 248:.\Generated_Source\PSoC4/cyfitter_cfg.c **** *
 249:.\Generated_Source\PSoC4/cyfitter_cfg.c **** * Return:
 250:.\Generated_Source\PSoC4/cyfitter_cfg.c **** *   void
 251:.\Generated_Source\PSoC4/cyfitter_cfg.c **** *
 252:.\Generated_Source\PSoC4/cyfitter_cfg.c **** *******************************************************************************/
 253:.\Generated_Source\PSoC4/cyfitter_cfg.c **** CY_CFG_SECTION
 254:.\Generated_Source\PSoC4/cyfitter_cfg.c **** void cyfitter_cfg(void)
 255:.\Generated_Source\PSoC4/cyfitter_cfg.c **** {
  26              		.loc 1 255 0
  27              		.cfi_startproc
  28 0000 F8B5     		push	{r3, r4, r5, r6, r7, lr}
  29              		.cfi_def_cfa_offset 24
  30              		.cfi_offset 3, -24
ARM GAS  C:\Users\Jarik\AppData\Local\Temp\ccuSh2si.s 			page 6


  31              		.cfi_offset 4, -20
  32              		.cfi_offset 5, -16
  33              		.cfi_offset 6, -12
  34              		.cfi_offset 7, -8
  35              		.cfi_offset 14, -4
 256:.\Generated_Source\PSoC4/cyfitter_cfg.c **** 	/* Disable interrupts by default. Let user enable if/when they want. */
 257:.\Generated_Source\PSoC4/cyfitter_cfg.c **** 	CyGlobalIntDisable;
  36              		.loc 1 257 0
  37              	@ 257 ".\Generated_Source\PSoC4\cyfitter_cfg.c" 1
  38 0002 72B6     		CPSID   i
  39              	@ 0 "" 2
  40              	.LVL0:
  41              		.code	16
  42              	.LBB16:
  43              	.LBB17:
  44              	.LBB18:
  45              	.LBB19:
  60:.\Generated_Source\PSoC4/cyfitter_cfg.c **** }
  46              		.loc 1 60 0
  47 0004 8022     		mov	r2, #128
  48 0006 0021     		mov	r1, #0
  49 0008 D200     		lsl	r2, r2, #3
  50 000a 4748     		ldr	r0, .L7
  51 000c FFF7FEFF 		bl	memset
  52              	.LVL1:
  53 0010 8022     		mov	r2, #128
  54 0012 4648     		ldr	r0, .L7+4
  55 0014 D200     		lsl	r2, r2, #3
  56 0016 0021     		mov	r1, #0
  57 0018 FFF7FEFF 		bl	memset
  58              	.LVL2:
  59 001c 0022     		mov	r2, #0
  60 001e 141C     		mov	r4, r2
  61              	.LVL3:
  62              	.L4:
  63              	.LBE19:
  64              	.LBE18:
  65              	.LBE17:
  66              	.LBB20:
  67              	.LBB21:
  68              	.LBB22:
 153:.\Generated_Source\PSoC4/cyfitter_cfg.c **** 		uint8 count = (uint8)baseAddr;
  69              		.loc 1 153 0
  70 0020 4349     		ldr	r1, .L7+8
 155:.\Generated_Source\PSoC4/cyfitter_cfg.c **** 		while (count != 0u)
  71              		.loc 1 155 0
  72 0022 FF25     		mov	r5, #255
 153:.\Generated_Source\PSoC4/cyfitter_cfg.c **** 		uint8 count = (uint8)baseAddr;
  73              		.loc 1 153 0
  74 0024 5758     		ldr	r7, [r2, r1]
  75              	.LVL4:
  76 0026 2431     		add	r1, r1, #36
 155:.\Generated_Source\PSoC4/cyfitter_cfg.c **** 		while (count != 0u)
  77              		.loc 1 155 0
  78 0028 3E1C     		mov	r6, r7
  79 002a 081C     		mov	r0, r1
  80 002c 6300     		lsl	r3, r4, #1
ARM GAS  C:\Users\Jarik\AppData\Local\Temp\ccuSh2si.s 			page 7


  81 002e AE43     		bic	r6, r5
  82              	.LVL5:
  83 0030 3D40     		and	r5, r7
  84 0032 0133     		add	r3, r3, #1
  85 0034 6419     		add	r4, r4, r5
  86              	.LVL6:
  87 0036 CB18     		add	r3, r1, r3
  88 0038 6100     		lsl	r1, r4, #1
  89 003a 0131     		add	r1, r1, #1
  90 003c 4118     		add	r1, r0, r1
  91              	.LVL7:
  92              	.L2:
 156:.\Generated_Source\PSoC4/cyfitter_cfg.c **** 		{
  93              		.loc 1 156 0
  94 003e 8B42     		cmp	r3, r1
  95 0040 06D0     		beq	.L6
  96 0042 581E     		sub	r0, r3, #1
 158:.\Generated_Source\PSoC4/cyfitter_cfg.c **** 			j++;
  97              		.loc 1 158 0
  98 0044 0078     		ldrb	r0, [r0]
  99 0046 1D78     		ldrb	r5, [r3]
 100 0048 8019     		add	r0, r0, r6
 101 004a 0570     		strb	r5, [r0]
 102 004c 0233     		add	r3, r3, #2
 103 004e F6E7     		b	.L2
 104              	.L6:
 105              	.LVL8:
 106 0050 0432     		add	r2, r2, #4
 107              	.LBE22:
 151:.\Generated_Source\PSoC4/cyfitter_cfg.c **** 	{
 108              		.loc 1 151 0
 109 0052 242A     		cmp	r2, #36
 110 0054 E4D1     		bne	.L4
 111              	.LBE21:
 112              	.LBE20:
 258:.\Generated_Source\PSoC4/cyfitter_cfg.c **** 
 259:.\Generated_Source\PSoC4/cyfitter_cfg.c **** 	{
 260:.\Generated_Source\PSoC4/cyfitter_cfg.c **** 		static const uint32 CYCODE cy_cfg_addr_table[] = {
 261:.\Generated_Source\PSoC4/cyfitter_cfg.c **** 			0x400F3038u, /* Base address: 0x400F3000 Count: 56 */
 262:.\Generated_Source\PSoC4/cyfitter_cfg.c **** 			0x400F313Eu, /* Base address: 0x400F3100 Count: 62 */
 263:.\Generated_Source\PSoC4/cyfitter_cfg.c **** 			0x400F3222u, /* Base address: 0x400F3200 Count: 34 */
 264:.\Generated_Source\PSoC4/cyfitter_cfg.c **** 			0x400F3347u, /* Base address: 0x400F3300 Count: 71 */
 265:.\Generated_Source\PSoC4/cyfitter_cfg.c **** 			0x400F400Cu, /* Base address: 0x400F4000 Count: 12 */
 266:.\Generated_Source\PSoC4/cyfitter_cfg.c **** 			0x400F410Eu, /* Base address: 0x400F4100 Count: 14 */
 267:.\Generated_Source\PSoC4/cyfitter_cfg.c **** 			0x400F420Fu, /* Base address: 0x400F4200 Count: 15 */
 268:.\Generated_Source\PSoC4/cyfitter_cfg.c **** 			0x400F4312u, /* Base address: 0x400F4300 Count: 18 */
 269:.\Generated_Source\PSoC4/cyfitter_cfg.c **** 			0x400F6002u, /* Base address: 0x400F6000 Count: 2 */
 270:.\Generated_Source\PSoC4/cyfitter_cfg.c **** 		};
 271:.\Generated_Source\PSoC4/cyfitter_cfg.c **** 
 272:.\Generated_Source\PSoC4/cyfitter_cfg.c **** 		static const cy_cfg_addrvalue_t CYCODE cy_cfg_data_table[] = {
 273:.\Generated_Source\PSoC4/cyfitter_cfg.c **** 			{0x02u, 0x01u},
 274:.\Generated_Source\PSoC4/cyfitter_cfg.c **** 			{0x03u, 0x0Fu},
 275:.\Generated_Source\PSoC4/cyfitter_cfg.c **** 			{0x05u, 0x02u},
 276:.\Generated_Source\PSoC4/cyfitter_cfg.c **** 			{0x06u, 0x01u},
 277:.\Generated_Source\PSoC4/cyfitter_cfg.c **** 			{0x07u, 0x01u},
 278:.\Generated_Source\PSoC4/cyfitter_cfg.c **** 			{0x08u, 0x01u},
 279:.\Generated_Source\PSoC4/cyfitter_cfg.c **** 			{0x09u, 0x0Fu},
ARM GAS  C:\Users\Jarik\AppData\Local\Temp\ccuSh2si.s 			page 8


 280:.\Generated_Source\PSoC4/cyfitter_cfg.c **** 			{0x0Du, 0x04u},
 281:.\Generated_Source\PSoC4/cyfitter_cfg.c **** 			{0x0Eu, 0x01u},
 282:.\Generated_Source\PSoC4/cyfitter_cfg.c **** 			{0x0Fu, 0x01u},
 283:.\Generated_Source\PSoC4/cyfitter_cfg.c **** 			{0x11u, 0x0Fu},
 284:.\Generated_Source\PSoC4/cyfitter_cfg.c **** 			{0x12u, 0x01u},
 285:.\Generated_Source\PSoC4/cyfitter_cfg.c **** 			{0x14u, 0x01u},
 286:.\Generated_Source\PSoC4/cyfitter_cfg.c **** 			{0x15u, 0x08u},
 287:.\Generated_Source\PSoC4/cyfitter_cfg.c **** 			{0x17u, 0x01u},
 288:.\Generated_Source\PSoC4/cyfitter_cfg.c **** 			{0x19u, 0x0Fu},
 289:.\Generated_Source\PSoC4/cyfitter_cfg.c **** 			{0x1Au, 0x01u},
 290:.\Generated_Source\PSoC4/cyfitter_cfg.c **** 			{0x1Cu, 0x01u},
 291:.\Generated_Source\PSoC4/cyfitter_cfg.c **** 			{0x1Du, 0x0Fu},
 292:.\Generated_Source\PSoC4/cyfitter_cfg.c **** 			{0x22u, 0x01u},
 293:.\Generated_Source\PSoC4/cyfitter_cfg.c **** 			{0x23u, 0x0Fu},
 294:.\Generated_Source\PSoC4/cyfitter_cfg.c **** 			{0x26u, 0x01u},
 295:.\Generated_Source\PSoC4/cyfitter_cfg.c **** 			{0x27u, 0x0Fu},
 296:.\Generated_Source\PSoC4/cyfitter_cfg.c **** 			{0x28u, 0x01u},
 297:.\Generated_Source\PSoC4/cyfitter_cfg.c **** 			{0x2Bu, 0x0Fu},
 298:.\Generated_Source\PSoC4/cyfitter_cfg.c **** 			{0x2Cu, 0x01u},
 299:.\Generated_Source\PSoC4/cyfitter_cfg.c **** 			{0x2Du, 0x0Fu},
 300:.\Generated_Source\PSoC4/cyfitter_cfg.c **** 			{0x32u, 0x01u},
 301:.\Generated_Source\PSoC4/cyfitter_cfg.c **** 			{0x35u, 0x01u},
 302:.\Generated_Source\PSoC4/cyfitter_cfg.c **** 			{0x37u, 0x0Eu},
 303:.\Generated_Source\PSoC4/cyfitter_cfg.c **** 			{0x38u, 0x08u},
 304:.\Generated_Source\PSoC4/cyfitter_cfg.c **** 			{0x39u, 0xA0u},
 305:.\Generated_Source\PSoC4/cyfitter_cfg.c **** 			{0x3Eu, 0x04u},
 306:.\Generated_Source\PSoC4/cyfitter_cfg.c **** 			{0x3Fu, 0x50u},
 307:.\Generated_Source\PSoC4/cyfitter_cfg.c **** 			{0x58u, 0x04u},
 308:.\Generated_Source\PSoC4/cyfitter_cfg.c **** 			{0x59u, 0x04u},
 309:.\Generated_Source\PSoC4/cyfitter_cfg.c **** 			{0x5Fu, 0x01u},
 310:.\Generated_Source\PSoC4/cyfitter_cfg.c **** 			{0x8Du, 0x04u},
 311:.\Generated_Source\PSoC4/cyfitter_cfg.c **** 			{0x98u, 0x01u},
 312:.\Generated_Source\PSoC4/cyfitter_cfg.c **** 			{0x99u, 0x02u},
 313:.\Generated_Source\PSoC4/cyfitter_cfg.c **** 			{0xA8u, 0x02u},
 314:.\Generated_Source\PSoC4/cyfitter_cfg.c **** 			{0xA9u, 0x01u},
 315:.\Generated_Source\PSoC4/cyfitter_cfg.c **** 			{0xACu, 0x04u},
 316:.\Generated_Source\PSoC4/cyfitter_cfg.c **** 			{0xADu, 0x08u},
 317:.\Generated_Source\PSoC4/cyfitter_cfg.c **** 			{0xB0u, 0x02u},
 318:.\Generated_Source\PSoC4/cyfitter_cfg.c **** 			{0xB1u, 0x02u},
 319:.\Generated_Source\PSoC4/cyfitter_cfg.c **** 			{0xB2u, 0x04u},
 320:.\Generated_Source\PSoC4/cyfitter_cfg.c **** 			{0xB3u, 0x08u},
 321:.\Generated_Source\PSoC4/cyfitter_cfg.c **** 			{0xB4u, 0x01u},
 322:.\Generated_Source\PSoC4/cyfitter_cfg.c **** 			{0xB5u, 0x04u},
 323:.\Generated_Source\PSoC4/cyfitter_cfg.c **** 			{0xB7u, 0x01u},
 324:.\Generated_Source\PSoC4/cyfitter_cfg.c **** 			{0xD8u, 0x0Bu},
 325:.\Generated_Source\PSoC4/cyfitter_cfg.c **** 			{0xD9u, 0x0Bu},
 326:.\Generated_Source\PSoC4/cyfitter_cfg.c **** 			{0xDBu, 0x04u},
 327:.\Generated_Source\PSoC4/cyfitter_cfg.c **** 			{0xDCu, 0x99u},
 328:.\Generated_Source\PSoC4/cyfitter_cfg.c **** 			{0xDFu, 0x01u},
 329:.\Generated_Source\PSoC4/cyfitter_cfg.c **** 			{0x02u, 0x85u},
 330:.\Generated_Source\PSoC4/cyfitter_cfg.c **** 			{0x03u, 0x20u},
 331:.\Generated_Source\PSoC4/cyfitter_cfg.c **** 			{0x08u, 0x10u},
 332:.\Generated_Source\PSoC4/cyfitter_cfg.c **** 			{0x09u, 0x02u},
 333:.\Generated_Source\PSoC4/cyfitter_cfg.c **** 			{0x0Au, 0x12u},
 334:.\Generated_Source\PSoC4/cyfitter_cfg.c **** 			{0x0Eu, 0x04u},
 335:.\Generated_Source\PSoC4/cyfitter_cfg.c **** 			{0x10u, 0x44u},
 336:.\Generated_Source\PSoC4/cyfitter_cfg.c **** 			{0x12u, 0x0Au},
ARM GAS  C:\Users\Jarik\AppData\Local\Temp\ccuSh2si.s 			page 9


 337:.\Generated_Source\PSoC4/cyfitter_cfg.c **** 			{0x13u, 0x04u},
 338:.\Generated_Source\PSoC4/cyfitter_cfg.c **** 			{0x15u, 0x10u},
 339:.\Generated_Source\PSoC4/cyfitter_cfg.c **** 			{0x17u, 0x80u},
 340:.\Generated_Source\PSoC4/cyfitter_cfg.c **** 			{0x19u, 0x04u},
 341:.\Generated_Source\PSoC4/cyfitter_cfg.c **** 			{0x1Eu, 0xA0u},
 342:.\Generated_Source\PSoC4/cyfitter_cfg.c **** 			{0x1Fu, 0x20u},
 343:.\Generated_Source\PSoC4/cyfitter_cfg.c **** 			{0x22u, 0x50u},
 344:.\Generated_Source\PSoC4/cyfitter_cfg.c **** 			{0x24u, 0x98u},
 345:.\Generated_Source\PSoC4/cyfitter_cfg.c **** 			{0x25u, 0x02u},
 346:.\Generated_Source\PSoC4/cyfitter_cfg.c **** 			{0x26u, 0x89u},
 347:.\Generated_Source\PSoC4/cyfitter_cfg.c **** 			{0x28u, 0x40u},
 348:.\Generated_Source\PSoC4/cyfitter_cfg.c **** 			{0x29u, 0x11u},
 349:.\Generated_Source\PSoC4/cyfitter_cfg.c **** 			{0x2Bu, 0x21u},
 350:.\Generated_Source\PSoC4/cyfitter_cfg.c **** 			{0x2Du, 0x80u},
 351:.\Generated_Source\PSoC4/cyfitter_cfg.c **** 			{0x2Fu, 0x04u},
 352:.\Generated_Source\PSoC4/cyfitter_cfg.c **** 			{0x30u, 0xA0u},
 353:.\Generated_Source\PSoC4/cyfitter_cfg.c **** 			{0x31u, 0x20u},
 354:.\Generated_Source\PSoC4/cyfitter_cfg.c **** 			{0x32u, 0x05u},
 355:.\Generated_Source\PSoC4/cyfitter_cfg.c **** 			{0x33u, 0x02u},
 356:.\Generated_Source\PSoC4/cyfitter_cfg.c **** 			{0x37u, 0x20u},
 357:.\Generated_Source\PSoC4/cyfitter_cfg.c **** 			{0x38u, 0x98u},
 358:.\Generated_Source\PSoC4/cyfitter_cfg.c **** 			{0x3Au, 0x01u},
 359:.\Generated_Source\PSoC4/cyfitter_cfg.c **** 			{0x3Bu, 0x04u},
 360:.\Generated_Source\PSoC4/cyfitter_cfg.c **** 			{0x3Du, 0x40u},
 361:.\Generated_Source\PSoC4/cyfitter_cfg.c **** 			{0x45u, 0x20u},
 362:.\Generated_Source\PSoC4/cyfitter_cfg.c **** 			{0x46u, 0x04u},
 363:.\Generated_Source\PSoC4/cyfitter_cfg.c **** 			{0x58u, 0x10u},
 364:.\Generated_Source\PSoC4/cyfitter_cfg.c **** 			{0x59u, 0x10u},
 365:.\Generated_Source\PSoC4/cyfitter_cfg.c **** 			{0x5Au, 0x08u},
 366:.\Generated_Source\PSoC4/cyfitter_cfg.c **** 			{0x5Bu, 0x08u},
 367:.\Generated_Source\PSoC4/cyfitter_cfg.c **** 			{0x5Eu, 0xA2u},
 368:.\Generated_Source\PSoC4/cyfitter_cfg.c **** 			{0x5Fu, 0x08u},
 369:.\Generated_Source\PSoC4/cyfitter_cfg.c **** 			{0x64u, 0x05u},
 370:.\Generated_Source\PSoC4/cyfitter_cfg.c **** 			{0x65u, 0x02u},
 371:.\Generated_Source\PSoC4/cyfitter_cfg.c **** 			{0x67u, 0x10u},
 372:.\Generated_Source\PSoC4/cyfitter_cfg.c **** 			{0x7Au, 0x02u},
 373:.\Generated_Source\PSoC4/cyfitter_cfg.c **** 			{0x7Bu, 0x01u},
 374:.\Generated_Source\PSoC4/cyfitter_cfg.c **** 			{0x7Fu, 0x80u},
 375:.\Generated_Source\PSoC4/cyfitter_cfg.c **** 			{0x81u, 0x02u},
 376:.\Generated_Source\PSoC4/cyfitter_cfg.c **** 			{0x83u, 0xA0u},
 377:.\Generated_Source\PSoC4/cyfitter_cfg.c **** 			{0x84u, 0x01u},
 378:.\Generated_Source\PSoC4/cyfitter_cfg.c **** 			{0x85u, 0x10u},
 379:.\Generated_Source\PSoC4/cyfitter_cfg.c **** 			{0x87u, 0x16u},
 380:.\Generated_Source\PSoC4/cyfitter_cfg.c **** 			{0x88u, 0x05u},
 381:.\Generated_Source\PSoC4/cyfitter_cfg.c **** 			{0x8Cu, 0x88u},
 382:.\Generated_Source\PSoC4/cyfitter_cfg.c **** 			{0xC0u, 0x0Fu},
 383:.\Generated_Source\PSoC4/cyfitter_cfg.c **** 			{0xC2u, 0x4Fu},
 384:.\Generated_Source\PSoC4/cyfitter_cfg.c **** 			{0xC4u, 0xCFu},
 385:.\Generated_Source\PSoC4/cyfitter_cfg.c **** 			{0xCAu, 0x3Fu},
 386:.\Generated_Source\PSoC4/cyfitter_cfg.c **** 			{0xCCu, 0x2Fu},
 387:.\Generated_Source\PSoC4/cyfitter_cfg.c **** 			{0xCEu, 0x1Fu},
 388:.\Generated_Source\PSoC4/cyfitter_cfg.c **** 			{0xD6u, 0xF0u},
 389:.\Generated_Source\PSoC4/cyfitter_cfg.c **** 			{0xD8u, 0xF0u},
 390:.\Generated_Source\PSoC4/cyfitter_cfg.c **** 			{0xDEu, 0x80u},
 391:.\Generated_Source\PSoC4/cyfitter_cfg.c **** 			{0x01u, 0x08u},
 392:.\Generated_Source\PSoC4/cyfitter_cfg.c **** 			{0x02u, 0x01u},
 393:.\Generated_Source\PSoC4/cyfitter_cfg.c **** 			{0x05u, 0x04u},
ARM GAS  C:\Users\Jarik\AppData\Local\Temp\ccuSh2si.s 			page 10


 394:.\Generated_Source\PSoC4/cyfitter_cfg.c **** 			{0x0Au, 0x01u},
 395:.\Generated_Source\PSoC4/cyfitter_cfg.c **** 			{0x0Cu, 0x08u},
 396:.\Generated_Source\PSoC4/cyfitter_cfg.c **** 			{0x14u, 0x02u},
 397:.\Generated_Source\PSoC4/cyfitter_cfg.c **** 			{0x19u, 0x02u},
 398:.\Generated_Source\PSoC4/cyfitter_cfg.c **** 			{0x1Du, 0x01u},
 399:.\Generated_Source\PSoC4/cyfitter_cfg.c **** 			{0x20u, 0x04u},
 400:.\Generated_Source\PSoC4/cyfitter_cfg.c **** 			{0x26u, 0x01u},
 401:.\Generated_Source\PSoC4/cyfitter_cfg.c **** 			{0x28u, 0x01u},
 402:.\Generated_Source\PSoC4/cyfitter_cfg.c **** 			{0x2Cu, 0x01u},
 403:.\Generated_Source\PSoC4/cyfitter_cfg.c **** 			{0x30u, 0x02u},
 404:.\Generated_Source\PSoC4/cyfitter_cfg.c **** 			{0x31u, 0x01u},
 405:.\Generated_Source\PSoC4/cyfitter_cfg.c **** 			{0x32u, 0x04u},
 406:.\Generated_Source\PSoC4/cyfitter_cfg.c **** 			{0x33u, 0x04u},
 407:.\Generated_Source\PSoC4/cyfitter_cfg.c **** 			{0x34u, 0x08u},
 408:.\Generated_Source\PSoC4/cyfitter_cfg.c **** 			{0x35u, 0x08u},
 409:.\Generated_Source\PSoC4/cyfitter_cfg.c **** 			{0x36u, 0x01u},
 410:.\Generated_Source\PSoC4/cyfitter_cfg.c **** 			{0x37u, 0x02u},
 411:.\Generated_Source\PSoC4/cyfitter_cfg.c **** 			{0x3Eu, 0x40u},
 412:.\Generated_Source\PSoC4/cyfitter_cfg.c **** 			{0x58u, 0x0Bu},
 413:.\Generated_Source\PSoC4/cyfitter_cfg.c **** 			{0x59u, 0x0Bu},
 414:.\Generated_Source\PSoC4/cyfitter_cfg.c **** 			{0x5Bu, 0x04u},
 415:.\Generated_Source\PSoC4/cyfitter_cfg.c **** 			{0x5Cu, 0x99u},
 416:.\Generated_Source\PSoC4/cyfitter_cfg.c **** 			{0x5Fu, 0x01u},
 417:.\Generated_Source\PSoC4/cyfitter_cfg.c **** 			{0xA0u, 0x01u},
 418:.\Generated_Source\PSoC4/cyfitter_cfg.c **** 			{0xA4u, 0x02u},
 419:.\Generated_Source\PSoC4/cyfitter_cfg.c **** 			{0xB0u, 0x01u},
 420:.\Generated_Source\PSoC4/cyfitter_cfg.c **** 			{0xB4u, 0x02u},
 421:.\Generated_Source\PSoC4/cyfitter_cfg.c **** 			{0xD8u, 0x0Bu},
 422:.\Generated_Source\PSoC4/cyfitter_cfg.c **** 			{0xDBu, 0x04u},
 423:.\Generated_Source\PSoC4/cyfitter_cfg.c **** 			{0xDCu, 0x09u},
 424:.\Generated_Source\PSoC4/cyfitter_cfg.c **** 			{0xDFu, 0x01u},
 425:.\Generated_Source\PSoC4/cyfitter_cfg.c **** 			{0x04u, 0x40u},
 426:.\Generated_Source\PSoC4/cyfitter_cfg.c **** 			{0x05u, 0x11u},
 427:.\Generated_Source\PSoC4/cyfitter_cfg.c **** 			{0x06u, 0x40u},
 428:.\Generated_Source\PSoC4/cyfitter_cfg.c **** 			{0x0Cu, 0x08u},
 429:.\Generated_Source\PSoC4/cyfitter_cfg.c **** 			{0x11u, 0x02u},
 430:.\Generated_Source\PSoC4/cyfitter_cfg.c **** 			{0x12u, 0x10u},
 431:.\Generated_Source\PSoC4/cyfitter_cfg.c **** 			{0x15u, 0x11u},
 432:.\Generated_Source\PSoC4/cyfitter_cfg.c **** 			{0x17u, 0x88u},
 433:.\Generated_Source\PSoC4/cyfitter_cfg.c **** 			{0x19u, 0x20u},
 434:.\Generated_Source\PSoC4/cyfitter_cfg.c **** 			{0x1Bu, 0x02u},
 435:.\Generated_Source\PSoC4/cyfitter_cfg.c **** 			{0x1Eu, 0x64u},
 436:.\Generated_Source\PSoC4/cyfitter_cfg.c **** 			{0x1Fu, 0x80u},
 437:.\Generated_Source\PSoC4/cyfitter_cfg.c **** 			{0x25u, 0x28u},
 438:.\Generated_Source\PSoC4/cyfitter_cfg.c **** 			{0x26u, 0x01u},
 439:.\Generated_Source\PSoC4/cyfitter_cfg.c **** 			{0x27u, 0x02u},
 440:.\Generated_Source\PSoC4/cyfitter_cfg.c **** 			{0x34u, 0x80u},
 441:.\Generated_Source\PSoC4/cyfitter_cfg.c **** 			{0x37u, 0x10u},
 442:.\Generated_Source\PSoC4/cyfitter_cfg.c **** 			{0x3Cu, 0x0Au},
 443:.\Generated_Source\PSoC4/cyfitter_cfg.c **** 			{0x45u, 0x28u},
 444:.\Generated_Source\PSoC4/cyfitter_cfg.c **** 			{0x46u, 0x28u},
 445:.\Generated_Source\PSoC4/cyfitter_cfg.c **** 			{0x58u, 0x01u},
 446:.\Generated_Source\PSoC4/cyfitter_cfg.c **** 			{0x59u, 0x04u},
 447:.\Generated_Source\PSoC4/cyfitter_cfg.c **** 			{0x5Au, 0xA0u},
 448:.\Generated_Source\PSoC4/cyfitter_cfg.c **** 			{0x5Bu, 0x02u},
 449:.\Generated_Source\PSoC4/cyfitter_cfg.c **** 			{0x5Du, 0x20u},
 450:.\Generated_Source\PSoC4/cyfitter_cfg.c **** 			{0x5Eu, 0x46u},
ARM GAS  C:\Users\Jarik\AppData\Local\Temp\ccuSh2si.s 			page 11


 451:.\Generated_Source\PSoC4/cyfitter_cfg.c **** 			{0x64u, 0x01u},
 452:.\Generated_Source\PSoC4/cyfitter_cfg.c **** 			{0x66u, 0x2Au},
 453:.\Generated_Source\PSoC4/cyfitter_cfg.c **** 			{0x7Bu, 0x80u},
 454:.\Generated_Source\PSoC4/cyfitter_cfg.c **** 			{0x7Fu, 0x80u},
 455:.\Generated_Source\PSoC4/cyfitter_cfg.c **** 			{0x82u, 0x01u},
 456:.\Generated_Source\PSoC4/cyfitter_cfg.c **** 			{0x83u, 0x08u},
 457:.\Generated_Source\PSoC4/cyfitter_cfg.c **** 			{0x86u, 0x12u},
 458:.\Generated_Source\PSoC4/cyfitter_cfg.c **** 			{0x88u, 0x20u},
 459:.\Generated_Source\PSoC4/cyfitter_cfg.c **** 			{0x89u, 0x10u},
 460:.\Generated_Source\PSoC4/cyfitter_cfg.c **** 			{0x8Au, 0x40u},
 461:.\Generated_Source\PSoC4/cyfitter_cfg.c **** 			{0x8Bu, 0x81u},
 462:.\Generated_Source\PSoC4/cyfitter_cfg.c **** 			{0x8Cu, 0x80u},
 463:.\Generated_Source\PSoC4/cyfitter_cfg.c **** 			{0x8Du, 0x10u},
 464:.\Generated_Source\PSoC4/cyfitter_cfg.c **** 			{0x90u, 0x40u},
 465:.\Generated_Source\PSoC4/cyfitter_cfg.c **** 			{0x91u, 0x01u},
 466:.\Generated_Source\PSoC4/cyfitter_cfg.c **** 			{0x92u, 0xA0u},
 467:.\Generated_Source\PSoC4/cyfitter_cfg.c **** 			{0x98u, 0x80u},
 468:.\Generated_Source\PSoC4/cyfitter_cfg.c **** 			{0x99u, 0x04u},
 469:.\Generated_Source\PSoC4/cyfitter_cfg.c **** 			{0x9Au, 0x10u},
 470:.\Generated_Source\PSoC4/cyfitter_cfg.c **** 			{0x9Bu, 0x10u},
 471:.\Generated_Source\PSoC4/cyfitter_cfg.c **** 			{0x9Du, 0x11u},
 472:.\Generated_Source\PSoC4/cyfitter_cfg.c **** 			{0x9Eu, 0x01u},
 473:.\Generated_Source\PSoC4/cyfitter_cfg.c **** 			{0xA0u, 0x0Du},
 474:.\Generated_Source\PSoC4/cyfitter_cfg.c **** 			{0xA1u, 0x01u},
 475:.\Generated_Source\PSoC4/cyfitter_cfg.c **** 			{0xA4u, 0xA0u},
 476:.\Generated_Source\PSoC4/cyfitter_cfg.c **** 			{0xA7u, 0x83u},
 477:.\Generated_Source\PSoC4/cyfitter_cfg.c **** 			{0xA9u, 0x41u},
 478:.\Generated_Source\PSoC4/cyfitter_cfg.c **** 			{0xABu, 0x20u},
 479:.\Generated_Source\PSoC4/cyfitter_cfg.c **** 			{0xADu, 0x80u},
 480:.\Generated_Source\PSoC4/cyfitter_cfg.c **** 			{0xAEu, 0x04u},
 481:.\Generated_Source\PSoC4/cyfitter_cfg.c **** 			{0xAFu, 0x04u},
 482:.\Generated_Source\PSoC4/cyfitter_cfg.c **** 			{0xB1u, 0x01u},
 483:.\Generated_Source\PSoC4/cyfitter_cfg.c **** 			{0xB2u, 0x94u},
 484:.\Generated_Source\PSoC4/cyfitter_cfg.c **** 			{0xB4u, 0x40u},
 485:.\Generated_Source\PSoC4/cyfitter_cfg.c **** 			{0xB6u, 0x10u},
 486:.\Generated_Source\PSoC4/cyfitter_cfg.c **** 			{0xB7u, 0x10u},
 487:.\Generated_Source\PSoC4/cyfitter_cfg.c **** 			{0xC0u, 0xD0u},
 488:.\Generated_Source\PSoC4/cyfitter_cfg.c **** 			{0xC2u, 0x20u},
 489:.\Generated_Source\PSoC4/cyfitter_cfg.c **** 			{0xC4u, 0xFCu},
 490:.\Generated_Source\PSoC4/cyfitter_cfg.c **** 			{0xCCu, 0x30u},
 491:.\Generated_Source\PSoC4/cyfitter_cfg.c **** 			{0xCEu, 0xC0u},
 492:.\Generated_Source\PSoC4/cyfitter_cfg.c **** 			{0xD6u, 0xFEu},
 493:.\Generated_Source\PSoC4/cyfitter_cfg.c **** 			{0xD8u, 0xF0u},
 494:.\Generated_Source\PSoC4/cyfitter_cfg.c **** 			{0xDEu, 0x81u},
 495:.\Generated_Source\PSoC4/cyfitter_cfg.c **** 			{0xECu, 0x10u},
 496:.\Generated_Source\PSoC4/cyfitter_cfg.c **** 			{0x01u, 0x10u},
 497:.\Generated_Source\PSoC4/cyfitter_cfg.c **** 			{0x03u, 0x80u},
 498:.\Generated_Source\PSoC4/cyfitter_cfg.c **** 			{0x07u, 0x24u},
 499:.\Generated_Source\PSoC4/cyfitter_cfg.c **** 			{0x08u, 0x08u},
 500:.\Generated_Source\PSoC4/cyfitter_cfg.c **** 			{0x09u, 0x80u},
 501:.\Generated_Source\PSoC4/cyfitter_cfg.c **** 			{0x0Fu, 0x14u},
 502:.\Generated_Source\PSoC4/cyfitter_cfg.c **** 			{0x83u, 0x20u},
 503:.\Generated_Source\PSoC4/cyfitter_cfg.c **** 			{0x87u, 0x80u},
 504:.\Generated_Source\PSoC4/cyfitter_cfg.c **** 			{0xC0u, 0xF0u},
 505:.\Generated_Source\PSoC4/cyfitter_cfg.c **** 			{0xC2u, 0xF0u},
 506:.\Generated_Source\PSoC4/cyfitter_cfg.c **** 			{0xE0u, 0x80u},
 507:.\Generated_Source\PSoC4/cyfitter_cfg.c **** 			{0xE4u, 0x10u},
ARM GAS  C:\Users\Jarik\AppData\Local\Temp\ccuSh2si.s 			page 12


 508:.\Generated_Source\PSoC4/cyfitter_cfg.c **** 			{0x03u, 0x10u},
 509:.\Generated_Source\PSoC4/cyfitter_cfg.c **** 			{0x06u, 0x80u},
 510:.\Generated_Source\PSoC4/cyfitter_cfg.c **** 			{0x83u, 0x10u},
 511:.\Generated_Source\PSoC4/cyfitter_cfg.c **** 			{0x9Eu, 0x80u},
 512:.\Generated_Source\PSoC4/cyfitter_cfg.c **** 			{0xA8u, 0x08u},
 513:.\Generated_Source\PSoC4/cyfitter_cfg.c **** 			{0xA9u, 0x80u},
 514:.\Generated_Source\PSoC4/cyfitter_cfg.c **** 			{0xABu, 0x04u},
 515:.\Generated_Source\PSoC4/cyfitter_cfg.c **** 			{0xADu, 0x10u},
 516:.\Generated_Source\PSoC4/cyfitter_cfg.c **** 			{0xAFu, 0x14u},
 517:.\Generated_Source\PSoC4/cyfitter_cfg.c **** 			{0xB6u, 0x80u},
 518:.\Generated_Source\PSoC4/cyfitter_cfg.c **** 			{0xC0u, 0x30u},
 519:.\Generated_Source\PSoC4/cyfitter_cfg.c **** 			{0xE0u, 0x20u},
 520:.\Generated_Source\PSoC4/cyfitter_cfg.c **** 			{0xE8u, 0xD0u},
 521:.\Generated_Source\PSoC4/cyfitter_cfg.c **** 			{0xECu, 0xB0u},
 522:.\Generated_Source\PSoC4/cyfitter_cfg.c **** 			{0x00u, 0x01u},
 523:.\Generated_Source\PSoC4/cyfitter_cfg.c **** 			{0x01u, 0x40u},
 524:.\Generated_Source\PSoC4/cyfitter_cfg.c **** 			{0x04u, 0x10u},
 525:.\Generated_Source\PSoC4/cyfitter_cfg.c **** 			{0x06u, 0x80u},
 526:.\Generated_Source\PSoC4/cyfitter_cfg.c **** 			{0x08u, 0x40u},
 527:.\Generated_Source\PSoC4/cyfitter_cfg.c **** 			{0x09u, 0x04u},
 528:.\Generated_Source\PSoC4/cyfitter_cfg.c **** 			{0x0Eu, 0x01u},
 529:.\Generated_Source\PSoC4/cyfitter_cfg.c **** 			{0x0Fu, 0x40u},
 530:.\Generated_Source\PSoC4/cyfitter_cfg.c **** 			{0x88u, 0x40u},
 531:.\Generated_Source\PSoC4/cyfitter_cfg.c **** 			{0x8Bu, 0x40u},
 532:.\Generated_Source\PSoC4/cyfitter_cfg.c **** 			{0x8Cu, 0x11u},
 533:.\Generated_Source\PSoC4/cyfitter_cfg.c **** 			{0xC0u, 0x0Fu},
 534:.\Generated_Source\PSoC4/cyfitter_cfg.c **** 			{0xC2u, 0x0Fu},
 535:.\Generated_Source\PSoC4/cyfitter_cfg.c **** 			{0xE2u, 0x0Du},
 536:.\Generated_Source\PSoC4/cyfitter_cfg.c **** 			{0xE6u, 0x08u},
 537:.\Generated_Source\PSoC4/cyfitter_cfg.c **** 			{0x00u, 0x02u},
 538:.\Generated_Source\PSoC4/cyfitter_cfg.c **** 			{0x06u, 0x20u},
 539:.\Generated_Source\PSoC4/cyfitter_cfg.c **** 			{0x09u, 0x02u},
 540:.\Generated_Source\PSoC4/cyfitter_cfg.c **** 			{0x0Au, 0x01u},
 541:.\Generated_Source\PSoC4/cyfitter_cfg.c **** 			{0x0Fu, 0x08u},
 542:.\Generated_Source\PSoC4/cyfitter_cfg.c **** 			{0x88u, 0x01u},
 543:.\Generated_Source\PSoC4/cyfitter_cfg.c **** 			{0x89u, 0x02u},
 544:.\Generated_Source\PSoC4/cyfitter_cfg.c **** 			{0x8Au, 0x01u},
 545:.\Generated_Source\PSoC4/cyfitter_cfg.c **** 			{0x8Eu, 0x20u},
 546:.\Generated_Source\PSoC4/cyfitter_cfg.c **** 			{0x8Fu, 0x04u},
 547:.\Generated_Source\PSoC4/cyfitter_cfg.c **** 			{0xB2u, 0x81u},
 548:.\Generated_Source\PSoC4/cyfitter_cfg.c **** 			{0xB5u, 0x44u},
 549:.\Generated_Source\PSoC4/cyfitter_cfg.c **** 			{0xC0u, 0x0Cu},
 550:.\Generated_Source\PSoC4/cyfitter_cfg.c **** 			{0xC2u, 0x0Bu},
 551:.\Generated_Source\PSoC4/cyfitter_cfg.c **** 			{0xE2u, 0x03u},
 552:.\Generated_Source\PSoC4/cyfitter_cfg.c **** 			{0xE6u, 0x07u},
 553:.\Generated_Source\PSoC4/cyfitter_cfg.c **** 			{0xEAu, 0x02u},
 554:.\Generated_Source\PSoC4/cyfitter_cfg.c **** 			{0xEEu, 0x07u},
 555:.\Generated_Source\PSoC4/cyfitter_cfg.c **** 			{0x02u, 0x01u},
 556:.\Generated_Source\PSoC4/cyfitter_cfg.c **** 			{0x11u, 0x01u},
 557:.\Generated_Source\PSoC4/cyfitter_cfg.c **** 		};
 558:.\Generated_Source\PSoC4/cyfitter_cfg.c **** 
 559:.\Generated_Source\PSoC4/cyfitter_cfg.c **** 
 560:.\Generated_Source\PSoC4/cyfitter_cfg.c **** 
 561:.\Generated_Source\PSoC4/cyfitter_cfg.c **** 		CYPACKED typedef struct {
 562:.\Generated_Source\PSoC4/cyfitter_cfg.c **** 			void CYFAR *address;
 563:.\Generated_Source\PSoC4/cyfitter_cfg.c **** 			uint16 size;
 564:.\Generated_Source\PSoC4/cyfitter_cfg.c **** 		} CYPACKED_ATTR cfg_memset_t;
ARM GAS  C:\Users\Jarik\AppData\Local\Temp\ccuSh2si.s 			page 13


 565:.\Generated_Source\PSoC4/cyfitter_cfg.c **** 
 566:.\Generated_Source\PSoC4/cyfitter_cfg.c **** 		static const cfg_memset_t CYCODE cfg_memset_list [] = {
 567:.\Generated_Source\PSoC4/cyfitter_cfg.c **** 			/* address, size */
 568:.\Generated_Source\PSoC4/cyfitter_cfg.c **** 			{(void CYFAR *)(CYDEV_UDB_P0_U0_BASE), 1024u},
 569:.\Generated_Source\PSoC4/cyfitter_cfg.c **** 			{(void CYFAR *)(CYDEV_UDB_DSI0_BASE), 1024u},
 570:.\Generated_Source\PSoC4/cyfitter_cfg.c **** 		};
 571:.\Generated_Source\PSoC4/cyfitter_cfg.c **** 
 572:.\Generated_Source\PSoC4/cyfitter_cfg.c **** 		uint8 CYDATA i;
 573:.\Generated_Source\PSoC4/cyfitter_cfg.c **** 
 574:.\Generated_Source\PSoC4/cyfitter_cfg.c **** 		/* Zero out critical memory blocks before beginning configuration */
 575:.\Generated_Source\PSoC4/cyfitter_cfg.c **** 		for (i = 0u; i < (sizeof(cfg_memset_list)/sizeof(cfg_memset_list[0])); i++)
 576:.\Generated_Source\PSoC4/cyfitter_cfg.c **** 		{
 577:.\Generated_Source\PSoC4/cyfitter_cfg.c **** 			const cfg_memset_t CYCODE * CYDATA ms = &cfg_memset_list[i];
 578:.\Generated_Source\PSoC4/cyfitter_cfg.c **** 			CYMEMZERO(ms->address, (size_t)(uint32)(ms->size));
 579:.\Generated_Source\PSoC4/cyfitter_cfg.c **** 		}
 580:.\Generated_Source\PSoC4/cyfitter_cfg.c **** 
 581:.\Generated_Source\PSoC4/cyfitter_cfg.c **** 		cfg_write_bytes32(cy_cfg_addr_table, cy_cfg_data_table);
 582:.\Generated_Source\PSoC4/cyfitter_cfg.c **** 
 583:.\Generated_Source\PSoC4/cyfitter_cfg.c **** 		/* HSIOM Starting address: CYDEV_HSIOM_BASE */
 584:.\Generated_Source\PSoC4/cyfitter_cfg.c **** 		CY_SET_XTND_REG32((void CYFAR *)(CYREG_HSIOM_PORT_SEL3), 0x0000EE00u);
 113              		.loc 1 584 0
 114 0056 EE22     		mov	r2, #238
 115 0058 364B     		ldr	r3, .L7+12
 116 005a 1202     		lsl	r2, r2, #8
 117 005c 1A60     		str	r2, [r3]
 585:.\Generated_Source\PSoC4/cyfitter_cfg.c **** 		CY_SET_XTND_REG32((void CYFAR *)(CYREG_HSIOM_PORT_SEL4), 0x0000FFFFu);
 118              		.loc 1 585 0
 119 005e 364A     		ldr	r2, .L7+16
 120 0060 364B     		ldr	r3, .L7+20
 586:.\Generated_Source\PSoC4/cyfitter_cfg.c **** 
 587:.\Generated_Source\PSoC4/cyfitter_cfg.c **** 		/* UDB_PA_0 Starting address: CYDEV_UDB_PA0_BASE */
 588:.\Generated_Source\PSoC4/cyfitter_cfg.c **** 		CY_SET_XTND_REG32((void CYFAR *)(CYDEV_UDB_PA0_BASE), 0x00990004u);
 589:.\Generated_Source\PSoC4/cyfitter_cfg.c **** 		CY_SET_XTND_REG32((void CYFAR *)(CYREG_UDB_PA0_CFG4), 0x55550000u);
 121              		.loc 1 589 0
 122 0062 3749     		ldr	r1, .L7+24
 585:.\Generated_Source\PSoC4/cyfitter_cfg.c **** 		CY_SET_XTND_REG32((void CYFAR *)(CYREG_HSIOM_PORT_SEL4), 0x0000FFFFu);
 123              		.loc 1 585 0
 124 0064 1A60     		str	r2, [r3]
 588:.\Generated_Source\PSoC4/cyfitter_cfg.c **** 		CY_SET_XTND_REG32((void CYFAR *)(CYREG_UDB_PA0_CFG4), 0x55550000u);
 125              		.loc 1 588 0
 126 0066 374B     		ldr	r3, .L7+28
 127 0068 374A     		ldr	r2, .L7+32
 590:.\Generated_Source\PSoC4/cyfitter_cfg.c **** 
 591:.\Generated_Source\PSoC4/cyfitter_cfg.c **** 		/* UDB_PA_1 Starting address: CYDEV_UDB_PA1_BASE */
 592:.\Generated_Source\PSoC4/cyfitter_cfg.c **** 		CY_SET_XTND_REG32((void CYFAR *)(CYDEV_UDB_PA1_BASE), 0x00990004u);
 593:.\Generated_Source\PSoC4/cyfitter_cfg.c **** 		CY_SET_XTND_REG32((void CYFAR *)(CYREG_UDB_PA1_CFG4), 0x24050000u);
 128              		.loc 1 593 0
 129 006a 3848     		ldr	r0, .L7+36
 588:.\Generated_Source\PSoC4/cyfitter_cfg.c **** 		CY_SET_XTND_REG32((void CYFAR *)(CYREG_UDB_PA0_CFG4), 0x55550000u);
 130              		.loc 1 588 0
 131 006c 1360     		str	r3, [r2]
 589:.\Generated_Source\PSoC4/cyfitter_cfg.c **** 
 132              		.loc 1 589 0
 133 006e 384A     		ldr	r2, .L7+40
 134              	.LBE16:
 135              	.LBB23:
 136              	.LBB24:
ARM GAS  C:\Users\Jarik\AppData\Local\Temp\ccuSh2si.s 			page 14


 187:.\Generated_Source\PSoC4/cyfitter_cfg.c **** 
 137              		.loc 1 187 0
 138 0070 8025     		mov	r5, #128
 139              	.LBE24:
 140              	.LBE23:
 141              	.LBB29:
 589:.\Generated_Source\PSoC4/cyfitter_cfg.c **** 
 142              		.loc 1 589 0
 143 0072 0A60     		str	r2, [r1]
 592:.\Generated_Source\PSoC4/cyfitter_cfg.c **** 		CY_SET_XTND_REG32((void CYFAR *)(CYREG_UDB_PA1_CFG4), 0x24050000u);
 144              		.loc 1 592 0
 145 0074 3749     		ldr	r1, .L7+44
 146              	.LBE29:
 147              	.LBB30:
 148              	.LBB25:
 187:.\Generated_Source\PSoC4/cyfitter_cfg.c **** 
 149              		.loc 1 187 0
 150 0076 384C     		ldr	r4, .L7+48
 151              	.LVL9:
 152              	.LBE25:
 153              	.LBE30:
 154              	.LBB31:
 592:.\Generated_Source\PSoC4/cyfitter_cfg.c **** 		CY_SET_XTND_REG32((void CYFAR *)(CYREG_UDB_PA1_CFG4), 0x24050000u);
 155              		.loc 1 592 0
 156 0078 0B60     		str	r3, [r1]
 157              		.loc 1 593 0
 158 007a 3849     		ldr	r1, .L7+52
 159              	.LBE31:
 160              	.LBB32:
 161              	.LBB26:
 187:.\Generated_Source\PSoC4/cyfitter_cfg.c **** 
 162              		.loc 1 187 0
 163 007c ED02     		lsl	r5, r5, #11
 164              	.LBE26:
 165              	.LBE32:
 166              	.LBB33:
 167              		.loc 1 593 0
 168 007e 0860     		str	r0, [r1]
 594:.\Generated_Source\PSoC4/cyfitter_cfg.c **** 
 595:.\Generated_Source\PSoC4/cyfitter_cfg.c **** 		/* UDB_PA_2 Starting address: CYDEV_UDB_PA2_BASE */
 596:.\Generated_Source\PSoC4/cyfitter_cfg.c **** 		CY_SET_XTND_REG32((void CYFAR *)(CYDEV_UDB_PA2_BASE), 0x00990004u);
 169              		.loc 1 596 0
 170 0080 3749     		ldr	r1, .L7+56
 597:.\Generated_Source\PSoC4/cyfitter_cfg.c **** 		CY_SET_XTND_REG32((void CYFAR *)(CYREG_UDB_PA2_CFG4), 0x55550000u);
 598:.\Generated_Source\PSoC4/cyfitter_cfg.c **** 
 599:.\Generated_Source\PSoC4/cyfitter_cfg.c **** 		/* UDB_PA_3 Starting address: CYDEV_UDB_PA3_BASE */
 600:.\Generated_Source\PSoC4/cyfitter_cfg.c **** 		CY_SET_XTND_REG32((void CYFAR *)(CYDEV_UDB_PA3_BASE), 0x00990004u);
 601:.\Generated_Source\PSoC4/cyfitter_cfg.c **** 		CY_SET_XTND_REG32((void CYFAR *)(CYREG_UDB_PA3_CFG4), 0x51050000u);
 602:.\Generated_Source\PSoC4/cyfitter_cfg.c **** 
 603:.\Generated_Source\PSoC4/cyfitter_cfg.c **** 		/* Enable digital routing */
 604:.\Generated_Source\PSoC4/cyfitter_cfg.c **** 		CY_SET_XTND_REG8((void *)CYREG_UDB_UDBIF_BANK_CTL, CY_GET_XTND_REG8((void *)CYREG_UDB_UDBIF_BANK_
 605:.\Generated_Source\PSoC4/cyfitter_cfg.c **** 
 606:.\Generated_Source\PSoC4/cyfitter_cfg.c **** 		/* Enable UDB array */
 607:.\Generated_Source\PSoC4/cyfitter_cfg.c **** 		CY_SET_XTND_REG8((void *)CYREG_UDB_UDBIF_WAIT_CFG, (uint8)((CY_GET_XTND_REG8((void *)CYREG_UDB_UD
 171              		.loc 1 607 0
 172 0082 3C20     		mov	r0, #60
 596:.\Generated_Source\PSoC4/cyfitter_cfg.c **** 		CY_SET_XTND_REG32((void CYFAR *)(CYREG_UDB_PA2_CFG4), 0x55550000u);
ARM GAS  C:\Users\Jarik\AppData\Local\Temp\ccuSh2si.s 			page 15


 173              		.loc 1 596 0
 174 0084 0B60     		str	r3, [r1]
 597:.\Generated_Source\PSoC4/cyfitter_cfg.c **** 		CY_SET_XTND_REG32((void CYFAR *)(CYREG_UDB_PA2_CFG4), 0x55550000u);
 175              		.loc 1 597 0
 176 0086 3749     		ldr	r1, .L7+60
 177              	.LBE33:
 608:.\Generated_Source\PSoC4/cyfitter_cfg.c **** 		CY_SET_XTND_REG8((void *)CYREG_UDB_UDBIF_BANK_CTL, (uint8)(CY_GET_XTND_REG8((void *)CYREG_UDB_UDB
 609:.\Generated_Source\PSoC4/cyfitter_cfg.c **** 	}
 610:.\Generated_Source\PSoC4/cyfitter_cfg.c **** 
 611:.\Generated_Source\PSoC4/cyfitter_cfg.c **** 	/* Perform second pass device configuration. These items must be configured in specific order afte
 612:.\Generated_Source\PSoC4/cyfitter_cfg.c **** 	/* IOPINS0_0 Starting address: CYDEV_PRT0_BASE */
 613:.\Generated_Source\PSoC4/cyfitter_cfg.c **** 	CY_SET_XTND_REG32((void CYFAR *)(CYDEV_PRT0_BASE), 0x000000FFu);
 614:.\Generated_Source\PSoC4/cyfitter_cfg.c **** 	CY_SET_XTND_REG32((void CYFAR *)(CYREG_PRT0_PC), 0x00249249u);
 615:.\Generated_Source\PSoC4/cyfitter_cfg.c **** 
 616:.\Generated_Source\PSoC4/cyfitter_cfg.c **** 	/* IOPINS0_1 Starting address: CYDEV_PRT1_BASE */
 617:.\Generated_Source\PSoC4/cyfitter_cfg.c **** 	CY_SET_XTND_REG32((void CYFAR *)(CYDEV_PRT1_BASE), 0x00000044u);
 618:.\Generated_Source\PSoC4/cyfitter_cfg.c **** 	CY_SET_XTND_REG32((void CYFAR *)(CYREG_PRT1_PC), 0x0008ED89u);
 619:.\Generated_Source\PSoC4/cyfitter_cfg.c **** 	CY_SET_XTND_REG32((void CYFAR *)(CYREG_PRT1_INTCFG), 0x00001000u);
 620:.\Generated_Source\PSoC4/cyfitter_cfg.c **** 
 621:.\Generated_Source\PSoC4/cyfitter_cfg.c **** 	/* IOPINS0_2 Starting address: CYDEV_PRT2_BASE */
 622:.\Generated_Source\PSoC4/cyfitter_cfg.c **** 	CY_SET_XTND_REG32((void CYFAR *)(CYDEV_PRT2_BASE), 0x000000FFu);
 623:.\Generated_Source\PSoC4/cyfitter_cfg.c **** 	CY_SET_XTND_REG32((void CYFAR *)(CYREG_PRT2_PC), 0x00249249u);
 624:.\Generated_Source\PSoC4/cyfitter_cfg.c **** 
 625:.\Generated_Source\PSoC4/cyfitter_cfg.c **** 	/* IOPINS0_3 Starting address: CYDEV_PRT3_BASE */
 626:.\Generated_Source\PSoC4/cyfitter_cfg.c **** 	CY_SET_XTND_REG32((void CYFAR *)(CYDEV_PRT3_BASE), 0x00000020u);
 627:.\Generated_Source\PSoC4/cyfitter_cfg.c **** 	CY_SET_XTND_REG32((void CYFAR *)(CYREG_PRT3_PC), 0x00261D89u);
 628:.\Generated_Source\PSoC4/cyfitter_cfg.c **** 
 629:.\Generated_Source\PSoC4/cyfitter_cfg.c **** 	/* IOPINS0_4 Starting address: CYDEV_PRT4_BASE */
 630:.\Generated_Source\PSoC4/cyfitter_cfg.c **** 	CY_SET_XTND_REG32((void CYFAR *)(CYDEV_PRT4_BASE), 0x0000000Du);
 631:.\Generated_Source\PSoC4/cyfitter_cfg.c **** 	CY_SET_XTND_REG32((void CYFAR *)(CYREG_PRT4_PC), 0x00000D8Eu);
 632:.\Generated_Source\PSoC4/cyfitter_cfg.c **** 	CY_SET_XTND_REG32((void CYFAR *)(CYREG_PRT4_PC2), 0x0000000Du);
 633:.\Generated_Source\PSoC4/cyfitter_cfg.c **** 
 634:.\Generated_Source\PSoC4/cyfitter_cfg.c **** 	/* Setup clocks based on selections from Clock DWR */
 635:.\Generated_Source\PSoC4/cyfitter_cfg.c **** 	ClockSetup();
 636:.\Generated_Source\PSoC4/cyfitter_cfg.c **** 
 637:.\Generated_Source\PSoC4/cyfitter_cfg.c **** 	/* Perform basic analog initialization to defaults */
 638:.\Generated_Source\PSoC4/cyfitter_cfg.c **** 	AnalogSetDefault();
 639:.\Generated_Source\PSoC4/cyfitter_cfg.c **** 
 640:.\Generated_Source\PSoC4/cyfitter_cfg.c **** }
 178              		.loc 1 640 0
 179              		@ sp needed
 180              	.LBB34:
 597:.\Generated_Source\PSoC4/cyfitter_cfg.c **** 
 181              		.loc 1 597 0
 182 0088 0A60     		str	r2, [r1]
 604:.\Generated_Source\PSoC4/cyfitter_cfg.c **** 
 183              		.loc 1 604 0
 184 008a 0221     		mov	r1, #2
 600:.\Generated_Source\PSoC4/cyfitter_cfg.c **** 		CY_SET_XTND_REG32((void CYFAR *)(CYREG_UDB_PA3_CFG4), 0x51050000u);
 185              		.loc 1 600 0
 186 008c 364A     		ldr	r2, .L7+64
 187 008e 1360     		str	r3, [r2]
 601:.\Generated_Source\PSoC4/cyfitter_cfg.c **** 
 188              		.loc 1 601 0
 189 0090 364A     		ldr	r2, .L7+68
 190 0092 374B     		ldr	r3, .L7+72
 191 0094 1A60     		str	r2, [r3]
ARM GAS  C:\Users\Jarik\AppData\Local\Temp\ccuSh2si.s 			page 16


 604:.\Generated_Source\PSoC4/cyfitter_cfg.c **** 
 192              		.loc 1 604 0
 193 0096 374A     		ldr	r2, .L7+76
 194 0098 1378     		ldrb	r3, [r2]
 195 009a 0B43     		orr	r3, r1
 607:.\Generated_Source\PSoC4/cyfitter_cfg.c **** 		CY_SET_XTND_REG8((void *)CYREG_UDB_UDBIF_BANK_CTL, (uint8)(CY_GET_XTND_REG8((void *)CYREG_UDB_UDB
 196              		.loc 1 607 0
 197 009c 3649     		ldr	r1, .L7+80
 604:.\Generated_Source\PSoC4/cyfitter_cfg.c **** 
 198              		.loc 1 604 0
 199 009e 1370     		strb	r3, [r2]
 607:.\Generated_Source\PSoC4/cyfitter_cfg.c **** 		CY_SET_XTND_REG8((void *)CYREG_UDB_UDBIF_BANK_CTL, (uint8)(CY_GET_XTND_REG8((void *)CYREG_UDB_UDB
 200              		.loc 1 607 0
 201 00a0 0B78     		ldrb	r3, [r1]
 202 00a2 8343     		bic	r3, r0
 203 00a4 2838     		sub	r0, r0, #40
 204 00a6 0343     		orr	r3, r0
 205 00a8 0B70     		strb	r3, [r1]
 608:.\Generated_Source\PSoC4/cyfitter_cfg.c **** 	}
 206              		.loc 1 608 0
 207 00aa 1621     		mov	r1, #22
 208 00ac 1378     		ldrb	r3, [r2]
 209              	.LBE34:
 617:.\Generated_Source\PSoC4/cyfitter_cfg.c **** 	CY_SET_XTND_REG32((void CYFAR *)(CYREG_PRT1_PC), 0x0008ED89u);
 210              		.loc 1 617 0
 211 00ae 3030     		add	r0, r0, #48
 212              	.LBB35:
 608:.\Generated_Source\PSoC4/cyfitter_cfg.c **** 	}
 213              		.loc 1 608 0
 214 00b0 0B43     		orr	r3, r1
 215 00b2 1370     		strb	r3, [r2]
 216              	.LBE35:
 613:.\Generated_Source\PSoC4/cyfitter_cfg.c **** 	CY_SET_XTND_REG32((void CYFAR *)(CYREG_PRT0_PC), 0x00249249u);
 217              		.loc 1 613 0
 218 00b4 FF22     		mov	r2, #255
 219 00b6 314B     		ldr	r3, .L7+84
 614:.\Generated_Source\PSoC4/cyfitter_cfg.c **** 
 220              		.loc 1 614 0
 221 00b8 3149     		ldr	r1, .L7+88
 613:.\Generated_Source\PSoC4/cyfitter_cfg.c **** 	CY_SET_XTND_REG32((void CYFAR *)(CYREG_PRT0_PC), 0x00249249u);
 222              		.loc 1 613 0
 223 00ba 1A60     		str	r2, [r3]
 614:.\Generated_Source\PSoC4/cyfitter_cfg.c **** 
 224              		.loc 1 614 0
 225 00bc 314B     		ldr	r3, .L7+92
 226 00be 0B60     		str	r3, [r1]
 617:.\Generated_Source\PSoC4/cyfitter_cfg.c **** 	CY_SET_XTND_REG32((void CYFAR *)(CYREG_PRT1_PC), 0x0008ED89u);
 227              		.loc 1 617 0
 228 00c0 3149     		ldr	r1, .L7+96
 229 00c2 0860     		str	r0, [r1]
 618:.\Generated_Source\PSoC4/cyfitter_cfg.c **** 	CY_SET_XTND_REG32((void CYFAR *)(CYREG_PRT1_INTCFG), 0x00001000u);
 230              		.loc 1 618 0
 231 00c4 3148     		ldr	r0, .L7+100
 232 00c6 3249     		ldr	r1, .L7+104
 233 00c8 0860     		str	r0, [r1]
 619:.\Generated_Source\PSoC4/cyfitter_cfg.c **** 
 234              		.loc 1 619 0
ARM GAS  C:\Users\Jarik\AppData\Local\Temp\ccuSh2si.s 			page 17


 235 00ca 8020     		mov	r0, #128
 236 00cc 3149     		ldr	r1, .L7+108
 237 00ce 4001     		lsl	r0, r0, #5
 238 00d0 0860     		str	r0, [r1]
 622:.\Generated_Source\PSoC4/cyfitter_cfg.c **** 	CY_SET_XTND_REG32((void CYFAR *)(CYREG_PRT2_PC), 0x00249249u);
 239              		.loc 1 622 0
 240 00d2 3149     		ldr	r1, .L7+112
 241              	.LBB36:
 242              	.LBB27:
 190:.\Generated_Source\PSoC4/cyfitter_cfg.c **** 	/* CYDEV_CLK_ILO_CONFIG Starting address: CYDEV_CLK_ILO_CONFIG */
 243              		.loc 1 190 0
 244 00d4 3020     		mov	r0, #48
 245              	.LBE27:
 246              	.LBE36:
 622:.\Generated_Source\PSoC4/cyfitter_cfg.c **** 	CY_SET_XTND_REG32((void CYFAR *)(CYREG_PRT2_PC), 0x00249249u);
 247              		.loc 1 622 0
 248 00d6 0A60     		str	r2, [r1]
 623:.\Generated_Source\PSoC4/cyfitter_cfg.c **** 
 249              		.loc 1 623 0
 250 00d8 304A     		ldr	r2, .L7+116
 631:.\Generated_Source\PSoC4/cyfitter_cfg.c **** 	CY_SET_XTND_REG32((void CYFAR *)(CYREG_PRT4_PC2), 0x0000000Du);
 251              		.loc 1 631 0
 252 00da 3149     		ldr	r1, .L7+120
 623:.\Generated_Source\PSoC4/cyfitter_cfg.c **** 
 253              		.loc 1 623 0
 254 00dc 1360     		str	r3, [r2]
 626:.\Generated_Source\PSoC4/cyfitter_cfg.c **** 	CY_SET_XTND_REG32((void CYFAR *)(CYREG_PRT3_PC), 0x00261D89u);
 255              		.loc 1 626 0
 256 00de 2022     		mov	r2, #32
 257 00e0 304B     		ldr	r3, .L7+124
 258 00e2 1A60     		str	r2, [r3]
 627:.\Generated_Source\PSoC4/cyfitter_cfg.c **** 
 259              		.loc 1 627 0
 260 00e4 304A     		ldr	r2, .L7+128
 261 00e6 314B     		ldr	r3, .L7+132
 262 00e8 1A60     		str	r2, [r3]
 630:.\Generated_Source\PSoC4/cyfitter_cfg.c **** 	CY_SET_XTND_REG32((void CYFAR *)(CYREG_PRT4_PC), 0x00000D8Eu);
 263              		.loc 1 630 0
 264 00ea 0D23     		mov	r3, #13
 265 00ec 304A     		ldr	r2, .L7+136
 266 00ee 1360     		str	r3, [r2]
 631:.\Generated_Source\PSoC4/cyfitter_cfg.c **** 	CY_SET_XTND_REG32((void CYFAR *)(CYREG_PRT4_PC2), 0x0000000Du);
 267              		.loc 1 631 0
 268 00f0 304A     		ldr	r2, .L7+140
 269 00f2 1160     		str	r1, [r2]
 632:.\Generated_Source\PSoC4/cyfitter_cfg.c **** 
 270              		.loc 1 632 0
 271 00f4 304A     		ldr	r2, .L7+144
 272 00f6 1360     		str	r3, [r2]
 273              	.LBB37:
 274              	.LBB28:
 187:.\Generated_Source\PSoC4/cyfitter_cfg.c **** 
 275              		.loc 1 187 0
 276 00f8 2368     		ldr	r3, [r4]
 277 00fa 2B43     		orr	r3, r5
 278 00fc 2360     		str	r3, [r4]
 190:.\Generated_Source\PSoC4/cyfitter_cfg.c **** 	/* CYDEV_CLK_ILO_CONFIG Starting address: CYDEV_CLK_ILO_CONFIG */
ARM GAS  C:\Users\Jarik\AppData\Local\Temp\ccuSh2si.s 			page 18


 279              		.loc 1 190 0
 280 00fe FFF7FEFF 		bl	CySysClkWriteImoFreq
 281              	.LVL10:
 192:.\Generated_Source\PSoC4/cyfitter_cfg.c **** 
 282              		.loc 1 192 0
 283 0102 2E4A     		ldr	r2, .L7+148
 284 0104 2E4B     		ldr	r3, .L7+152
 285 0106 1A60     		str	r2, [r3]
 196:.\Generated_Source\PSoC4/cyfitter_cfg.c **** 
 286              		.loc 1 196 0
 287 0108 1022     		mov	r2, #16
 288 010a 2E4B     		ldr	r3, .L7+156
 289 010c 1A60     		str	r2, [r3]
 199:.\Generated_Source\PSoC4/cyfitter_cfg.c **** 
 290              		.loc 1 199 0
 291 010e 8022     		mov	r2, #128
 292 0110 2D4B     		ldr	r3, .L7+160
 293 0112 1206     		lsl	r2, r2, #24
 294 0114 1A60     		str	r2, [r3]
 205:.\Generated_Source\PSoC4/cyfitter_cfg.c **** 
 295              		.loc 1 205 0
 296 0116 2D4A     		ldr	r2, .L7+164
 297 0118 2D4B     		ldr	r3, .L7+168
 202:.\Generated_Source\PSoC4/cyfitter_cfg.c **** 
 298              		.loc 1 202 0
 299 011a 2560     		str	r5, [r4]
 205:.\Generated_Source\PSoC4/cyfitter_cfg.c **** 
 300              		.loc 1 205 0
 301 011c 1A60     		str	r2, [r3]
 207:.\Generated_Source\PSoC4/cyfitter_cfg.c **** }
 302              		.loc 1 207 0
 303 011e 0022     		mov	r2, #0
 304 0120 2C4B     		ldr	r3, .L7+172
 305 0122 1A60     		str	r2, [r3]
 306              	.LVL11:
 307              	.LVL12:
 308              	.LBE28:
 309              	.LBE37:
 310              		.loc 1 640 0
 311 0124 F8BD     		pop	{r3, r4, r5, r6, r7, pc}
 312              	.L8:
 313 0126 C046     		.align	2
 314              	.L7:
 315 0128 00300F40 		.word	1074737152
 316 012c 00400F40 		.word	1074741248
 317 0130 00000000 		.word	.LANCHOR0
 318 0134 0C000140 		.word	1073807372
 319 0138 FFFF0000 		.word	65535
 320 013c 10000140 		.word	1073807376
 321 0140 04500F40 		.word	1074745348
 322 0144 04009900 		.word	10027012
 323 0148 00500F40 		.word	1074745344
 324 014c 00000524 		.word	604307456
 325 0150 00005555 		.word	1431633920
 326 0154 10500F40 		.word	1074745360
 327 0158 00010B40 		.word	1074462976
 328 015c 14500F40 		.word	1074745364
ARM GAS  C:\Users\Jarik\AppData\Local\Temp\ccuSh2si.s 			page 19


 329 0160 20500F40 		.word	1074745376
 330 0164 24500F40 		.word	1074745380
 331 0168 30500F40 		.word	1074745392
 332 016c 00000551 		.word	1359282176
 333 0170 34500F40 		.word	1074745396
 334 0174 00700F40 		.word	1074753536
 335 0178 01700F40 		.word	1074753537
 336 017c 00000440 		.word	1074003968
 337 0180 08000440 		.word	1074003976
 338 0184 49922400 		.word	2396745
 339 0188 00010440 		.word	1074004224
 340 018c 89ED0800 		.word	585097
 341 0190 08010440 		.word	1074004232
 342 0194 0C010440 		.word	1074004236
 343 0198 00020440 		.word	1074004480
 344 019c 08020440 		.word	1074004488
 345 01a0 8E0D0000 		.word	3470
 346 01a4 00030440 		.word	1074004736
 347 01a8 891D2600 		.word	2497929
 348 01ac 08030440 		.word	1074004744
 349 01b0 00040440 		.word	1074004992
 350 01b4 08040440 		.word	1074005000
 351 01b8 18040440 		.word	1074005016
 352 01bc 06000080 		.word	-2147483642
 353 01c0 04010B40 		.word	1074462980
 354 01c4 08020240 		.word	1073873416
 355 01c8 08010B40 		.word	1074462984
 356 01cc 01000080 		.word	-2147483647
 357 01d0 00000240 		.word	1073872896
 358 01d4 0C020B40 		.word	1074463244
 359              		.cfi_endproc
 360              	.LFE6:
 361              		.size	cyfitter_cfg, .-cyfitter_cfg
 362              		.section	.rodata
 363              		.align	2
 364              		.set	.LANCHOR0,. + 0
 365              		.type	cy_cfg_addr_table.4731, %object
 366              		.size	cy_cfg_addr_table.4731, 36
 367              	cy_cfg_addr_table.4731:
 368 0000 38300F40 		.word	1074737208
 369 0004 3E310F40 		.word	1074737470
 370 0008 22320F40 		.word	1074737698
 371 000c 47330F40 		.word	1074737991
 372 0010 0C400F40 		.word	1074741260
 373 0014 0E410F40 		.word	1074741518
 374 0018 0F420F40 		.word	1074741775
 375 001c 12430F40 		.word	1074742034
 376 0020 02600F40 		.word	1074749442
 377              		.type	cy_cfg_data_table.4732, %object
 378              		.size	cy_cfg_data_table.4732, 568
 379              	cy_cfg_data_table.4732:
 380 0024 02       		.byte	2
 381 0025 01       		.byte	1
 382 0026 03       		.byte	3
 383 0027 0F       		.byte	15
 384 0028 05       		.byte	5
 385 0029 02       		.byte	2
ARM GAS  C:\Users\Jarik\AppData\Local\Temp\ccuSh2si.s 			page 20


 386 002a 06       		.byte	6
 387 002b 01       		.byte	1
 388 002c 07       		.byte	7
 389 002d 01       		.byte	1
 390 002e 08       		.byte	8
 391 002f 01       		.byte	1
 392 0030 09       		.byte	9
 393 0031 0F       		.byte	15
 394 0032 0D       		.byte	13
 395 0033 04       		.byte	4
 396 0034 0E       		.byte	14
 397 0035 01       		.byte	1
 398 0036 0F       		.byte	15
 399 0037 01       		.byte	1
 400 0038 11       		.byte	17
 401 0039 0F       		.byte	15
 402 003a 12       		.byte	18
 403 003b 01       		.byte	1
 404 003c 14       		.byte	20
 405 003d 01       		.byte	1
 406 003e 15       		.byte	21
 407 003f 08       		.byte	8
 408 0040 17       		.byte	23
 409 0041 01       		.byte	1
 410 0042 19       		.byte	25
 411 0043 0F       		.byte	15
 412 0044 1A       		.byte	26
 413 0045 01       		.byte	1
 414 0046 1C       		.byte	28
 415 0047 01       		.byte	1
 416 0048 1D       		.byte	29
 417 0049 0F       		.byte	15
 418 004a 22       		.byte	34
 419 004b 01       		.byte	1
 420 004c 23       		.byte	35
 421 004d 0F       		.byte	15
 422 004e 26       		.byte	38
 423 004f 01       		.byte	1
 424 0050 27       		.byte	39
 425 0051 0F       		.byte	15
 426 0052 28       		.byte	40
 427 0053 01       		.byte	1
 428 0054 2B       		.byte	43
 429 0055 0F       		.byte	15
 430 0056 2C       		.byte	44
 431 0057 01       		.byte	1
 432 0058 2D       		.byte	45
 433 0059 0F       		.byte	15
 434 005a 32       		.byte	50
 435 005b 01       		.byte	1
 436 005c 35       		.byte	53
 437 005d 01       		.byte	1
 438 005e 37       		.byte	55
 439 005f 0E       		.byte	14
 440 0060 38       		.byte	56
 441 0061 08       		.byte	8
 442 0062 39       		.byte	57
ARM GAS  C:\Users\Jarik\AppData\Local\Temp\ccuSh2si.s 			page 21


 443 0063 A0       		.byte	-96
 444 0064 3E       		.byte	62
 445 0065 04       		.byte	4
 446 0066 3F       		.byte	63
 447 0067 50       		.byte	80
 448 0068 58       		.byte	88
 449 0069 04       		.byte	4
 450 006a 59       		.byte	89
 451 006b 04       		.byte	4
 452 006c 5F       		.byte	95
 453 006d 01       		.byte	1
 454 006e 8D       		.byte	-115
 455 006f 04       		.byte	4
 456 0070 98       		.byte	-104
 457 0071 01       		.byte	1
 458 0072 99       		.byte	-103
 459 0073 02       		.byte	2
 460 0074 A8       		.byte	-88
 461 0075 02       		.byte	2
 462 0076 A9       		.byte	-87
 463 0077 01       		.byte	1
 464 0078 AC       		.byte	-84
 465 0079 04       		.byte	4
 466 007a AD       		.byte	-83
 467 007b 08       		.byte	8
 468 007c B0       		.byte	-80
 469 007d 02       		.byte	2
 470 007e B1       		.byte	-79
 471 007f 02       		.byte	2
 472 0080 B2       		.byte	-78
 473 0081 04       		.byte	4
 474 0082 B3       		.byte	-77
 475 0083 08       		.byte	8
 476 0084 B4       		.byte	-76
 477 0085 01       		.byte	1
 478 0086 B5       		.byte	-75
 479 0087 04       		.byte	4
 480 0088 B7       		.byte	-73
 481 0089 01       		.byte	1
 482 008a D8       		.byte	-40
 483 008b 0B       		.byte	11
 484 008c D9       		.byte	-39
 485 008d 0B       		.byte	11
 486 008e DB       		.byte	-37
 487 008f 04       		.byte	4
 488 0090 DC       		.byte	-36
 489 0091 99       		.byte	-103
 490 0092 DF       		.byte	-33
 491 0093 01       		.byte	1
 492 0094 02       		.byte	2
 493 0095 85       		.byte	-123
 494 0096 03       		.byte	3
 495 0097 20       		.byte	32
 496 0098 08       		.byte	8
 497 0099 10       		.byte	16
 498 009a 09       		.byte	9
 499 009b 02       		.byte	2
ARM GAS  C:\Users\Jarik\AppData\Local\Temp\ccuSh2si.s 			page 22


 500 009c 0A       		.byte	10
 501 009d 12       		.byte	18
 502 009e 0E       		.byte	14
 503 009f 04       		.byte	4
 504 00a0 10       		.byte	16
 505 00a1 44       		.byte	68
 506 00a2 12       		.byte	18
 507 00a3 0A       		.byte	10
 508 00a4 13       		.byte	19
 509 00a5 04       		.byte	4
 510 00a6 15       		.byte	21
 511 00a7 10       		.byte	16
 512 00a8 17       		.byte	23
 513 00a9 80       		.byte	-128
 514 00aa 19       		.byte	25
 515 00ab 04       		.byte	4
 516 00ac 1E       		.byte	30
 517 00ad A0       		.byte	-96
 518 00ae 1F       		.byte	31
 519 00af 20       		.byte	32
 520 00b0 22       		.byte	34
 521 00b1 50       		.byte	80
 522 00b2 24       		.byte	36
 523 00b3 98       		.byte	-104
 524 00b4 25       		.byte	37
 525 00b5 02       		.byte	2
 526 00b6 26       		.byte	38
 527 00b7 89       		.byte	-119
 528 00b8 28       		.byte	40
 529 00b9 40       		.byte	64
 530 00ba 29       		.byte	41
 531 00bb 11       		.byte	17
 532 00bc 2B       		.byte	43
 533 00bd 21       		.byte	33
 534 00be 2D       		.byte	45
 535 00bf 80       		.byte	-128
 536 00c0 2F       		.byte	47
 537 00c1 04       		.byte	4
 538 00c2 30       		.byte	48
 539 00c3 A0       		.byte	-96
 540 00c4 31       		.byte	49
 541 00c5 20       		.byte	32
 542 00c6 32       		.byte	50
 543 00c7 05       		.byte	5
 544 00c8 33       		.byte	51
 545 00c9 02       		.byte	2
 546 00ca 37       		.byte	55
 547 00cb 20       		.byte	32
 548 00cc 38       		.byte	56
 549 00cd 98       		.byte	-104
 550 00ce 3A       		.byte	58
 551 00cf 01       		.byte	1
 552 00d0 3B       		.byte	59
 553 00d1 04       		.byte	4
 554 00d2 3D       		.byte	61
 555 00d3 40       		.byte	64
 556 00d4 45       		.byte	69
ARM GAS  C:\Users\Jarik\AppData\Local\Temp\ccuSh2si.s 			page 23


 557 00d5 20       		.byte	32
 558 00d6 46       		.byte	70
 559 00d7 04       		.byte	4
 560 00d8 58       		.byte	88
 561 00d9 10       		.byte	16
 562 00da 59       		.byte	89
 563 00db 10       		.byte	16
 564 00dc 5A       		.byte	90
 565 00dd 08       		.byte	8
 566 00de 5B       		.byte	91
 567 00df 08       		.byte	8
 568 00e0 5E       		.byte	94
 569 00e1 A2       		.byte	-94
 570 00e2 5F       		.byte	95
 571 00e3 08       		.byte	8
 572 00e4 64       		.byte	100
 573 00e5 05       		.byte	5
 574 00e6 65       		.byte	101
 575 00e7 02       		.byte	2
 576 00e8 67       		.byte	103
 577 00e9 10       		.byte	16
 578 00ea 7A       		.byte	122
 579 00eb 02       		.byte	2
 580 00ec 7B       		.byte	123
 581 00ed 01       		.byte	1
 582 00ee 7F       		.byte	127
 583 00ef 80       		.byte	-128
 584 00f0 81       		.byte	-127
 585 00f1 02       		.byte	2
 586 00f2 83       		.byte	-125
 587 00f3 A0       		.byte	-96
 588 00f4 84       		.byte	-124
 589 00f5 01       		.byte	1
 590 00f6 85       		.byte	-123
 591 00f7 10       		.byte	16
 592 00f8 87       		.byte	-121
 593 00f9 16       		.byte	22
 594 00fa 88       		.byte	-120
 595 00fb 05       		.byte	5
 596 00fc 8C       		.byte	-116
 597 00fd 88       		.byte	-120
 598 00fe C0       		.byte	-64
 599 00ff 0F       		.byte	15
 600 0100 C2       		.byte	-62
 601 0101 4F       		.byte	79
 602 0102 C4       		.byte	-60
 603 0103 CF       		.byte	-49
 604 0104 CA       		.byte	-54
 605 0105 3F       		.byte	63
 606 0106 CC       		.byte	-52
 607 0107 2F       		.byte	47
 608 0108 CE       		.byte	-50
 609 0109 1F       		.byte	31
 610 010a D6       		.byte	-42
 611 010b F0       		.byte	-16
 612 010c D8       		.byte	-40
 613 010d F0       		.byte	-16
ARM GAS  C:\Users\Jarik\AppData\Local\Temp\ccuSh2si.s 			page 24


 614 010e DE       		.byte	-34
 615 010f 80       		.byte	-128
 616 0110 01       		.byte	1
 617 0111 08       		.byte	8
 618 0112 02       		.byte	2
 619 0113 01       		.byte	1
 620 0114 05       		.byte	5
 621 0115 04       		.byte	4
 622 0116 0A       		.byte	10
 623 0117 01       		.byte	1
 624 0118 0C       		.byte	12
 625 0119 08       		.byte	8
 626 011a 14       		.byte	20
 627 011b 02       		.byte	2
 628 011c 19       		.byte	25
 629 011d 02       		.byte	2
 630 011e 1D       		.byte	29
 631 011f 01       		.byte	1
 632 0120 20       		.byte	32
 633 0121 04       		.byte	4
 634 0122 26       		.byte	38
 635 0123 01       		.byte	1
 636 0124 28       		.byte	40
 637 0125 01       		.byte	1
 638 0126 2C       		.byte	44
 639 0127 01       		.byte	1
 640 0128 30       		.byte	48
 641 0129 02       		.byte	2
 642 012a 31       		.byte	49
 643 012b 01       		.byte	1
 644 012c 32       		.byte	50
 645 012d 04       		.byte	4
 646 012e 33       		.byte	51
 647 012f 04       		.byte	4
 648 0130 34       		.byte	52
 649 0131 08       		.byte	8
 650 0132 35       		.byte	53
 651 0133 08       		.byte	8
 652 0134 36       		.byte	54
 653 0135 01       		.byte	1
 654 0136 37       		.byte	55
 655 0137 02       		.byte	2
 656 0138 3E       		.byte	62
 657 0139 40       		.byte	64
 658 013a 58       		.byte	88
 659 013b 0B       		.byte	11
 660 013c 59       		.byte	89
 661 013d 0B       		.byte	11
 662 013e 5B       		.byte	91
 663 013f 04       		.byte	4
 664 0140 5C       		.byte	92
 665 0141 99       		.byte	-103
 666 0142 5F       		.byte	95
 667 0143 01       		.byte	1
 668 0144 A0       		.byte	-96
 669 0145 01       		.byte	1
 670 0146 A4       		.byte	-92
ARM GAS  C:\Users\Jarik\AppData\Local\Temp\ccuSh2si.s 			page 25


 671 0147 02       		.byte	2
 672 0148 B0       		.byte	-80
 673 0149 01       		.byte	1
 674 014a B4       		.byte	-76
 675 014b 02       		.byte	2
 676 014c D8       		.byte	-40
 677 014d 0B       		.byte	11
 678 014e DB       		.byte	-37
 679 014f 04       		.byte	4
 680 0150 DC       		.byte	-36
 681 0151 09       		.byte	9
 682 0152 DF       		.byte	-33
 683 0153 01       		.byte	1
 684 0154 04       		.byte	4
 685 0155 40       		.byte	64
 686 0156 05       		.byte	5
 687 0157 11       		.byte	17
 688 0158 06       		.byte	6
 689 0159 40       		.byte	64
 690 015a 0C       		.byte	12
 691 015b 08       		.byte	8
 692 015c 11       		.byte	17
 693 015d 02       		.byte	2
 694 015e 12       		.byte	18
 695 015f 10       		.byte	16
 696 0160 15       		.byte	21
 697 0161 11       		.byte	17
 698 0162 17       		.byte	23
 699 0163 88       		.byte	-120
 700 0164 19       		.byte	25
 701 0165 20       		.byte	32
 702 0166 1B       		.byte	27
 703 0167 02       		.byte	2
 704 0168 1E       		.byte	30
 705 0169 64       		.byte	100
 706 016a 1F       		.byte	31
 707 016b 80       		.byte	-128
 708 016c 25       		.byte	37
 709 016d 28       		.byte	40
 710 016e 26       		.byte	38
 711 016f 01       		.byte	1
 712 0170 27       		.byte	39
 713 0171 02       		.byte	2
 714 0172 34       		.byte	52
 715 0173 80       		.byte	-128
 716 0174 37       		.byte	55
 717 0175 10       		.byte	16
 718 0176 3C       		.byte	60
 719 0177 0A       		.byte	10
 720 0178 45       		.byte	69
 721 0179 28       		.byte	40
 722 017a 46       		.byte	70
 723 017b 28       		.byte	40
 724 017c 58       		.byte	88
 725 017d 01       		.byte	1
 726 017e 59       		.byte	89
 727 017f 04       		.byte	4
ARM GAS  C:\Users\Jarik\AppData\Local\Temp\ccuSh2si.s 			page 26


 728 0180 5A       		.byte	90
 729 0181 A0       		.byte	-96
 730 0182 5B       		.byte	91
 731 0183 02       		.byte	2
 732 0184 5D       		.byte	93
 733 0185 20       		.byte	32
 734 0186 5E       		.byte	94
 735 0187 46       		.byte	70
 736 0188 64       		.byte	100
 737 0189 01       		.byte	1
 738 018a 66       		.byte	102
 739 018b 2A       		.byte	42
 740 018c 7B       		.byte	123
 741 018d 80       		.byte	-128
 742 018e 7F       		.byte	127
 743 018f 80       		.byte	-128
 744 0190 82       		.byte	-126
 745 0191 01       		.byte	1
 746 0192 83       		.byte	-125
 747 0193 08       		.byte	8
 748 0194 86       		.byte	-122
 749 0195 12       		.byte	18
 750 0196 88       		.byte	-120
 751 0197 20       		.byte	32
 752 0198 89       		.byte	-119
 753 0199 10       		.byte	16
 754 019a 8A       		.byte	-118
 755 019b 40       		.byte	64
 756 019c 8B       		.byte	-117
 757 019d 81       		.byte	-127
 758 019e 8C       		.byte	-116
 759 019f 80       		.byte	-128
 760 01a0 8D       		.byte	-115
 761 01a1 10       		.byte	16
 762 01a2 90       		.byte	-112
 763 01a3 40       		.byte	64
 764 01a4 91       		.byte	-111
 765 01a5 01       		.byte	1
 766 01a6 92       		.byte	-110
 767 01a7 A0       		.byte	-96
 768 01a8 98       		.byte	-104
 769 01a9 80       		.byte	-128
 770 01aa 99       		.byte	-103
 771 01ab 04       		.byte	4
 772 01ac 9A       		.byte	-102
 773 01ad 10       		.byte	16
 774 01ae 9B       		.byte	-101
 775 01af 10       		.byte	16
 776 01b0 9D       		.byte	-99
 777 01b1 11       		.byte	17
 778 01b2 9E       		.byte	-98
 779 01b3 01       		.byte	1
 780 01b4 A0       		.byte	-96
 781 01b5 0D       		.byte	13
 782 01b6 A1       		.byte	-95
 783 01b7 01       		.byte	1
 784 01b8 A4       		.byte	-92
ARM GAS  C:\Users\Jarik\AppData\Local\Temp\ccuSh2si.s 			page 27


 785 01b9 A0       		.byte	-96
 786 01ba A7       		.byte	-89
 787 01bb 83       		.byte	-125
 788 01bc A9       		.byte	-87
 789 01bd 41       		.byte	65
 790 01be AB       		.byte	-85
 791 01bf 20       		.byte	32
 792 01c0 AD       		.byte	-83
 793 01c1 80       		.byte	-128
 794 01c2 AE       		.byte	-82
 795 01c3 04       		.byte	4
 796 01c4 AF       		.byte	-81
 797 01c5 04       		.byte	4
 798 01c6 B1       		.byte	-79
 799 01c7 01       		.byte	1
 800 01c8 B2       		.byte	-78
 801 01c9 94       		.byte	-108
 802 01ca B4       		.byte	-76
 803 01cb 40       		.byte	64
 804 01cc B6       		.byte	-74
 805 01cd 10       		.byte	16
 806 01ce B7       		.byte	-73
 807 01cf 10       		.byte	16
 808 01d0 C0       		.byte	-64
 809 01d1 D0       		.byte	-48
 810 01d2 C2       		.byte	-62
 811 01d3 20       		.byte	32
 812 01d4 C4       		.byte	-60
 813 01d5 FC       		.byte	-4
 814 01d6 CC       		.byte	-52
 815 01d7 30       		.byte	48
 816 01d8 CE       		.byte	-50
 817 01d9 C0       		.byte	-64
 818 01da D6       		.byte	-42
 819 01db FE       		.byte	-2
 820 01dc D8       		.byte	-40
 821 01dd F0       		.byte	-16
 822 01de DE       		.byte	-34
 823 01df 81       		.byte	-127
 824 01e0 EC       		.byte	-20
 825 01e1 10       		.byte	16
 826 01e2 01       		.byte	1
 827 01e3 10       		.byte	16
 828 01e4 03       		.byte	3
 829 01e5 80       		.byte	-128
 830 01e6 07       		.byte	7
 831 01e7 24       		.byte	36
 832 01e8 08       		.byte	8
 833 01e9 08       		.byte	8
 834 01ea 09       		.byte	9
 835 01eb 80       		.byte	-128
 836 01ec 0F       		.byte	15
 837 01ed 14       		.byte	20
 838 01ee 83       		.byte	-125
 839 01ef 20       		.byte	32
 840 01f0 87       		.byte	-121
 841 01f1 80       		.byte	-128
ARM GAS  C:\Users\Jarik\AppData\Local\Temp\ccuSh2si.s 			page 28


 842 01f2 C0       		.byte	-64
 843 01f3 F0       		.byte	-16
 844 01f4 C2       		.byte	-62
 845 01f5 F0       		.byte	-16
 846 01f6 E0       		.byte	-32
 847 01f7 80       		.byte	-128
 848 01f8 E4       		.byte	-28
 849 01f9 10       		.byte	16
 850 01fa 03       		.byte	3
 851 01fb 10       		.byte	16
 852 01fc 06       		.byte	6
 853 01fd 80       		.byte	-128
 854 01fe 83       		.byte	-125
 855 01ff 10       		.byte	16
 856 0200 9E       		.byte	-98
 857 0201 80       		.byte	-128
 858 0202 A8       		.byte	-88
 859 0203 08       		.byte	8
 860 0204 A9       		.byte	-87
 861 0205 80       		.byte	-128
 862 0206 AB       		.byte	-85
 863 0207 04       		.byte	4
 864 0208 AD       		.byte	-83
 865 0209 10       		.byte	16
 866 020a AF       		.byte	-81
 867 020b 14       		.byte	20
 868 020c B6       		.byte	-74
 869 020d 80       		.byte	-128
 870 020e C0       		.byte	-64
 871 020f 30       		.byte	48
 872 0210 E0       		.byte	-32
 873 0211 20       		.byte	32
 874 0212 E8       		.byte	-24
 875 0213 D0       		.byte	-48
 876 0214 EC       		.byte	-20
 877 0215 B0       		.byte	-80
 878 0216 00       		.byte	0
 879 0217 01       		.byte	1
 880 0218 01       		.byte	1
 881 0219 40       		.byte	64
 882 021a 04       		.byte	4
 883 021b 10       		.byte	16
 884 021c 06       		.byte	6
 885 021d 80       		.byte	-128
 886 021e 08       		.byte	8
 887 021f 40       		.byte	64
 888 0220 09       		.byte	9
 889 0221 04       		.byte	4
 890 0222 0E       		.byte	14
 891 0223 01       		.byte	1
 892 0224 0F       		.byte	15
 893 0225 40       		.byte	64
 894 0226 88       		.byte	-120
 895 0227 40       		.byte	64
 896 0228 8B       		.byte	-117
 897 0229 40       		.byte	64
 898 022a 8C       		.byte	-116
ARM GAS  C:\Users\Jarik\AppData\Local\Temp\ccuSh2si.s 			page 29


 899 022b 11       		.byte	17
 900 022c C0       		.byte	-64
 901 022d 0F       		.byte	15
 902 022e C2       		.byte	-62
 903 022f 0F       		.byte	15
 904 0230 E2       		.byte	-30
 905 0231 0D       		.byte	13
 906 0232 E6       		.byte	-26
 907 0233 08       		.byte	8
 908 0234 00       		.byte	0
 909 0235 02       		.byte	2
 910 0236 06       		.byte	6
 911 0237 20       		.byte	32
 912 0238 09       		.byte	9
 913 0239 02       		.byte	2
 914 023a 0A       		.byte	10
 915 023b 01       		.byte	1
 916 023c 0F       		.byte	15
 917 023d 08       		.byte	8
 918 023e 88       		.byte	-120
 919 023f 01       		.byte	1
 920 0240 89       		.byte	-119
 921 0241 02       		.byte	2
 922 0242 8A       		.byte	-118
 923 0243 01       		.byte	1
 924 0244 8E       		.byte	-114
 925 0245 20       		.byte	32
 926 0246 8F       		.byte	-113
 927 0247 04       		.byte	4
 928 0248 B2       		.byte	-78
 929 0249 81       		.byte	-127
 930 024a B5       		.byte	-75
 931 024b 44       		.byte	68
 932 024c C0       		.byte	-64
 933 024d 0C       		.byte	12
 934 024e C2       		.byte	-62
 935 024f 0B       		.byte	11
 936 0250 E2       		.byte	-30
 937 0251 03       		.byte	3
 938 0252 E6       		.byte	-26
 939 0253 07       		.byte	7
 940 0254 EA       		.byte	-22
 941 0255 02       		.byte	2
 942 0256 EE       		.byte	-18
 943 0257 07       		.byte	7
 944 0258 02       		.byte	2
 945 0259 01       		.byte	1
 946 025a 11       		.byte	17
 947 025b 01       		.byte	1
 948              		.text
 949              	.Letext0:
 950              		.file 2 "c:\\program files\\cypress\\psoc creator\\3.3\\psoc creator\\import\\gnu\\arm\\4.9.3\\lib
 951              		.file 3 ".\\Generated_Source\\PSoC4\\cytypes.h"
 952              		.file 4 ".\\Generated_Source\\PSoC4\\CyLib.h"