ARM GAS  C:\Users\Jarik\AppData\Local\Temp\cchjOeXN.s 			page 1


   1              		.cpu cortex-m0
   2              		.fpu softvfp
   3              		.eabi_attribute 20, 1
   4              		.eabi_attribute 21, 1
   5              		.eabi_attribute 23, 3
   6              		.eabi_attribute 24, 1
   7              		.eabi_attribute 25, 1
   8              		.eabi_attribute 26, 1
   9              		.eabi_attribute 30, 4
  10              		.eabi_attribute 34, 0
  11              		.eabi_attribute 18, 4
  12              		.code	16
  13              		.file	"CyFlash.c"
  14              		.text
  15              	.Ltext0:
  16              		.cfi_sections	.debug_frame
  17              		.section	.text.CySysFlashWriteRow,"ax",%progbits
  18              		.align	1
  19              		.global	CySysFlashWriteRow
  20              		.code	16
  21              		.thumb_func
  22              		.type	CySysFlashWriteRow, %function
  23              	CySysFlashWriteRow:
  24              	.LFB0:
  25              		.file 1 ".\\Generated_Source\\PSoC4\\CyFlash.c"
   1:.\Generated_Source\PSoC4/CyFlash.c **** /*******************************************************************************
   2:.\Generated_Source\PSoC4/CyFlash.c **** * File Name: CyFlash.c
   3:.\Generated_Source\PSoC4/CyFlash.c **** * Version 5.30
   4:.\Generated_Source\PSoC4/CyFlash.c **** *
   5:.\Generated_Source\PSoC4/CyFlash.c **** *  Description:
   6:.\Generated_Source\PSoC4/CyFlash.c **** *   Provides an API for the FLASH.
   7:.\Generated_Source\PSoC4/CyFlash.c **** *
   8:.\Generated_Source\PSoC4/CyFlash.c **** *  Note:
   9:.\Generated_Source\PSoC4/CyFlash.c **** *   This code is endian agnostic.
  10:.\Generated_Source\PSoC4/CyFlash.c **** *
  11:.\Generated_Source\PSoC4/CyFlash.c **** *  Note:
  12:.\Generated_Source\PSoC4/CyFlash.c **** *   Documentation of the API's in this file is located in the
  13:.\Generated_Source\PSoC4/CyFlash.c **** *   System Reference Guide provided with PSoC Creator.
  14:.\Generated_Source\PSoC4/CyFlash.c **** *
  15:.\Generated_Source\PSoC4/CyFlash.c **** ********************************************************************************
  16:.\Generated_Source\PSoC4/CyFlash.c **** * Copyright 2010-2015, Cypress Semiconductor Corporation.  All rights reserved.
  17:.\Generated_Source\PSoC4/CyFlash.c **** * You may use this file only in accordance with the license, terms, conditions,
  18:.\Generated_Source\PSoC4/CyFlash.c **** * disclaimers, and limitations in the end user license agreement accompanying
  19:.\Generated_Source\PSoC4/CyFlash.c **** * the software package with which this file was provided.
  20:.\Generated_Source\PSoC4/CyFlash.c **** *******************************************************************************/
  21:.\Generated_Source\PSoC4/CyFlash.c **** 
  22:.\Generated_Source\PSoC4/CyFlash.c **** #include "CyFlash.h"
  23:.\Generated_Source\PSoC4/CyFlash.c **** 
  24:.\Generated_Source\PSoC4/CyFlash.c **** 
  25:.\Generated_Source\PSoC4/CyFlash.c **** /*******************************************************************************
  26:.\Generated_Source\PSoC4/CyFlash.c **** * Cypress identified a defect with the Flash write functionality of the
  27:.\Generated_Source\PSoC4/CyFlash.c **** * PSoC 4000, PSoC 4100, and PSoC 4200 devices. The CySysFlashWriteRow() function
  28:.\Generated_Source\PSoC4/CyFlash.c **** * now checks the data to be written and, if necessary, modifies it to have a
  29:.\Generated_Source\PSoC4/CyFlash.c **** * non-zero checksum. After writing to Flash, the modified data is replaced
  30:.\Generated_Source\PSoC4/CyFlash.c **** * (Flash program) with the correct (original) data.
  31:.\Generated_Source\PSoC4/CyFlash.c **** *******************************************************************************/
  32:.\Generated_Source\PSoC4/CyFlash.c **** #define CY_FLASH_CHECKSUM_WORKAROUND    (CY_PSOC4_4000 || CY_PSOC4_4100 || CY_PSOC4_4200)
ARM GAS  C:\Users\Jarik\AppData\Local\Temp\cchjOeXN.s 			page 2


  33:.\Generated_Source\PSoC4/CyFlash.c **** 
  34:.\Generated_Source\PSoC4/CyFlash.c **** #if (CY_IP_FM || ((!CY_PSOC4_4000) && CY_IP_SPCIF_SYNCHRONOUS) || (!CY_IP_FM) && CY_PSOC4_4000)
  35:.\Generated_Source\PSoC4/CyFlash.c ****     static CY_SYS_FLASH_CLOCK_BACKUP_STRUCT cySysFlashBackup;
  36:.\Generated_Source\PSoC4/CyFlash.c **** #endif /* (CY_IP_FM || ((!CY_PSOC4_4000) && CY_IP_SPCIF_SYNCHRONOUS) || (!CY_IP_FM) && CY_PSOC4_400
  37:.\Generated_Source\PSoC4/CyFlash.c **** 
  38:.\Generated_Source\PSoC4/CyFlash.c **** static cystatus CySysFlashClockBackup(void);
  39:.\Generated_Source\PSoC4/CyFlash.c **** static cystatus CySysFlashClockRestore(void);
  40:.\Generated_Source\PSoC4/CyFlash.c **** #if(CY_IP_SPCIF_SYNCHRONOUS)
  41:.\Generated_Source\PSoC4/CyFlash.c ****     static cystatus CySysFlashClockConfig(void);
  42:.\Generated_Source\PSoC4/CyFlash.c **** #endif  /* (CY_IP_SPCIF_SYNCHRONOUS) */
  43:.\Generated_Source\PSoC4/CyFlash.c **** 
  44:.\Generated_Source\PSoC4/CyFlash.c **** 
  45:.\Generated_Source\PSoC4/CyFlash.c **** /*******************************************************************************
  46:.\Generated_Source\PSoC4/CyFlash.c **** * Function Name: CySysFlashWriteRow
  47:.\Generated_Source\PSoC4/CyFlash.c **** ********************************************************************************
  48:.\Generated_Source\PSoC4/CyFlash.c **** *
  49:.\Generated_Source\PSoC4/CyFlash.c **** * Summary:
  50:.\Generated_Source\PSoC4/CyFlash.c **** *  Erases a row of Flash and programs it with the new data.
  51:.\Generated_Source\PSoC4/CyFlash.c **** *
  52:.\Generated_Source\PSoC4/CyFlash.c **** * Parameters:
  53:.\Generated_Source\PSoC4/CyFlash.c **** *  uint16 rowNum:
  54:.\Generated_Source\PSoC4/CyFlash.c **** *   The flash row number. The number of the flash rows is defined by the
  55:.\Generated_Source\PSoC4/CyFlash.c **** *   CY_FLASH_NUMBER_ROWS macro for the selected device. Refer to the device
  56:.\Generated_Source\PSoC4/CyFlash.c **** *   datasheet for the details.
  57:.\Generated_Source\PSoC4/CyFlash.c **** *
  58:.\Generated_Source\PSoC4/CyFlash.c **** *  uint8* rowData:
  59:.\Generated_Source\PSoC4/CyFlash.c **** *   Array of bytes to write. The size of the array must be equal to the flash
  60:.\Generated_Source\PSoC4/CyFlash.c **** *   row size. The flash row size for the selected device is defined by
  61:.\Generated_Source\PSoC4/CyFlash.c **** *   the CY_FLASH_SIZEOF_ROW macro. Refer to the device datasheet for the
  62:.\Generated_Source\PSoC4/CyFlash.c **** *   details.
  63:.\Generated_Source\PSoC4/CyFlash.c **** *
  64:.\Generated_Source\PSoC4/CyFlash.c **** * Return:
  65:.\Generated_Source\PSoC4/CyFlash.c **** *  Status
  66:.\Generated_Source\PSoC4/CyFlash.c **** *     Value                     Description
  67:.\Generated_Source\PSoC4/CyFlash.c **** *    CY_SYS_FLASH_SUCCESS           Successful
  68:.\Generated_Source\PSoC4/CyFlash.c **** *    CY_SYS_FLASH_INVALID_ADDR      Specified flash row address is invalid
  69:.\Generated_Source\PSoC4/CyFlash.c **** *    CY_SYS_FLASH_PROTECTED         Specified flash row is protected
  70:.\Generated_Source\PSoC4/CyFlash.c **** *    Other non-zero                 Failure
  71:.\Generated_Source\PSoC4/CyFlash.c **** *
  72:.\Generated_Source\PSoC4/CyFlash.c **** * Side Effects:
  73:.\Generated_Source\PSoC4/CyFlash.c **** *   The IMO must be enabled before calling this function. The operation of the
  74:.\Generated_Source\PSoC4/CyFlash.c **** *   flash writing hardware is dependent on the IMO.
  75:.\Generated_Source\PSoC4/CyFlash.c **** *
  76:.\Generated_Source\PSoC4/CyFlash.c **** *   For PSoC 4000, PSoC 4100 BLE and PSoC 4200 BLE devices (PSoC 4100 BLE and
  77:.\Generated_Source\PSoC4/CyFlash.c **** *   PSoC 4200 BLE devices with 256K of Flash memory are not affected), this API
  78:.\Generated_Source\PSoC4/CyFlash.c **** *   will automatically modify the clock settings for the device. Writing to
  79:.\Generated_Source\PSoC4/CyFlash.c **** *   flash requires that changes be made to the IMO and HFCLK settings. The
  80:.\Generated_Source\PSoC4/CyFlash.c **** *   configuration is restored before returning. This will impact the operation
  81:.\Generated_Source\PSoC4/CyFlash.c **** *   of most of the hardware in the device.
  82:.\Generated_Source\PSoC4/CyFlash.c **** *
  83:.\Generated_Source\PSoC4/CyFlash.c **** *   For PSoC 4000 devices this API will automatically modify the clock settings
  84:.\Generated_Source\PSoC4/CyFlash.c **** *   for the device. Writing to flash requires that changes be made to the IMO
  85:.\Generated_Source\PSoC4/CyFlash.c **** *   and HFCLK settings. The configuration is restored before returning. HFCLK
  86:.\Generated_Source\PSoC4/CyFlash.c **** *   will have several frequency changes during the operation of this API between
  87:.\Generated_Source\PSoC4/CyFlash.c **** *   a minimum frequency of the current IMO frequency divided by 8 and a maximum
  88:.\Generated_Source\PSoC4/CyFlash.c **** *   frequency of 12 MHz. This will impact the operation of most of the hardware
  89:.\Generated_Source\PSoC4/CyFlash.c **** *   in the device.
ARM GAS  C:\Users\Jarik\AppData\Local\Temp\cchjOeXN.s 			page 3


  90:.\Generated_Source\PSoC4/CyFlash.c **** *
  91:.\Generated_Source\PSoC4/CyFlash.c **** *******************************************************************************/
  92:.\Generated_Source\PSoC4/CyFlash.c **** uint32 CySysFlashWriteRow(uint32 rowNum, const uint8 rowData[])
  93:.\Generated_Source\PSoC4/CyFlash.c **** {
  26              		.loc 1 93 0
  27              		.cfi_startproc
  28              	.LVL0:
  29 0000 F0B5     		push	{r4, r5, r6, r7, lr}
  30              		.cfi_def_cfa_offset 20
  31              		.cfi_offset 4, -20
  32              		.cfi_offset 5, -16
  33              		.cfi_offset 6, -12
  34              		.cfi_offset 7, -8
  35              		.cfi_offset 14, -4
  94:.\Generated_Source\PSoC4/CyFlash.c ****     volatile uint32 retValue = CY_SYS_FLASH_SUCCESS;
  36              		.loc 1 94 0
  37 0002 0024     		mov	r4, #0
  93:.\Generated_Source\PSoC4/CyFlash.c ****     volatile uint32 retValue = CY_SYS_FLASH_SUCCESS;
  38              		.loc 1 93 0
  39 0004 ADB0     		sub	sp, sp, #180
  40              		.cfi_def_cfa_offset 200
  41              		.loc 1 94 0
  42 0006 0894     		str	r4, [sp, #32]
  95:.\Generated_Source\PSoC4/CyFlash.c ****     volatile uint32 clkCnfRetValue = CY_SYS_FLASH_SUCCESS;
  43              		.loc 1 95 0
  44 0008 0994     		str	r4, [sp, #36]
  45              	.LVL1:
  96:.\Generated_Source\PSoC4/CyFlash.c ****     volatile uint32 parameters[(CY_FLASH_SIZEOF_ROW + CY_FLASH_SRAM_ROM_DATA) / sizeof(uint32)];
  97:.\Generated_Source\PSoC4/CyFlash.c ****     uint8  interruptState;
  98:.\Generated_Source\PSoC4/CyFlash.c **** 
  99:.\Generated_Source\PSoC4/CyFlash.c ****     #if (CY_FLASH_CHECKSUM_WORKAROUND)
 100:.\Generated_Source\PSoC4/CyFlash.c ****         uint32 needChecksumWorkaround = 0u;
 101:.\Generated_Source\PSoC4/CyFlash.c ****         uint32 savedIndex = 0u;
 102:.\Generated_Source\PSoC4/CyFlash.c ****         uint32 savedValue = 0u;
 103:.\Generated_Source\PSoC4/CyFlash.c ****         uint32 checksum = 0u;
 104:.\Generated_Source\PSoC4/CyFlash.c ****         uint32 bits = 0u;
 105:.\Generated_Source\PSoC4/CyFlash.c ****         uint32 i;
 106:.\Generated_Source\PSoC4/CyFlash.c ****     #endif  /* (CY_FLASH_CHECKSUM_WORKAROUND) */
 107:.\Generated_Source\PSoC4/CyFlash.c **** 
 108:.\Generated_Source\PSoC4/CyFlash.c ****     if ((rowNum < CY_FLASH_NUMBER_ROWS) && (rowData != 0u))
  46              		.loc 1 108 0
  47 000a FF28     		cmp	r0, #255
  48 000c 00D9     		bls	.LCB24
  49 000e 95E0     		b	.L2	@long jump
  50              	.LCB24:
  51              		.loc 1 108 0 is_stmt 0 discriminator 1
  52 0010 A142     		cmp	r1, r4
  53 0012 00D1     		bne	.LCB26
  54 0014 92E0     		b	.L2	@long jump
  55              	.LCB26:
  56 0016 0490     		str	r0, [sp, #16]
 109:.\Generated_Source\PSoC4/CyFlash.c ****     {
 110:.\Generated_Source\PSoC4/CyFlash.c ****         /* Copy data to be written into internal variable */
 111:.\Generated_Source\PSoC4/CyFlash.c ****         (void)memcpy((void *)&parameters[2u], rowData, CY_FLASH_SIZEOF_ROW);
  57              		.loc 1 111 0 is_stmt 1
  58 0018 8022     		mov	r2, #128
  59 001a 0CA8     		add	r0, sp, #48
ARM GAS  C:\Users\Jarik\AppData\Local\Temp\cchjOeXN.s 			page 4


  60              	.LVL2:
  61 001c FFF7FEFF 		bl	memcpy
  62              	.LVL3:
 112:.\Generated_Source\PSoC4/CyFlash.c **** 
 113:.\Generated_Source\PSoC4/CyFlash.c ****         #if (CY_FLASH_CHECKSUM_WORKAROUND)
 114:.\Generated_Source\PSoC4/CyFlash.c **** 
 115:.\Generated_Source\PSoC4/CyFlash.c ****             for (i = 2u; i < ((CY_FLASH_SIZEOF_ROW / sizeof(uint32)) + 2u); i++)
  63              		.loc 1 115 0
  64 0020 0222     		mov	r2, #2
 104:.\Generated_Source\PSoC4/CyFlash.c ****         uint32 i;
  65              		.loc 1 104 0
  66 0022 231C     		mov	r3, r4
 103:.\Generated_Source\PSoC4/CyFlash.c ****         uint32 bits = 0u;
  67              		.loc 1 103 0
  68 0024 211C     		mov	r1, r4
 101:.\Generated_Source\PSoC4/CyFlash.c ****         uint32 savedValue = 0u;
  69              		.loc 1 101 0
  70 0026 0194     		str	r4, [sp, #4]
  71              	.LVL4:
  72              	.L4:
  73              	.LBB7:
 116:.\Generated_Source\PSoC4/CyFlash.c ****             {
 117:.\Generated_Source\PSoC4/CyFlash.c ****                 uint32 tmp = parameters[i];
  74              		.loc 1 117 0
  75 0028 0AAD     		add	r5, sp, #40
  76 002a 9000     		lsl	r0, r2, #2
  77 002c 4059     		ldr	r0, [r0, r5]
  78              	.LVL5:
 118:.\Generated_Source\PSoC4/CyFlash.c ****                 if (tmp != 0u)
  79              		.loc 1 118 0
  80 002e 0028     		cmp	r0, #0
  81 0030 02D0     		beq	.L3
 119:.\Generated_Source\PSoC4/CyFlash.c ****                 {
 120:.\Generated_Source\PSoC4/CyFlash.c ****                     checksum += tmp;
  82              		.loc 1 120 0
  83 0032 0918     		add	r1, r1, r0
  84              	.LVL6:
 121:.\Generated_Source\PSoC4/CyFlash.c ****                     bits |= tmp;
  85              		.loc 1 121 0
  86 0034 0343     		orr	r3, r0
  87              	.LVL7:
  88 0036 0192     		str	r2, [sp, #4]
  89              	.LVL8:
  90              	.L3:
  91              	.LBE7:
 115:.\Generated_Source\PSoC4/CyFlash.c ****             {
  92              		.loc 1 115 0 discriminator 2
  93 0038 0132     		add	r2, r2, #1
  94              	.LVL9:
  95 003a 222A     		cmp	r2, #34
  96 003c F4D1     		bne	.L4
 122:.\Generated_Source\PSoC4/CyFlash.c ****                     savedIndex = i;
 123:.\Generated_Source\PSoC4/CyFlash.c ****                 }
 124:.\Generated_Source\PSoC4/CyFlash.c ****             }
 125:.\Generated_Source\PSoC4/CyFlash.c **** 
 126:.\Generated_Source\PSoC4/CyFlash.c ****             needChecksumWorkaround = ((checksum == 0u) && (bits != 0u)) ? 1u : 0u;
  97              		.loc 1 126 0
ARM GAS  C:\Users\Jarik\AppData\Local\Temp\cchjOeXN.s 			page 5


  98 003e 0029     		cmp	r1, #0
  99 0040 01D1     		bne	.L17
 100              		.loc 1 126 0 is_stmt 0 discriminator 1
 101 0042 002B     		cmp	r3, #0
 102 0044 7DD1     		bne	.L6
 103              	.L17:
 104 0046 0027     		mov	r7, #0
 102:.\Generated_Source\PSoC4/CyFlash.c ****         uint32 checksum = 0u;
 105              		.loc 1 102 0 is_stmt 1
 106 0048 0297     		str	r7, [sp, #8]
 107              	.LVL10:
 108              	.L5:
 127:.\Generated_Source\PSoC4/CyFlash.c ****             if (needChecksumWorkaround != 0u)
 128:.\Generated_Source\PSoC4/CyFlash.c ****             {
 129:.\Generated_Source\PSoC4/CyFlash.c ****                 savedValue = parameters[savedIndex];
 130:.\Generated_Source\PSoC4/CyFlash.c ****                 parameters[savedIndex] = 0u;
 131:.\Generated_Source\PSoC4/CyFlash.c ****             }
 132:.\Generated_Source\PSoC4/CyFlash.c ****         #endif  /* (CY_FLASH_CHECKSUM_WORKAROUND) */
 133:.\Generated_Source\PSoC4/CyFlash.c **** 
 134:.\Generated_Source\PSoC4/CyFlash.c ****         /* Load Flash Bytes */
 135:.\Generated_Source\PSoC4/CyFlash.c ****         parameters[0u] = (uint32) (CY_FLASH_GET_MACRO_FROM_ROW(rowNum)        << CY_FLASH_PARAM_MAC
 136:.\Generated_Source\PSoC4/CyFlash.c ****                          (uint32) (CY_FLASH_PAGE_LATCH_START_ADDR             << CY_FLASH_PARAM_ADD
 137:.\Generated_Source\PSoC4/CyFlash.c ****                          (uint32) (CY_FLASH_KEY_TWO(CY_FLASH_API_OPCODE_LOAD) << CY_FLASH_PARAM_KEY
 138:.\Generated_Source\PSoC4/CyFlash.c ****                          CY_FLASH_KEY_ONE;
 139:.\Generated_Source\PSoC4/CyFlash.c ****         parameters[1u] = CY_FLASH_SIZEOF_ROW - 1u;
 109              		.loc 1 139 0
 110 004a 7F23     		mov	r3, #127
 135:.\Generated_Source\PSoC4/CyFlash.c ****                          (uint32) (CY_FLASH_PAGE_LATCH_START_ADDR             << CY_FLASH_PARAM_ADD
 111              		.loc 1 135 0
 112 004c 4249     		ldr	r1, .L30
 113              	.LVL11:
 140:.\Generated_Source\PSoC4/CyFlash.c **** 
 141:.\Generated_Source\PSoC4/CyFlash.c ****         CY_FLASH_CPUSS_SYSARG_REG = (uint32) &parameters[0u];
 114              		.loc 1 141 0
 115 004e 434C     		ldr	r4, .L30+4
 135:.\Generated_Source\PSoC4/CyFlash.c ****                          (uint32) (CY_FLASH_PAGE_LATCH_START_ADDR             << CY_FLASH_PARAM_ADD
 116              		.loc 1 135 0
 117 0050 0A91     		str	r1, [sp, #40]
 142:.\Generated_Source\PSoC4/CyFlash.c ****         CY_FLASH_CPUSS_SYSREQ_REG = CY_FLASH_CPUSS_REQ_START | CY_FLASH_API_OPCODE_LOAD;
 118              		.loc 1 142 0
 119 0052 434E     		ldr	r6, .L30+8
 139:.\Generated_Source\PSoC4/CyFlash.c **** 
 120              		.loc 1 139 0
 121 0054 6B60     		str	r3, [r5, #4]
 122              		.loc 1 142 0
 123 0056 434B     		ldr	r3, .L30+12
 141:.\Generated_Source\PSoC4/CyFlash.c ****         CY_FLASH_CPUSS_SYSREQ_REG = CY_FLASH_CPUSS_REQ_START | CY_FLASH_API_OPCODE_LOAD;
 124              		.loc 1 141 0
 125 0058 2560     		str	r5, [r4]
 126              		.loc 1 142 0
 127 005a 3360     		str	r3, [r6]
 143:.\Generated_Source\PSoC4/CyFlash.c ****         retValue = CY_FLASH_API_RETURN;
 128              		.loc 1 143 0
 129 005c 2268     		ldr	r2, [r4]
 130 005e 0793     		str	r3, [sp, #28]
 131 0060 120F     		lsr	r2, r2, #28
 132 0062 0691     		str	r1, [sp, #24]
ARM GAS  C:\Users\Jarik\AppData\Local\Temp\cchjOeXN.s 			page 6


 133 0064 0023     		mov	r3, #0
 134 0066 0A2A     		cmp	r2, #10
 135 0068 02D0     		beq	.L7
 136              		.loc 1 143 0 is_stmt 0 discriminator 1
 137 006a 2268     		ldr	r2, [r4]
 138 006c 0F33     		add	r3, r3, #15
 139 006e 1340     		and	r3, r2
 140              	.L7:
 141              		.loc 1 143 0 discriminator 4
 142 0070 0893     		str	r3, [sp, #32]
 144:.\Generated_Source\PSoC4/CyFlash.c **** 
 145:.\Generated_Source\PSoC4/CyFlash.c ****         if(retValue == CY_SYS_FLASH_SUCCESS)
 143              		.loc 1 145 0 is_stmt 1 discriminator 4
 144 0072 089B     		ldr	r3, [sp, #32]
 145 0074 0393     		str	r3, [sp, #12]
 146 0076 002B     		cmp	r3, #0
 147 0078 6AD1     		bne	.L8
 146:.\Generated_Source\PSoC4/CyFlash.c ****         {
 147:.\Generated_Source\PSoC4/CyFlash.c ****             /***************************************************************
 148:.\Generated_Source\PSoC4/CyFlash.c ****             * Mask all the exceptions to guarantee that Flash write will
 149:.\Generated_Source\PSoC4/CyFlash.c ****             * occur in the atomic way. It will not affect system call
 150:.\Generated_Source\PSoC4/CyFlash.c ****             * execution (flash row write) since it is executed in the NMI
 151:.\Generated_Source\PSoC4/CyFlash.c ****             * context.
 152:.\Generated_Source\PSoC4/CyFlash.c ****             ***************************************************************/
 153:.\Generated_Source\PSoC4/CyFlash.c ****             interruptState = CyEnterCriticalSection();
 148              		.loc 1 153 0
 149 007a FFF7FEFF 		bl	CyEnterCriticalSection
 150              	.LVL12:
 151              	.LBB8:
 152              	.LBB9:
 154:.\Generated_Source\PSoC4/CyFlash.c **** 
 155:.\Generated_Source\PSoC4/CyFlash.c ****             clkCnfRetValue = CySysFlashClockBackup();
 156:.\Generated_Source\PSoC4/CyFlash.c **** 
 157:.\Generated_Source\PSoC4/CyFlash.c ****         #if(CY_IP_SPCIF_SYNCHRONOUS)
 158:.\Generated_Source\PSoC4/CyFlash.c ****             if(clkCnfRetValue == CY_SYS_FLASH_SUCCESS)
 159:.\Generated_Source\PSoC4/CyFlash.c ****             {
 160:.\Generated_Source\PSoC4/CyFlash.c ****                 retValue = CySysFlashClockConfig();
 161:.\Generated_Source\PSoC4/CyFlash.c ****             }
 162:.\Generated_Source\PSoC4/CyFlash.c ****         #endif  /* (CY_IP_SPCIF_SYNCHRONOUS) */
 163:.\Generated_Source\PSoC4/CyFlash.c **** 
 164:.\Generated_Source\PSoC4/CyFlash.c ****             if(retValue == CY_SYS_FLASH_SUCCESS)
 165:.\Generated_Source\PSoC4/CyFlash.c ****             {
 166:.\Generated_Source\PSoC4/CyFlash.c ****                 /* Write Row */
 167:.\Generated_Source\PSoC4/CyFlash.c ****                 parameters[0u]  = (uint32) (((uint32) CY_FLASH_KEY_TWO(CY_FLASH_API_OPCODE_WRITE_RO
 168:.\Generated_Source\PSoC4/CyFlash.c ****                 parameters[0u] |= (uint32)(rowNum << 16u);
 169:.\Generated_Source\PSoC4/CyFlash.c **** 
 170:.\Generated_Source\PSoC4/CyFlash.c ****                 CY_FLASH_CPUSS_SYSARG_REG = (uint32) &parameters[0u];
 171:.\Generated_Source\PSoC4/CyFlash.c ****                 CY_FLASH_CPUSS_SYSREQ_REG = CY_FLASH_CPUSS_REQ_START | CY_FLASH_API_OPCODE_WRITE_RO
 172:.\Generated_Source\PSoC4/CyFlash.c ****                 retValue = CY_FLASH_API_RETURN;
 173:.\Generated_Source\PSoC4/CyFlash.c ****             }
 174:.\Generated_Source\PSoC4/CyFlash.c **** 
 175:.\Generated_Source\PSoC4/CyFlash.c ****             #if (CY_FLASH_CHECKSUM_WORKAROUND)
 176:.\Generated_Source\PSoC4/CyFlash.c **** 
 177:.\Generated_Source\PSoC4/CyFlash.c ****                 if ((retValue == CYRET_SUCCESS) && (needChecksumWorkaround != 0u))
 178:.\Generated_Source\PSoC4/CyFlash.c ****                 {
 179:.\Generated_Source\PSoC4/CyFlash.c ****                     (void)memset((void *)&parameters[2u], 0, CY_FLASH_SIZEOF_ROW);
 180:.\Generated_Source\PSoC4/CyFlash.c ****                     parameters[savedIndex] = savedValue;
ARM GAS  C:\Users\Jarik\AppData\Local\Temp\cchjOeXN.s 			page 7


 181:.\Generated_Source\PSoC4/CyFlash.c **** 
 182:.\Generated_Source\PSoC4/CyFlash.c ****                     /* Load Flash Bytes */
 183:.\Generated_Source\PSoC4/CyFlash.c ****                     parameters[0u] = (uint32) (CY_FLASH_GET_MACRO_FROM_ROW(rowNum)        << CY_FLA
 184:.\Generated_Source\PSoC4/CyFlash.c ****                                      (uint32) (CY_FLASH_PAGE_LATCH_START_ADDR             << CY_FLA
 185:.\Generated_Source\PSoC4/CyFlash.c ****                                      (uint32) (CY_FLASH_KEY_TWO(CY_FLASH_API_OPCODE_LOAD) << CY_FLA
 186:.\Generated_Source\PSoC4/CyFlash.c ****                                      CY_FLASH_KEY_ONE;
 187:.\Generated_Source\PSoC4/CyFlash.c ****                     parameters[1u] = CY_FLASH_SIZEOF_ROW - 1u;
 188:.\Generated_Source\PSoC4/CyFlash.c **** 
 189:.\Generated_Source\PSoC4/CyFlash.c ****                     CY_FLASH_CPUSS_SYSARG_REG = (uint32) &parameters[0u];
 190:.\Generated_Source\PSoC4/CyFlash.c ****                     CY_FLASH_CPUSS_SYSREQ_REG = CY_FLASH_CPUSS_REQ_START | CY_FLASH_API_OPCODE_LOAD
 191:.\Generated_Source\PSoC4/CyFlash.c ****                     retValue = CY_FLASH_API_RETURN;
 192:.\Generated_Source\PSoC4/CyFlash.c **** 
 193:.\Generated_Source\PSoC4/CyFlash.c **** 
 194:.\Generated_Source\PSoC4/CyFlash.c ****                     if(retValue == CY_SYS_FLASH_SUCCESS)
 195:.\Generated_Source\PSoC4/CyFlash.c ****                     {
 196:.\Generated_Source\PSoC4/CyFlash.c ****                         /* Program Row */
 197:.\Generated_Source\PSoC4/CyFlash.c ****                         parameters[0u]  =
 198:.\Generated_Source\PSoC4/CyFlash.c ****                             (uint32) (((uint32) CY_FLASH_KEY_TWO(CY_FLASH_API_OPCODE_PROGRAM_ROW) <
 199:.\Generated_Source\PSoC4/CyFlash.c ****                                                     CY_FLASH_PARAM_KEY_TWO_OFFSET) | CY_FLASH_KEY_O
 200:.\Generated_Source\PSoC4/CyFlash.c ****                         parameters[0u] |= (uint32)(rowNum << 16u);
 201:.\Generated_Source\PSoC4/CyFlash.c **** 
 202:.\Generated_Source\PSoC4/CyFlash.c ****                         CY_FLASH_CPUSS_SYSARG_REG = (uint32) &parameters[0u];
 203:.\Generated_Source\PSoC4/CyFlash.c ****                         CY_FLASH_CPUSS_SYSREQ_REG = CY_FLASH_CPUSS_REQ_START | CY_FLASH_API_OPCODE_
 204:.\Generated_Source\PSoC4/CyFlash.c ****                         retValue = CY_FLASH_API_RETURN;
 205:.\Generated_Source\PSoC4/CyFlash.c ****                     }
 206:.\Generated_Source\PSoC4/CyFlash.c ****                 }
 207:.\Generated_Source\PSoC4/CyFlash.c ****             #endif  /* (CY_FLASH_CHECKSUM_WORKAROUND) */
 208:.\Generated_Source\PSoC4/CyFlash.c **** 
 209:.\Generated_Source\PSoC4/CyFlash.c ****             if(clkCnfRetValue == CY_SYS_FLASH_SUCCESS)
 210:.\Generated_Source\PSoC4/CyFlash.c ****             {
 211:.\Generated_Source\PSoC4/CyFlash.c ****                 clkCnfRetValue = CySysFlashClockRestore();
 212:.\Generated_Source\PSoC4/CyFlash.c ****             }
 213:.\Generated_Source\PSoC4/CyFlash.c **** 
 214:.\Generated_Source\PSoC4/CyFlash.c ****             CyExitCriticalSection(interruptState);
 215:.\Generated_Source\PSoC4/CyFlash.c ****         }
 216:.\Generated_Source\PSoC4/CyFlash.c ****     }
 217:.\Generated_Source\PSoC4/CyFlash.c ****     else
 218:.\Generated_Source\PSoC4/CyFlash.c ****     {
 219:.\Generated_Source\PSoC4/CyFlash.c ****         retValue = CY_SYS_FLASH_INVALID_ADDR;
 220:.\Generated_Source\PSoC4/CyFlash.c ****     }
 221:.\Generated_Source\PSoC4/CyFlash.c **** 
 222:.\Generated_Source\PSoC4/CyFlash.c ****     return (retValue);
 223:.\Generated_Source\PSoC4/CyFlash.c **** }
 224:.\Generated_Source\PSoC4/CyFlash.c **** 
 225:.\Generated_Source\PSoC4/CyFlash.c **** 
 226:.\Generated_Source\PSoC4/CyFlash.c **** /*******************************************************************************
 227:.\Generated_Source\PSoC4/CyFlash.c **** * Function Name: CySysFlashSetWaitCycles
 228:.\Generated_Source\PSoC4/CyFlash.c **** ********************************************************************************
 229:.\Generated_Source\PSoC4/CyFlash.c **** *
 230:.\Generated_Source\PSoC4/CyFlash.c **** * Summary:
 231:.\Generated_Source\PSoC4/CyFlash.c **** *  Sets the number of clock cycles the cache will wait before it samples data
 232:.\Generated_Source\PSoC4/CyFlash.c **** *  coming back from Flash. This function must be called before increasing the
 233:.\Generated_Source\PSoC4/CyFlash.c **** *  SYSCLK clock frequency. It can optionally be called after lowering SYSCLK
 234:.\Generated_Source\PSoC4/CyFlash.c **** *  clock frequency in order to improve the CPU performance.
 235:.\Generated_Source\PSoC4/CyFlash.c **** *
 236:.\Generated_Source\PSoC4/CyFlash.c **** * Parameters:
 237:.\Generated_Source\PSoC4/CyFlash.c **** *  freq: The System clock frequency in MHz. Note: Invalid frequency will be
ARM GAS  C:\Users\Jarik\AppData\Local\Temp\cchjOeXN.s 			page 8


 238:.\Generated_Source\PSoC4/CyFlash.c **** *  ignored in Release mode and the CPU will be halted if project is compiled in
 239:.\Generated_Source\PSoC4/CyFlash.c **** *  Debug mode.
 240:.\Generated_Source\PSoC4/CyFlash.c **** *
 241:.\Generated_Source\PSoC4/CyFlash.c **** * Return:
 242:.\Generated_Source\PSoC4/CyFlash.c **** *  None
 243:.\Generated_Source\PSoC4/CyFlash.c **** *
 244:.\Generated_Source\PSoC4/CyFlash.c **** *******************************************************************************/
 245:.\Generated_Source\PSoC4/CyFlash.c **** void CySysFlashSetWaitCycles(uint32 freq)
 246:.\Generated_Source\PSoC4/CyFlash.c **** {
 247:.\Generated_Source\PSoC4/CyFlash.c ****     uint8  interruptState;
 248:.\Generated_Source\PSoC4/CyFlash.c **** 
 249:.\Generated_Source\PSoC4/CyFlash.c ****     interruptState = CyEnterCriticalSection();
 250:.\Generated_Source\PSoC4/CyFlash.c **** 
 251:.\Generated_Source\PSoC4/CyFlash.c ****     #if (CY_IP_CPUSS)
 252:.\Generated_Source\PSoC4/CyFlash.c **** 
 253:.\Generated_Source\PSoC4/CyFlash.c ****         if ( freq <= CY_FLASH_SYSCLK_BOUNDARY_MHZ )
 254:.\Generated_Source\PSoC4/CyFlash.c ****         {
 255:.\Generated_Source\PSoC4/CyFlash.c ****             CY_SYS_CLK_SELECT_REG &= (uint32)(~CY_FLASH_WAIT_STATE_EN);
 256:.\Generated_Source\PSoC4/CyFlash.c ****         }
 257:.\Generated_Source\PSoC4/CyFlash.c ****         else
 258:.\Generated_Source\PSoC4/CyFlash.c ****         {
 259:.\Generated_Source\PSoC4/CyFlash.c ****             CY_SYS_CLK_SELECT_REG |= CY_FLASH_WAIT_STATE_EN;
 260:.\Generated_Source\PSoC4/CyFlash.c ****         }
 261:.\Generated_Source\PSoC4/CyFlash.c ****     #else /* CY_IP_CPUSSV2 */
 262:.\Generated_Source\PSoC4/CyFlash.c **** 
 263:.\Generated_Source\PSoC4/CyFlash.c ****         /* CY_IP_FM and CY_IP_FS */
 264:.\Generated_Source\PSoC4/CyFlash.c ****         if (freq <= CY_FLASH_CTL_WS_0_FREQ_MAX)
 265:.\Generated_Source\PSoC4/CyFlash.c ****         {
 266:.\Generated_Source\PSoC4/CyFlash.c ****             CY_FLASH_CTL_REG = (CY_FLASH_CTL_REG & ~CY_FLASH_CTL_WS_MASK) | CY_FLASH_CTL_WS_0_VALUE
 267:.\Generated_Source\PSoC4/CyFlash.c ****         } else
 268:.\Generated_Source\PSoC4/CyFlash.c ****         if (freq <= CY_FLASH_CTL_WS_1_FREQ_MAX)
 269:.\Generated_Source\PSoC4/CyFlash.c ****         {
 270:.\Generated_Source\PSoC4/CyFlash.c ****             CY_FLASH_CTL_REG = (CY_FLASH_CTL_REG & ~CY_FLASH_CTL_WS_MASK) | CY_FLASH_CTL_WS_1_VALUE
 271:.\Generated_Source\PSoC4/CyFlash.c ****         } else
 272:.\Generated_Source\PSoC4/CyFlash.c ****     #if (CY_IP_FMLT || CY_IP_FSLT)
 273:.\Generated_Source\PSoC4/CyFlash.c ****         if (freq <= CY_FLASH_CTL_WS_2_FREQ_MAX)
 274:.\Generated_Source\PSoC4/CyFlash.c ****         {
 275:.\Generated_Source\PSoC4/CyFlash.c ****             CY_FLASH_CTL_REG = (CY_FLASH_CTL_REG & ~CY_FLASH_CTL_WS_MASK) | CY_FLASH_CTL_WS_2_VALUE
 276:.\Generated_Source\PSoC4/CyFlash.c ****         }
 277:.\Generated_Source\PSoC4/CyFlash.c ****         else
 278:.\Generated_Source\PSoC4/CyFlash.c ****     #endif  /* (CY_IP_FMLT || CY_IP_FSLT) */
 279:.\Generated_Source\PSoC4/CyFlash.c ****         {
 280:.\Generated_Source\PSoC4/CyFlash.c ****             /* Halt CPU in debug mode if frequency is invalid */
 281:.\Generated_Source\PSoC4/CyFlash.c ****             CYASSERT(0u != 0u);
 282:.\Generated_Source\PSoC4/CyFlash.c ****         }
 283:.\Generated_Source\PSoC4/CyFlash.c **** 
 284:.\Generated_Source\PSoC4/CyFlash.c ****     #endif  /* (CY_IP_CPUSS) */
 285:.\Generated_Source\PSoC4/CyFlash.c **** 
 286:.\Generated_Source\PSoC4/CyFlash.c ****     CyExitCriticalSection(interruptState);
 287:.\Generated_Source\PSoC4/CyFlash.c **** }
 288:.\Generated_Source\PSoC4/CyFlash.c **** 
 289:.\Generated_Source\PSoC4/CyFlash.c **** #if (CY_SFLASH_XTRA_ROWS)
 290:.\Generated_Source\PSoC4/CyFlash.c **** /*******************************************************************************
 291:.\Generated_Source\PSoC4/CyFlash.c **** * Function Name: CySysSFlashWriteUserRow
 292:.\Generated_Source\PSoC4/CyFlash.c **** ********************************************************************************
 293:.\Generated_Source\PSoC4/CyFlash.c **** *
 294:.\Generated_Source\PSoC4/CyFlash.c **** * Summary:
ARM GAS  C:\Users\Jarik\AppData\Local\Temp\cchjOeXN.s 			page 9


 295:.\Generated_Source\PSoC4/CyFlash.c **** *  Writes data to a row of SFlash user configurable area.
 296:.\Generated_Source\PSoC4/CyFlash.c **** *
 297:.\Generated_Source\PSoC4/CyFlash.c **** *  This API is applicable for PSoC 4100 BLE, PSoC 4200 BLE, PSoC 4100M,
 298:.\Generated_Source\PSoC4/CyFlash.c **** *  PSoC 4200M, and PSoC 4200L family of devices.
 299:.\Generated_Source\PSoC4/CyFlash.c **** *
 300:.\Generated_Source\PSoC4/CyFlash.c **** * Parameters:
 301:.\Generated_Source\PSoC4/CyFlash.c **** *  uint16 rowNum:
 302:.\Generated_Source\PSoC4/CyFlash.c **** *   The flash row number. The flash row number. The number of the flash rows is
 303:.\Generated_Source\PSoC4/CyFlash.c **** *   defined by the CY_SFLASH_NUMBER_USERROWS macro for the selected device.
 304:.\Generated_Source\PSoC4/CyFlash.c **** *   Valid range is 0-3. Refer to the device TRM for details.
 305:.\Generated_Source\PSoC4/CyFlash.c **** *
 306:.\Generated_Source\PSoC4/CyFlash.c **** *  uint8* rowData:
 307:.\Generated_Source\PSoC4/CyFlash.c **** *   Array of bytes to write. The size of the array must be equal to the flash
 308:.\Generated_Source\PSoC4/CyFlash.c **** *   row size. The flash row size for the selected device is defined by the
 309:.\Generated_Source\PSoC4/CyFlash.c **** *   CY_SFLASH_SIZEOF_USERROW macro. Refer to the device TRM for the details.
 310:.\Generated_Source\PSoC4/CyFlash.c **** *
 311:.\Generated_Source\PSoC4/CyFlash.c **** * Return:
 312:.\Generated_Source\PSoC4/CyFlash.c **** *  Status
 313:.\Generated_Source\PSoC4/CyFlash.c **** *     Value                     Description
 314:.\Generated_Source\PSoC4/CyFlash.c **** *    CY_SYS_SFLASH_SUCCESS          Successful
 315:.\Generated_Source\PSoC4/CyFlash.c **** *    CY_SYS_SFLASH_INVALID_ADDR     Specified flash row address is invalid
 316:.\Generated_Source\PSoC4/CyFlash.c **** *    CY_SYS_SFLASH_PROTECTED        Specified flash row is protected
 317:.\Generated_Source\PSoC4/CyFlash.c **** *    Other non-zero                 Failure
 318:.\Generated_Source\PSoC4/CyFlash.c **** *
 319:.\Generated_Source\PSoC4/CyFlash.c **** *******************************************************************************/
 320:.\Generated_Source\PSoC4/CyFlash.c **** uint32 CySysSFlashWriteUserRow(uint32 rowNum, const uint8 rowData[])
 321:.\Generated_Source\PSoC4/CyFlash.c **** {
 322:.\Generated_Source\PSoC4/CyFlash.c ****     volatile uint32 retValue = CY_SYS_FLASH_SUCCESS;
 323:.\Generated_Source\PSoC4/CyFlash.c ****     volatile uint32 clkCnfRetValue = CY_SYS_FLASH_SUCCESS;
 324:.\Generated_Source\PSoC4/CyFlash.c ****     volatile uint32 parameters[(CY_FLASH_SIZEOF_ROW + CY_FLASH_SRAM_ROM_DATA)/4u];
 325:.\Generated_Source\PSoC4/CyFlash.c ****     uint8  interruptState;
 326:.\Generated_Source\PSoC4/CyFlash.c **** 
 327:.\Generated_Source\PSoC4/CyFlash.c **** 
 328:.\Generated_Source\PSoC4/CyFlash.c ****     if ((rowNum < CY_SFLASH_NUMBER_USERROWS) && (rowData != 0u))
 329:.\Generated_Source\PSoC4/CyFlash.c ****     {
 330:.\Generated_Source\PSoC4/CyFlash.c ****         /* Load Flash Bytes */
 331:.\Generated_Source\PSoC4/CyFlash.c ****         parameters[0u] = (uint32) (CY_FLASH_GET_MACRO_FROM_ROW(rowNum)        << CY_FLASH_PARAM_MAC
 332:.\Generated_Source\PSoC4/CyFlash.c ****                          (uint32) (CY_FLASH_PAGE_LATCH_START_ADDR             << CY_FLASH_PARAM_ADD
 333:.\Generated_Source\PSoC4/CyFlash.c ****                          (uint32) (CY_FLASH_KEY_TWO(CY_FLASH_API_OPCODE_LOAD) << CY_FLASH_PARAM_KEY
 334:.\Generated_Source\PSoC4/CyFlash.c ****                          CY_FLASH_KEY_ONE;
 335:.\Generated_Source\PSoC4/CyFlash.c ****         parameters[1u] = CY_FLASH_SIZEOF_ROW - 1u;
 336:.\Generated_Source\PSoC4/CyFlash.c **** 
 337:.\Generated_Source\PSoC4/CyFlash.c ****         (void)memcpy((void *)&parameters[2u], rowData, CY_FLASH_SIZEOF_ROW);
 338:.\Generated_Source\PSoC4/CyFlash.c ****         CY_FLASH_CPUSS_SYSARG_REG = (uint32) &parameters[0u];
 339:.\Generated_Source\PSoC4/CyFlash.c ****         CY_FLASH_CPUSS_SYSREQ_REG = CY_FLASH_CPUSS_REQ_START | CY_FLASH_API_OPCODE_LOAD;
 340:.\Generated_Source\PSoC4/CyFlash.c ****         retValue = CY_FLASH_API_RETURN;
 341:.\Generated_Source\PSoC4/CyFlash.c **** 
 342:.\Generated_Source\PSoC4/CyFlash.c ****         if(retValue == CY_SYS_FLASH_SUCCESS)
 343:.\Generated_Source\PSoC4/CyFlash.c ****         {
 344:.\Generated_Source\PSoC4/CyFlash.c ****             /***************************************************************
 345:.\Generated_Source\PSoC4/CyFlash.c ****             * Mask all the exceptions to guarantee that Flash write will
 346:.\Generated_Source\PSoC4/CyFlash.c ****             * occur in the atomic way. It will not affect system call
 347:.\Generated_Source\PSoC4/CyFlash.c ****             * execution (flash row write) since it is executed in the NMI
 348:.\Generated_Source\PSoC4/CyFlash.c ****             * context.
 349:.\Generated_Source\PSoC4/CyFlash.c ****             ***************************************************************/
 350:.\Generated_Source\PSoC4/CyFlash.c ****             interruptState = CyEnterCriticalSection();
 351:.\Generated_Source\PSoC4/CyFlash.c **** 
ARM GAS  C:\Users\Jarik\AppData\Local\Temp\cchjOeXN.s 			page 10


 352:.\Generated_Source\PSoC4/CyFlash.c ****             clkCnfRetValue = CySysFlashClockBackup();
 353:.\Generated_Source\PSoC4/CyFlash.c **** 
 354:.\Generated_Source\PSoC4/CyFlash.c ****         #if(CY_IP_SPCIF_SYNCHRONOUS)
 355:.\Generated_Source\PSoC4/CyFlash.c ****             if(clkCnfRetValue == CY_SYS_FLASH_SUCCESS)
 356:.\Generated_Source\PSoC4/CyFlash.c ****             {
 357:.\Generated_Source\PSoC4/CyFlash.c ****                 retValue = CySysFlashClockConfig();
 358:.\Generated_Source\PSoC4/CyFlash.c ****             }
 359:.\Generated_Source\PSoC4/CyFlash.c ****         #endif  /* (CY_IP_SPCIF_SYNCHRONOUS) */
 360:.\Generated_Source\PSoC4/CyFlash.c **** 
 361:.\Generated_Source\PSoC4/CyFlash.c ****             if(retValue == CY_SYS_FLASH_SUCCESS)
 362:.\Generated_Source\PSoC4/CyFlash.c ****             {
 363:.\Generated_Source\PSoC4/CyFlash.c ****                 /* Write User Sflash Row */
 364:.\Generated_Source\PSoC4/CyFlash.c ****                 parameters[0u]  = (uint32) (((uint32) CY_FLASH_KEY_TWO(CY_FLASH_API_OPCODE_WRITE_SF
 365:.\Generated_Source\PSoC4/CyFlash.c ****                 parameters[1u] = (uint32) rowNum;
 366:.\Generated_Source\PSoC4/CyFlash.c **** 
 367:.\Generated_Source\PSoC4/CyFlash.c ****                 CY_FLASH_CPUSS_SYSARG_REG = (uint32) &parameters[0u];
 368:.\Generated_Source\PSoC4/CyFlash.c ****                 CY_FLASH_CPUSS_SYSREQ_REG = CY_FLASH_CPUSS_REQ_START | CY_FLASH_API_OPCODE_WRITE_SF
 369:.\Generated_Source\PSoC4/CyFlash.c ****                 retValue = CY_FLASH_API_RETURN;
 370:.\Generated_Source\PSoC4/CyFlash.c ****             }
 371:.\Generated_Source\PSoC4/CyFlash.c **** 
 372:.\Generated_Source\PSoC4/CyFlash.c ****             if(clkCnfRetValue == CY_SYS_FLASH_SUCCESS)
 373:.\Generated_Source\PSoC4/CyFlash.c ****             {
 374:.\Generated_Source\PSoC4/CyFlash.c ****                 clkCnfRetValue = CySysFlashClockRestore();
 375:.\Generated_Source\PSoC4/CyFlash.c ****             }
 376:.\Generated_Source\PSoC4/CyFlash.c ****             CyExitCriticalSection(interruptState);
 377:.\Generated_Source\PSoC4/CyFlash.c ****         }
 378:.\Generated_Source\PSoC4/CyFlash.c ****     }
 379:.\Generated_Source\PSoC4/CyFlash.c ****     else
 380:.\Generated_Source\PSoC4/CyFlash.c ****     {
 381:.\Generated_Source\PSoC4/CyFlash.c ****         retValue = CY_SYS_FLASH_INVALID_ADDR;
 382:.\Generated_Source\PSoC4/CyFlash.c ****     }
 383:.\Generated_Source\PSoC4/CyFlash.c **** 
 384:.\Generated_Source\PSoC4/CyFlash.c ****     return (retValue);
 385:.\Generated_Source\PSoC4/CyFlash.c **** }
 386:.\Generated_Source\PSoC4/CyFlash.c **** #endif /* (CY_SFLASH_XTRA_ROWS) */
 387:.\Generated_Source\PSoC4/CyFlash.c **** 
 388:.\Generated_Source\PSoC4/CyFlash.c **** 
 389:.\Generated_Source\PSoC4/CyFlash.c **** /*******************************************************************************
 390:.\Generated_Source\PSoC4/CyFlash.c **** * Function Name: CySysFlashClockBackup
 391:.\Generated_Source\PSoC4/CyFlash.c **** ********************************************************************************
 392:.\Generated_Source\PSoC4/CyFlash.c **** *
 393:.\Generated_Source\PSoC4/CyFlash.c **** * Summary:
 394:.\Generated_Source\PSoC4/CyFlash.c **** *  Backups the device clock configuration.
 395:.\Generated_Source\PSoC4/CyFlash.c **** *
 396:.\Generated_Source\PSoC4/CyFlash.c **** * Parameters:
 397:.\Generated_Source\PSoC4/CyFlash.c **** *  None
 398:.\Generated_Source\PSoC4/CyFlash.c **** *
 399:.\Generated_Source\PSoC4/CyFlash.c **** * Return:
 400:.\Generated_Source\PSoC4/CyFlash.c **** *  The same as CySysFlashWriteRow().
 401:.\Generated_Source\PSoC4/CyFlash.c **** *
 402:.\Generated_Source\PSoC4/CyFlash.c **** *******************************************************************************/
 403:.\Generated_Source\PSoC4/CyFlash.c **** static cystatus CySysFlashClockBackup(void)
 404:.\Generated_Source\PSoC4/CyFlash.c **** {
 405:.\Generated_Source\PSoC4/CyFlash.c ****     cystatus retValue = CY_SYS_FLASH_SUCCESS;
 406:.\Generated_Source\PSoC4/CyFlash.c **** #if(!CY_IP_FM)
 407:.\Generated_Source\PSoC4/CyFlash.c ****     #if !(CY_PSOC4_4000)
 408:.\Generated_Source\PSoC4/CyFlash.c ****         #if (CY_IP_SPCIF_SYNCHRONOUS)
ARM GAS  C:\Users\Jarik\AppData\Local\Temp\cchjOeXN.s 			page 11


 409:.\Generated_Source\PSoC4/CyFlash.c ****             volatile uint32   parameters[2u];
 410:.\Generated_Source\PSoC4/CyFlash.c ****         #endif /* (CY_IP_SPCIF_SYNCHRONOUS) */
 411:.\Generated_Source\PSoC4/CyFlash.c ****     #endif  /* !(CY_PSOC4_4000) */
 412:.\Generated_Source\PSoC4/CyFlash.c **** #endif  /* (!CY_IP_FM) */
 413:.\Generated_Source\PSoC4/CyFlash.c **** 
 414:.\Generated_Source\PSoC4/CyFlash.c **** #if(CY_IP_FM)
 415:.\Generated_Source\PSoC4/CyFlash.c **** 
 416:.\Generated_Source\PSoC4/CyFlash.c ****     /***************************************************************
 417:.\Generated_Source\PSoC4/CyFlash.c ****     * Preserve IMO configuration that could be changed during
 418:.\Generated_Source\PSoC4/CyFlash.c ****     * system call execution (Cypress ID #150448).
 419:.\Generated_Source\PSoC4/CyFlash.c ****     ***************************************************************/
 420:.\Generated_Source\PSoC4/CyFlash.c ****     cySysFlashBackup.imoConfigReg = CY_SYS_CLK_IMO_CONFIG_REG;
 153              		.loc 1 420 0
 154 007e 3A4A     		ldr	r2, .L30+16
 155 0080 3A4B     		ldr	r3, .L30+20
 156 0082 1168     		ldr	r1, [r2]
 157              	.LBE9:
 158              	.LBE8:
 153:.\Generated_Source\PSoC4/CyFlash.c **** 
 159              		.loc 1 153 0
 160 0084 0590     		str	r0, [sp, #20]
 161              	.LVL13:
 162              	.LBB11:
 163              	.LBB10:
 164              		.loc 1 420 0
 165 0086 1960     		str	r1, [r3]
 166              	.LBE10:
 167              	.LBE11:
 155:.\Generated_Source\PSoC4/CyFlash.c **** 
 168              		.loc 1 155 0
 169 0088 039B     		ldr	r3, [sp, #12]
 170 008a 0392     		str	r2, [sp, #12]
 171 008c 0993     		str	r3, [sp, #36]
 164:.\Generated_Source\PSoC4/CyFlash.c ****             {
 172              		.loc 1 164 0
 173 008e 089B     		ldr	r3, [sp, #32]
 174 0090 002B     		cmp	r3, #0
 175 0092 12D1     		bne	.L9
 167:.\Generated_Source\PSoC4/CyFlash.c ****                 parameters[0u] |= (uint32)(rowNum << 16u);
 176              		.loc 1 167 0
 177 0094 364A     		ldr	r2, .L30+24
 168:.\Generated_Source\PSoC4/CyFlash.c **** 
 178              		.loc 1 168 0
 179 0096 0499     		ldr	r1, [sp, #16]
 167:.\Generated_Source\PSoC4/CyFlash.c ****                 parameters[0u] |= (uint32)(rowNum << 16u);
 180              		.loc 1 167 0
 181 0098 0A92     		str	r2, [sp, #40]
 168:.\Generated_Source\PSoC4/CyFlash.c **** 
 182              		.loc 1 168 0
 183 009a 0A9A     		ldr	r2, [sp, #40]
 184 009c 0904     		lsl	r1, r1, #16
 185 009e 0A43     		orr	r2, r1
 186 00a0 0A92     		str	r2, [sp, #40]
 171:.\Generated_Source\PSoC4/CyFlash.c ****                 retValue = CY_FLASH_API_RETURN;
 187              		.loc 1 171 0
 188 00a2 344A     		ldr	r2, .L30+28
 170:.\Generated_Source\PSoC4/CyFlash.c ****                 CY_FLASH_CPUSS_SYSREQ_REG = CY_FLASH_CPUSS_REQ_START | CY_FLASH_API_OPCODE_WRITE_RO
ARM GAS  C:\Users\Jarik\AppData\Local\Temp\cchjOeXN.s 			page 12


 189              		.loc 1 170 0
 190 00a4 2560     		str	r5, [r4]
 171:.\Generated_Source\PSoC4/CyFlash.c ****                 retValue = CY_FLASH_API_RETURN;
 191              		.loc 1 171 0
 192 00a6 3260     		str	r2, [r6]
 172:.\Generated_Source\PSoC4/CyFlash.c ****             }
 193              		.loc 1 172 0
 194 00a8 2268     		ldr	r2, [r4]
 195 00aa 120F     		lsr	r2, r2, #28
 196 00ac 0A2A     		cmp	r2, #10
 197 00ae 03D0     		beq	.L10
 172:.\Generated_Source\PSoC4/CyFlash.c ****             }
 198              		.loc 1 172 0 is_stmt 0 discriminator 1
 199 00b0 2A4B     		ldr	r3, .L30+4
 200 00b2 1A68     		ldr	r2, [r3]
 201 00b4 0F23     		mov	r3, #15
 202 00b6 1340     		and	r3, r2
 203              	.L10:
 172:.\Generated_Source\PSoC4/CyFlash.c ****             }
 204              		.loc 1 172 0 discriminator 4
 205 00b8 0893     		str	r3, [sp, #32]
 206              	.L9:
 177:.\Generated_Source\PSoC4/CyFlash.c ****                 {
 207              		.loc 1 177 0 is_stmt 1
 208 00ba 089D     		ldr	r5, [sp, #32]
 209 00bc 002D     		cmp	r5, #0
 210 00be 31D1     		bne	.L12
 177:.\Generated_Source\PSoC4/CyFlash.c ****                 {
 211              		.loc 1 177 0 is_stmt 0 discriminator 1
 212 00c0 002F     		cmp	r7, #0
 213 00c2 2FD0     		beq	.L12
 179:.\Generated_Source\PSoC4/CyFlash.c ****                     parameters[savedIndex] = savedValue;
 214              		.loc 1 179 0 is_stmt 1
 215 00c4 8022     		mov	r2, #128
 216 00c6 0CA8     		add	r0, sp, #48
 217 00c8 291C     		mov	r1, r5
 218 00ca FFF7FEFF 		bl	memset
 219              	.LVL14:
 180:.\Generated_Source\PSoC4/CyFlash.c **** 
 220              		.loc 1 180 0
 221 00ce 019B     		ldr	r3, [sp, #4]
 222 00d0 029A     		ldr	r2, [sp, #8]
 179:.\Generated_Source\PSoC4/CyFlash.c ****                     parameters[savedIndex] = savedValue;
 223              		.loc 1 179 0
 224 00d2 0AAF     		add	r7, sp, #40
 180:.\Generated_Source\PSoC4/CyFlash.c **** 
 225              		.loc 1 180 0
 226 00d4 9B00     		lsl	r3, r3, #2
 227 00d6 DA51     		str	r2, [r3, r7]
 183:.\Generated_Source\PSoC4/CyFlash.c ****                                      (uint32) (CY_FLASH_PAGE_LATCH_START_ADDR             << CY_FLA
 228              		.loc 1 183 0
 229 00d8 069B     		ldr	r3, [sp, #24]
 230 00da 0A93     		str	r3, [sp, #40]
 187:.\Generated_Source\PSoC4/CyFlash.c **** 
 231              		.loc 1 187 0
 232 00dc 7F23     		mov	r3, #127
 233 00de 7B60     		str	r3, [r7, #4]
ARM GAS  C:\Users\Jarik\AppData\Local\Temp\cchjOeXN.s 			page 13


 190:.\Generated_Source\PSoC4/CyFlash.c ****                     retValue = CY_FLASH_API_RETURN;
 234              		.loc 1 190 0
 235 00e0 079B     		ldr	r3, [sp, #28]
 189:.\Generated_Source\PSoC4/CyFlash.c ****                     CY_FLASH_CPUSS_SYSREQ_REG = CY_FLASH_CPUSS_REQ_START | CY_FLASH_API_OPCODE_LOAD
 236              		.loc 1 189 0
 237 00e2 2760     		str	r7, [r4]
 190:.\Generated_Source\PSoC4/CyFlash.c ****                     retValue = CY_FLASH_API_RETURN;
 238              		.loc 1 190 0
 239 00e4 3360     		str	r3, [r6]
 191:.\Generated_Source\PSoC4/CyFlash.c **** 
 240              		.loc 1 191 0
 241 00e6 2368     		ldr	r3, [r4]
 242 00e8 1B0F     		lsr	r3, r3, #28
 243 00ea 0A2B     		cmp	r3, #10
 244 00ec 03D0     		beq	.L14
 191:.\Generated_Source\PSoC4/CyFlash.c **** 
 245              		.loc 1 191 0 is_stmt 0 discriminator 1
 246 00ee 1B4B     		ldr	r3, .L30+4
 247 00f0 1D68     		ldr	r5, [r3]
 248 00f2 0F23     		mov	r3, #15
 249 00f4 1D40     		and	r5, r3
 250              	.L14:
 191:.\Generated_Source\PSoC4/CyFlash.c **** 
 251              		.loc 1 191 0 discriminator 4
 252 00f6 0895     		str	r5, [sp, #32]
 194:.\Generated_Source\PSoC4/CyFlash.c ****                     {
 253              		.loc 1 194 0 is_stmt 1 discriminator 4
 254 00f8 089B     		ldr	r3, [sp, #32]
 255 00fa 002B     		cmp	r3, #0
 256 00fc 12D1     		bne	.L12
 197:.\Generated_Source\PSoC4/CyFlash.c ****                             (uint32) (((uint32) CY_FLASH_KEY_TWO(CY_FLASH_API_OPCODE_PROGRAM_ROW) <
 257              		.loc 1 197 0
 258 00fe 1E4A     		ldr	r2, .L30+32
 200:.\Generated_Source\PSoC4/CyFlash.c **** 
 259              		.loc 1 200 0
 260 0100 0499     		ldr	r1, [sp, #16]
 197:.\Generated_Source\PSoC4/CyFlash.c ****                             (uint32) (((uint32) CY_FLASH_KEY_TWO(CY_FLASH_API_OPCODE_PROGRAM_ROW) <
 261              		.loc 1 197 0
 262 0102 0A92     		str	r2, [sp, #40]
 200:.\Generated_Source\PSoC4/CyFlash.c **** 
 263              		.loc 1 200 0
 264 0104 0A9A     		ldr	r2, [sp, #40]
 265 0106 0804     		lsl	r0, r1, #16
 266 0108 1043     		orr	r0, r2
 203:.\Generated_Source\PSoC4/CyFlash.c ****                         retValue = CY_FLASH_API_RETURN;
 267              		.loc 1 203 0
 268 010a 1C4A     		ldr	r2, .L30+36
 200:.\Generated_Source\PSoC4/CyFlash.c **** 
 269              		.loc 1 200 0
 270 010c 0A90     		str	r0, [sp, #40]
 202:.\Generated_Source\PSoC4/CyFlash.c ****                         CY_FLASH_CPUSS_SYSREQ_REG = CY_FLASH_CPUSS_REQ_START | CY_FLASH_API_OPCODE_
 271              		.loc 1 202 0
 272 010e 2760     		str	r7, [r4]
 203:.\Generated_Source\PSoC4/CyFlash.c ****                         retValue = CY_FLASH_API_RETURN;
 273              		.loc 1 203 0
 274 0110 3260     		str	r2, [r6]
 204:.\Generated_Source\PSoC4/CyFlash.c ****                     }
ARM GAS  C:\Users\Jarik\AppData\Local\Temp\cchjOeXN.s 			page 14


 275              		.loc 1 204 0
 276 0112 2268     		ldr	r2, [r4]
 277 0114 120F     		lsr	r2, r2, #28
 278 0116 0A2A     		cmp	r2, #10
 279 0118 03D0     		beq	.L15
 204:.\Generated_Source\PSoC4/CyFlash.c ****                     }
 280              		.loc 1 204 0 is_stmt 0 discriminator 1
 281 011a 104B     		ldr	r3, .L30+4
 282 011c 1A68     		ldr	r2, [r3]
 283 011e 0F23     		mov	r3, #15
 284 0120 1340     		and	r3, r2
 285              	.L15:
 204:.\Generated_Source\PSoC4/CyFlash.c ****                     }
 286              		.loc 1 204 0 discriminator 4
 287 0122 0893     		str	r3, [sp, #32]
 288              	.L12:
 209:.\Generated_Source\PSoC4/CyFlash.c ****             {
 289              		.loc 1 209 0 is_stmt 1
 290 0124 099B     		ldr	r3, [sp, #36]
 291 0126 002B     		cmp	r3, #0
 292 0128 04D1     		bne	.L16
 293              	.LVL15:
 294              	.LBB12:
 295              	.LBB13:
 421:.\Generated_Source\PSoC4/CyFlash.c **** 
 422:.\Generated_Source\PSoC4/CyFlash.c **** #else   /* (CY_IP_FMLT) */
 423:.\Generated_Source\PSoC4/CyFlash.c **** 
 424:.\Generated_Source\PSoC4/CyFlash.c ****     #if (CY_PSOC4_4000)
 425:.\Generated_Source\PSoC4/CyFlash.c **** 
 426:.\Generated_Source\PSoC4/CyFlash.c ****         /***************************************************************************
 427:.\Generated_Source\PSoC4/CyFlash.c ****         * Perform firmware clock settings backup for the PSOC4 4000 devices (the
 428:.\Generated_Source\PSoC4/CyFlash.c ****         * corresponding system call is not available).
 429:.\Generated_Source\PSoC4/CyFlash.c ****         ***************************************************************************/
 430:.\Generated_Source\PSoC4/CyFlash.c **** 
 431:.\Generated_Source\PSoC4/CyFlash.c ****         /***************************************************************************
 432:.\Generated_Source\PSoC4/CyFlash.c ****         * The registers listed below are modified by CySysFlashClockConfig().
 433:.\Generated_Source\PSoC4/CyFlash.c ****         *
 434:.\Generated_Source\PSoC4/CyFlash.c ****         * The registers to be saved:
 435:.\Generated_Source\PSoC4/CyFlash.c ****         * - CY_SYS_CLK_IMO_CONFIG_REG - IMO enable state.
 436:.\Generated_Source\PSoC4/CyFlash.c ****         * - CY_SYS_CLK_SELECT_REG     - HFCLK source, divider, pump source. Save
 437:.\Generated_Source\PSoC4/CyFlash.c ****         *                               entire register as it can be directly
 438:.\Generated_Source\PSoC4/CyFlash.c ****         *                               written on restore (no special
 439:.\Generated_Source\PSoC4/CyFlash.c ****         *                               requirements).
 440:.\Generated_Source\PSoC4/CyFlash.c ****         * - CY_SYS_CLK_IMO_SELECT_REG - Save IMO frequency.
 441:.\Generated_Source\PSoC4/CyFlash.c ****         *
 442:.\Generated_Source\PSoC4/CyFlash.c ****         * The registers not to be saved:
 443:.\Generated_Source\PSoC4/CyFlash.c ****         * - CY_SYS_CLK_IMO_TRIM1_REG  - No need to save. Function of frequency.
 444:.\Generated_Source\PSoC4/CyFlash.c ****         *                               Restored by CySysClkWriteImoFreq().
 445:.\Generated_Source\PSoC4/CyFlash.c ****         * - CY_SYS_CLK_IMO_TRIM3_REG  - No need to save. Function of frequency.
 446:.\Generated_Source\PSoC4/CyFlash.c ****         *                               Restored by CySysClkWriteImoFreq().
 447:.\Generated_Source\PSoC4/CyFlash.c ****         * - REG_CPUSS_FLASH_CTL       - Flash wait cycles. Unmodified due to system
 448:.\Generated_Source\PSoC4/CyFlash.c ****         *                               clock 16 MHz limit.
 449:.\Generated_Source\PSoC4/CyFlash.c ****         ***************************************************************************/
 450:.\Generated_Source\PSoC4/CyFlash.c **** 
 451:.\Generated_Source\PSoC4/CyFlash.c ****         cySysFlashBackup.clkSelectReg = CY_SYS_CLK_SELECT_REG;
 452:.\Generated_Source\PSoC4/CyFlash.c ****         cySysFlashBackup.clkImoEna    = CY_SYS_CLK_IMO_CONFIG_REG & CY_SYS_CLK_IMO_CONFIG_ENABLE;
 453:.\Generated_Source\PSoC4/CyFlash.c ****         cySysFlashBackup.clkImoFreq   = CY_SYS_CLK_IMO_MIN_FREQ_MHZ + (CY_SYS_CLK_IMO_SELECT_REG <<
ARM GAS  C:\Users\Jarik\AppData\Local\Temp\cchjOeXN.s 			page 15


 454:.\Generated_Source\PSoC4/CyFlash.c **** 
 455:.\Generated_Source\PSoC4/CyFlash.c ****     #else
 456:.\Generated_Source\PSoC4/CyFlash.c **** 
 457:.\Generated_Source\PSoC4/CyFlash.c ****         #if (CY_IP_SPCIF_SYNCHRONOUS)
 458:.\Generated_Source\PSoC4/CyFlash.c ****             /* FM-Lite Clock Backup System Call */
 459:.\Generated_Source\PSoC4/CyFlash.c ****             parameters[0u] =
 460:.\Generated_Source\PSoC4/CyFlash.c ****                 (uint32) ((CY_FLASH_KEY_TWO(CY_FLASH_API_OPCODE_CLK_BACKUP) <<  CY_FLASH_PARAM_KEY_
 461:.\Generated_Source\PSoC4/CyFlash.c ****                             CY_FLASH_KEY_ONE);
 462:.\Generated_Source\PSoC4/CyFlash.c ****             parameters[1u] = (uint32) &cySysFlashBackup.clockSettings[0u];
 463:.\Generated_Source\PSoC4/CyFlash.c ****             CY_FLASH_CPUSS_SYSARG_REG = (uint32) &parameters[0u];
 464:.\Generated_Source\PSoC4/CyFlash.c ****             CY_FLASH_CPUSS_SYSREQ_REG = CY_FLASH_CPUSS_REQ_START | CY_FLASH_API_OPCODE_CLK_BACKUP;
 465:.\Generated_Source\PSoC4/CyFlash.c ****             retValue = CY_FLASH_API_RETURN;
 466:.\Generated_Source\PSoC4/CyFlash.c ****         #endif /* (CY_IP_SPCIF_SYNCHRONOUS) */
 467:.\Generated_Source\PSoC4/CyFlash.c **** 
 468:.\Generated_Source\PSoC4/CyFlash.c ****     #endif  /* (CY_PSOC4_4000) */
 469:.\Generated_Source\PSoC4/CyFlash.c **** 
 470:.\Generated_Source\PSoC4/CyFlash.c **** #endif  /* (CY_IP_FM) */
 471:.\Generated_Source\PSoC4/CyFlash.c **** 
 472:.\Generated_Source\PSoC4/CyFlash.c ****     return (retValue);
 473:.\Generated_Source\PSoC4/CyFlash.c **** }
 474:.\Generated_Source\PSoC4/CyFlash.c **** 
 475:.\Generated_Source\PSoC4/CyFlash.c **** 
 476:.\Generated_Source\PSoC4/CyFlash.c **** #if(CY_IP_SPCIF_SYNCHRONOUS)
 477:.\Generated_Source\PSoC4/CyFlash.c **** /*******************************************************************************
 478:.\Generated_Source\PSoC4/CyFlash.c **** * Function Name: CySysFlashClockConfig
 479:.\Generated_Source\PSoC4/CyFlash.c **** ********************************************************************************
 480:.\Generated_Source\PSoC4/CyFlash.c **** *
 481:.\Generated_Source\PSoC4/CyFlash.c **** * Summary:
 482:.\Generated_Source\PSoC4/CyFlash.c **** *  Configures the device clocks for the flash writing.
 483:.\Generated_Source\PSoC4/CyFlash.c **** *
 484:.\Generated_Source\PSoC4/CyFlash.c **** * Parameters:
 485:.\Generated_Source\PSoC4/CyFlash.c **** *  None
 486:.\Generated_Source\PSoC4/CyFlash.c **** *
 487:.\Generated_Source\PSoC4/CyFlash.c **** * Return:
 488:.\Generated_Source\PSoC4/CyFlash.c **** *  The same as CySysFlashWriteRow().
 489:.\Generated_Source\PSoC4/CyFlash.c **** *
 490:.\Generated_Source\PSoC4/CyFlash.c **** *******************************************************************************/
 491:.\Generated_Source\PSoC4/CyFlash.c **** static cystatus CySysFlashClockConfig(void)
 492:.\Generated_Source\PSoC4/CyFlash.c **** {
 493:.\Generated_Source\PSoC4/CyFlash.c ****     cystatus retValue = CY_SYS_FLASH_SUCCESS;
 494:.\Generated_Source\PSoC4/CyFlash.c **** 
 495:.\Generated_Source\PSoC4/CyFlash.c ****     /***************************************************************************
 496:.\Generated_Source\PSoC4/CyFlash.c ****     * The FM-Lite IP uses the IMO at 48MHz for the pump clock and SPC timer
 497:.\Generated_Source\PSoC4/CyFlash.c ****     * clock. The PUMP_SEL and HF clock must be set to IMO before calling Flash
 498:.\Generated_Source\PSoC4/CyFlash.c ****     * write or erase operation.
 499:.\Generated_Source\PSoC4/CyFlash.c ****     ***************************************************************************/
 500:.\Generated_Source\PSoC4/CyFlash.c **** #if (CY_PSOC4_4000)
 501:.\Generated_Source\PSoC4/CyFlash.c **** 
 502:.\Generated_Source\PSoC4/CyFlash.c ****     /***************************************************************************
 503:.\Generated_Source\PSoC4/CyFlash.c ****     * Perform firmware clock settings setup for the PSOC4 4000 devices (the
 504:.\Generated_Source\PSoC4/CyFlash.c ****     * corresponding system call is not reliable):
 505:.\Generated_Source\PSoC4/CyFlash.c ****     * - The IMO frequency should be 48 MHz
 506:.\Generated_Source\PSoC4/CyFlash.c ****     * - The IMO should be source for the HFCLK
 507:.\Generated_Source\PSoC4/CyFlash.c ****     * - The IMO should be the source for the charge pump clock
 508:.\Generated_Source\PSoC4/CyFlash.c ****     *
 509:.\Generated_Source\PSoC4/CyFlash.c ****     * Note The structure members used below are initialized by
 510:.\Generated_Source\PSoC4/CyFlash.c ****     * the CySysFlashClockBackup() function.
ARM GAS  C:\Users\Jarik\AppData\Local\Temp\cchjOeXN.s 			page 16


 511:.\Generated_Source\PSoC4/CyFlash.c ****     ***************************************************************************/
 512:.\Generated_Source\PSoC4/CyFlash.c ****     if ((cySysFlashBackup.clkImoFreq != 48u) ||
 513:.\Generated_Source\PSoC4/CyFlash.c ****         ((cySysFlashBackup.clkSelectReg & CY_SYS_CLK_SELECT_DIRECT_SEL_MASK) != CY_SYS_CLK_HFCLK_IM
 514:.\Generated_Source\PSoC4/CyFlash.c ****         (((cySysFlashBackup.clkSelectReg >> CY_SYS_CLK_SELECT_PUMP_SEL_SHIFT) & CY_SYS_CLK_SELECT_P
 515:.\Generated_Source\PSoC4/CyFlash.c ****             CY_SYS_CLK_SELECT_PUMP_SEL_IMO))
 516:.\Generated_Source\PSoC4/CyFlash.c ****     {
 517:.\Generated_Source\PSoC4/CyFlash.c ****         /***********************************************************************
 518:.\Generated_Source\PSoC4/CyFlash.c ****          Set HFCLK divider to divide-by-4 to ensure that System clock frequency
 519:.\Generated_Source\PSoC4/CyFlash.c ****         * is within the valid limit (16 MHz for the PSoC4 4000).
 520:.\Generated_Source\PSoC4/CyFlash.c ****         ***********************************************************************/
 521:.\Generated_Source\PSoC4/CyFlash.c ****         CySysClkWriteHfclkDiv(CY_SYS_CLK_HFCLK_DIV_4);
 522:.\Generated_Source\PSoC4/CyFlash.c **** 
 523:.\Generated_Source\PSoC4/CyFlash.c ****         /* The IMO frequency should be 48 MHz */
 524:.\Generated_Source\PSoC4/CyFlash.c ****         if (cySysFlashBackup.clkImoFreq != 48u)
 525:.\Generated_Source\PSoC4/CyFlash.c ****         {
 526:.\Generated_Source\PSoC4/CyFlash.c ****             CySysClkWriteImoFreq(48u);
 527:.\Generated_Source\PSoC4/CyFlash.c ****         }
 528:.\Generated_Source\PSoC4/CyFlash.c ****         CySysClkImoStart();
 529:.\Generated_Source\PSoC4/CyFlash.c **** 
 530:.\Generated_Source\PSoC4/CyFlash.c ****         /* The IMO should be source for the HFCLK */
 531:.\Generated_Source\PSoC4/CyFlash.c ****         CySysClkWriteHfclkDirect(CY_SYS_CLK_HFCLK_IMO);
 532:.\Generated_Source\PSoC4/CyFlash.c **** 
 533:.\Generated_Source\PSoC4/CyFlash.c ****         /* The IMO should be the source for the charge pump clock */
 534:.\Generated_Source\PSoC4/CyFlash.c ****         CY_SYS_CLK_SELECT_REG =  (CY_SYS_CLK_SELECT_REG &
 535:.\Generated_Source\PSoC4/CyFlash.c ****             ((uint32)~(uint32)(CY_SYS_CLK_SELECT_PUMP_SEL_MASK << CY_SYS_CLK_SELECT_PUMP_SEL_SHIFT)
 536:.\Generated_Source\PSoC4/CyFlash.c ****             ((uint32)((uint32)1u << CY_SYS_CLK_SELECT_PUMP_SEL_SHIFT));
 537:.\Generated_Source\PSoC4/CyFlash.c ****     }
 538:.\Generated_Source\PSoC4/CyFlash.c **** 
 539:.\Generated_Source\PSoC4/CyFlash.c **** #else
 540:.\Generated_Source\PSoC4/CyFlash.c **** 
 541:.\Generated_Source\PSoC4/CyFlash.c ****     /* FM-Lite Clock Configuration */
 542:.\Generated_Source\PSoC4/CyFlash.c ****     CY_FLASH_CPUSS_SYSARG_REG =
 543:.\Generated_Source\PSoC4/CyFlash.c ****         (uint32) ((CY_FLASH_KEY_TWO(CY_FLASH_API_OPCODE_CLK_CONFIG) <<  CY_FLASH_PARAM_KEY_TWO_OFFS
 544:.\Generated_Source\PSoC4/CyFlash.c ****                     CY_FLASH_KEY_ONE);
 545:.\Generated_Source\PSoC4/CyFlash.c ****     CY_FLASH_CPUSS_SYSREQ_REG = CY_FLASH_CPUSS_REQ_START | CY_FLASH_API_OPCODE_CLK_CONFIG;
 546:.\Generated_Source\PSoC4/CyFlash.c ****     retValue = CY_FLASH_API_RETURN;
 547:.\Generated_Source\PSoC4/CyFlash.c **** 
 548:.\Generated_Source\PSoC4/CyFlash.c **** #endif  /* (CY_PSOC4_4000) */
 549:.\Generated_Source\PSoC4/CyFlash.c **** 
 550:.\Generated_Source\PSoC4/CyFlash.c ****     return (retValue);
 551:.\Generated_Source\PSoC4/CyFlash.c **** }
 552:.\Generated_Source\PSoC4/CyFlash.c **** #endif  /* (CY_IP_SPCIF_SYNCHRONOUS) */
 553:.\Generated_Source\PSoC4/CyFlash.c **** 
 554:.\Generated_Source\PSoC4/CyFlash.c **** 
 555:.\Generated_Source\PSoC4/CyFlash.c **** /*******************************************************************************
 556:.\Generated_Source\PSoC4/CyFlash.c **** * Function Name: CySysFlashClockRestore
 557:.\Generated_Source\PSoC4/CyFlash.c **** ********************************************************************************
 558:.\Generated_Source\PSoC4/CyFlash.c **** *
 559:.\Generated_Source\PSoC4/CyFlash.c **** * Summary:
 560:.\Generated_Source\PSoC4/CyFlash.c **** *  Restores the device clock configuration.
 561:.\Generated_Source\PSoC4/CyFlash.c **** *
 562:.\Generated_Source\PSoC4/CyFlash.c **** * Parameters:
 563:.\Generated_Source\PSoC4/CyFlash.c **** *  None
 564:.\Generated_Source\PSoC4/CyFlash.c **** *
 565:.\Generated_Source\PSoC4/CyFlash.c **** * Return:
 566:.\Generated_Source\PSoC4/CyFlash.c **** *  The same as CySysFlashWriteRow().
 567:.\Generated_Source\PSoC4/CyFlash.c **** *
ARM GAS  C:\Users\Jarik\AppData\Local\Temp\cchjOeXN.s 			page 17


 568:.\Generated_Source\PSoC4/CyFlash.c **** *******************************************************************************/
 569:.\Generated_Source\PSoC4/CyFlash.c **** static cystatus CySysFlashClockRestore(void)
 570:.\Generated_Source\PSoC4/CyFlash.c **** {
 571:.\Generated_Source\PSoC4/CyFlash.c ****     cystatus retValue = CY_SYS_FLASH_SUCCESS;
 572:.\Generated_Source\PSoC4/CyFlash.c **** #if(!CY_IP_FM)
 573:.\Generated_Source\PSoC4/CyFlash.c ****     #if !(CY_PSOC4_4000)
 574:.\Generated_Source\PSoC4/CyFlash.c ****         #if (CY_IP_SPCIF_SYNCHRONOUS)
 575:.\Generated_Source\PSoC4/CyFlash.c ****             volatile uint32   parameters[2u];
 576:.\Generated_Source\PSoC4/CyFlash.c ****         #endif /* (CY_IP_SPCIF_SYNCHRONOUS) */
 577:.\Generated_Source\PSoC4/CyFlash.c ****     #endif  /* !(CY_PSOC4_4000) */
 578:.\Generated_Source\PSoC4/CyFlash.c **** #endif  /* (!CY_IP_FM) */
 579:.\Generated_Source\PSoC4/CyFlash.c **** 
 580:.\Generated_Source\PSoC4/CyFlash.c **** #if(CY_IP_FM)
 581:.\Generated_Source\PSoC4/CyFlash.c **** 
 582:.\Generated_Source\PSoC4/CyFlash.c ****     /***************************************************************
 583:.\Generated_Source\PSoC4/CyFlash.c ****     * Restore IMO configuration that could be changed during
 584:.\Generated_Source\PSoC4/CyFlash.c ****     * system call execution (Cypress ID #150448).
 585:.\Generated_Source\PSoC4/CyFlash.c ****     ***************************************************************/
 586:.\Generated_Source\PSoC4/CyFlash.c ****     CY_SYS_CLK_IMO_CONFIG_REG = cySysFlashBackup.imoConfigReg;
 296              		.loc 1 586 0
 297 012a 104A     		ldr	r2, .L30+20
 298 012c 0399     		ldr	r1, [sp, #12]
 299 012e 1268     		ldr	r2, [r2]
 300 0130 0A60     		str	r2, [r1]
 301              	.LBE13:
 302              	.LBE12:
 211:.\Generated_Source\PSoC4/CyFlash.c ****             }
 303              		.loc 1 211 0
 304 0132 0993     		str	r3, [sp, #36]
 305              	.LVL16:
 306              	.L16:
 214:.\Generated_Source\PSoC4/CyFlash.c ****         }
 307              		.loc 1 214 0
 308 0134 0598     		ldr	r0, [sp, #20]
 309 0136 FFF7FEFF 		bl	CyExitCriticalSection
 310              	.LVL17:
 311 013a 09E0     		b	.L8
 312              	.LVL18:
 313              	.L2:
 219:.\Generated_Source\PSoC4/CyFlash.c ****     }
 314              		.loc 1 219 0
 315 013c 0423     		mov	r3, #4
 316 013e 0893     		str	r3, [sp, #32]
 317 0140 06E0     		b	.L8
 318              	.LVL19:
 319              	.L6:
 129:.\Generated_Source\PSoC4/CyFlash.c ****                 parameters[savedIndex] = 0u;
 320              		.loc 1 129 0
 321 0142 019B     		ldr	r3, [sp, #4]
 322              	.LVL20:
 126:.\Generated_Source\PSoC4/CyFlash.c ****             if (needChecksumWorkaround != 0u)
 323              		.loc 1 126 0
 324 0144 0127     		mov	r7, #1
 129:.\Generated_Source\PSoC4/CyFlash.c ****                 parameters[savedIndex] = 0u;
 325              		.loc 1 129 0
 326 0146 9B00     		lsl	r3, r3, #2
 327 0148 EA58     		ldr	r2, [r5, r3]
ARM GAS  C:\Users\Jarik\AppData\Local\Temp\cchjOeXN.s 			page 18


 328              	.LVL21:
 130:.\Generated_Source\PSoC4/CyFlash.c ****             }
 329              		.loc 1 130 0
 330 014a E950     		str	r1, [r5, r3]
 129:.\Generated_Source\PSoC4/CyFlash.c ****                 parameters[savedIndex] = 0u;
 331              		.loc 1 129 0
 332 014c 0292     		str	r2, [sp, #8]
 333              	.LVL22:
 334 014e 7CE7     		b	.L5
 335              	.LVL23:
 336              	.L8:
 222:.\Generated_Source\PSoC4/CyFlash.c **** }
 337              		.loc 1 222 0
 338 0150 0898     		ldr	r0, [sp, #32]
 223:.\Generated_Source\PSoC4/CyFlash.c **** 
 339              		.loc 1 223 0
 340 0152 2DB0     		add	sp, sp, #180
 341              		@ sp needed
 342 0154 F0BD     		pop	{r4, r5, r6, r7, pc}
 343              	.L31:
 344 0156 C046     		.align	2
 345              	.L30:
 346 0158 B6D70000 		.word	55222
 347 015c 08000040 		.word	1073741832
 348 0160 04000040 		.word	1073741828
 349 0164 04000080 		.word	-2147483644
 350 0168 08010B40 		.word	1074462984
 351 016c 00000000 		.word	.LANCHOR0
 352 0170 B6D80000 		.word	55478
 353 0174 05000080 		.word	-2147483643
 354 0178 B6D90000 		.word	55734
 355 017c 06000080 		.word	-2147483642
 356              		.cfi_endproc
 357              	.LFE0:
 358              		.size	CySysFlashWriteRow, .-CySysFlashWriteRow
 359              		.section	.text.CySysFlashSetWaitCycles,"ax",%progbits
 360              		.align	1
 361              		.global	CySysFlashSetWaitCycles
 362              		.code	16
 363              		.thumb_func
 364              		.type	CySysFlashSetWaitCycles, %function
 365              	CySysFlashSetWaitCycles:
 366              	.LFB1:
 246:.\Generated_Source\PSoC4/CyFlash.c ****     uint8  interruptState;
 367              		.loc 1 246 0
 368              		.cfi_startproc
 369              	.LVL24:
 370 0000 10B5     		push	{r4, lr}
 371              		.cfi_def_cfa_offset 8
 372              		.cfi_offset 4, -8
 373              		.cfi_offset 14, -4
 246:.\Generated_Source\PSoC4/CyFlash.c ****     uint8  interruptState;
 374              		.loc 1 246 0
 375 0002 041C     		mov	r4, r0
 249:.\Generated_Source\PSoC4/CyFlash.c **** 
 376              		.loc 1 249 0
 377 0004 FFF7FEFF 		bl	CyEnterCriticalSection
ARM GAS  C:\Users\Jarik\AppData\Local\Temp\cchjOeXN.s 			page 19


 378              	.LVL25:
 379 0008 074B     		ldr	r3, .L36
 253:.\Generated_Source\PSoC4/CyFlash.c ****         {
 380              		.loc 1 253 0
 381 000a 182C     		cmp	r4, #24
 382 000c 03D8     		bhi	.L33
 255:.\Generated_Source\PSoC4/CyFlash.c ****         }
 383              		.loc 1 255 0
 384 000e 1968     		ldr	r1, [r3]
 385 0010 064A     		ldr	r2, .L36+4
 386 0012 0A40     		and	r2, r1
 387 0014 03E0     		b	.L35
 388              	.L33:
 259:.\Generated_Source\PSoC4/CyFlash.c ****         }
 389              		.loc 1 259 0
 390 0016 8021     		mov	r1, #128
 391 0018 1A68     		ldr	r2, [r3]
 392 001a C902     		lsl	r1, r1, #11
 393 001c 0A43     		orr	r2, r1
 394              	.L35:
 395 001e 1A60     		str	r2, [r3]
 286:.\Generated_Source\PSoC4/CyFlash.c **** }
 396              		.loc 1 286 0
 397 0020 FFF7FEFF 		bl	CyExitCriticalSection
 398              	.LVL26:
 287:.\Generated_Source\PSoC4/CyFlash.c **** 
 399              		.loc 1 287 0
 400              		@ sp needed
 401              	.LVL27:
 402 0024 10BD     		pop	{r4, pc}
 403              	.L37:
 404 0026 C046     		.align	2
 405              	.L36:
 406 0028 00010B40 		.word	1074462976
 407 002c FFFFFBFF 		.word	-262145
 408              		.cfi_endproc
 409              	.LFE1:
 410              		.size	CySysFlashSetWaitCycles, .-CySysFlashSetWaitCycles
 411              		.bss
 412              		.align	2
 413              		.set	.LANCHOR0,. + 0
 414              		.type	cySysFlashBackup, %object
 415              		.size	cySysFlashBackup, 4
 416              	cySysFlashBackup:
 417 0000 00000000 		.space	4
 418              		.text
 419              	.Letext0:
 420              		.file 2 ".\\Generated_Source\\PSoC4\\cytypes.h"
 421              		.file 3 ".\\Generated_Source\\PSoC4\\CyFlash.h"
 422              		.file 4 ".\\Generated_Source\\PSoC4\\CyLib.h"