ARM GAS  C:\Users\Jarik\AppData\Local\Temp\ccPjN50m.s 			page 1


   1              		.cpu cortex-m0
   2              		.fpu softvfp
   3              		.eabi_attribute 20, 1
   4              		.eabi_attribute 21, 1
   5              		.eabi_attribute 23, 3
   6              		.eabi_attribute 24, 1
   7              		.eabi_attribute 25, 1
   8              		.eabi_attribute 26, 1
   9              		.eabi_attribute 30, 4
  10              		.eabi_attribute 34, 0
  11              		.eabi_attribute 18, 4
  12              		.code	16
  13              		.file	"CyLFClk.c"
  14              		.text
  15              	.Ltext0:
  16              		.cfi_sections	.debug_frame
  17              		.section	.text.CySysClkIloStart,"ax",%progbits
  18              		.align	1
  19              		.global	CySysClkIloStart
  20              		.code	16
  21              		.thumb_func
  22              		.type	CySysClkIloStart, %function
  23              	CySysClkIloStart:
  24              	.LFB0:
  25              		.file 1 ".\\Generated_Source\\PSoC4\\CyLFClk.c"
   1:.\Generated_Source\PSoC4/CyLFClk.c **** /*******************************************************************************
   2:.\Generated_Source\PSoC4/CyLFClk.c **** * File Name: .c
   3:.\Generated_Source\PSoC4/CyLFClk.c **** * Version 1.0
   4:.\Generated_Source\PSoC4/CyLFClk.c **** *
   5:.\Generated_Source\PSoC4/CyLFClk.c **** * Description:
   6:.\Generated_Source\PSoC4/CyLFClk.c **** *  This file provides the source code to API for the cy_lfclk Component.
   7:.\Generated_Source\PSoC4/CyLFClk.c **** *
   8:.\Generated_Source\PSoC4/CyLFClk.c **** ********************************************************************************
   9:.\Generated_Source\PSoC4/CyLFClk.c **** * Copyright 2008-2015, Cypress Semiconductor Corporation.  All rights reserved.
  10:.\Generated_Source\PSoC4/CyLFClk.c **** * You may use this file only in accordance with the license, terms, conditions,
  11:.\Generated_Source\PSoC4/CyLFClk.c **** * disclaimers, and limitations in the end user license agreement accompanying
  12:.\Generated_Source\PSoC4/CyLFClk.c **** * the software package with which this file was provided.
  13:.\Generated_Source\PSoC4/CyLFClk.c **** *******************************************************************************/
  14:.\Generated_Source\PSoC4/CyLFClk.c **** 
  15:.\Generated_Source\PSoC4/CyLFClk.c **** 
  16:.\Generated_Source\PSoC4/CyLFClk.c **** #include "CyLFClk.h"
  17:.\Generated_Source\PSoC4/CyLFClk.c **** #include "CyLib.h"
  18:.\Generated_Source\PSoC4/CyLFClk.c **** 
  19:.\Generated_Source\PSoC4/CyLFClk.c **** 
  20:.\Generated_Source\PSoC4/CyLFClk.c **** #if (CY_IP_WCO)
  21:.\Generated_Source\PSoC4/CyLFClk.c ****     static uint32 CySysClkGetLfclkSource(void);
  22:.\Generated_Source\PSoC4/CyLFClk.c **** #endif /* (CY_IP_WCO) */
  23:.\Generated_Source\PSoC4/CyLFClk.c **** 
  24:.\Generated_Source\PSoC4/CyLFClk.c **** #if(CY_IP_SRSSV2)
  25:.\Generated_Source\PSoC4/CyLFClk.c ****     /* CySysClkLfclkPosedgeCatch() / CySysClkLfclkPosedgeRestore() */
  26:.\Generated_Source\PSoC4/CyLFClk.c ****     static uint32 lfclkPosedgeWdtCounter0Enabled = 0u;
  27:.\Generated_Source\PSoC4/CyLFClk.c ****     static uint32 lfclkPosedgeWdtCounter0Mode    = CY_SYS_WDT_MODE_NONE;
  28:.\Generated_Source\PSoC4/CyLFClk.c **** 
  29:.\Generated_Source\PSoC4/CyLFClk.c ****     static volatile uint32 disableServicedIsr = 0uL;
  30:.\Generated_Source\PSoC4/CyLFClk.c ****     static volatile uint32 wdtIsrMask = CY_SYS_WDT_COUNTER0_INT |\
  31:.\Generated_Source\PSoC4/CyLFClk.c ****                                         CY_SYS_WDT_COUNTER1_INT |\
  32:.\Generated_Source\PSoC4/CyLFClk.c ****                                         CY_SYS_WDT_COUNTER2_INT;
ARM GAS  C:\Users\Jarik\AppData\Local\Temp\ccPjN50m.s 			page 2


  33:.\Generated_Source\PSoC4/CyLFClk.c **** 
  34:.\Generated_Source\PSoC4/CyLFClk.c ****     static const uint32 counterIntMaskTbl[CY_WDT_NUM_OF_WDT] = {CY_SYS_WDT_COUNTER0_INT,
  35:.\Generated_Source\PSoC4/CyLFClk.c ****                                                                 CY_SYS_WDT_COUNTER1_INT,
  36:.\Generated_Source\PSoC4/CyLFClk.c ****                                                                 CY_SYS_WDT_COUNTER2_INT};
  37:.\Generated_Source\PSoC4/CyLFClk.c **** 
  38:.\Generated_Source\PSoC4/CyLFClk.c ****     static void CySysClkLfclkPosedgeCatch(void);
  39:.\Generated_Source\PSoC4/CyLFClk.c ****     static void CySysClkLfclkPosedgeRestore(void);
  40:.\Generated_Source\PSoC4/CyLFClk.c **** 
  41:.\Generated_Source\PSoC4/CyLFClk.c ****     static uint32 CySysWdtLocked(void);
  42:.\Generated_Source\PSoC4/CyLFClk.c ****     static uint32 CySysClkIloEnabled(void);
  43:.\Generated_Source\PSoC4/CyLFClk.c **** #endif /* (CY_IP_SRSSV2) */
  44:.\Generated_Source\PSoC4/CyLFClk.c **** 
  45:.\Generated_Source\PSoC4/CyLFClk.c **** #if(CY_IP_SRSSV2)
  46:.\Generated_Source\PSoC4/CyLFClk.c ****     static cyWdtCallback cySysWdtCallback[CY_WDT_NUM_OF_WDT] = {(void *)0, (void *)0, (void *)0};
  47:.\Generated_Source\PSoC4/CyLFClk.c **** #else
  48:.\Generated_Source\PSoC4/CyLFClk.c ****     static cyWdtCallback cySysWdtCallback = (void *)0;
  49:.\Generated_Source\PSoC4/CyLFClk.c **** #endif /* (CY_IP_SRSSV2) */
  50:.\Generated_Source\PSoC4/CyLFClk.c **** 
  51:.\Generated_Source\PSoC4/CyLFClk.c **** /*******************************************************************************
  52:.\Generated_Source\PSoC4/CyLFClk.c **** * Function Name: CySysClkIloStart
  53:.\Generated_Source\PSoC4/CyLFClk.c **** ********************************************************************************
  54:.\Generated_Source\PSoC4/CyLFClk.c **** *
  55:.\Generated_Source\PSoC4/CyLFClk.c **** * Summary:
  56:.\Generated_Source\PSoC4/CyLFClk.c **** *  Enables ILO. Refer to the device datasheet for the ILO startup time.
  57:.\Generated_Source\PSoC4/CyLFClk.c **** *
  58:.\Generated_Source\PSoC4/CyLFClk.c **** * Parameters:
  59:.\Generated_Source\PSoC4/CyLFClk.c **** *  None
  60:.\Generated_Source\PSoC4/CyLFClk.c **** *
  61:.\Generated_Source\PSoC4/CyLFClk.c **** * Return:
  62:.\Generated_Source\PSoC4/CyLFClk.c **** *  None
  63:.\Generated_Source\PSoC4/CyLFClk.c **** *
  64:.\Generated_Source\PSoC4/CyLFClk.c **** *******************************************************************************/
  65:.\Generated_Source\PSoC4/CyLFClk.c **** void CySysClkIloStart(void)
  66:.\Generated_Source\PSoC4/CyLFClk.c **** {
  26              		.loc 1 66 0
  27              		.cfi_startproc
  67:.\Generated_Source\PSoC4/CyLFClk.c ****     CY_SYS_CLK_ILO_CONFIG_REG |= CY_SYS_CLK_ILO_CONFIG_ENABLE;
  28              		.loc 1 67 0
  29 0000 8021     		mov	r1, #128
  30 0002 034A     		ldr	r2, .L2
  31 0004 0906     		lsl	r1, r1, #24
  32 0006 1368     		ldr	r3, [r2]
  68:.\Generated_Source\PSoC4/CyLFClk.c **** }
  33              		.loc 1 68 0
  34              		@ sp needed
  67:.\Generated_Source\PSoC4/CyLFClk.c ****     CY_SYS_CLK_ILO_CONFIG_REG |= CY_SYS_CLK_ILO_CONFIG_ENABLE;
  35              		.loc 1 67 0
  36 0008 0B43     		orr	r3, r1
  37 000a 1360     		str	r3, [r2]
  38              		.loc 1 68 0
  39 000c 7047     		bx	lr
  40              	.L3:
  41 000e C046     		.align	2
  42              	.L2:
  43 0010 04010B40 		.word	1074462980
  44              		.cfi_endproc
  45              	.LFE0:
ARM GAS  C:\Users\Jarik\AppData\Local\Temp\ccPjN50m.s 			page 3


  46              		.size	CySysClkIloStart, .-CySysClkIloStart
  47              		.section	.text.CySysWdtLock,"ax",%progbits
  48              		.align	1
  49              		.global	CySysWdtLock
  50              		.code	16
  51              		.thumb_func
  52              		.type	CySysWdtLock, %function
  53              	CySysWdtLock:
  54              	.LFB3:
  69:.\Generated_Source\PSoC4/CyLFClk.c **** 
  70:.\Generated_Source\PSoC4/CyLFClk.c **** 
  71:.\Generated_Source\PSoC4/CyLFClk.c **** /*******************************************************************************
  72:.\Generated_Source\PSoC4/CyLFClk.c **** * Function Name: CySysClkIloStop
  73:.\Generated_Source\PSoC4/CyLFClk.c **** ********************************************************************************
  74:.\Generated_Source\PSoC4/CyLFClk.c **** *
  75:.\Generated_Source\PSoC4/CyLFClk.c **** * Summary:
  76:.\Generated_Source\PSoC4/CyLFClk.c **** *  Disables ILO.
  77:.\Generated_Source\PSoC4/CyLFClk.c **** *
  78:.\Generated_Source\PSoC4/CyLFClk.c **** * Parameters:
  79:.\Generated_Source\PSoC4/CyLFClk.c **** *  None.
  80:.\Generated_Source\PSoC4/CyLFClk.c **** *
  81:.\Generated_Source\PSoC4/CyLFClk.c **** * Return:
  82:.\Generated_Source\PSoC4/CyLFClk.c **** *  None.
  83:.\Generated_Source\PSoC4/CyLFClk.c **** *
  84:.\Generated_Source\PSoC4/CyLFClk.c **** * Side Effects:
  85:.\Generated_Source\PSoC4/CyLFClk.c **** *  This function has no effect if WDT is locked (CySysWdtLock() is
  86:.\Generated_Source\PSoC4/CyLFClk.c **** *  called). Call CySysWdtUnlock() to unlock WDT and stop ILO.
  87:.\Generated_Source\PSoC4/CyLFClk.c **** *
  88:.\Generated_Source\PSoC4/CyLFClk.c **** *  PSoC 4100 / PSoC 4200: Note that ILO is required for WDT's operation.
  89:.\Generated_Source\PSoC4/CyLFClk.c **** *  ILO is required for WDT operation.
  90:.\Generated_Source\PSoC4/CyLFClk.c **** *
  91:.\Generated_Source\PSoC4/CyLFClk.c **** *  PSoC 4100-BL / PSoC 4200-BL and PSoC 4100M / PSoC 4200M:
  92:.\Generated_Source\PSoC4/CyLFClk.c **** *  Stopping ILO affects the peripheral clocked by LFCLK, if
  93:.\Generated_Source\PSoC4/CyLFClk.c **** *  LFCLK is configured to be sourced by ILO.
  94:.\Generated_Source\PSoC4/CyLFClk.c **** *
  95:.\Generated_Source\PSoC4/CyLFClk.c **** *******************************************************************************/
  96:.\Generated_Source\PSoC4/CyLFClk.c **** void CySysClkIloStop(void)
  97:.\Generated_Source\PSoC4/CyLFClk.c **** {
  98:.\Generated_Source\PSoC4/CyLFClk.c ****     #if(CY_IP_SRSSV2)
  99:.\Generated_Source\PSoC4/CyLFClk.c ****         uint8  interruptState;
 100:.\Generated_Source\PSoC4/CyLFClk.c **** 
 101:.\Generated_Source\PSoC4/CyLFClk.c ****         /* Do nothing if WDT is locked or ILO is disabled */
 102:.\Generated_Source\PSoC4/CyLFClk.c ****         if (0u == CySysWdtLocked())
 103:.\Generated_Source\PSoC4/CyLFClk.c ****         {
 104:.\Generated_Source\PSoC4/CyLFClk.c ****             if (0u != CySysClkIloEnabled())
 105:.\Generated_Source\PSoC4/CyLFClk.c ****             {
 106:.\Generated_Source\PSoC4/CyLFClk.c **** 
 107:.\Generated_Source\PSoC4/CyLFClk.c ****             #if (CY_IP_WCO)
 108:.\Generated_Source\PSoC4/CyLFClk.c ****                 if (CY_SYS_CLK_LFCLK_SRC_ILO == CySysClkGetLfclkSource())
 109:.\Generated_Source\PSoC4/CyLFClk.c ****                 {
 110:.\Generated_Source\PSoC4/CyLFClk.c ****             #endif /* (CY_IP_WCO) */
 111:.\Generated_Source\PSoC4/CyLFClk.c **** 
 112:.\Generated_Source\PSoC4/CyLFClk.c ****                 interruptState = CyEnterCriticalSection();
 113:.\Generated_Source\PSoC4/CyLFClk.c ****                 CySysClkLfclkPosedgeCatch();
 114:.\Generated_Source\PSoC4/CyLFClk.c ****                 CY_SYS_CLK_ILO_CONFIG_REG &= ( uint32 ) ( ~( uint32 )CY_SYS_CLK_ILO_CONFIG_ENABLE);
 115:.\Generated_Source\PSoC4/CyLFClk.c ****                 CySysClkLfclkPosedgeRestore();
 116:.\Generated_Source\PSoC4/CyLFClk.c ****                 CyExitCriticalSection(interruptState);
ARM GAS  C:\Users\Jarik\AppData\Local\Temp\ccPjN50m.s 			page 4


 117:.\Generated_Source\PSoC4/CyLFClk.c **** 
 118:.\Generated_Source\PSoC4/CyLFClk.c ****             #if (CY_IP_WCO)
 119:.\Generated_Source\PSoC4/CyLFClk.c ****                 }
 120:.\Generated_Source\PSoC4/CyLFClk.c ****                 else /* Safe to disable - shortened pulse does not impact peripheral */
 121:.\Generated_Source\PSoC4/CyLFClk.c ****                 {
 122:.\Generated_Source\PSoC4/CyLFClk.c ****                     CY_SYS_CLK_ILO_CONFIG_REG &= ( uint32 ) ( ~( uint32 )CY_SYS_CLK_ILO_CONFIG_ENAB
 123:.\Generated_Source\PSoC4/CyLFClk.c ****                 }
 124:.\Generated_Source\PSoC4/CyLFClk.c ****             #endif /* (CY_IP_WCO) */
 125:.\Generated_Source\PSoC4/CyLFClk.c **** 
 126:.\Generated_Source\PSoC4/CyLFClk.c ****             }
 127:.\Generated_Source\PSoC4/CyLFClk.c ****         }
 128:.\Generated_Source\PSoC4/CyLFClk.c ****     #else
 129:.\Generated_Source\PSoC4/CyLFClk.c ****         CY_SYS_CLK_ILO_CONFIG_REG &= ( uint32 ) ( ~( uint32 )CY_SYS_CLK_ILO_CONFIG_ENABLE);
 130:.\Generated_Source\PSoC4/CyLFClk.c ****     #endif /* (CY_IP_SRSSV2) */
 131:.\Generated_Source\PSoC4/CyLFClk.c **** }
 132:.\Generated_Source\PSoC4/CyLFClk.c **** 
 133:.\Generated_Source\PSoC4/CyLFClk.c **** #if(CY_IP_SRSSV2)
 134:.\Generated_Source\PSoC4/CyLFClk.c ****     /*******************************************************************************
 135:.\Generated_Source\PSoC4/CyLFClk.c ****     * Function Name: CySysClkIloEnabled
 136:.\Generated_Source\PSoC4/CyLFClk.c ****     ********************************************************************************
 137:.\Generated_Source\PSoC4/CyLFClk.c ****     *
 138:.\Generated_Source\PSoC4/CyLFClk.c ****     * Summary:
 139:.\Generated_Source\PSoC4/CyLFClk.c ****     *  Reports the ILO enable state.
 140:.\Generated_Source\PSoC4/CyLFClk.c ****     *
 141:.\Generated_Source\PSoC4/CyLFClk.c ****     * Parameters:
 142:.\Generated_Source\PSoC4/CyLFClk.c ****     *  None.
 143:.\Generated_Source\PSoC4/CyLFClk.c ****     *
 144:.\Generated_Source\PSoC4/CyLFClk.c ****     * Return:
 145:.\Generated_Source\PSoC4/CyLFClk.c ****     *  1 if ILO is enabled, and 0 if ILO is disabled.
 146:.\Generated_Source\PSoC4/CyLFClk.c ****     *
 147:.\Generated_Source\PSoC4/CyLFClk.c ****     *******************************************************************************/
 148:.\Generated_Source\PSoC4/CyLFClk.c ****     static uint32 CySysClkIloEnabled(void)
 149:.\Generated_Source\PSoC4/CyLFClk.c ****     {
 150:.\Generated_Source\PSoC4/CyLFClk.c ****         /* Prohibits writing to WDT registers and ILO/WCO registers when not equal to 0 */
 151:.\Generated_Source\PSoC4/CyLFClk.c ****         return ((0u != (CY_SYS_CLK_ILO_CONFIG_REG & (uint32)(CY_SYS_CLK_ILO_CONFIG_ENABLE))) ?
 152:.\Generated_Source\PSoC4/CyLFClk.c ****             (uint32) 1u :
 153:.\Generated_Source\PSoC4/CyLFClk.c ****             (uint32) 0u);
 154:.\Generated_Source\PSoC4/CyLFClk.c ****     }
 155:.\Generated_Source\PSoC4/CyLFClk.c **** #endif /* (CY_IP_SRSSV2) */
 156:.\Generated_Source\PSoC4/CyLFClk.c **** 
 157:.\Generated_Source\PSoC4/CyLFClk.c **** 
 158:.\Generated_Source\PSoC4/CyLFClk.c **** /*******************************************************************************
 159:.\Generated_Source\PSoC4/CyLFClk.c **** * Function Name: CySysClkGetLfclkSource
 160:.\Generated_Source\PSoC4/CyLFClk.c **** ********************************************************************************
 161:.\Generated_Source\PSoC4/CyLFClk.c **** *
 162:.\Generated_Source\PSoC4/CyLFClk.c **** * Summary:
 163:.\Generated_Source\PSoC4/CyLFClk.c **** *  Gets the clock source for the LFCLK clock.
 164:.\Generated_Source\PSoC4/CyLFClk.c **** *  The function is applicable only for PSoC 4100-BL and PSoC 4200-BL.
 165:.\Generated_Source\PSoC4/CyLFClk.c **** *
 166:.\Generated_Source\PSoC4/CyLFClk.c **** * Parameters:
 167:.\Generated_Source\PSoC4/CyLFClk.c **** *  None.
 168:.\Generated_Source\PSoC4/CyLFClk.c **** *
 169:.\Generated_Source\PSoC4/CyLFClk.c **** * Return:
 170:.\Generated_Source\PSoC4/CyLFClk.c **** *  The LFCLK source:
 171:.\Generated_Source\PSoC4/CyLFClk.c **** *   CY_SYS_CLK_LFCLK_SRC_ILO    Internal Low Frequency (32 kHz) Oscillator (ILO)
 172:.\Generated_Source\PSoC4/CyLFClk.c **** *   CY_SYS_CLK_LFCLK_SRC_WCO    Low Frequency Watch Crystal Oscillator (WCO)
 173:.\Generated_Source\PSoC4/CyLFClk.c **** *
ARM GAS  C:\Users\Jarik\AppData\Local\Temp\ccPjN50m.s 			page 5


 174:.\Generated_Source\PSoC4/CyLFClk.c **** *******************************************************************************/
 175:.\Generated_Source\PSoC4/CyLFClk.c **** #if (CY_IP_WCO)
 176:.\Generated_Source\PSoC4/CyLFClk.c ****     static uint32 CySysClkGetLfclkSource(void)
 177:.\Generated_Source\PSoC4/CyLFClk.c ****     {
 178:.\Generated_Source\PSoC4/CyLFClk.c ****         uint32 lfclkSource;
 179:.\Generated_Source\PSoC4/CyLFClk.c ****         lfclkSource = CY_SYS_WDT_CONFIG_REG & CY_SYS_CLK_LFCLK_SEL_MASK;
 180:.\Generated_Source\PSoC4/CyLFClk.c ****         return (lfclkSource);
 181:.\Generated_Source\PSoC4/CyLFClk.c ****     }
 182:.\Generated_Source\PSoC4/CyLFClk.c **** #endif /* (CY_IP_WCO) */
 183:.\Generated_Source\PSoC4/CyLFClk.c **** 
 184:.\Generated_Source\PSoC4/CyLFClk.c **** 
 185:.\Generated_Source\PSoC4/CyLFClk.c **** /*******************************************************************************
 186:.\Generated_Source\PSoC4/CyLFClk.c **** * Function Name: CySysClkSetLfclkSource
 187:.\Generated_Source\PSoC4/CyLFClk.c **** ********************************************************************************
 188:.\Generated_Source\PSoC4/CyLFClk.c **** *
 189:.\Generated_Source\PSoC4/CyLFClk.c **** * Summary:
 190:.\Generated_Source\PSoC4/CyLFClk.c **** *  Sets the clock source for the LFCLK clock.
 191:.\Generated_Source\PSoC4/CyLFClk.c **** *
 192:.\Generated_Source\PSoC4/CyLFClk.c **** *  The switch between LFCLK sources must be done between the positive edges of
 193:.\Generated_Source\PSoC4/CyLFClk.c **** *  LFCLK, because the glitch risk is around the LFCLK positive edge. To ensure
 194:.\Generated_Source\PSoC4/CyLFClk.c **** *  that the switch can be done safely, the WDT counter value is read until it
 195:.\Generated_Source\PSoC4/CyLFClk.c **** *  changes.
 196:.\Generated_Source\PSoC4/CyLFClk.c **** *
 197:.\Generated_Source\PSoC4/CyLFClk.c **** *  That means that the positive edge just finished and the switch is performed.
 198:.\Generated_Source\PSoC4/CyLFClk.c **** *  The enabled WDT counter is used for that purpose. If no counters are enabled,
 199:.\Generated_Source\PSoC4/CyLFClk.c **** *  counter 0 is enabled. And after the LFCLK source is switched, counter 0
 200:.\Generated_Source\PSoC4/CyLFClk.c **** *  configuration is restored.
 201:.\Generated_Source\PSoC4/CyLFClk.c **** *
 202:.\Generated_Source\PSoC4/CyLFClk.c **** *  The function is applicable only for PSoC 4100-BL and PSoC 4200-BL.
 203:.\Generated_Source\PSoC4/CyLFClk.c **** *
 204:.\Generated_Source\PSoC4/CyLFClk.c **** * Parameters:
 205:.\Generated_Source\PSoC4/CyLFClk.c **** *  source: One of the available LFCLK sources.
 206:.\Generated_Source\PSoC4/CyLFClk.c **** *   CY_SYS_CLK_LFCLK_SRC_ILO    Internal Low Frequency (32 kHz) Oscillator (ILO)
 207:.\Generated_Source\PSoC4/CyLFClk.c **** *   CY_SYS_CLK_LFCLK_SRC_WCO    Low Frequency Watch Crystal Oscillator (WCO)
 208:.\Generated_Source\PSoC4/CyLFClk.c **** *
 209:.\Generated_Source\PSoC4/CyLFClk.c **** * Return:
 210:.\Generated_Source\PSoC4/CyLFClk.c **** *  None
 211:.\Generated_Source\PSoC4/CyLFClk.c **** *
 212:.\Generated_Source\PSoC4/CyLFClk.c **** * Side Effects:
 213:.\Generated_Source\PSoC4/CyLFClk.c **** *  This function has no effect if WDT is locked (CySysWdtLock() is
 214:.\Generated_Source\PSoC4/CyLFClk.c **** *  called). Call CySysWdtUnlock() to unlock WDT.
 215:.\Generated_Source\PSoC4/CyLFClk.c **** *
 216:.\Generated_Source\PSoC4/CyLFClk.c **** *  Both the current source and the new source must be running and stable before
 217:.\Generated_Source\PSoC4/CyLFClk.c **** *  calling this function.
 218:.\Generated_Source\PSoC4/CyLFClk.c **** *
 219:.\Generated_Source\PSoC4/CyLFClk.c **** *  Changing the LFCLK clock source may change the LFCLK clock frequency and
 220:.\Generated_Source\PSoC4/CyLFClk.c **** *  affect the functionality that uses this clock. For example, watchdog timer
 221:.\Generated_Source\PSoC4/CyLFClk.c **** *  "uses this clock" or "this clock uses" (WDT) is clocked by LFCLK.
 222:.\Generated_Source\PSoC4/CyLFClk.c **** *
 223:.\Generated_Source\PSoC4/CyLFClk.c **** *******************************************************************************/
 224:.\Generated_Source\PSoC4/CyLFClk.c **** #if (CY_IP_WCO)
 225:.\Generated_Source\PSoC4/CyLFClk.c ****     void CySysClkSetLfclkSource(uint32 source)
 226:.\Generated_Source\PSoC4/CyLFClk.c ****     {
 227:.\Generated_Source\PSoC4/CyLFClk.c ****         uint8  interruptState;
 228:.\Generated_Source\PSoC4/CyLFClk.c **** 
 229:.\Generated_Source\PSoC4/CyLFClk.c ****         if (CySysClkGetLfclkSource() != source)
 230:.\Generated_Source\PSoC4/CyLFClk.c ****         {
ARM GAS  C:\Users\Jarik\AppData\Local\Temp\ccPjN50m.s 			page 6


 231:.\Generated_Source\PSoC4/CyLFClk.c ****             interruptState = CyEnterCriticalSection();
 232:.\Generated_Source\PSoC4/CyLFClk.c **** 
 233:.\Generated_Source\PSoC4/CyLFClk.c ****             CySysClkLfclkPosedgeCatch();
 234:.\Generated_Source\PSoC4/CyLFClk.c **** 
 235:.\Generated_Source\PSoC4/CyLFClk.c ****             CY_SYS_WDT_CONFIG_REG = (CY_SYS_WDT_CONFIG_REG & (uint32)(~CY_SYS_CLK_LFCLK_SEL_MASK)) 
 236:.\Generated_Source\PSoC4/CyLFClk.c ****                                     (source & CY_SYS_CLK_LFCLK_SEL_MASK);
 237:.\Generated_Source\PSoC4/CyLFClk.c **** 
 238:.\Generated_Source\PSoC4/CyLFClk.c ****             CySysClkLfclkPosedgeRestore();
 239:.\Generated_Source\PSoC4/CyLFClk.c **** 
 240:.\Generated_Source\PSoC4/CyLFClk.c ****             CyExitCriticalSection(interruptState);
 241:.\Generated_Source\PSoC4/CyLFClk.c ****         }
 242:.\Generated_Source\PSoC4/CyLFClk.c ****     }
 243:.\Generated_Source\PSoC4/CyLFClk.c **** #endif /* (CY_IP_WCO) */
 244:.\Generated_Source\PSoC4/CyLFClk.c **** 
 245:.\Generated_Source\PSoC4/CyLFClk.c **** 
 246:.\Generated_Source\PSoC4/CyLFClk.c **** #if (CY_IP_WCO)
 247:.\Generated_Source\PSoC4/CyLFClk.c ****     /*******************************************************************************
 248:.\Generated_Source\PSoC4/CyLFClk.c ****     * Function Name: CySysClkWcoStart
 249:.\Generated_Source\PSoC4/CyLFClk.c ****     ********************************************************************************
 250:.\Generated_Source\PSoC4/CyLFClk.c ****     *
 251:.\Generated_Source\PSoC4/CyLFClk.c ****     * Summary:
 252:.\Generated_Source\PSoC4/CyLFClk.c ****     *  Enables Watch Crystal Oscillator (WCO). WCO is used as a source for
 253:.\Generated_Source\PSoC4/CyLFClk.c ****     *  LFCLK.  Similar to ILO, WCO is also available in all modes except Hibernate
 254:.\Generated_Source\PSoC4/CyLFClk.c ****     *  and Stop modes.
 255:.\Generated_Source\PSoC4/CyLFClk.c ****     *
 256:.\Generated_Source\PSoC4/CyLFClk.c ****     *  WCO is always enabled in High Power Mode (HPM). Refer to the device
 257:.\Generated_Source\PSoC4/CyLFClk.c ****     *  datasheet for the  WCO startup time. Once WCO becomes stable it can be
 258:.\Generated_Source\PSoC4/CyLFClk.c ****     *  switched to Low Power Mode (LPM). Note that oscillator can be unstable
 259:.\Generated_Source\PSoC4/CyLFClk.c ****     *  during a switch and hence its output should not be used at that moment.
 260:.\Generated_Source\PSoC4/CyLFClk.c ****     *
 261:.\Generated_Source\PSoC4/CyLFClk.c ****     *  The CySysClkWcoSetPowerMode() function configures the WCO power mode.
 262:.\Generated_Source\PSoC4/CyLFClk.c ****     *
 263:.\Generated_Source\PSoC4/CyLFClk.c ****     * Parameters:
 264:.\Generated_Source\PSoC4/CyLFClk.c ****     *  None.
 265:.\Generated_Source\PSoC4/CyLFClk.c ****     *
 266:.\Generated_Source\PSoC4/CyLFClk.c ****     * Return:
 267:.\Generated_Source\PSoC4/CyLFClk.c ****     *  None.
 268:.\Generated_Source\PSoC4/CyLFClk.c ****     *
 269:.\Generated_Source\PSoC4/CyLFClk.c ****     *******************************************************************************/
 270:.\Generated_Source\PSoC4/CyLFClk.c ****     void CySysClkWcoStart(void)
 271:.\Generated_Source\PSoC4/CyLFClk.c ****     {
 272:.\Generated_Source\PSoC4/CyLFClk.c ****         CySysClkWcoSetHighPowerMode();
 273:.\Generated_Source\PSoC4/CyLFClk.c ****         CY_SYS_CLK_WCO_CONFIG_REG |= CY_SYS_CLK_WCO_CONFIG_LPM_ENABLE;
 274:.\Generated_Source\PSoC4/CyLFClk.c ****     }
 275:.\Generated_Source\PSoC4/CyLFClk.c **** 
 276:.\Generated_Source\PSoC4/CyLFClk.c **** 
 277:.\Generated_Source\PSoC4/CyLFClk.c ****     /*******************************************************************************
 278:.\Generated_Source\PSoC4/CyLFClk.c ****     * Function Name: CySysClkWcoStop
 279:.\Generated_Source\PSoC4/CyLFClk.c ****     ********************************************************************************
 280:.\Generated_Source\PSoC4/CyLFClk.c ****     *
 281:.\Generated_Source\PSoC4/CyLFClk.c ****     * Summary:
 282:.\Generated_Source\PSoC4/CyLFClk.c ****     *  Disables the 32KHz Crystal Oscillator.
 283:.\Generated_Source\PSoC4/CyLFClk.c ****     *
 284:.\Generated_Source\PSoC4/CyLFClk.c ****     * Parameters:
 285:.\Generated_Source\PSoC4/CyLFClk.c ****     *  None.
 286:.\Generated_Source\PSoC4/CyLFClk.c ****     *
 287:.\Generated_Source\PSoC4/CyLFClk.c ****     * Return:
ARM GAS  C:\Users\Jarik\AppData\Local\Temp\ccPjN50m.s 			page 7


 288:.\Generated_Source\PSoC4/CyLFClk.c ****     *  None.
 289:.\Generated_Source\PSoC4/CyLFClk.c ****     *
 290:.\Generated_Source\PSoC4/CyLFClk.c ****     *******************************************************************************/
 291:.\Generated_Source\PSoC4/CyLFClk.c ****     void  CySysClkWcoStop(void)
 292:.\Generated_Source\PSoC4/CyLFClk.c ****     {
 293:.\Generated_Source\PSoC4/CyLFClk.c ****         uint8  interruptState;
 294:.\Generated_Source\PSoC4/CyLFClk.c **** 
 295:.\Generated_Source\PSoC4/CyLFClk.c ****         if (0u != CySysClkWcoEnabled())
 296:.\Generated_Source\PSoC4/CyLFClk.c ****         {
 297:.\Generated_Source\PSoC4/CyLFClk.c **** 
 298:.\Generated_Source\PSoC4/CyLFClk.c ****             if (CY_SYS_CLK_LFCLK_SRC_WCO == CySysClkGetLfclkSource())
 299:.\Generated_Source\PSoC4/CyLFClk.c ****             {
 300:.\Generated_Source\PSoC4/CyLFClk.c ****                 interruptState = CyEnterCriticalSection();
 301:.\Generated_Source\PSoC4/CyLFClk.c ****                 CySysClkLfclkPosedgeCatch();
 302:.\Generated_Source\PSoC4/CyLFClk.c ****                 CY_SYS_CLK_WCO_CONFIG_REG &= (uint32) ~CY_SYS_CLK_WCO_CONFIG_LPM_ENABLE;
 303:.\Generated_Source\PSoC4/CyLFClk.c ****                 CySysClkLfclkPosedgeRestore();
 304:.\Generated_Source\PSoC4/CyLFClk.c ****                 CyExitCriticalSection(interruptState);
 305:.\Generated_Source\PSoC4/CyLFClk.c ****             }
 306:.\Generated_Source\PSoC4/CyLFClk.c ****             else /* Safe to disable - shortened pulse does not impact peripheral */
 307:.\Generated_Source\PSoC4/CyLFClk.c ****             {
 308:.\Generated_Source\PSoC4/CyLFClk.c ****                 CY_SYS_CLK_WCO_CONFIG_REG &= (uint32) ~CY_SYS_CLK_WCO_CONFIG_LPM_ENABLE;
 309:.\Generated_Source\PSoC4/CyLFClk.c ****             }
 310:.\Generated_Source\PSoC4/CyLFClk.c ****         } /* Otherwise do nothing. WCO configuration cannot be changed. */
 311:.\Generated_Source\PSoC4/CyLFClk.c ****     }
 312:.\Generated_Source\PSoC4/CyLFClk.c **** 
 313:.\Generated_Source\PSoC4/CyLFClk.c **** 
 314:.\Generated_Source\PSoC4/CyLFClk.c ****     /*******************************************************************************
 315:.\Generated_Source\PSoC4/CyLFClk.c ****     * Function Name: CySysClkWcoEnabled
 316:.\Generated_Source\PSoC4/CyLFClk.c ****     ********************************************************************************
 317:.\Generated_Source\PSoC4/CyLFClk.c ****     *
 318:.\Generated_Source\PSoC4/CyLFClk.c ****     * Summary:
 319:.\Generated_Source\PSoC4/CyLFClk.c ****     *  Reports the WCO enable state.
 320:.\Generated_Source\PSoC4/CyLFClk.c ****     *
 321:.\Generated_Source\PSoC4/CyLFClk.c ****     * Parameters:
 322:.\Generated_Source\PSoC4/CyLFClk.c ****     *  None.
 323:.\Generated_Source\PSoC4/CyLFClk.c ****     *
 324:.\Generated_Source\PSoC4/CyLFClk.c ****     * Return:
 325:.\Generated_Source\PSoC4/CyLFClk.c ****     *  1 if WCO is enabled, and 0 if WCO is disabled.
 326:.\Generated_Source\PSoC4/CyLFClk.c ****     *
 327:.\Generated_Source\PSoC4/CyLFClk.c ****     *******************************************************************************/
 328:.\Generated_Source\PSoC4/CyLFClk.c ****     uint32 CySysClkWcoEnabled(void)
 329:.\Generated_Source\PSoC4/CyLFClk.c ****     {
 330:.\Generated_Source\PSoC4/CyLFClk.c ****         return ((0u != (CY_SYS_CLK_WCO_CONFIG_REG & (uint32)(CY_SYS_CLK_WCO_CONFIG_LPM_ENABLE))) ?
 331:.\Generated_Source\PSoC4/CyLFClk.c ****                 (uint32) 1u :
 332:.\Generated_Source\PSoC4/CyLFClk.c ****                 (uint32) 0u);
 333:.\Generated_Source\PSoC4/CyLFClk.c ****     }
 334:.\Generated_Source\PSoC4/CyLFClk.c **** 
 335:.\Generated_Source\PSoC4/CyLFClk.c **** 
 336:.\Generated_Source\PSoC4/CyLFClk.c ****     /*******************************************************************************
 337:.\Generated_Source\PSoC4/CyLFClk.c ****     * Function Name: CySysClkWcoSetPowerMode
 338:.\Generated_Source\PSoC4/CyLFClk.c ****     ********************************************************************************
 339:.\Generated_Source\PSoC4/CyLFClk.c ****     *
 340:.\Generated_Source\PSoC4/CyLFClk.c ****     * Summary:
 341:.\Generated_Source\PSoC4/CyLFClk.c ****     *  Sets the power mode for the 32 KHz WCO.
 342:.\Generated_Source\PSoC4/CyLFClk.c ****     *
 343:.\Generated_Source\PSoC4/CyLFClk.c ****     * Parameters:
 344:.\Generated_Source\PSoC4/CyLFClk.c ****     *  uint32 mode:
ARM GAS  C:\Users\Jarik\AppData\Local\Temp\ccPjN50m.s 			page 8


 345:.\Generated_Source\PSoC4/CyLFClk.c ****     *   CY_SYS_CLK_WCO_HPM  - The High Power mode
 346:.\Generated_Source\PSoC4/CyLFClk.c ****     *   CY_SYS_CLK_WCO_LPM  - The Low Power mode(not applicable for
 347:.\Generated_Source\PSoC4/CyLFClk.c ****     *                         PSoC 4100M / PSoC 4200M devices)
 348:.\Generated_Source\PSoC4/CyLFClk.c ****     *
 349:.\Generated_Source\PSoC4/CyLFClk.c ****     * Return:
 350:.\Generated_Source\PSoC4/CyLFClk.c ****     *  A previous power mode. The same as the parameters.
 351:.\Generated_Source\PSoC4/CyLFClk.c ****     *
 352:.\Generated_Source\PSoC4/CyLFClk.c ****     * Note:
 353:.\Generated_Source\PSoC4/CyLFClk.c ****     *  The WCO Low power mode is not applicable for the PSoC 4100M/PSoC 4200M
 354:.\Generated_Source\PSoC4/CyLFClk.c ****     *  devices.
 355:.\Generated_Source\PSoC4/CyLFClk.c ****     *
 356:.\Generated_Source\PSoC4/CyLFClk.c ****     *******************************************************************************/
 357:.\Generated_Source\PSoC4/CyLFClk.c ****     uint32 CySysClkWcoSetPowerMode(uint32 mode)
 358:.\Generated_Source\PSoC4/CyLFClk.c ****     {
 359:.\Generated_Source\PSoC4/CyLFClk.c ****         uint32 status;
 360:.\Generated_Source\PSoC4/CyLFClk.c **** 
 361:.\Generated_Source\PSoC4/CyLFClk.c ****         status = CY_SYS_CLK_WCO_CONFIG_REG & CY_SYS_CLK_WCO_CONFIG_LPM_EN;
 362:.\Generated_Source\PSoC4/CyLFClk.c **** 
 363:.\Generated_Source\PSoC4/CyLFClk.c ****         switch(mode)
 364:.\Generated_Source\PSoC4/CyLFClk.c ****         {
 365:.\Generated_Source\PSoC4/CyLFClk.c ****         case CY_SYS_CLK_WCO_HPM:
 366:.\Generated_Source\PSoC4/CyLFClk.c ****                 CySysClkWcoSetHighPowerMode();
 367:.\Generated_Source\PSoC4/CyLFClk.c ****             break;
 368:.\Generated_Source\PSoC4/CyLFClk.c **** 
 369:.\Generated_Source\PSoC4/CyLFClk.c ****         #if(!CY_PSOC4_4100M && !CY_PSOC4_4200M)
 370:.\Generated_Source\PSoC4/CyLFClk.c ****             case CY_SYS_CLK_WCO_LPM:
 371:.\Generated_Source\PSoC4/CyLFClk.c ****                     CySysClkWcoSetLowPowerMode();
 372:.\Generated_Source\PSoC4/CyLFClk.c ****                 break;
 373:.\Generated_Source\PSoC4/CyLFClk.c ****         #endif /* (!CY_PSOC4_4100M && !CY_PSOC4_4200M) */
 374:.\Generated_Source\PSoC4/CyLFClk.c **** 
 375:.\Generated_Source\PSoC4/CyLFClk.c ****         default:
 376:.\Generated_Source\PSoC4/CyLFClk.c ****             CYASSERT(0u != 0u);
 377:.\Generated_Source\PSoC4/CyLFClk.c ****             break;
 378:.\Generated_Source\PSoC4/CyLFClk.c ****         }
 379:.\Generated_Source\PSoC4/CyLFClk.c **** 
 380:.\Generated_Source\PSoC4/CyLFClk.c ****         return (status);
 381:.\Generated_Source\PSoC4/CyLFClk.c ****     }
 382:.\Generated_Source\PSoC4/CyLFClk.c **** 
 383:.\Generated_Source\PSoC4/CyLFClk.c **** #endif  /* (CY_IP_WCO) */
 384:.\Generated_Source\PSoC4/CyLFClk.c **** 
 385:.\Generated_Source\PSoC4/CyLFClk.c **** 
 386:.\Generated_Source\PSoC4/CyLFClk.c **** #if(CY_IP_SRSSV2)
 387:.\Generated_Source\PSoC4/CyLFClk.c **** 
 388:.\Generated_Source\PSoC4/CyLFClk.c **** 
 389:.\Generated_Source\PSoC4/CyLFClk.c ****     /*******************************************************************************
 390:.\Generated_Source\PSoC4/CyLFClk.c ****     * Function Name: CySysWdtLock
 391:.\Generated_Source\PSoC4/CyLFClk.c ****     ********************************************************************************
 392:.\Generated_Source\PSoC4/CyLFClk.c ****     *
 393:.\Generated_Source\PSoC4/CyLFClk.c ****     * Summary:
 394:.\Generated_Source\PSoC4/CyLFClk.c ****     *  Locks out configuration changes to the Watchdog timer registers and ILO
 395:.\Generated_Source\PSoC4/CyLFClk.c ****     *  configuration register.
 396:.\Generated_Source\PSoC4/CyLFClk.c ****     *
 397:.\Generated_Source\PSoC4/CyLFClk.c ****     * Parameters:
 398:.\Generated_Source\PSoC4/CyLFClk.c ****     *  None.
 399:.\Generated_Source\PSoC4/CyLFClk.c ****     *
 400:.\Generated_Source\PSoC4/CyLFClk.c ****     * Return:
 401:.\Generated_Source\PSoC4/CyLFClk.c ****     *  None.
ARM GAS  C:\Users\Jarik\AppData\Local\Temp\ccPjN50m.s 			page 9


 402:.\Generated_Source\PSoC4/CyLFClk.c ****     *
 403:.\Generated_Source\PSoC4/CyLFClk.c ****     * Side effects:
 404:.\Generated_Source\PSoC4/CyLFClk.c ****     *  After this function is called, ILO clock can't be disabled until
 405:.\Generated_Source\PSoC4/CyLFClk.c ****     *  CySysWdtUnlock() is called.
 406:.\Generated_Source\PSoC4/CyLFClk.c ****     *
 407:.\Generated_Source\PSoC4/CyLFClk.c ****     *******************************************************************************/
 408:.\Generated_Source\PSoC4/CyLFClk.c ****     void CySysWdtLock(void)
 409:.\Generated_Source\PSoC4/CyLFClk.c ****     {
  55              		.loc 1 409 0
  56              		.cfi_startproc
  57 0000 08B5     		push	{r3, lr}
  58              		.cfi_def_cfa_offset 8
  59              		.cfi_offset 3, -8
  60              		.cfi_offset 14, -4
 410:.\Generated_Source\PSoC4/CyLFClk.c ****         uint8 interruptState;
 411:.\Generated_Source\PSoC4/CyLFClk.c ****         interruptState = CyEnterCriticalSection();
  61              		.loc 1 411 0
  62 0002 FFF7FEFF 		bl	CyEnterCriticalSection
  63              	.LVL0:
 412:.\Generated_Source\PSoC4/CyLFClk.c **** 
 413:.\Generated_Source\PSoC4/CyLFClk.c ****         CY_SYS_CLK_SELECT_REG = (CY_SYS_CLK_SELECT_REG & (uint32)(~CY_SYS_WDT_CLK_LOCK_BITS_MASK)) 
  64              		.loc 1 413 0
  65 0006 C021     		mov	r1, #192
  66 0008 034A     		ldr	r2, .L5
  67 000a 0902     		lsl	r1, r1, #8
  68 000c 1368     		ldr	r3, [r2]
 414:.\Generated_Source\PSoC4/CyLFClk.c ****                  CY_SYS_WDT_CLK_LOCK_BITS_MASK;
 415:.\Generated_Source\PSoC4/CyLFClk.c **** 
 416:.\Generated_Source\PSoC4/CyLFClk.c ****         CyExitCriticalSection(interruptState);
 417:.\Generated_Source\PSoC4/CyLFClk.c ****     }
  69              		.loc 1 417 0
  70              		@ sp needed
 413:.\Generated_Source\PSoC4/CyLFClk.c ****                  CY_SYS_WDT_CLK_LOCK_BITS_MASK;
  71              		.loc 1 413 0
  72 000e 0B43     		orr	r3, r1
  73 0010 1360     		str	r3, [r2]
 416:.\Generated_Source\PSoC4/CyLFClk.c ****     }
  74              		.loc 1 416 0
  75 0012 FFF7FEFF 		bl	CyExitCriticalSection
  76              	.LVL1:
  77              		.loc 1 417 0
  78 0016 08BD     		pop	{r3, pc}
  79              	.L6:
  80              		.align	2
  81              	.L5:
  82 0018 00010B40 		.word	1074462976
  83              		.cfi_endproc
  84              	.LFE3:
  85              		.size	CySysWdtLock, .-CySysWdtLock
  86              		.section	.text.CySysWdtUnlock,"ax",%progbits
  87              		.align	1
  88              		.global	CySysWdtUnlock
  89              		.code	16
  90              		.thumb_func
  91              		.type	CySysWdtUnlock, %function
  92              	CySysWdtUnlock:
  93              	.LFB5:
ARM GAS  C:\Users\Jarik\AppData\Local\Temp\ccPjN50m.s 			page 10


 418:.\Generated_Source\PSoC4/CyLFClk.c **** 
 419:.\Generated_Source\PSoC4/CyLFClk.c **** 
 420:.\Generated_Source\PSoC4/CyLFClk.c ****     /*******************************************************************************
 421:.\Generated_Source\PSoC4/CyLFClk.c ****     * Function Name: CySysWdtLocked
 422:.\Generated_Source\PSoC4/CyLFClk.c ****     ********************************************************************************
 423:.\Generated_Source\PSoC4/CyLFClk.c ****     *
 424:.\Generated_Source\PSoC4/CyLFClk.c ****     * Summary:
 425:.\Generated_Source\PSoC4/CyLFClk.c ****     *  Reports the WDT lock state.
 426:.\Generated_Source\PSoC4/CyLFClk.c ****     *
 427:.\Generated_Source\PSoC4/CyLFClk.c ****     * Parameters:
 428:.\Generated_Source\PSoC4/CyLFClk.c ****     *  None
 429:.\Generated_Source\PSoC4/CyLFClk.c ****     *
 430:.\Generated_Source\PSoC4/CyLFClk.c ****     * Return:
 431:.\Generated_Source\PSoC4/CyLFClk.c ****     *  1 - WDT is locked, and 0 - WDT is unlocked.
 432:.\Generated_Source\PSoC4/CyLFClk.c ****     *
 433:.\Generated_Source\PSoC4/CyLFClk.c ****     *******************************************************************************/
 434:.\Generated_Source\PSoC4/CyLFClk.c ****     static uint32 CySysWdtLocked(void)
 435:.\Generated_Source\PSoC4/CyLFClk.c ****     {
 436:.\Generated_Source\PSoC4/CyLFClk.c ****         /* Prohibits writing to WDT registers and ILO/WCO registers when not equal 0 */
 437:.\Generated_Source\PSoC4/CyLFClk.c ****         return ((0u != (CY_SYS_CLK_SELECT_REG & (uint32)(CY_SYS_WDT_CLK_LOCK_BITS_MASK))) ? (uint32
 438:.\Generated_Source\PSoC4/CyLFClk.c ****     }
 439:.\Generated_Source\PSoC4/CyLFClk.c **** 
 440:.\Generated_Source\PSoC4/CyLFClk.c **** 
 441:.\Generated_Source\PSoC4/CyLFClk.c ****     /*******************************************************************************
 442:.\Generated_Source\PSoC4/CyLFClk.c ****     * Function Name: CySysWdtUnlock
 443:.\Generated_Source\PSoC4/CyLFClk.c ****     ********************************************************************************
 444:.\Generated_Source\PSoC4/CyLFClk.c ****     *
 445:.\Generated_Source\PSoC4/CyLFClk.c ****     * Summary:
 446:.\Generated_Source\PSoC4/CyLFClk.c ****     *  Unlocks the Watchdog Timer configuration register.
 447:.\Generated_Source\PSoC4/CyLFClk.c ****     *
 448:.\Generated_Source\PSoC4/CyLFClk.c ****     * Parameters:
 449:.\Generated_Source\PSoC4/CyLFClk.c ****     *  None.
 450:.\Generated_Source\PSoC4/CyLFClk.c ****     *
 451:.\Generated_Source\PSoC4/CyLFClk.c ****     * Return:
 452:.\Generated_Source\PSoC4/CyLFClk.c ****     *  None.
 453:.\Generated_Source\PSoC4/CyLFClk.c ****     *
 454:.\Generated_Source\PSoC4/CyLFClk.c ****     *******************************************************************************/
 455:.\Generated_Source\PSoC4/CyLFClk.c ****     void CySysWdtUnlock(void)
 456:.\Generated_Source\PSoC4/CyLFClk.c ****     {
  94              		.loc 1 456 0
  95              		.cfi_startproc
  96 0000 10B5     		push	{r4, lr}
  97              		.cfi_def_cfa_offset 8
  98              		.cfi_offset 4, -8
  99              		.cfi_offset 14, -4
 457:.\Generated_Source\PSoC4/CyLFClk.c ****         uint8 interruptState;
 458:.\Generated_Source\PSoC4/CyLFClk.c ****         interruptState = CyEnterCriticalSection();
 459:.\Generated_Source\PSoC4/CyLFClk.c **** 
 460:.\Generated_Source\PSoC4/CyLFClk.c ****         /* Removing WDT lock requires two writes */
 461:.\Generated_Source\PSoC4/CyLFClk.c ****         CY_SYS_CLK_SELECT_REG = ((CY_SYS_CLK_SELECT_REG & (uint32)(~CY_SYS_WDT_CLK_LOCK_BITS_MASK))
 100              		.loc 1 461 0
 101 0002 8024     		mov	r4, #128
 458:.\Generated_Source\PSoC4/CyLFClk.c **** 
 102              		.loc 1 458 0
 103 0004 FFF7FEFF 		bl	CyEnterCriticalSection
 104              	.LVL2:
 105              		.loc 1 461 0
ARM GAS  C:\Users\Jarik\AppData\Local\Temp\ccPjN50m.s 			page 11


 106 0008 0749     		ldr	r1, .L8
 107 000a 084B     		ldr	r3, .L8+4
 108 000c 0A68     		ldr	r2, [r1]
 109 000e E401     		lsl	r4, r4, #7
 110 0010 1A40     		and	r2, r3
 111 0012 2243     		orr	r2, r4
 112 0014 0A60     		str	r2, [r1]
 462:.\Generated_Source\PSoC4/CyLFClk.c ****                 CY_SYS_WDT_CLK_LOCK_BIT0);
 463:.\Generated_Source\PSoC4/CyLFClk.c **** 
 464:.\Generated_Source\PSoC4/CyLFClk.c ****         CY_SYS_CLK_SELECT_REG = ((CY_SYS_CLK_SELECT_REG & (uint32)(~CY_SYS_WDT_CLK_LOCK_BITS_MASK))
 113              		.loc 1 464 0
 114 0016 0A68     		ldr	r2, [r1]
 465:.\Generated_Source\PSoC4/CyLFClk.c ****                 CY_SYS_WDT_CLK_LOCK_BIT1);
 466:.\Generated_Source\PSoC4/CyLFClk.c **** 
 467:.\Generated_Source\PSoC4/CyLFClk.c ****         CyExitCriticalSection(interruptState);
 468:.\Generated_Source\PSoC4/CyLFClk.c ****     }
 115              		.loc 1 468 0
 116              		@ sp needed
 464:.\Generated_Source\PSoC4/CyLFClk.c ****                 CY_SYS_WDT_CLK_LOCK_BIT1);
 117              		.loc 1 464 0
 118 0018 1340     		and	r3, r2
 119 001a 8022     		mov	r2, #128
 120 001c 1202     		lsl	r2, r2, #8
 121 001e 1343     		orr	r3, r2
 122 0020 0B60     		str	r3, [r1]
 467:.\Generated_Source\PSoC4/CyLFClk.c ****     }
 123              		.loc 1 467 0
 124 0022 FFF7FEFF 		bl	CyExitCriticalSection
 125              	.LVL3:
 126              		.loc 1 468 0
 127 0026 10BD     		pop	{r4, pc}
 128              	.L9:
 129              		.align	2
 130              	.L8:
 131 0028 00010B40 		.word	1074462976
 132 002c FF3FFFFF 		.word	-49153
 133              		.cfi_endproc
 134              	.LFE5:
 135              		.size	CySysWdtUnlock, .-CySysWdtUnlock
 136              		.section	.text.CySysWdtGetEnabledStatus,"ax",%progbits
 137              		.align	1
 138              		.global	CySysWdtGetEnabledStatus
 139              		.code	16
 140              		.thumb_func
 141              		.type	CySysWdtGetEnabledStatus, %function
 142              	CySysWdtGetEnabledStatus:
 143              	.LFB6:
 469:.\Generated_Source\PSoC4/CyLFClk.c **** 
 470:.\Generated_Source\PSoC4/CyLFClk.c **** 
 471:.\Generated_Source\PSoC4/CyLFClk.c ****     /*******************************************************************************
 472:.\Generated_Source\PSoC4/CyLFClk.c ****     * Function Name: CySysWdtGetEnabledStatus
 473:.\Generated_Source\PSoC4/CyLFClk.c ****     ********************************************************************************
 474:.\Generated_Source\PSoC4/CyLFClk.c ****     *
 475:.\Generated_Source\PSoC4/CyLFClk.c ****     * Summary:
 476:.\Generated_Source\PSoC4/CyLFClk.c ****     *  Reads the enabled status of one of the three WDT counters.
 477:.\Generated_Source\PSoC4/CyLFClk.c ****     *
 478:.\Generated_Source\PSoC4/CyLFClk.c ****     * Parameters:
ARM GAS  C:\Users\Jarik\AppData\Local\Temp\ccPjN50m.s 			page 12


 479:.\Generated_Source\PSoC4/CyLFClk.c ****     *  counterNum: Valid range [0-2].  the number of the WDT counter.
 480:.\Generated_Source\PSoC4/CyLFClk.c ****     *
 481:.\Generated_Source\PSoC4/CyLFClk.c ****     * Return:
 482:.\Generated_Source\PSoC4/CyLFClk.c ****     *  The status of the WDT counter:
 483:.\Generated_Source\PSoC4/CyLFClk.c ****     *   0 - The counter is disabled.
 484:.\Generated_Source\PSoC4/CyLFClk.c ****     *   1 - The counter is enabled.
 485:.\Generated_Source\PSoC4/CyLFClk.c ****     *
 486:.\Generated_Source\PSoC4/CyLFClk.c ****     * Side Effects:
 487:.\Generated_Source\PSoC4/CyLFClk.c ****     *  This function returns an actual WDT counter status from the status register. It may
 488:.\Generated_Source\PSoC4/CyLFClk.c ****     *  take up to 3 LFCLK cycles for the WDT status register to contain actual data
 489:.\Generated_Source\PSoC4/CyLFClk.c ****     *  after the WDT counter is enabled.
 490:.\Generated_Source\PSoC4/CyLFClk.c ****     *
 491:.\Generated_Source\PSoC4/CyLFClk.c ****     *
 492:.\Generated_Source\PSoC4/CyLFClk.c ****     *******************************************************************************/
 493:.\Generated_Source\PSoC4/CyLFClk.c ****     uint32 CySysWdtGetEnabledStatus(uint32 counterNum)
 494:.\Generated_Source\PSoC4/CyLFClk.c ****     {
 144              		.loc 1 494 0
 145              		.cfi_startproc
 146              	.LVL4:
 495:.\Generated_Source\PSoC4/CyLFClk.c ****         CYASSERT(counterNum < CY_SYS_WDT_COUNTERS_MAX);
 496:.\Generated_Source\PSoC4/CyLFClk.c ****         return ((CY_SYS_WDT_CONTROL_REG >> ((CY_SYS_WDT_CNT_SHIFT * counterNum) + CY_SYS_WDT_CNT_ST
 147              		.loc 1 496 0
 148 0000 044B     		ldr	r3, .L11
 149 0002 C000     		lsl	r0, r0, #3
 150              	.LVL5:
 151 0004 1B68     		ldr	r3, [r3]
 152 0006 0130     		add	r0, r0, #1
 153 0008 C340     		lsr	r3, r3, r0
 154 000a 181C     		mov	r0, r3
 155 000c 0123     		mov	r3, #1
 497:.\Generated_Source\PSoC4/CyLFClk.c ****     }
 156              		.loc 1 497 0
 157              		@ sp needed
 496:.\Generated_Source\PSoC4/CyLFClk.c ****     }
 158              		.loc 1 496 0
 159 000e 1840     		and	r0, r3
 160              		.loc 1 497 0
 161 0010 7047     		bx	lr
 162              	.L12:
 163 0012 C046     		.align	2
 164              	.L11:
 165 0014 10020B40 		.word	1074463248
 166              		.cfi_endproc
 167              	.LFE6:
 168              		.size	CySysWdtGetEnabledStatus, .-CySysWdtGetEnabledStatus
 169              		.section	.text.CySysWdtSetMode,"ax",%progbits
 170              		.align	1
 171              		.global	CySysWdtSetMode
 172              		.code	16
 173              		.thumb_func
 174              		.type	CySysWdtSetMode, %function
 175              	CySysWdtSetMode:
 176              	.LFB7:
 498:.\Generated_Source\PSoC4/CyLFClk.c **** 
 499:.\Generated_Source\PSoC4/CyLFClk.c **** 
 500:.\Generated_Source\PSoC4/CyLFClk.c ****     /*******************************************************************************
 501:.\Generated_Source\PSoC4/CyLFClk.c ****     * Function Name: CySysWdtSetMode
ARM GAS  C:\Users\Jarik\AppData\Local\Temp\ccPjN50m.s 			page 13


 502:.\Generated_Source\PSoC4/CyLFClk.c ****     ********************************************************************************
 503:.\Generated_Source\PSoC4/CyLFClk.c ****     *
 504:.\Generated_Source\PSoC4/CyLFClk.c ****     * Summary:
 505:.\Generated_Source\PSoC4/CyLFClk.c ****     *   Writes the mode of one of the three WDT counters.
 506:.\Generated_Source\PSoC4/CyLFClk.c ****     *
 507:.\Generated_Source\PSoC4/CyLFClk.c ****     * Parameters:
 508:.\Generated_Source\PSoC4/CyLFClk.c ****     *   counterNum: Valid range [0-2].  The number of the WDT counter.
 509:.\Generated_Source\PSoC4/CyLFClk.c ****     *   mode:       Mode of operation for the counter.
 510:.\Generated_Source\PSoC4/CyLFClk.c ****     *       Define                     Mode
 511:.\Generated_Source\PSoC4/CyLFClk.c ****     *        CY_SYS_WDT_MODE_NONE       Free running
 512:.\Generated_Source\PSoC4/CyLFClk.c ****     *        CY_SYS_WDT_MODE_INT        The interrupt generated on match for counter 0
 513:.\Generated_Source\PSoC4/CyLFClk.c ****     *                                   and 1, and on bit toggle for counter 2.
 514:.\Generated_Source\PSoC4/CyLFClk.c ****     *        CY_SYS_WDT_MODE_RESET      Reset on match (valid for counter 0 and 1
 515:.\Generated_Source\PSoC4/CyLFClk.c ****     *                                   only)
 516:.\Generated_Source\PSoC4/CyLFClk.c ****     *        CY_SYS_WDT_MODE_INT_RESET  Generate an interrupt.  Generate a reset on
 517:.\Generated_Source\PSoC4/CyLFClk.c ****     *                                   the 3rd non-handled interrupt.
 518:.\Generated_Source\PSoC4/CyLFClk.c ****     *                                   (valid for counter 0 and 1 only)
 519:.\Generated_Source\PSoC4/CyLFClk.c ****     * Return:
 520:.\Generated_Source\PSoC4/CyLFClk.c ****     *   None.
 521:.\Generated_Source\PSoC4/CyLFClk.c ****     *
 522:.\Generated_Source\PSoC4/CyLFClk.c ****     * Side Effects:
 523:.\Generated_Source\PSoC4/CyLFClk.c ****     *   WDT counter counterNum should be disabled to set a mode. Otherwise, this
 524:.\Generated_Source\PSoC4/CyLFClk.c ****     *   function call has no effect. If the specified counter is enabled,
 525:.\Generated_Source\PSoC4/CyLFClk.c ****     *   call the CySysWdtDisable() function with the corresponding parameter to
 526:.\Generated_Source\PSoC4/CyLFClk.c ****     *   disable the specified counter and wait for it to stop.
 527:.\Generated_Source\PSoC4/CyLFClk.c ****     *
 528:.\Generated_Source\PSoC4/CyLFClk.c ****     *******************************************************************************/
 529:.\Generated_Source\PSoC4/CyLFClk.c ****     void CySysWdtSetMode(uint32 counterNum, uint32 mode)
 530:.\Generated_Source\PSoC4/CyLFClk.c ****     {
 177              		.loc 1 530 0
 178              		.cfi_startproc
 179              	.LVL6:
 180 0000 38B5     		push	{r3, r4, r5, lr}
 181              		.cfi_def_cfa_offset 16
 182              		.cfi_offset 3, -16
 183              		.cfi_offset 4, -12
 184              		.cfi_offset 5, -8
 185              		.cfi_offset 14, -4
 186              		.loc 1 530 0
 187 0002 041C     		mov	r4, r0
 188 0004 0D1C     		mov	r5, r1
 531:.\Generated_Source\PSoC4/CyLFClk.c ****         uint32 configRegValue;
 532:.\Generated_Source\PSoC4/CyLFClk.c **** 
 533:.\Generated_Source\PSoC4/CyLFClk.c ****         CYASSERT(counterNum < CY_SYS_WDT_COUNTERS_MAX);
 534:.\Generated_Source\PSoC4/CyLFClk.c **** 
 535:.\Generated_Source\PSoC4/CyLFClk.c ****         if(0u == CySysWdtGetEnabledStatus(counterNum))
 189              		.loc 1 535 0
 190 0006 FFF7FEFF 		bl	CySysWdtGetEnabledStatus
 191              	.LVL7:
 192 000a 0028     		cmp	r0, #0
 193 000c 0AD1     		bne	.L13
 194              	.LVL8:
 195              	.LBB4:
 196              	.LBB5:
 536:.\Generated_Source\PSoC4/CyLFClk.c ****         {
 537:.\Generated_Source\PSoC4/CyLFClk.c ****             configRegValue = CY_SYS_WDT_CONFIG_REG &
 538:.\Generated_Source\PSoC4/CyLFClk.c ****                                 (uint32)~((uint32)(CY_SYS_WDT_MODE_MASK << (counterNum * CY_SYS_WDT
ARM GAS  C:\Users\Jarik\AppData\Local\Temp\ccPjN50m.s 			page 14


 197              		.loc 1 538 0
 198 000e 0321     		mov	r1, #3
 199 0010 081C     		mov	r0, r1
 200 0012 E400     		lsl	r4, r4, #3
 201              	.LVL9:
 202 0014 A040     		lsl	r0, r0, r4
 539:.\Generated_Source\PSoC4/CyLFClk.c ****             configRegValue |= (uint32)((mode & CY_SYS_WDT_MODE_MASK) << (counterNum * CY_SYS_WDT_CN
 203              		.loc 1 539 0
 204 0016 2940     		and	r1, r5
 205 0018 A140     		lsl	r1, r1, r4
 537:.\Generated_Source\PSoC4/CyLFClk.c ****                                 (uint32)~((uint32)(CY_SYS_WDT_MODE_MASK << (counterNum * CY_SYS_WDT
 206              		.loc 1 537 0
 207 001a 034A     		ldr	r2, .L16
 208 001c 1368     		ldr	r3, [r2]
 209 001e 8343     		bic	r3, r0
 210              	.LVL10:
 211              		.loc 1 539 0
 212 0020 1943     		orr	r1, r3
 213              	.LVL11:
 540:.\Generated_Source\PSoC4/CyLFClk.c ****             CY_SYS_WDT_CONFIG_REG = configRegValue;
 214              		.loc 1 540 0
 215 0022 1160     		str	r1, [r2]
 216              	.LVL12:
 217              	.L13:
 218              	.LBE5:
 219              	.LBE4:
 541:.\Generated_Source\PSoC4/CyLFClk.c ****         }
 542:.\Generated_Source\PSoC4/CyLFClk.c ****     }
 220              		.loc 1 542 0
 221              		@ sp needed
 222              	.LVL13:
 223 0024 38BD     		pop	{r3, r4, r5, pc}
 224              	.L17:
 225 0026 C046     		.align	2
 226              	.L16:
 227 0028 0C020B40 		.word	1074463244
 228              		.cfi_endproc
 229              	.LFE7:
 230              		.size	CySysWdtSetMode, .-CySysWdtSetMode
 231              		.section	.text.CySysWdtGetMode,"ax",%progbits
 232              		.align	1
 233              		.global	CySysWdtGetMode
 234              		.code	16
 235              		.thumb_func
 236              		.type	CySysWdtGetMode, %function
 237              	CySysWdtGetMode:
 238              	.LFB8:
 543:.\Generated_Source\PSoC4/CyLFClk.c **** 
 544:.\Generated_Source\PSoC4/CyLFClk.c **** 
 545:.\Generated_Source\PSoC4/CyLFClk.c ****     /*******************************************************************************
 546:.\Generated_Source\PSoC4/CyLFClk.c ****     * Function Name: CySysWdtGetMode
 547:.\Generated_Source\PSoC4/CyLFClk.c ****     ********************************************************************************
 548:.\Generated_Source\PSoC4/CyLFClk.c ****     *
 549:.\Generated_Source\PSoC4/CyLFClk.c ****     * Summary:
 550:.\Generated_Source\PSoC4/CyLFClk.c ****     *  Reads the mode of one of the three WDT counters.
 551:.\Generated_Source\PSoC4/CyLFClk.c ****     *
 552:.\Generated_Source\PSoC4/CyLFClk.c ****     * Parameters:
ARM GAS  C:\Users\Jarik\AppData\Local\Temp\ccPjN50m.s 			page 15


 553:.\Generated_Source\PSoC4/CyLFClk.c ****     *  counterNum: Valid range [0-2].  The number of the WDT counter.
 554:.\Generated_Source\PSoC4/CyLFClk.c ****     *
 555:.\Generated_Source\PSoC4/CyLFClk.c ****     * Return:
 556:.\Generated_Source\PSoC4/CyLFClk.c ****     *  The mode of the counter.  The same enumerated values as the mode parameter used in
 557:.\Generated_Source\PSoC4/CyLFClk.c ****     *  CySysWdtSetMode().
 558:.\Generated_Source\PSoC4/CyLFClk.c ****     *
 559:.\Generated_Source\PSoC4/CyLFClk.c ****     *******************************************************************************/
 560:.\Generated_Source\PSoC4/CyLFClk.c ****     uint32 CySysWdtGetMode(uint32 counterNum)
 561:.\Generated_Source\PSoC4/CyLFClk.c ****     {
 239              		.loc 1 561 0
 240              		.cfi_startproc
 241              	.LVL14:
 562:.\Generated_Source\PSoC4/CyLFClk.c ****         return ((CY_SYS_WDT_CONFIG_REG >> (counterNum * CY_SYS_WDT_CNT_SHIFT)) & CY_SYS_WDT_MODE_MA
 242              		.loc 1 562 0
 243 0000 034B     		ldr	r3, .L19
 244 0002 C000     		lsl	r0, r0, #3
 245              	.LVL15:
 246 0004 1B68     		ldr	r3, [r3]
 563:.\Generated_Source\PSoC4/CyLFClk.c ****     }
 247              		.loc 1 563 0
 248              		@ sp needed
 562:.\Generated_Source\PSoC4/CyLFClk.c ****         return ((CY_SYS_WDT_CONFIG_REG >> (counterNum * CY_SYS_WDT_CNT_SHIFT)) & CY_SYS_WDT_MODE_MA
 249              		.loc 1 562 0
 250 0006 C340     		lsr	r3, r3, r0
 251 0008 181C     		mov	r0, r3
 252 000a 0323     		mov	r3, #3
 253 000c 1840     		and	r0, r3
 254              		.loc 1 563 0
 255 000e 7047     		bx	lr
 256              	.L20:
 257              		.align	2
 258              	.L19:
 259 0010 0C020B40 		.word	1074463244
 260              		.cfi_endproc
 261              	.LFE8:
 262              		.size	CySysWdtGetMode, .-CySysWdtGetMode
 263              		.section	.text.CySysWdtSetClearOnMatch,"ax",%progbits
 264              		.align	1
 265              		.global	CySysWdtSetClearOnMatch
 266              		.code	16
 267              		.thumb_func
 268              		.type	CySysWdtSetClearOnMatch, %function
 269              	CySysWdtSetClearOnMatch:
 270              	.LFB9:
 564:.\Generated_Source\PSoC4/CyLFClk.c **** 
 565:.\Generated_Source\PSoC4/CyLFClk.c **** 
 566:.\Generated_Source\PSoC4/CyLFClk.c ****     /*******************************************************************************
 567:.\Generated_Source\PSoC4/CyLFClk.c ****     * Function Name: CySysWdtSetClearOnMatch
 568:.\Generated_Source\PSoC4/CyLFClk.c ****     ********************************************************************************
 569:.\Generated_Source\PSoC4/CyLFClk.c ****     *
 570:.\Generated_Source\PSoC4/CyLFClk.c ****     * Summary:
 571:.\Generated_Source\PSoC4/CyLFClk.c ****     *  Configures the WDT counter "clear on match" setting.  If configured to "clear
 572:.\Generated_Source\PSoC4/CyLFClk.c ****     *  on match", the counter counts from 0 to MatchValue giving it a
 573:.\Generated_Source\PSoC4/CyLFClk.c ****     *  period of (MatchValue + 1).
 574:.\Generated_Source\PSoC4/CyLFClk.c ****     *
 575:.\Generated_Source\PSoC4/CyLFClk.c ****     * Parameters:
 576:.\Generated_Source\PSoC4/CyLFClk.c ****     *  counterNum:
ARM GAS  C:\Users\Jarik\AppData\Local\Temp\ccPjN50m.s 			page 16


 577:.\Generated_Source\PSoC4/CyLFClk.c ****     *   Valid range [0-1].  The number of the WDT counter.  The match values are not
 578:.\Generated_Source\PSoC4/CyLFClk.c ****     *   supported by counter 2.
 579:.\Generated_Source\PSoC4/CyLFClk.c ****     *
 580:.\Generated_Source\PSoC4/CyLFClk.c ****     * enable:
 581:.\Generated_Source\PSoC4/CyLFClk.c ****     *   0 to disable, 1 to enable
 582:.\Generated_Source\PSoC4/CyLFClk.c ****     *
 583:.\Generated_Source\PSoC4/CyLFClk.c ****     * Return:
 584:.\Generated_Source\PSoC4/CyLFClk.c ****     *   None.
 585:.\Generated_Source\PSoC4/CyLFClk.c ****     *
 586:.\Generated_Source\PSoC4/CyLFClk.c ****     * Side Effects:
 587:.\Generated_Source\PSoC4/CyLFClk.c ****     *   WDT counter counterNum should be disabled. Otherwise this function call
 588:.\Generated_Source\PSoC4/CyLFClk.c ****     *   has no effect. If the specified counter is enabled, call the CySysWdtDisable()
 589:.\Generated_Source\PSoC4/CyLFClk.c ****     *   function with the corresponding parameter to disable the specified counter and
 590:.\Generated_Source\PSoC4/CyLFClk.c ****     *   wait for it to stop. This may take up to three LFCLK cycles.
 591:.\Generated_Source\PSoC4/CyLFClk.c ****     *
 592:.\Generated_Source\PSoC4/CyLFClk.c ****     *******************************************************************************/
 593:.\Generated_Source\PSoC4/CyLFClk.c ****     void CySysWdtSetClearOnMatch(uint32 counterNum, uint32 enable)
 594:.\Generated_Source\PSoC4/CyLFClk.c ****     {
 271              		.loc 1 594 0
 272              		.cfi_startproc
 273              	.LVL16:
 274 0000 38B5     		push	{r3, r4, r5, lr}
 275              		.cfi_def_cfa_offset 16
 276              		.cfi_offset 3, -16
 277              		.cfi_offset 4, -12
 278              		.cfi_offset 5, -8
 279              		.cfi_offset 14, -4
 280              		.loc 1 594 0
 281 0002 041C     		mov	r4, r0
 282 0004 0D1C     		mov	r5, r1
 595:.\Generated_Source\PSoC4/CyLFClk.c ****         uint32 configRegValue;
 596:.\Generated_Source\PSoC4/CyLFClk.c **** 
 597:.\Generated_Source\PSoC4/CyLFClk.c ****         CYASSERT((counterNum == CY_SYS_WDT_COUNTER0) ||
 598:.\Generated_Source\PSoC4/CyLFClk.c ****                  (counterNum == CY_SYS_WDT_COUNTER1));
 599:.\Generated_Source\PSoC4/CyLFClk.c **** 
 600:.\Generated_Source\PSoC4/CyLFClk.c ****         if(0u == CySysWdtGetEnabledStatus(counterNum))
 283              		.loc 1 600 0
 284 0006 FFF7FEFF 		bl	CySysWdtGetEnabledStatus
 285              	.LVL17:
 286 000a 0028     		cmp	r0, #0
 287 000c 0AD1     		bne	.L21
 601:.\Generated_Source\PSoC4/CyLFClk.c ****         {
 602:.\Generated_Source\PSoC4/CyLFClk.c ****             configRegValue = CY_SYS_WDT_CONFIG_REG &
 603:.\Generated_Source\PSoC4/CyLFClk.c ****                 (uint32)~((uint32)((uint32)1u << ((counterNum * CY_SYS_WDT_CNT_SHIFT) + CY_SYS_WDT_
 288              		.loc 1 603 0
 289 000e E400     		lsl	r4, r4, #3
 290              	.LVL18:
 291 0010 0234     		add	r4, r4, #2
 292 0012 0121     		mov	r1, #1
 604:.\Generated_Source\PSoC4/CyLFClk.c **** 
 605:.\Generated_Source\PSoC4/CyLFClk.c ****             configRegValue
 606:.\Generated_Source\PSoC4/CyLFClk.c ****                 |= (uint32)(enable << ((counterNum * CY_SYS_WDT_CNT_SHIFT) + CY_SYS_WDT_CNT_MATCH_C
 293              		.loc 1 606 0
 294 0014 A540     		lsl	r5, r5, r4
 295              	.LVL19:
 603:.\Generated_Source\PSoC4/CyLFClk.c **** 
 296              		.loc 1 603 0
ARM GAS  C:\Users\Jarik\AppData\Local\Temp\ccPjN50m.s 			page 17


 297 0016 A140     		lsl	r1, r1, r4
 298              		.loc 1 606 0
 299 0018 2C1C     		mov	r4, r5
 602:.\Generated_Source\PSoC4/CyLFClk.c ****                 (uint32)~((uint32)((uint32)1u << ((counterNum * CY_SYS_WDT_CNT_SHIFT) + CY_SYS_WDT_
 300              		.loc 1 602 0
 301 001a 034A     		ldr	r2, .L23
 302 001c 1368     		ldr	r3, [r2]
 303 001e 8B43     		bic	r3, r1
 304              	.LVL20:
 305              		.loc 1 606 0
 306 0020 1C43     		orr	r4, r3
 307              	.LVL21:
 607:.\Generated_Source\PSoC4/CyLFClk.c **** 
 608:.\Generated_Source\PSoC4/CyLFClk.c ****             CY_SYS_WDT_CONFIG_REG = configRegValue;
 308              		.loc 1 608 0
 309 0022 1460     		str	r4, [r2]
 310              	.LVL22:
 311              	.L21:
 609:.\Generated_Source\PSoC4/CyLFClk.c ****         }
 610:.\Generated_Source\PSoC4/CyLFClk.c ****     }
 312              		.loc 1 610 0
 313              		@ sp needed
 314 0024 38BD     		pop	{r3, r4, r5, pc}
 315              	.L24:
 316 0026 C046     		.align	2
 317              	.L23:
 318 0028 0C020B40 		.word	1074463244
 319              		.cfi_endproc
 320              	.LFE9:
 321              		.size	CySysWdtSetClearOnMatch, .-CySysWdtSetClearOnMatch
 322              		.section	.text.CySysWdtGetClearOnMatch,"ax",%progbits
 323              		.align	1
 324              		.global	CySysWdtGetClearOnMatch
 325              		.code	16
 326              		.thumb_func
 327              		.type	CySysWdtGetClearOnMatch, %function
 328              	CySysWdtGetClearOnMatch:
 329              	.LFB10:
 611:.\Generated_Source\PSoC4/CyLFClk.c **** 
 612:.\Generated_Source\PSoC4/CyLFClk.c **** 
 613:.\Generated_Source\PSoC4/CyLFClk.c ****     /*******************************************************************************
 614:.\Generated_Source\PSoC4/CyLFClk.c ****     * Function Name: CySysWdtGetClearOnMatch
 615:.\Generated_Source\PSoC4/CyLFClk.c ****     ********************************************************************************
 616:.\Generated_Source\PSoC4/CyLFClk.c ****     *
 617:.\Generated_Source\PSoC4/CyLFClk.c ****     * Summary:
 618:.\Generated_Source\PSoC4/CyLFClk.c ****     *  Reads the "clear on match" setting for the specified counter.
 619:.\Generated_Source\PSoC4/CyLFClk.c ****     *
 620:.\Generated_Source\PSoC4/CyLFClk.c ****     * Parameters:
 621:.\Generated_Source\PSoC4/CyLFClk.c ****     *   counterNum: Valid range [0-1].  The number of the WDT counter.  The match values are
 622:.\Generated_Source\PSoC4/CyLFClk.c ****     *               not supported by counter 2.
 623:.\Generated_Source\PSoC4/CyLFClk.c ****     *
 624:.\Generated_Source\PSoC4/CyLFClk.c ****     * Return:
 625:.\Generated_Source\PSoC4/CyLFClk.c ****     *   The "clear on match" status: 1 if enabled, 0 if disabled
 626:.\Generated_Source\PSoC4/CyLFClk.c ****     *
 627:.\Generated_Source\PSoC4/CyLFClk.c ****     *******************************************************************************/
 628:.\Generated_Source\PSoC4/CyLFClk.c ****     uint32 CySysWdtGetClearOnMatch(uint32 counterNum)
 629:.\Generated_Source\PSoC4/CyLFClk.c ****     {
ARM GAS  C:\Users\Jarik\AppData\Local\Temp\ccPjN50m.s 			page 18


 330              		.loc 1 629 0
 331              		.cfi_startproc
 332              	.LVL23:
 630:.\Generated_Source\PSoC4/CyLFClk.c ****         CYASSERT((counterNum == CY_SYS_WDT_COUNTER0) ||
 631:.\Generated_Source\PSoC4/CyLFClk.c ****                  (counterNum == CY_SYS_WDT_COUNTER1));
 632:.\Generated_Source\PSoC4/CyLFClk.c **** 
 633:.\Generated_Source\PSoC4/CyLFClk.c ****         return (uint32)((CY_SYS_WDT_CONFIG_REG >>
 333              		.loc 1 633 0
 334 0000 044B     		ldr	r3, .L26
 634:.\Generated_Source\PSoC4/CyLFClk.c ****                         ((counterNum * CY_SYS_WDT_CNT_SHIFT) + CY_SYS_WDT_CNT_MATCH_CLR_SHIFT)) & 0
 335              		.loc 1 634 0
 336 0002 C000     		lsl	r0, r0, #3
 337              	.LVL24:
 633:.\Generated_Source\PSoC4/CyLFClk.c ****                         ((counterNum * CY_SYS_WDT_CNT_SHIFT) + CY_SYS_WDT_CNT_MATCH_CLR_SHIFT)) & 0
 338              		.loc 1 633 0
 339 0004 1B68     		ldr	r3, [r3]
 340              		.loc 1 634 0
 341 0006 0230     		add	r0, r0, #2
 633:.\Generated_Source\PSoC4/CyLFClk.c ****                         ((counterNum * CY_SYS_WDT_CNT_SHIFT) + CY_SYS_WDT_CNT_MATCH_CLR_SHIFT)) & 0
 342              		.loc 1 633 0
 343 0008 C340     		lsr	r3, r3, r0
 344 000a 181C     		mov	r0, r3
 345 000c 0123     		mov	r3, #1
 635:.\Generated_Source\PSoC4/CyLFClk.c ****     }
 346              		.loc 1 635 0
 347              		@ sp needed
 633:.\Generated_Source\PSoC4/CyLFClk.c ****                         ((counterNum * CY_SYS_WDT_CNT_SHIFT) + CY_SYS_WDT_CNT_MATCH_CLR_SHIFT)) & 0
 348              		.loc 1 633 0
 349 000e 1840     		and	r0, r3
 350              		.loc 1 635 0
 351 0010 7047     		bx	lr
 352              	.L27:
 353 0012 C046     		.align	2
 354              	.L26:
 355 0014 0C020B40 		.word	1074463244
 356              		.cfi_endproc
 357              	.LFE10:
 358              		.size	CySysWdtGetClearOnMatch, .-CySysWdtGetClearOnMatch
 359              		.section	.text.CySysWdtEnable,"ax",%progbits
 360              		.align	1
 361              		.global	CySysWdtEnable
 362              		.code	16
 363              		.thumb_func
 364              		.type	CySysWdtEnable, %function
 365              	CySysWdtEnable:
 366              	.LFB11:
 636:.\Generated_Source\PSoC4/CyLFClk.c **** 
 637:.\Generated_Source\PSoC4/CyLFClk.c **** 
 638:.\Generated_Source\PSoC4/CyLFClk.c ****     /*******************************************************************************
 639:.\Generated_Source\PSoC4/CyLFClk.c ****     * Function Name: CySysWdtEnable
 640:.\Generated_Source\PSoC4/CyLFClk.c ****     ********************************************************************************
 641:.\Generated_Source\PSoC4/CyLFClk.c ****     *
 642:.\Generated_Source\PSoC4/CyLFClk.c ****     * Summary:
 643:.\Generated_Source\PSoC4/CyLFClk.c ****     *  Enables the specified WDT counters.  All the counters specified in the mask
 644:.\Generated_Source\PSoC4/CyLFClk.c ****     *  are enabled.
 645:.\Generated_Source\PSoC4/CyLFClk.c ****     *
 646:.\Generated_Source\PSoC4/CyLFClk.c ****     * Parameters:
ARM GAS  C:\Users\Jarik\AppData\Local\Temp\ccPjN50m.s 			page 19


 647:.\Generated_Source\PSoC4/CyLFClk.c ****     *  counterMask: The mask of all counters to enable.
 648:.\Generated_Source\PSoC4/CyLFClk.c ****     *       Define                       Counter
 649:.\Generated_Source\PSoC4/CyLFClk.c ****     *      CY_SYS_WDT_COUNTER0_MASK      0
 650:.\Generated_Source\PSoC4/CyLFClk.c ****     *      CY_SYS_WDT_COUNTER1_MASK      1
 651:.\Generated_Source\PSoC4/CyLFClk.c ****     *      CY_SYS_WDT_COUNTER2_MASK      2
 652:.\Generated_Source\PSoC4/CyLFClk.c ****     *
 653:.\Generated_Source\PSoC4/CyLFClk.c ****     * Return:
 654:.\Generated_Source\PSoC4/CyLFClk.c ****     *  None
 655:.\Generated_Source\PSoC4/CyLFClk.c ****     *
 656:.\Generated_Source\PSoC4/CyLFClk.c ****     * Side Effects:
 657:.\Generated_Source\PSoC4/CyLFClk.c ****     *  Enabling or disabling WDT requires 3 LFCLK cycles to come into effect.
 658:.\Generated_Source\PSoC4/CyLFClk.c ****     *  Therefore, the WDT enable state must not be changed more than once in
 659:.\Generated_Source\PSoC4/CyLFClk.c ****     *  that period.
 660:.\Generated_Source\PSoC4/CyLFClk.c ****     *
 661:.\Generated_Source\PSoC4/CyLFClk.c ****     *  After WDT is enabled, it is illegal to write WDT configuration (WDT_CONFIG)
 662:.\Generated_Source\PSoC4/CyLFClk.c ****     *  and control (WDT_CONTROL) registers. This means that all WDT functions that
 663:.\Generated_Source\PSoC4/CyLFClk.c ****     *  contain 'write' in the name (with the exception of CySysWdtSetMatch()
 664:.\Generated_Source\PSoC4/CyLFClk.c ****     *  function) are illegal to call once WDT enabled.
 665:.\Generated_Source\PSoC4/CyLFClk.c ****     *
 666:.\Generated_Source\PSoC4/CyLFClk.c ****     *  PSoC 4100 / PSoC 4200:
 667:.\Generated_Source\PSoC4/CyLFClk.c ****     *  This function enables ILO.
 668:.\Generated_Source\PSoC4/CyLFClk.c ****     *
 669:.\Generated_Source\PSoC4/CyLFClk.c ****     *  PSoC 4100-BL / PSoC 4200-BL and PSoC 4100M / PSoC 4200M:
 670:.\Generated_Source\PSoC4/CyLFClk.c ****     *  LFLCK should be configured before calling this function. The desired
 671:.\Generated_Source\PSoC4/CyLFClk.c ****     *  source should be enabled and configured to be the source for LFCLK.
 672:.\Generated_Source\PSoC4/CyLFClk.c ****     *
 673:.\Generated_Source\PSoC4/CyLFClk.c ****     *******************************************************************************/
 674:.\Generated_Source\PSoC4/CyLFClk.c ****     void CySysWdtEnable(uint32 counterMask)
 675:.\Generated_Source\PSoC4/CyLFClk.c ****     {
 367              		.loc 1 675 0
 368              		.cfi_startproc
 369              	.LVL25:
 370 0000 10B5     		push	{r4, lr}
 371              		.cfi_def_cfa_offset 8
 372              		.cfi_offset 4, -8
 373              		.cfi_offset 14, -4
 374              		.loc 1 675 0
 375 0002 041C     		mov	r4, r0
 676:.\Generated_Source\PSoC4/CyLFClk.c ****         #if (!CY_IP_WCO)
 677:.\Generated_Source\PSoC4/CyLFClk.c ****             CySysClkIloStart();
 376              		.loc 1 677 0
 377 0004 FFF7FEFF 		bl	CySysClkIloStart
 378              	.LVL26:
 678:.\Generated_Source\PSoC4/CyLFClk.c ****         #endif /* (!CY_IP_WCO) */
 679:.\Generated_Source\PSoC4/CyLFClk.c **** 
 680:.\Generated_Source\PSoC4/CyLFClk.c ****         CY_SYS_WDT_CONTROL_REG |= counterMask;
 379              		.loc 1 680 0
 380 0008 094B     		ldr	r3, .L47
 381 000a 1A68     		ldr	r2, [r3]
 382 000c 2243     		orr	r2, r4
 383 000e 1A60     		str	r2, [r3]
 681:.\Generated_Source\PSoC4/CyLFClk.c **** 
 682:.\Generated_Source\PSoC4/CyLFClk.c ****         if(0u != (counterMask & CY_SYS_WDT_COUNTER0_MASK))
 384              		.loc 1 682 0
 385 0010 E207     		lsl	r2, r4, #31
 386 0012 02D5     		bpl	.L29
 387              	.L30:
ARM GAS  C:\Users\Jarik\AppData\Local\Temp\ccPjN50m.s 			page 20


 388              	.LVL27:
 389              	.LBB14:
 390              	.LBB15:
 496:.\Generated_Source\PSoC4/CyLFClk.c ****     }
 391              		.loc 1 496 0 discriminator 1
 392 0014 1A68     		ldr	r2, [r3]
 393              	.LBE15:
 394              	.LBE14:
 683:.\Generated_Source\PSoC4/CyLFClk.c ****         {
 684:.\Generated_Source\PSoC4/CyLFClk.c ****             while (0u == CySysWdtGetEnabledStatus(CY_SYS_WDT_COUNTER0))
 395              		.loc 1 684 0 discriminator 1
 396 0016 9207     		lsl	r2, r2, #30
 397 0018 FCD5     		bpl	.L30
 398              	.LVL28:
 399              	.L29:
 685:.\Generated_Source\PSoC4/CyLFClk.c ****             {
 686:.\Generated_Source\PSoC4/CyLFClk.c ****                 /* Wait for changes to come into effect */
 687:.\Generated_Source\PSoC4/CyLFClk.c ****             }
 688:.\Generated_Source\PSoC4/CyLFClk.c ****         }
 689:.\Generated_Source\PSoC4/CyLFClk.c **** 
 690:.\Generated_Source\PSoC4/CyLFClk.c ****         if(0u != (counterMask & CY_SYS_WDT_COUNTER1_MASK))
 400              		.loc 1 690 0
 401 001a E205     		lsl	r2, r4, #23
 402 001c 02D5     		bpl	.L31
 403              	.L32:
 404              	.LVL29:
 405              	.LBB16:
 406              	.LBB17:
 496:.\Generated_Source\PSoC4/CyLFClk.c ****     }
 407              		.loc 1 496 0 discriminator 1
 408 001e 1A68     		ldr	r2, [r3]
 409              	.LBE17:
 410              	.LBE16:
 691:.\Generated_Source\PSoC4/CyLFClk.c ****         {
 692:.\Generated_Source\PSoC4/CyLFClk.c ****             while (0u == CySysWdtGetEnabledStatus(CY_SYS_WDT_COUNTER1))
 411              		.loc 1 692 0 discriminator 1
 412 0020 9205     		lsl	r2, r2, #22
 413 0022 FCD5     		bpl	.L32
 414              	.LVL30:
 415              	.L31:
 693:.\Generated_Source\PSoC4/CyLFClk.c ****             {
 694:.\Generated_Source\PSoC4/CyLFClk.c ****                 /* Wait for changes to come into effect */
 695:.\Generated_Source\PSoC4/CyLFClk.c ****             }
 696:.\Generated_Source\PSoC4/CyLFClk.c ****         }
 697:.\Generated_Source\PSoC4/CyLFClk.c **** 
 698:.\Generated_Source\PSoC4/CyLFClk.c ****         if(0u != (counterMask & CY_SYS_WDT_COUNTER2_MASK))
 416              		.loc 1 698 0
 417 0024 E203     		lsl	r2, r4, #15
 418 0026 02D5     		bpl	.L28
 419              	.L34:
 420              	.LVL31:
 421              	.LBB18:
 422              	.LBB19:
 423              	.LBB20:
 424              	.LBB21:
 496:.\Generated_Source\PSoC4/CyLFClk.c ****     }
 425              		.loc 1 496 0
ARM GAS  C:\Users\Jarik\AppData\Local\Temp\ccPjN50m.s 			page 21


 426 0028 1A68     		ldr	r2, [r3]
 427              	.LBE21:
 428              	.LBE20:
 699:.\Generated_Source\PSoC4/CyLFClk.c ****         {
 700:.\Generated_Source\PSoC4/CyLFClk.c ****             while (0u == CySysWdtGetEnabledStatus(CY_SYS_WDT_COUNTER2))
 429              		.loc 1 700 0
 430 002a 9203     		lsl	r2, r2, #14
 431 002c FCD5     		bpl	.L34
 432              	.LVL32:
 433              	.L28:
 434              	.LBE19:
 435              	.LBE18:
 701:.\Generated_Source\PSoC4/CyLFClk.c ****             {
 702:.\Generated_Source\PSoC4/CyLFClk.c ****                 /* Wait for changes to come into effect */
 703:.\Generated_Source\PSoC4/CyLFClk.c ****             }
 704:.\Generated_Source\PSoC4/CyLFClk.c ****         }
 705:.\Generated_Source\PSoC4/CyLFClk.c ****     }
 436              		.loc 1 705 0
 437              		@ sp needed
 438              	.LVL33:
 439 002e 10BD     		pop	{r4, pc}
 440              	.L48:
 441              		.align	2
 442              	.L47:
 443 0030 10020B40 		.word	1074463248
 444              		.cfi_endproc
 445              	.LFE11:
 446              		.size	CySysWdtEnable, .-CySysWdtEnable
 447              		.section	.text.CySysWdtDisable,"ax",%progbits
 448              		.align	1
 449              		.global	CySysWdtDisable
 450              		.code	16
 451              		.thumb_func
 452              		.type	CySysWdtDisable, %function
 453              	CySysWdtDisable:
 454              	.LFB12:
 706:.\Generated_Source\PSoC4/CyLFClk.c **** 
 707:.\Generated_Source\PSoC4/CyLFClk.c **** 
 708:.\Generated_Source\PSoC4/CyLFClk.c ****     /*******************************************************************************
 709:.\Generated_Source\PSoC4/CyLFClk.c ****     * Function Name: CySysWdtDisable
 710:.\Generated_Source\PSoC4/CyLFClk.c ****     ********************************************************************************
 711:.\Generated_Source\PSoC4/CyLFClk.c ****     *
 712:.\Generated_Source\PSoC4/CyLFClk.c ****     * Summary:
 713:.\Generated_Source\PSoC4/CyLFClk.c ****     *  Disables the specified WDT counters. All the counters specified in the mask
 714:.\Generated_Source\PSoC4/CyLFClk.c ****     *  are disabled. The function waits for the changes to come into effect.
 715:.\Generated_Source\PSoC4/CyLFClk.c ****     *
 716:.\Generated_Source\PSoC4/CyLFClk.c ****     * Parameters:
 717:.\Generated_Source\PSoC4/CyLFClk.c ****     *  uint32 counterMask: The mask of all counters to disable
 718:.\Generated_Source\PSoC4/CyLFClk.c ****     *    Define                       Counter
 719:.\Generated_Source\PSoC4/CyLFClk.c ****     *   CY_SYS_WDT_COUNTER0_MASK      0
 720:.\Generated_Source\PSoC4/CyLFClk.c ****     *   CY_SYS_WDT_COUNTER1_MASK      1
 721:.\Generated_Source\PSoC4/CyLFClk.c ****     *   CY_SYS_WDT_COUNTER2_MASK      2
 722:.\Generated_Source\PSoC4/CyLFClk.c ****     *
 723:.\Generated_Source\PSoC4/CyLFClk.c ****     * Return:
 724:.\Generated_Source\PSoC4/CyLFClk.c ****     *   None.
 725:.\Generated_Source\PSoC4/CyLFClk.c ****     *
 726:.\Generated_Source\PSoC4/CyLFClk.c ****     *******************************************************************************/
ARM GAS  C:\Users\Jarik\AppData\Local\Temp\ccPjN50m.s 			page 22


 727:.\Generated_Source\PSoC4/CyLFClk.c ****     void CySysWdtDisable(uint32 counterMask)
 728:.\Generated_Source\PSoC4/CyLFClk.c ****     {
 455              		.loc 1 728 0
 456              		.cfi_startproc
 457              	.LVL34:
 458              	.LBB30:
 459              	.LBB31:
 437:.\Generated_Source\PSoC4/CyLFClk.c ****     }
 460              		.loc 1 437 0
 461 0000 0C4B     		ldr	r3, .L63
 462 0002 1A68     		ldr	r2, [r3]
 463 0004 C023     		mov	r3, #192
 464 0006 1B02     		lsl	r3, r3, #8
 465 0008 1A42     		tst	r2, r3
 466 000a 12D1     		bne	.L49
 467              	.LBE31:
 468              	.LBE30:
 729:.\Generated_Source\PSoC4/CyLFClk.c ****         if (0uL == CySysWdtLocked())
 730:.\Generated_Source\PSoC4/CyLFClk.c ****         {
 731:.\Generated_Source\PSoC4/CyLFClk.c ****             CY_SYS_WDT_CONTROL_REG &= ~counterMask;
 469              		.loc 1 731 0
 470 000c 0A4B     		ldr	r3, .L63+4
 471 000e 1A68     		ldr	r2, [r3]
 472 0010 8243     		bic	r2, r0
 473 0012 1A60     		str	r2, [r3]
 732:.\Generated_Source\PSoC4/CyLFClk.c **** 
 733:.\Generated_Source\PSoC4/CyLFClk.c ****             if(0u != (counterMask & CY_SYS_WDT_COUNTER0_MASK))
 474              		.loc 1 733 0
 475 0014 C207     		lsl	r2, r0, #31
 476 0016 02D5     		bpl	.L56
 477              	.L51:
 478              	.LVL35:
 479              	.LBB32:
 480              	.LBB33:
 496:.\Generated_Source\PSoC4/CyLFClk.c ****     }
 481              		.loc 1 496 0 discriminator 1
 482 0018 1A68     		ldr	r2, [r3]
 483              	.LBE33:
 484              	.LBE32:
 734:.\Generated_Source\PSoC4/CyLFClk.c ****             {
 735:.\Generated_Source\PSoC4/CyLFClk.c ****                 while (0u != CySysWdtGetEnabledStatus(CY_SYS_WDT_COUNTER0))
 485              		.loc 1 735 0 discriminator 1
 486 001a 9207     		lsl	r2, r2, #30
 487 001c FCD4     		bmi	.L51
 488              	.LVL36:
 489              	.L56:
 736:.\Generated_Source\PSoC4/CyLFClk.c ****                 {
 737:.\Generated_Source\PSoC4/CyLFClk.c ****                     /* Wait for changes to come into effect */
 738:.\Generated_Source\PSoC4/CyLFClk.c ****                 }
 739:.\Generated_Source\PSoC4/CyLFClk.c ****             }
 740:.\Generated_Source\PSoC4/CyLFClk.c **** 
 741:.\Generated_Source\PSoC4/CyLFClk.c ****             if(0u != (counterMask & CY_SYS_WDT_COUNTER1_MASK))
 490              		.loc 1 741 0
 491 001e C205     		lsl	r2, r0, #23
 492 0020 02D5     		bpl	.L52
 493              	.L53:
 494              	.LVL37:
ARM GAS  C:\Users\Jarik\AppData\Local\Temp\ccPjN50m.s 			page 23


 495              	.LBB34:
 496              	.LBB35:
 496:.\Generated_Source\PSoC4/CyLFClk.c ****     }
 497              		.loc 1 496 0 discriminator 1
 498 0022 1A68     		ldr	r2, [r3]
 499              	.LBE35:
 500              	.LBE34:
 742:.\Generated_Source\PSoC4/CyLFClk.c ****             {
 743:.\Generated_Source\PSoC4/CyLFClk.c ****                 while (0u != CySysWdtGetEnabledStatus(CY_SYS_WDT_COUNTER1))
 501              		.loc 1 743 0 discriminator 1
 502 0024 9205     		lsl	r2, r2, #22
 503 0026 FCD4     		bmi	.L53
 504              	.LVL38:
 505              	.L52:
 744:.\Generated_Source\PSoC4/CyLFClk.c ****                 {
 745:.\Generated_Source\PSoC4/CyLFClk.c ****                     /* Wait for changes to come into effect */
 746:.\Generated_Source\PSoC4/CyLFClk.c ****                 }
 747:.\Generated_Source\PSoC4/CyLFClk.c ****             }
 748:.\Generated_Source\PSoC4/CyLFClk.c **** 
 749:.\Generated_Source\PSoC4/CyLFClk.c ****             if(0u != (counterMask & CY_SYS_WDT_COUNTER2_MASK))
 506              		.loc 1 749 0
 507 0028 C203     		lsl	r2, r0, #15
 508 002a 02D5     		bpl	.L49
 509              	.L55:
 510              	.LVL39:
 511              	.LBB36:
 512              	.LBB37:
 496:.\Generated_Source\PSoC4/CyLFClk.c ****     }
 513              		.loc 1 496 0 discriminator 1
 514 002c 1A68     		ldr	r2, [r3]
 515              	.LBE37:
 516              	.LBE36:
 750:.\Generated_Source\PSoC4/CyLFClk.c ****             {
 751:.\Generated_Source\PSoC4/CyLFClk.c ****                 while (0u != CySysWdtGetEnabledStatus(CY_SYS_WDT_COUNTER2))
 517              		.loc 1 751 0 discriminator 1
 518 002e 9203     		lsl	r2, r2, #14
 519 0030 FCD4     		bmi	.L55
 520              	.LVL40:
 521              	.L49:
 752:.\Generated_Source\PSoC4/CyLFClk.c ****                 {
 753:.\Generated_Source\PSoC4/CyLFClk.c ****                     /* Wait for changes to come into effect */
 754:.\Generated_Source\PSoC4/CyLFClk.c ****                 }
 755:.\Generated_Source\PSoC4/CyLFClk.c ****             }
 756:.\Generated_Source\PSoC4/CyLFClk.c ****         }
 757:.\Generated_Source\PSoC4/CyLFClk.c ****     }
 522              		.loc 1 757 0
 523              		@ sp needed
 524 0032 7047     		bx	lr
 525              	.L64:
 526              		.align	2
 527              	.L63:
 528 0034 00010B40 		.word	1074462976
 529 0038 10020B40 		.word	1074463248
 530              		.cfi_endproc
 531              	.LFE12:
 532              		.size	CySysWdtDisable, .-CySysWdtDisable
 533              		.section	.text.CySysWdtSetCascade,"ax",%progbits
ARM GAS  C:\Users\Jarik\AppData\Local\Temp\ccPjN50m.s 			page 24


 534              		.align	1
 535              		.global	CySysWdtSetCascade
 536              		.code	16
 537              		.thumb_func
 538              		.type	CySysWdtSetCascade, %function
 539              	CySysWdtSetCascade:
 540              	.LFB13:
 758:.\Generated_Source\PSoC4/CyLFClk.c **** 
 759:.\Generated_Source\PSoC4/CyLFClk.c **** 
 760:.\Generated_Source\PSoC4/CyLFClk.c ****     /*******************************************************************************
 761:.\Generated_Source\PSoC4/CyLFClk.c ****     * Function Name: CySysWdtSetCascade
 762:.\Generated_Source\PSoC4/CyLFClk.c ****     ********************************************************************************
 763:.\Generated_Source\PSoC4/CyLFClk.c ****     *
 764:.\Generated_Source\PSoC4/CyLFClk.c ****     * Summary:
 765:.\Generated_Source\PSoC4/CyLFClk.c ****     *   Writes the two WDT cascade values based on the combination of mask values
 766:.\Generated_Source\PSoC4/CyLFClk.c ****     *   specified.
 767:.\Generated_Source\PSoC4/CyLFClk.c ****     *
 768:.\Generated_Source\PSoC4/CyLFClk.c ****     * Parameters:
 769:.\Generated_Source\PSoC4/CyLFClk.c ****     *   cascadeMask: The mask value used to set or clear the cascade values.
 770:.\Generated_Source\PSoC4/CyLFClk.c ****     *   Define                     Cascade
 771:.\Generated_Source\PSoC4/CyLFClk.c ****     *   CY_SYS_WDT_CASCADE_NONE    Neither
 772:.\Generated_Source\PSoC4/CyLFClk.c ****     *   CY_SYS_WDT_CASCADE_01      Cascade 01
 773:.\Generated_Source\PSoC4/CyLFClk.c ****     *   CY_SYS_WDT_CASCADE_12      Cascade 12
 774:.\Generated_Source\PSoC4/CyLFClk.c ****     *
 775:.\Generated_Source\PSoC4/CyLFClk.c ****     *   To set both cascade modes, two defines should be ORed:
 776:.\Generated_Source\PSoC4/CyLFClk.c ****     *   (CY_SYS_WDT_CASCADE_01 | CY_SYS_WDT_CASCADE_12)
 777:.\Generated_Source\PSoC4/CyLFClk.c ****     *
 778:.\Generated_Source\PSoC4/CyLFClk.c ****     * Return:
 779:.\Generated_Source\PSoC4/CyLFClk.c ****     *   None.
 780:.\Generated_Source\PSoC4/CyLFClk.c ****     *
 781:.\Generated_Source\PSoC4/CyLFClk.c ****     * Side effects:
 782:.\Generated_Source\PSoC4/CyLFClk.c ****     *   If only one cascade mask is specified, the second cascade is disabled.
 783:.\Generated_Source\PSoC4/CyLFClk.c ****     *   To set both cascade modes, two defines should be ORed:
 784:.\Generated_Source\PSoC4/CyLFClk.c ****     *    (CY_SYS_WDT_CASCADE_01 | CY_SYS_WDT_CASCADE_12).
 785:.\Generated_Source\PSoC4/CyLFClk.c ****     *
 786:.\Generated_Source\PSoC4/CyLFClk.c ****     *   WDT counters that are part of the specified cascade should be disabled.
 787:.\Generated_Source\PSoC4/CyLFClk.c ****     *   Otherwise this function call has no effect. If the specified
 788:.\Generated_Source\PSoC4/CyLFClk.c ****     *   counter is enabled, call CySysWdtDisable() function with the corresponding
 789:.\Generated_Source\PSoC4/CyLFClk.c ****     *   parameter to disable the specified counter and wait for it to stop. This may
 790:.\Generated_Source\PSoC4/CyLFClk.c ****     *   take up to 3 LFCLK cycles.
 791:.\Generated_Source\PSoC4/CyLFClk.c ****     *
 792:.\Generated_Source\PSoC4/CyLFClk.c ****     *******************************************************************************/
 793:.\Generated_Source\PSoC4/CyLFClk.c ****     void CySysWdtSetCascade(uint32 cascadeMask)
 794:.\Generated_Source\PSoC4/CyLFClk.c ****     {
 541              		.loc 1 794 0
 542              		.cfi_startproc
 543              	.LVL41:
 544              	.LBB44:
 545              	.LBB45:
 496:.\Generated_Source\PSoC4/CyLFClk.c ****     }
 546              		.loc 1 496 0
 547 0000 094A     		ldr	r2, .L67
 548              	.LBE45:
 549              	.LBE44:
 550              		.loc 1 794 0
 551 0002 10B5     		push	{r4, lr}
 552              		.cfi_def_cfa_offset 8
ARM GAS  C:\Users\Jarik\AppData\Local\Temp\ccPjN50m.s 			page 25


 553              		.cfi_offset 4, -8
 554              		.cfi_offset 14, -4
 555              	.LBB48:
 556              	.LBB46:
 496:.\Generated_Source\PSoC4/CyLFClk.c ****     }
 557              		.loc 1 496 0
 558 0004 1168     		ldr	r1, [r2]
 559              	.LVL42:
 560              	.LBE46:
 561              	.LBE48:
 562              	.LBB49:
 563              	.LBB50:
 564 0006 1368     		ldr	r3, [r2]
 565              	.LVL43:
 566              	.LBE50:
 567              	.LBE49:
 568              	.LBB52:
 569              	.LBB53:
 570 0008 1268     		ldr	r2, [r2]
 571              	.LVL44:
 572              	.LBE53:
 573              	.LBE52:
 574              	.LBB55:
 575              	.LBB51:
 576 000a 5C0A     		lsr	r4, r3, #9
 577              	.LBE51:
 578              	.LBE55:
 579              	.LBB56:
 580              	.LBB47:
 581 000c 4B08     		lsr	r3, r1, #1
 582              	.LVL45:
 583              	.LBE47:
 584              	.LBE56:
 795:.\Generated_Source\PSoC4/CyLFClk.c ****         uint32 configRegValue;
 796:.\Generated_Source\PSoC4/CyLFClk.c ****         uint32 countersEnableStatus;
 797:.\Generated_Source\PSoC4/CyLFClk.c **** 
 798:.\Generated_Source\PSoC4/CyLFClk.c ****         countersEnableStatus = CySysWdtGetEnabledStatus(CY_SYS_WDT_COUNTER0) |
 585              		.loc 1 798 0
 586 000e 2343     		orr	r3, r4
 587              	.LBB57:
 588              	.LBB54:
 496:.\Generated_Source\PSoC4/CyLFClk.c ****     }
 589              		.loc 1 496 0
 590 0010 520C     		lsr	r2, r2, #17
 591              	.LBE54:
 592              	.LBE57:
 593              		.loc 1 798 0
 594 0012 1343     		orr	r3, r2
 799:.\Generated_Source\PSoC4/CyLFClk.c ****                             CySysWdtGetEnabledStatus(CY_SYS_WDT_COUNTER1) |
 800:.\Generated_Source\PSoC4/CyLFClk.c ****                             CySysWdtGetEnabledStatus(CY_SYS_WDT_COUNTER2);
 801:.\Generated_Source\PSoC4/CyLFClk.c **** 
 802:.\Generated_Source\PSoC4/CyLFClk.c ****         if (0u == countersEnableStatus)
 595              		.loc 1 802 0
 596 0014 DB07     		lsl	r3, r3, #31
 597 0016 05D4     		bmi	.L65
 803:.\Generated_Source\PSoC4/CyLFClk.c ****         {
 804:.\Generated_Source\PSoC4/CyLFClk.c ****             configRegValue = CY_SYS_WDT_CONFIG_REG;
ARM GAS  C:\Users\Jarik\AppData\Local\Temp\ccPjN50m.s 			page 26


 598              		.loc 1 804 0
 599 0018 044A     		ldr	r2, .L67+4
 805:.\Generated_Source\PSoC4/CyLFClk.c ****             configRegValue &= ((uint32)(~(CY_SYS_WDT_CASCADE_01|CY_SYS_WDT_CASCADE_12)));
 600              		.loc 1 805 0
 601 001a 054B     		ldr	r3, .L67+8
 804:.\Generated_Source\PSoC4/CyLFClk.c ****             configRegValue &= ((uint32)(~(CY_SYS_WDT_CASCADE_01|CY_SYS_WDT_CASCADE_12)));
 602              		.loc 1 804 0
 603 001c 1168     		ldr	r1, [r2]
 604              	.LVL46:
 605              		.loc 1 805 0
 606 001e 0B40     		and	r3, r1
 607              	.LVL47:
 806:.\Generated_Source\PSoC4/CyLFClk.c ****             configRegValue |= cascadeMask;
 608              		.loc 1 806 0
 609 0020 1843     		orr	r0, r3
 610              	.LVL48:
 807:.\Generated_Source\PSoC4/CyLFClk.c ****             CY_SYS_WDT_CONFIG_REG = configRegValue;
 611              		.loc 1 807 0
 612 0022 1060     		str	r0, [r2]
 613              	.LVL49:
 614              	.L65:
 808:.\Generated_Source\PSoC4/CyLFClk.c ****         }
 809:.\Generated_Source\PSoC4/CyLFClk.c ****     }
 615              		.loc 1 809 0
 616              		@ sp needed
 617 0024 10BD     		pop	{r4, pc}
 618              	.L68:
 619 0026 C046     		.align	2
 620              	.L67:
 621 0028 10020B40 		.word	1074463248
 622 002c 0C020B40 		.word	1074463244
 623 0030 F7F7FFFF 		.word	-2057
 624              		.cfi_endproc
 625              	.LFE13:
 626              		.size	CySysWdtSetCascade, .-CySysWdtSetCascade
 627              		.section	.text.CySysWdtGetCascade,"ax",%progbits
 628              		.align	1
 629              		.global	CySysWdtGetCascade
 630              		.code	16
 631              		.thumb_func
 632              		.type	CySysWdtGetCascade, %function
 633              	CySysWdtGetCascade:
 634              	.LFB14:
 810:.\Generated_Source\PSoC4/CyLFClk.c **** 
 811:.\Generated_Source\PSoC4/CyLFClk.c **** 
 812:.\Generated_Source\PSoC4/CyLFClk.c ****     /*******************************************************************************
 813:.\Generated_Source\PSoC4/CyLFClk.c ****     * Function Name: CySysWdtGetCascade
 814:.\Generated_Source\PSoC4/CyLFClk.c ****     ********************************************************************************
 815:.\Generated_Source\PSoC4/CyLFClk.c ****     *
 816:.\Generated_Source\PSoC4/CyLFClk.c ****     * Summary:
 817:.\Generated_Source\PSoC4/CyLFClk.c ****     *   Reads the two WDT cascade values returning a mask of the bits set.
 818:.\Generated_Source\PSoC4/CyLFClk.c ****     *
 819:.\Generated_Source\PSoC4/CyLFClk.c ****     * Parameters:
 820:.\Generated_Source\PSoC4/CyLFClk.c ****     *   None.
 821:.\Generated_Source\PSoC4/CyLFClk.c ****     *
 822:.\Generated_Source\PSoC4/CyLFClk.c ****     * Return:
 823:.\Generated_Source\PSoC4/CyLFClk.c ****     *   The mask of the cascade values set.
ARM GAS  C:\Users\Jarik\AppData\Local\Temp\ccPjN50m.s 			page 27


 824:.\Generated_Source\PSoC4/CyLFClk.c ****     *   Define                     Cascade
 825:.\Generated_Source\PSoC4/CyLFClk.c ****     *   CY_SYS_WDT_CASCADE_NONE    Neither
 826:.\Generated_Source\PSoC4/CyLFClk.c ****     *   CY_SYS_WDT_CASCADE_01      Cascade 01
 827:.\Generated_Source\PSoC4/CyLFClk.c ****     *   CY_SYS_WDT_CASCADE_12      Cascade 12
 828:.\Generated_Source\PSoC4/CyLFClk.c ****     *
 829:.\Generated_Source\PSoC4/CyLFClk.c ****     *******************************************************************************/
 830:.\Generated_Source\PSoC4/CyLFClk.c ****     uint32 CySysWdtGetCascade(void)
 831:.\Generated_Source\PSoC4/CyLFClk.c ****     {
 635              		.loc 1 831 0
 636              		.cfi_startproc
 832:.\Generated_Source\PSoC4/CyLFClk.c ****         return (CY_SYS_WDT_CONFIG_REG & (CY_SYS_WDT_CASCADE_01 | CY_SYS_WDT_CASCADE_12));
 637              		.loc 1 832 0
 638 0000 024B     		ldr	r3, .L70
 833:.\Generated_Source\PSoC4/CyLFClk.c ****     }
 639              		.loc 1 833 0
 640              		@ sp needed
 832:.\Generated_Source\PSoC4/CyLFClk.c ****         return (CY_SYS_WDT_CONFIG_REG & (CY_SYS_WDT_CASCADE_01 | CY_SYS_WDT_CASCADE_12));
 641              		.loc 1 832 0
 642 0002 1868     		ldr	r0, [r3]
 643 0004 024B     		ldr	r3, .L70+4
 644 0006 1840     		and	r0, r3
 645              		.loc 1 833 0
 646 0008 7047     		bx	lr
 647              	.L71:
 648 000a C046     		.align	2
 649              	.L70:
 650 000c 0C020B40 		.word	1074463244
 651 0010 08080000 		.word	2056
 652              		.cfi_endproc
 653              	.LFE14:
 654              		.size	CySysWdtGetCascade, .-CySysWdtGetCascade
 655              		.section	.text.CySysWdtSetMatch,"ax",%progbits
 656              		.align	1
 657              		.global	CySysWdtSetMatch
 658              		.code	16
 659              		.thumb_func
 660              		.type	CySysWdtSetMatch, %function
 661              	CySysWdtSetMatch:
 662              	.LFB15:
 834:.\Generated_Source\PSoC4/CyLFClk.c **** 
 835:.\Generated_Source\PSoC4/CyLFClk.c **** 
 836:.\Generated_Source\PSoC4/CyLFClk.c ****     /*******************************************************************************
 837:.\Generated_Source\PSoC4/CyLFClk.c ****     * Function Name: CySysWdtSetMatch
 838:.\Generated_Source\PSoC4/CyLFClk.c ****     ********************************************************************************
 839:.\Generated_Source\PSoC4/CyLFClk.c ****     *
 840:.\Generated_Source\PSoC4/CyLFClk.c ****     * Summary:
 841:.\Generated_Source\PSoC4/CyLFClk.c ****     *  Configures the WDT counter match comparison value.
 842:.\Generated_Source\PSoC4/CyLFClk.c ****     *
 843:.\Generated_Source\PSoC4/CyLFClk.c ****     * Parameters:
 844:.\Generated_Source\PSoC4/CyLFClk.c ****     *  counterNum:
 845:.\Generated_Source\PSoC4/CyLFClk.c ****     *   Valid range [0-1]. The number of the WDT counter. The match values are not
 846:.\Generated_Source\PSoC4/CyLFClk.c ****     *   supported by counter 2.
 847:.\Generated_Source\PSoC4/CyLFClk.c ****     *
 848:.\Generated_Source\PSoC4/CyLFClk.c ****     *  match:
 849:.\Generated_Source\PSoC4/CyLFClk.c ****     *   Valid range [0-65535]. The value to be used to match against the counter.
 850:.\Generated_Source\PSoC4/CyLFClk.c ****     *
 851:.\Generated_Source\PSoC4/CyLFClk.c ****     * Return:
ARM GAS  C:\Users\Jarik\AppData\Local\Temp\ccPjN50m.s 			page 28


 852:.\Generated_Source\PSoC4/CyLFClk.c ****     *   None.
 853:.\Generated_Source\PSoC4/CyLFClk.c ****     *
 854:.\Generated_Source\PSoC4/CyLFClk.c ****     *******************************************************************************/
 855:.\Generated_Source\PSoC4/CyLFClk.c ****     void CySysWdtSetMatch(uint32 counterNum, uint32 match)
 856:.\Generated_Source\PSoC4/CyLFClk.c ****     {
 663              		.loc 1 856 0
 664              		.cfi_startproc
 665              	.LVL50:
 666 0000 38B5     		push	{r3, r4, r5, lr}
 667              		.cfi_def_cfa_offset 16
 668              		.cfi_offset 3, -16
 669              		.cfi_offset 4, -12
 670              		.cfi_offset 5, -8
 671              		.cfi_offset 14, -4
 672              		.loc 1 856 0
 673 0002 051C     		mov	r5, r0
 674 0004 0C1C     		mov	r4, r1
 857:.\Generated_Source\PSoC4/CyLFClk.c ****         uint32 regValue;
 858:.\Generated_Source\PSoC4/CyLFClk.c **** 
 859:.\Generated_Source\PSoC4/CyLFClk.c ****         CYASSERT((counterNum == CY_SYS_WDT_COUNTER0) ||
 860:.\Generated_Source\PSoC4/CyLFClk.c ****                  (counterNum == CY_SYS_WDT_COUNTER1));
 861:.\Generated_Source\PSoC4/CyLFClk.c **** 
 862:.\Generated_Source\PSoC4/CyLFClk.c ****         /* Wait for previous changes to come into effect */
 863:.\Generated_Source\PSoC4/CyLFClk.c ****         CyDelayUs(CY_SYS_WDT_3LFCLK_DELAY_US);
 675              		.loc 1 863 0
 676 0006 C920     		mov	r0, #201
 677              	.LVL51:
 678 0008 FFF7FEFF 		bl	CyDelayUs
 679              	.LVL52:
 864:.\Generated_Source\PSoC4/CyLFClk.c **** 
 865:.\Generated_Source\PSoC4/CyLFClk.c ****         regValue = CY_SYS_WDT_MATCH_REG;
 866:.\Generated_Source\PSoC4/CyLFClk.c ****         regValue &= (uint32)~((uint32)(CY_SYS_WDT_LOWER_16BITS_MASK << (counterNum * CY_SYS_WDT_CNT
 680              		.loc 1 866 0
 681 000c 064A     		ldr	r2, .L73
 682 000e 2801     		lsl	r0, r5, #4
 683 0010 8240     		lsl	r2, r2, r0
 867:.\Generated_Source\PSoC4/CyLFClk.c ****         CY_SYS_WDT_MATCH_REG = (regValue | (match << (counterNum * CY_SYS_WDT_CNT_MATCH_SHIFT)));
 684              		.loc 1 867 0
 685 0012 8440     		lsl	r4, r4, r0
 686              	.LVL53:
 865:.\Generated_Source\PSoC4/CyLFClk.c ****         regValue &= (uint32)~((uint32)(CY_SYS_WDT_LOWER_16BITS_MASK << (counterNum * CY_SYS_WDT_CNT
 687              		.loc 1 865 0
 688 0014 0549     		ldr	r1, .L73+4
 868:.\Generated_Source\PSoC4/CyLFClk.c **** 
 869:.\Generated_Source\PSoC4/CyLFClk.c ****         /* Make sure match synchronization has started */
 870:.\Generated_Source\PSoC4/CyLFClk.c ****         CyDelayUs(CY_SYS_WDT_1LFCLK_DELAY_US);
 689              		.loc 1 870 0
 690 0016 4320     		mov	r0, #67
 865:.\Generated_Source\PSoC4/CyLFClk.c ****         regValue &= (uint32)~((uint32)(CY_SYS_WDT_LOWER_16BITS_MASK << (counterNum * CY_SYS_WDT_CNT
 691              		.loc 1 865 0
 692 0018 0B68     		ldr	r3, [r1]
 693              	.LVL54:
 871:.\Generated_Source\PSoC4/CyLFClk.c ****     }
 694              		.loc 1 871 0
 695              		@ sp needed
 866:.\Generated_Source\PSoC4/CyLFClk.c ****         CY_SYS_WDT_MATCH_REG = (regValue | (match << (counterNum * CY_SYS_WDT_CNT_MATCH_SHIFT)));
 696              		.loc 1 866 0
ARM GAS  C:\Users\Jarik\AppData\Local\Temp\ccPjN50m.s 			page 29


 697 001a 9343     		bic	r3, r2
 867:.\Generated_Source\PSoC4/CyLFClk.c **** 
 698              		.loc 1 867 0
 699 001c 2343     		orr	r3, r4
 700 001e 0B60     		str	r3, [r1]
 870:.\Generated_Source\PSoC4/CyLFClk.c ****     }
 701              		.loc 1 870 0
 702 0020 FFF7FEFF 		bl	CyDelayUs
 703              	.LVL55:
 704              	.LVL56:
 705              		.loc 1 871 0
 706 0024 38BD     		pop	{r3, r4, r5, pc}
 707              	.L74:
 708 0026 C046     		.align	2
 709              	.L73:
 710 0028 FFFF0000 		.word	65535
 711 002c 08020B40 		.word	1074463240
 712              		.cfi_endproc
 713              	.LFE15:
 714              		.size	CySysWdtSetMatch, .-CySysWdtSetMatch
 715              		.section	.text.CySysWdtSetToggleBit,"ax",%progbits
 716              		.align	1
 717              		.global	CySysWdtSetToggleBit
 718              		.code	16
 719              		.thumb_func
 720              		.type	CySysWdtSetToggleBit, %function
 721              	CySysWdtSetToggleBit:
 722              	.LFB16:
 872:.\Generated_Source\PSoC4/CyLFClk.c **** 
 873:.\Generated_Source\PSoC4/CyLFClk.c **** 
 874:.\Generated_Source\PSoC4/CyLFClk.c ****     /*******************************************************************************
 875:.\Generated_Source\PSoC4/CyLFClk.c ****     * Function Name: CySysWdtSetToggleBit
 876:.\Generated_Source\PSoC4/CyLFClk.c ****     ********************************************************************************
 877:.\Generated_Source\PSoC4/CyLFClk.c ****     *
 878:.\Generated_Source\PSoC4/CyLFClk.c ****     * Summary:
 879:.\Generated_Source\PSoC4/CyLFClk.c ****     *  Configures which bit in WDT counter 2 to monitor for a toggle. When that
 880:.\Generated_Source\PSoC4/CyLFClk.c ****     *  bit toggles, an interrupt is generated if the mode for counter 2 has
 881:.\Generated_Source\PSoC4/CyLFClk.c ****     *  enabled interrupts.
 882:.\Generated_Source\PSoC4/CyLFClk.c ****     *
 883:.\Generated_Source\PSoC4/CyLFClk.c ****     * Parameters:
 884:.\Generated_Source\PSoC4/CyLFClk.c ****     *  bit:
 885:.\Generated_Source\PSoC4/CyLFClk.c ****     *   Valid range [0-31].  Counter 2 bit to monitor for a toggle.
 886:.\Generated_Source\PSoC4/CyLFClk.c ****     *
 887:.\Generated_Source\PSoC4/CyLFClk.c ****     * Return:
 888:.\Generated_Source\PSoC4/CyLFClk.c ****     *   None.
 889:.\Generated_Source\PSoC4/CyLFClk.c ****     *
 890:.\Generated_Source\PSoC4/CyLFClk.c ****     * Side effects:
 891:.\Generated_Source\PSoC4/CyLFClk.c ****     *   WDT Counter 2 should be disabled. Otherwise this function call has no
 892:.\Generated_Source\PSoC4/CyLFClk.c ****     *   effect.
 893:.\Generated_Source\PSoC4/CyLFClk.c ****     *
 894:.\Generated_Source\PSoC4/CyLFClk.c ****     *   If the specified counter is enabled, call the CySysWdtDisable() function with
 895:.\Generated_Source\PSoC4/CyLFClk.c ****     *   the corresponding parameter to disable the specified counter and wait for it to
 896:.\Generated_Source\PSoC4/CyLFClk.c ****     *   stop. This may take up to 3 LFCLK cycles.
 897:.\Generated_Source\PSoC4/CyLFClk.c ****     *
 898:.\Generated_Source\PSoC4/CyLFClk.c ****     *******************************************************************************/
 899:.\Generated_Source\PSoC4/CyLFClk.c ****     void CySysWdtSetToggleBit(uint32 bits)
 900:.\Generated_Source\PSoC4/CyLFClk.c ****     {
ARM GAS  C:\Users\Jarik\AppData\Local\Temp\ccPjN50m.s 			page 30


 723              		.loc 1 900 0
 724              		.cfi_startproc
 725              	.LVL57:
 726              	.LBB60:
 727              	.LBB61:
 496:.\Generated_Source\PSoC4/CyLFClk.c ****     }
 728              		.loc 1 496 0
 729 0000 064B     		ldr	r3, .L77
 730 0002 1B68     		ldr	r3, [r3]
 731              	.LBE61:
 732              	.LBE60:
 901:.\Generated_Source\PSoC4/CyLFClk.c ****         uint32 configRegValue;
 902:.\Generated_Source\PSoC4/CyLFClk.c **** 
 903:.\Generated_Source\PSoC4/CyLFClk.c ****         if (0u == CySysWdtGetEnabledStatus(CY_SYS_WDT_COUNTER2))
 733              		.loc 1 903 0
 734 0004 9B03     		lsl	r3, r3, #14
 735 0006 08D4     		bmi	.L75
 904:.\Generated_Source\PSoC4/CyLFClk.c ****         {
 905:.\Generated_Source\PSoC4/CyLFClk.c ****             configRegValue = CY_SYS_WDT_CONFIG_REG;
 736              		.loc 1 905 0
 737 0008 0549     		ldr	r1, .L77+4
 906:.\Generated_Source\PSoC4/CyLFClk.c ****             configRegValue &= (uint32)(~((uint32)(CY_SYS_WDT_CONFIG_BITS2_MASK << CY_SYS_WDT_CONFIG
 738              		.loc 1 906 0
 739 000a 064B     		ldr	r3, .L77+8
 905:.\Generated_Source\PSoC4/CyLFClk.c ****             configRegValue &= (uint32)(~((uint32)(CY_SYS_WDT_CONFIG_BITS2_MASK << CY_SYS_WDT_CONFIG
 740              		.loc 1 905 0
 741 000c 0A68     		ldr	r2, [r1]
 742              	.LVL58:
 743              		.loc 1 906 0
 744 000e 1340     		and	r3, r2
 745              	.LVL59:
 907:.\Generated_Source\PSoC4/CyLFClk.c ****             configRegValue |= ((bits & CY_SYS_WDT_CONFIG_BITS2_MASK) << CY_SYS_WDT_CONFIG_BITS2_POS
 746              		.loc 1 907 0
 747 0010 1F22     		mov	r2, #31
 748 0012 1040     		and	r0, r2
 749              	.LVL60:
 750 0014 0006     		lsl	r0, r0, #24
 751 0016 1843     		orr	r0, r3
 752              	.LVL61:
 908:.\Generated_Source\PSoC4/CyLFClk.c ****             CY_SYS_WDT_CONFIG_REG = configRegValue;
 753              		.loc 1 908 0
 754 0018 0860     		str	r0, [r1]
 755              	.LVL62:
 756              	.L75:
 909:.\Generated_Source\PSoC4/CyLFClk.c ****         }
 910:.\Generated_Source\PSoC4/CyLFClk.c ****     }
 757              		.loc 1 910 0
 758              		@ sp needed
 759 001a 7047     		bx	lr
 760              	.L78:
 761              		.align	2
 762              	.L77:
 763 001c 10020B40 		.word	1074463248
 764 0020 0C020B40 		.word	1074463244
 765 0024 FFFFFFE0 		.word	-520093697
 766              		.cfi_endproc
 767              	.LFE16:
ARM GAS  C:\Users\Jarik\AppData\Local\Temp\ccPjN50m.s 			page 31


 768              		.size	CySysWdtSetToggleBit, .-CySysWdtSetToggleBit
 769              		.section	.text.CySysWdtGetToggleBit,"ax",%progbits
 770              		.align	1
 771              		.global	CySysWdtGetToggleBit
 772              		.code	16
 773              		.thumb_func
 774              		.type	CySysWdtGetToggleBit, %function
 775              	CySysWdtGetToggleBit:
 776              	.LFB17:
 911:.\Generated_Source\PSoC4/CyLFClk.c **** 
 912:.\Generated_Source\PSoC4/CyLFClk.c **** 
 913:.\Generated_Source\PSoC4/CyLFClk.c ****     /*******************************************************************************
 914:.\Generated_Source\PSoC4/CyLFClk.c ****     * Function Name: CySysWdtGetToggleBit
 915:.\Generated_Source\PSoC4/CyLFClk.c ****     ********************************************************************************
 916:.\Generated_Source\PSoC4/CyLFClk.c ****     *
 917:.\Generated_Source\PSoC4/CyLFClk.c ****     * Summary:
 918:.\Generated_Source\PSoC4/CyLFClk.c ****     *  Reads which bit in WDT counter 2 is monitored for a toggle.
 919:.\Generated_Source\PSoC4/CyLFClk.c ****     *
 920:.\Generated_Source\PSoC4/CyLFClk.c ****     * Parameters:
 921:.\Generated_Source\PSoC4/CyLFClk.c ****     *  None.
 922:.\Generated_Source\PSoC4/CyLFClk.c ****     *
 923:.\Generated_Source\PSoC4/CyLFClk.c ****     * Return:
 924:.\Generated_Source\PSoC4/CyLFClk.c ****     *  The bit that is monitored (range of 0 to 31)
 925:.\Generated_Source\PSoC4/CyLFClk.c ****     *
 926:.\Generated_Source\PSoC4/CyLFClk.c ****     *******************************************************************************/
 927:.\Generated_Source\PSoC4/CyLFClk.c ****     uint32 CySysWdtGetToggleBit(void)
 928:.\Generated_Source\PSoC4/CyLFClk.c ****     {
 777              		.loc 1 928 0
 778              		.cfi_startproc
 929:.\Generated_Source\PSoC4/CyLFClk.c ****         return ((CY_SYS_WDT_CONFIG_REG >> CY_SYS_WDT_CONFIG_BITS2_POS) & CY_SYS_WDT_CONFIG_BITS2_MA
 779              		.loc 1 929 0
 780 0000 024B     		ldr	r3, .L80
 930:.\Generated_Source\PSoC4/CyLFClk.c ****     }
 781              		.loc 1 930 0
 782              		@ sp needed
 929:.\Generated_Source\PSoC4/CyLFClk.c ****         return ((CY_SYS_WDT_CONFIG_REG >> CY_SYS_WDT_CONFIG_BITS2_POS) & CY_SYS_WDT_CONFIG_BITS2_MA
 783              		.loc 1 929 0
 784 0002 1868     		ldr	r0, [r3]
 785 0004 C000     		lsl	r0, r0, #3
 786 0006 C00E     		lsr	r0, r0, #27
 787              		.loc 1 930 0
 788 0008 7047     		bx	lr
 789              	.L81:
 790 000a C046     		.align	2
 791              	.L80:
 792 000c 0C020B40 		.word	1074463244
 793              		.cfi_endproc
 794              	.LFE17:
 795              		.size	CySysWdtGetToggleBit, .-CySysWdtGetToggleBit
 796              		.section	.text.CySysWdtGetMatch,"ax",%progbits
 797              		.align	1
 798              		.global	CySysWdtGetMatch
 799              		.code	16
 800              		.thumb_func
 801              		.type	CySysWdtGetMatch, %function
 802              	CySysWdtGetMatch:
 803              	.LFB18:
ARM GAS  C:\Users\Jarik\AppData\Local\Temp\ccPjN50m.s 			page 32


 931:.\Generated_Source\PSoC4/CyLFClk.c **** 
 932:.\Generated_Source\PSoC4/CyLFClk.c **** 
 933:.\Generated_Source\PSoC4/CyLFClk.c ****     /*******************************************************************************
 934:.\Generated_Source\PSoC4/CyLFClk.c ****     * Function Name: CySysWdtGetMatch
 935:.\Generated_Source\PSoC4/CyLFClk.c ****     ********************************************************************************
 936:.\Generated_Source\PSoC4/CyLFClk.c ****     *
 937:.\Generated_Source\PSoC4/CyLFClk.c ****     * Summary:
 938:.\Generated_Source\PSoC4/CyLFClk.c ****     *  Reads the WDT counter match comparison value.
 939:.\Generated_Source\PSoC4/CyLFClk.c ****     *
 940:.\Generated_Source\PSoC4/CyLFClk.c ****     * Parameters:
 941:.\Generated_Source\PSoC4/CyLFClk.c ****     *  counterNum: Valid range [0-1].  The number of the WDT counter.  The match values
 942:.\Generated_Source\PSoC4/CyLFClk.c ****     *               are not supported by counter 2.
 943:.\Generated_Source\PSoC4/CyLFClk.c ****     *
 944:.\Generated_Source\PSoC4/CyLFClk.c ****     * Return:
 945:.\Generated_Source\PSoC4/CyLFClk.c ****     *  A 16-bit match value.
 946:.\Generated_Source\PSoC4/CyLFClk.c ****     *
 947:.\Generated_Source\PSoC4/CyLFClk.c ****     *******************************************************************************/
 948:.\Generated_Source\PSoC4/CyLFClk.c ****     uint32 CySysWdtGetMatch(uint32 counterNum)
 949:.\Generated_Source\PSoC4/CyLFClk.c ****     {
 804              		.loc 1 949 0
 805              		.cfi_startproc
 806              	.LVL63:
 950:.\Generated_Source\PSoC4/CyLFClk.c ****         CYASSERT((counterNum == CY_SYS_WDT_COUNTER0) ||
 951:.\Generated_Source\PSoC4/CyLFClk.c ****                  (counterNum == CY_SYS_WDT_COUNTER1));
 952:.\Generated_Source\PSoC4/CyLFClk.c **** 
 953:.\Generated_Source\PSoC4/CyLFClk.c ****         return ((uint32)(CY_SYS_WDT_MATCH_REG >> (counterNum * CY_SYS_WDT_CNT_MATCH_SHIFT)) & CY_SY
 807              		.loc 1 953 0
 808 0000 024B     		ldr	r3, .L83
 809 0002 0001     		lsl	r0, r0, #4
 810              	.LVL64:
 811 0004 1B68     		ldr	r3, [r3]
 954:.\Generated_Source\PSoC4/CyLFClk.c ****     }
 812              		.loc 1 954 0
 813              		@ sp needed
 953:.\Generated_Source\PSoC4/CyLFClk.c ****     }
 814              		.loc 1 953 0
 815 0006 C340     		lsr	r3, r3, r0
 816 0008 98B2     		uxth	r0, r3
 817              		.loc 1 954 0
 818 000a 7047     		bx	lr
 819              	.L84:
 820              		.align	2
 821              	.L83:
 822 000c 08020B40 		.word	1074463240
 823              		.cfi_endproc
 824              	.LFE18:
 825              		.size	CySysWdtGetMatch, .-CySysWdtGetMatch
 826              		.section	.text.CySysWdtGetCount,"ax",%progbits
 827              		.align	1
 828              		.global	CySysWdtGetCount
 829              		.code	16
 830              		.thumb_func
 831              		.type	CySysWdtGetCount, %function
 832              	CySysWdtGetCount:
 833              	.LFB19:
 955:.\Generated_Source\PSoC4/CyLFClk.c **** 
 956:.\Generated_Source\PSoC4/CyLFClk.c **** 
ARM GAS  C:\Users\Jarik\AppData\Local\Temp\ccPjN50m.s 			page 33


 957:.\Generated_Source\PSoC4/CyLFClk.c ****     /*******************************************************************************
 958:.\Generated_Source\PSoC4/CyLFClk.c ****     * Function Name: CySysWdtGetCount
 959:.\Generated_Source\PSoC4/CyLFClk.c ****     ********************************************************************************
 960:.\Generated_Source\PSoC4/CyLFClk.c ****     *
 961:.\Generated_Source\PSoC4/CyLFClk.c ****     * Summary:
 962:.\Generated_Source\PSoC4/CyLFClk.c ****     *  Reads the current WDT counter value.
 963:.\Generated_Source\PSoC4/CyLFClk.c ****     *
 964:.\Generated_Source\PSoC4/CyLFClk.c ****     * Parameters:
 965:.\Generated_Source\PSoC4/CyLFClk.c ****     *  counterNum: Valid range [0-2].  The number of the WDT counter.
 966:.\Generated_Source\PSoC4/CyLFClk.c ****     *
 967:.\Generated_Source\PSoC4/CyLFClk.c ****     * Return:
 968:.\Generated_Source\PSoC4/CyLFClk.c ****     *  A live counter value.  Counter 0 and 1 are 16 bit counters and counter
 969:.\Generated_Source\PSoC4/CyLFClk.c ****     *  2 is a 32 bit counter.
 970:.\Generated_Source\PSoC4/CyLFClk.c ****     *
 971:.\Generated_Source\PSoC4/CyLFClk.c ****     *******************************************************************************/
 972:.\Generated_Source\PSoC4/CyLFClk.c ****     uint32 CySysWdtGetCount(uint32 counterNum)
 973:.\Generated_Source\PSoC4/CyLFClk.c ****     {
 834              		.loc 1 973 0
 835              		.cfi_startproc
 836              	.LVL65:
 974:.\Generated_Source\PSoC4/CyLFClk.c ****         uint32 regValue = 0u;
 975:.\Generated_Source\PSoC4/CyLFClk.c **** 
 976:.\Generated_Source\PSoC4/CyLFClk.c ****         switch(counterNum)
 837              		.loc 1 976 0
 838 0000 0128     		cmp	r0, #1
 839 0002 0AD0     		beq	.L87
 840 0004 0028     		cmp	r0, #0
 841 0006 04D0     		beq	.L88
 842 0008 0228     		cmp	r0, #2
 843 000a 0AD1     		bne	.L92
 977:.\Generated_Source\PSoC4/CyLFClk.c ****         {
 978:.\Generated_Source\PSoC4/CyLFClk.c ****             /* WDT Counter 0 */
 979:.\Generated_Source\PSoC4/CyLFClk.c ****             case 0u:
 980:.\Generated_Source\PSoC4/CyLFClk.c ****                 regValue = CY_SYS_WDT_CTRLOW_REG & CY_SYS_WDT_LOWER_16BITS_MASK;
 981:.\Generated_Source\PSoC4/CyLFClk.c ****             break;
 982:.\Generated_Source\PSoC4/CyLFClk.c **** 
 983:.\Generated_Source\PSoC4/CyLFClk.c ****             /* WDT Counter 1 */
 984:.\Generated_Source\PSoC4/CyLFClk.c ****             case 1u:
 985:.\Generated_Source\PSoC4/CyLFClk.c ****                 regValue = (CY_SYS_WDT_CTRLOW_REG >> CY_SYS_WDT_CNT_MATCH_SHIFT) & CY_SYS_WDT_LOWER
 986:.\Generated_Source\PSoC4/CyLFClk.c ****             break;
 987:.\Generated_Source\PSoC4/CyLFClk.c **** 
 988:.\Generated_Source\PSoC4/CyLFClk.c ****             /* WDT Counter 2 */
 989:.\Generated_Source\PSoC4/CyLFClk.c ****             case 2u:
 990:.\Generated_Source\PSoC4/CyLFClk.c ****                 regValue = CY_SYS_WDT_CTRHIGH_REG;
 844              		.loc 1 990 0
 845 000c 064B     		ldr	r3, .L93
 846 000e 1868     		ldr	r0, [r3]
 847              	.LVL66:
 991:.\Generated_Source\PSoC4/CyLFClk.c ****             break;
 848              		.loc 1 991 0
 849 0010 08E0     		b	.L86
 850              	.LVL67:
 851              	.L88:
 980:.\Generated_Source\PSoC4/CyLFClk.c ****             break;
 852              		.loc 1 980 0
 853 0012 064B     		ldr	r3, .L93+4
 854 0014 1868     		ldr	r0, [r3]
ARM GAS  C:\Users\Jarik\AppData\Local\Temp\ccPjN50m.s 			page 34


 855              	.LVL68:
 856 0016 80B2     		uxth	r0, r0
 857              	.LVL69:
 981:.\Generated_Source\PSoC4/CyLFClk.c **** 
 858              		.loc 1 981 0
 859 0018 04E0     		b	.L86
 860              	.LVL70:
 861              	.L87:
 985:.\Generated_Source\PSoC4/CyLFClk.c ****             break;
 862              		.loc 1 985 0
 863 001a 044B     		ldr	r3, .L93+4
 864 001c 1868     		ldr	r0, [r3]
 865              	.LVL71:
 866 001e 000C     		lsr	r0, r0, #16
 867              	.LVL72:
 986:.\Generated_Source\PSoC4/CyLFClk.c **** 
 868              		.loc 1 986 0
 869 0020 00E0     		b	.L86
 870              	.LVL73:
 871              	.L92:
 974:.\Generated_Source\PSoC4/CyLFClk.c **** 
 872              		.loc 1 974 0
 873 0022 0020     		mov	r0, #0
 874              	.LVL74:
 875              	.L86:
 992:.\Generated_Source\PSoC4/CyLFClk.c **** 
 993:.\Generated_Source\PSoC4/CyLFClk.c ****             default:
 994:.\Generated_Source\PSoC4/CyLFClk.c ****                 CYASSERT(0u != 0u);
 995:.\Generated_Source\PSoC4/CyLFClk.c ****             break;
 996:.\Generated_Source\PSoC4/CyLFClk.c ****         }
 997:.\Generated_Source\PSoC4/CyLFClk.c **** 
 998:.\Generated_Source\PSoC4/CyLFClk.c ****         return (regValue);
 999:.\Generated_Source\PSoC4/CyLFClk.c ****     }
 876              		.loc 1 999 0
 877              		@ sp needed
 878 0024 7047     		bx	lr
 879              	.L94:
 880 0026 C046     		.align	2
 881              	.L93:
 882 0028 04020B40 		.word	1074463236
 883 002c 00020B40 		.word	1074463232
 884              		.cfi_endproc
 885              	.LFE19:
 886              		.size	CySysWdtGetCount, .-CySysWdtGetCount
 887              		.section	.text.CySysClkIloStop,"ax",%progbits
 888              		.align	1
 889              		.global	CySysClkIloStop
 890              		.code	16
 891              		.thumb_func
 892              		.type	CySysClkIloStop, %function
 893              	CySysClkIloStop:
 894              	.LFB1:
  97:.\Generated_Source\PSoC4/CyLFClk.c ****     #if(CY_IP_SRSSV2)
 895              		.loc 1 97 0
 896              		.cfi_startproc
 897              	.LBB78:
 898              	.LBB79:
ARM GAS  C:\Users\Jarik\AppData\Local\Temp\ccPjN50m.s 			page 35


 437:.\Generated_Source\PSoC4/CyLFClk.c ****     }
 899              		.loc 1 437 0
 900 0000 284B     		ldr	r3, .L112
 901              	.LBE79:
 902              	.LBE78:
  97:.\Generated_Source\PSoC4/CyLFClk.c ****     #if(CY_IP_SRSSV2)
 903              		.loc 1 97 0
 904 0002 F7B5     		push	{r0, r1, r2, r4, r5, r6, r7, lr}
 905              		.cfi_def_cfa_offset 32
 906              		.cfi_offset 0, -32
 907              		.cfi_offset 1, -28
 908              		.cfi_offset 2, -24
 909              		.cfi_offset 4, -20
 910              		.cfi_offset 5, -16
 911              		.cfi_offset 6, -12
 912              		.cfi_offset 7, -8
 913              		.cfi_offset 14, -4
 914              	.LBB81:
 915              	.LBB80:
 437:.\Generated_Source\PSoC4/CyLFClk.c ****     }
 916              		.loc 1 437 0
 917 0004 1A68     		ldr	r2, [r3]
 918 0006 C023     		mov	r3, #192
 919 0008 1B02     		lsl	r3, r3, #8
 920 000a 1A40     		and	r2, r3
 921 000c 0092     		str	r2, [sp]
 922 000e 47D1     		bne	.L95
 923              	.LBE80:
 924              	.LBE81:
 925              	.LBB82:
 926              	.LBB83:
 151:.\Generated_Source\PSoC4/CyLFClk.c ****             (uint32) 1u :
 927              		.loc 1 151 0
 928 0010 254F     		ldr	r7, .L112+4
 929 0012 3B68     		ldr	r3, [r7]
 152:.\Generated_Source\PSoC4/CyLFClk.c ****             (uint32) 0u);
 930              		.loc 1 152 0
 931 0014 002B     		cmp	r3, #0
 932 0016 43DA     		bge	.L95
 933              	.LBE83:
 934              	.LBE82:
 112:.\Generated_Source\PSoC4/CyLFClk.c ****                 CySysClkLfclkPosedgeCatch();
 935              		.loc 1 112 0
 936 0018 FFF7FEFF 		bl	CyEnterCriticalSection
 937              	.LVL75:
 938              	.LBB84:
 939              	.LBB85:
 940              	.LBB86:
 941              	.LBB87:
 496:.\Generated_Source\PSoC4/CyLFClk.c ****     }
 942              		.loc 1 496 0
 943 001c 234D     		ldr	r5, .L112+8
 944              	.LBE87:
 945              	.LBE86:
 946              	.LBE85:
 947              	.LBE84:
 112:.\Generated_Source\PSoC4/CyLFClk.c ****                 CySysClkLfclkPosedgeCatch();
ARM GAS  C:\Users\Jarik\AppData\Local\Temp\ccPjN50m.s 			page 36


 948              		.loc 1 112 0
 949 001e 0190     		str	r0, [sp, #4]
 950              	.LVL76:
 951              	.LBB101:
 952              	.LBB100:
 953              	.LBB89:
 954              	.LBB88:
 496:.\Generated_Source\PSoC4/CyLFClk.c ****     }
 955              		.loc 1 496 0
 956 0020 2B68     		ldr	r3, [r5]
 957 0022 0126     		mov	r6, #1
 958 0024 224C     		ldr	r4, .L112+12
 959              	.LBE88:
 960              	.LBE89:
1000:.\Generated_Source\PSoC4/CyLFClk.c **** 
1001:.\Generated_Source\PSoC4/CyLFClk.c **** 
1002:.\Generated_Source\PSoC4/CyLFClk.c ****     /*******************************************************************************
1003:.\Generated_Source\PSoC4/CyLFClk.c ****     * Function Name: CySysWdtGetInterruptSource
1004:.\Generated_Source\PSoC4/CyLFClk.c ****     ********************************************************************************
1005:.\Generated_Source\PSoC4/CyLFClk.c ****     *
1006:.\Generated_Source\PSoC4/CyLFClk.c ****     * Summary:
1007:.\Generated_Source\PSoC4/CyLFClk.c ****     *   Reads a mask containing all the WDT counters interrupts that are currently
1008:.\Generated_Source\PSoC4/CyLFClk.c ****     *   set by the hardware, if a corresponding mode is selected.
1009:.\Generated_Source\PSoC4/CyLFClk.c ****     *
1010:.\Generated_Source\PSoC4/CyLFClk.c ****     * Parameters:
1011:.\Generated_Source\PSoC4/CyLFClk.c ****     *   None.
1012:.\Generated_Source\PSoC4/CyLFClk.c ****     *
1013:.\Generated_Source\PSoC4/CyLFClk.c ****     * Return:
1014:.\Generated_Source\PSoC4/CyLFClk.c ****     *   The mask of interrupts set.
1015:.\Generated_Source\PSoC4/CyLFClk.c ****     *   Define                    Counter
1016:.\Generated_Source\PSoC4/CyLFClk.c ****     *   CY_SYS_WDT_COUNTER0_INT    0
1017:.\Generated_Source\PSoC4/CyLFClk.c ****     *   CY_SYS_WDT_COUNTER1_INT    1
1018:.\Generated_Source\PSoC4/CyLFClk.c ****     *   CY_SYS_WDT_COUNTER2_INT    2
1019:.\Generated_Source\PSoC4/CyLFClk.c ****     *
1020:.\Generated_Source\PSoC4/CyLFClk.c ****     *******************************************************************************/
1021:.\Generated_Source\PSoC4/CyLFClk.c ****     uint32 CySysWdtGetInterruptSource(void)
1022:.\Generated_Source\PSoC4/CyLFClk.c ****     {
1023:.\Generated_Source\PSoC4/CyLFClk.c ****         return (CY_SYS_WDT_CONTROL_REG & (CY_SYS_WDT_COUNTER0_INT | CY_SYS_WDT_COUNTER1_INT | CY_SY
1024:.\Generated_Source\PSoC4/CyLFClk.c ****     }
1025:.\Generated_Source\PSoC4/CyLFClk.c **** 
1026:.\Generated_Source\PSoC4/CyLFClk.c **** 
1027:.\Generated_Source\PSoC4/CyLFClk.c ****     /*******************************************************************************
1028:.\Generated_Source\PSoC4/CyLFClk.c ****     * Function Name: CySysWdtClearInterrupt
1029:.\Generated_Source\PSoC4/CyLFClk.c ****     ********************************************************************************
1030:.\Generated_Source\PSoC4/CyLFClk.c ****     *
1031:.\Generated_Source\PSoC4/CyLFClk.c ****     * Summary:
1032:.\Generated_Source\PSoC4/CyLFClk.c ****     *   Clears all the WDT counter interrupts set in the mask. Calling this function
1033:.\Generated_Source\PSoC4/CyLFClk.c ****     *   also prevents from Reset when the counter mode is set to generate
1034:.\Generated_Source\PSoC4/CyLFClk.c ****     *   3 interrupts and then the device resets.
1035:.\Generated_Source\PSoC4/CyLFClk.c ****     *
1036:.\Generated_Source\PSoC4/CyLFClk.c ****     *   All the WDT interrupts are to be cleared by the firmware, otherwise
1037:.\Generated_Source\PSoC4/CyLFClk.c ****     *   interrupts are generated continuously.
1038:.\Generated_Source\PSoC4/CyLFClk.c ****     *
1039:.\Generated_Source\PSoC4/CyLFClk.c ****     * Parameters:
1040:.\Generated_Source\PSoC4/CyLFClk.c ****     *   counterMask: The mask of all the counters to enable.
1041:.\Generated_Source\PSoC4/CyLFClk.c ****     *   Define                    Counter
1042:.\Generated_Source\PSoC4/CyLFClk.c ****     *   CY_SYS_WDT_COUNTER0_INT    0
ARM GAS  C:\Users\Jarik\AppData\Local\Temp\ccPjN50m.s 			page 37


1043:.\Generated_Source\PSoC4/CyLFClk.c ****     *   CY_SYS_WDT_COUNTER1_INT    1
1044:.\Generated_Source\PSoC4/CyLFClk.c ****     *   CY_SYS_WDT_COUNTER2_INT    2
1045:.\Generated_Source\PSoC4/CyLFClk.c ****     *
1046:.\Generated_Source\PSoC4/CyLFClk.c ****     * Return:
1047:.\Generated_Source\PSoC4/CyLFClk.c ****     *   None
1048:.\Generated_Source\PSoC4/CyLFClk.c ****     *
1049:.\Generated_Source\PSoC4/CyLFClk.c ****     * Side effects:
1050:.\Generated_Source\PSoC4/CyLFClk.c ****     *   This function temporary removes the watchdog lock, if it was set, and
1051:.\Generated_Source\PSoC4/CyLFClk.c ****     *   restores the lock state after cleaning the WDT interrupts that are set in
1052:.\Generated_Source\PSoC4/CyLFClk.c ****     *   a mask.
1053:.\Generated_Source\PSoC4/CyLFClk.c ****     *
1054:.\Generated_Source\PSoC4/CyLFClk.c ****     *******************************************************************************/
1055:.\Generated_Source\PSoC4/CyLFClk.c ****     void CySysWdtClearInterrupt(uint32 counterMask)
1056:.\Generated_Source\PSoC4/CyLFClk.c ****     {
1057:.\Generated_Source\PSoC4/CyLFClk.c ****         uint8 interruptState;
1058:.\Generated_Source\PSoC4/CyLFClk.c ****         uint32 wdtLockState;
1059:.\Generated_Source\PSoC4/CyLFClk.c **** 
1060:.\Generated_Source\PSoC4/CyLFClk.c ****         interruptState = CyEnterCriticalSection();
1061:.\Generated_Source\PSoC4/CyLFClk.c **** 
1062:.\Generated_Source\PSoC4/CyLFClk.c ****         if (0u != CySysWdtLocked())
1063:.\Generated_Source\PSoC4/CyLFClk.c ****         {
1064:.\Generated_Source\PSoC4/CyLFClk.c ****             wdtLockState = 1u;
1065:.\Generated_Source\PSoC4/CyLFClk.c ****             CySysWdtUnlock();
1066:.\Generated_Source\PSoC4/CyLFClk.c ****         }
1067:.\Generated_Source\PSoC4/CyLFClk.c ****         else
1068:.\Generated_Source\PSoC4/CyLFClk.c ****         {
1069:.\Generated_Source\PSoC4/CyLFClk.c ****             wdtLockState = 0u;
1070:.\Generated_Source\PSoC4/CyLFClk.c ****         }
1071:.\Generated_Source\PSoC4/CyLFClk.c **** 
1072:.\Generated_Source\PSoC4/CyLFClk.c ****         /* Set new WDT control register value */
1073:.\Generated_Source\PSoC4/CyLFClk.c ****         counterMask &= (CY_SYS_WDT_COUNTER0_INT |
1074:.\Generated_Source\PSoC4/CyLFClk.c ****                         CY_SYS_WDT_COUNTER1_INT |
1075:.\Generated_Source\PSoC4/CyLFClk.c ****                         CY_SYS_WDT_COUNTER2_INT);
1076:.\Generated_Source\PSoC4/CyLFClk.c **** 
1077:.\Generated_Source\PSoC4/CyLFClk.c ****         CY_SYS_WDT_CONTROL_REG = counterMask | (CY_SYS_WDT_CONTROL_REG & ~(CY_SYS_WDT_COUNTER0_INT 
1078:.\Generated_Source\PSoC4/CyLFClk.c ****                                                                            CY_SYS_WDT_COUNTER1_INT 
1079:.\Generated_Source\PSoC4/CyLFClk.c ****                                                                            CY_SYS_WDT_COUNTER2_INT)
1080:.\Generated_Source\PSoC4/CyLFClk.c **** 
1081:.\Generated_Source\PSoC4/CyLFClk.c ****         /* Read the CY_SYS_WDT_CONTROL_REG to clear the interrupt request.
1082:.\Generated_Source\PSoC4/CyLFClk.c ****          * Cypress ID #207093, #206231
1083:.\Generated_Source\PSoC4/CyLFClk.c ****         */
1084:.\Generated_Source\PSoC4/CyLFClk.c ****         (void)CY_SYS_WDT_CONTROL_REG;
1085:.\Generated_Source\PSoC4/CyLFClk.c **** 
1086:.\Generated_Source\PSoC4/CyLFClk.c ****         if (1u == wdtLockState)
1087:.\Generated_Source\PSoC4/CyLFClk.c ****         {
1088:.\Generated_Source\PSoC4/CyLFClk.c ****             CySysWdtLock();
1089:.\Generated_Source\PSoC4/CyLFClk.c ****         }
1090:.\Generated_Source\PSoC4/CyLFClk.c **** 
1091:.\Generated_Source\PSoC4/CyLFClk.c ****         CyExitCriticalSection(interruptState);
1092:.\Generated_Source\PSoC4/CyLFClk.c ****     }
1093:.\Generated_Source\PSoC4/CyLFClk.c **** 
1094:.\Generated_Source\PSoC4/CyLFClk.c **** 
1095:.\Generated_Source\PSoC4/CyLFClk.c ****     /*******************************************************************************
1096:.\Generated_Source\PSoC4/CyLFClk.c ****     * Function Name: CySysWdtResetCounters
1097:.\Generated_Source\PSoC4/CyLFClk.c ****     ********************************************************************************
1098:.\Generated_Source\PSoC4/CyLFClk.c ****     *
1099:.\Generated_Source\PSoC4/CyLFClk.c ****     * Summary:
ARM GAS  C:\Users\Jarik\AppData\Local\Temp\ccPjN50m.s 			page 38


1100:.\Generated_Source\PSoC4/CyLFClk.c ****     *  Resets all the WDT counters set in the mask.
1101:.\Generated_Source\PSoC4/CyLFClk.c ****     *
1102:.\Generated_Source\PSoC4/CyLFClk.c ****     * Parameters:
1103:.\Generated_Source\PSoC4/CyLFClk.c ****     *  counterMask: The mask of all the counters to reset.
1104:.\Generated_Source\PSoC4/CyLFClk.c ****     *   Define                       Counter
1105:.\Generated_Source\PSoC4/CyLFClk.c ****     *   CY_SYS_WDT_COUNTER0_RESET    0
1106:.\Generated_Source\PSoC4/CyLFClk.c ****     *   CY_SYS_WDT_COUNTER1_RESET    1
1107:.\Generated_Source\PSoC4/CyLFClk.c ****     *   CY_SYS_WDT_COUNTER2_RESET    2
1108:.\Generated_Source\PSoC4/CyLFClk.c ****     *
1109:.\Generated_Source\PSoC4/CyLFClk.c ****     * Return:
1110:.\Generated_Source\PSoC4/CyLFClk.c ****     *   None
1111:.\Generated_Source\PSoC4/CyLFClk.c ****     *
1112:.\Generated_Source\PSoC4/CyLFClk.c ****     * Side effects:
1113:.\Generated_Source\PSoC4/CyLFClk.c ****     *   This function does not reset counter values if the Watchdog is locked.
1114:.\Generated_Source\PSoC4/CyLFClk.c ****     *   This function waits while corresponding counters will be reset. This may
1115:.\Generated_Source\PSoC4/CyLFClk.c ****     *   take up to 3 LFCLK cycles.
1116:.\Generated_Source\PSoC4/CyLFClk.c ****     *   The LFCLK source must be enabled. Otherwise, the function will never exit.
1117:.\Generated_Source\PSoC4/CyLFClk.c ****     *
1118:.\Generated_Source\PSoC4/CyLFClk.c ****     *******************************************************************************/
1119:.\Generated_Source\PSoC4/CyLFClk.c ****     void CySysWdtResetCounters(uint32 countersMask)
1120:.\Generated_Source\PSoC4/CyLFClk.c ****     {
1121:.\Generated_Source\PSoC4/CyLFClk.c ****         /* Set new WDT reset value */
1122:.\Generated_Source\PSoC4/CyLFClk.c ****         CY_SYS_WDT_CONTROL_REG |= (countersMask & CY_SYS_WDT_COUNTERS_RESET);
1123:.\Generated_Source\PSoC4/CyLFClk.c **** 
1124:.\Generated_Source\PSoC4/CyLFClk.c ****         while (0uL != (CY_SYS_WDT_CONTROL_REG & CY_SYS_WDT_COUNTERS_RESET))
1125:.\Generated_Source\PSoC4/CyLFClk.c ****         {
1126:.\Generated_Source\PSoC4/CyLFClk.c ****             /* Wait for reset to come into effect */
1127:.\Generated_Source\PSoC4/CyLFClk.c ****         }
1128:.\Generated_Source\PSoC4/CyLFClk.c ****     }
1129:.\Generated_Source\PSoC4/CyLFClk.c **** 
1130:.\Generated_Source\PSoC4/CyLFClk.c **** 
1131:.\Generated_Source\PSoC4/CyLFClk.c ****     /*******************************************************************************
1132:.\Generated_Source\PSoC4/CyLFClk.c ****     * Function Name: CySysWdtSetInterruptCallback
1133:.\Generated_Source\PSoC4/CyLFClk.c ****     ********************************************************************************
1134:.\Generated_Source\PSoC4/CyLFClk.c ****     *
1135:.\Generated_Source\PSoC4/CyLFClk.c ****     * Summary:
1136:.\Generated_Source\PSoC4/CyLFClk.c ****     *  Sets the ISR callback function for the particular WDT counter.
1137:.\Generated_Source\PSoC4/CyLFClk.c ****     *  These functions are called on the WDT interrupt.
1138:.\Generated_Source\PSoC4/CyLFClk.c ****     *
1139:.\Generated_Source\PSoC4/CyLFClk.c ****     * Parameters:
1140:.\Generated_Source\PSoC4/CyLFClk.c ****     *  counterNum : The number of the WDT counter.
1141:.\Generated_Source\PSoC4/CyLFClk.c ****     *  function   : The pointer to the callback function.
1142:.\Generated_Source\PSoC4/CyLFClk.c ****     *
1143:.\Generated_Source\PSoC4/CyLFClk.c ****     * Return:
1144:.\Generated_Source\PSoC4/CyLFClk.c ****     *  The pointer to the previous callback function.
1145:.\Generated_Source\PSoC4/CyLFClk.c ****     *  NULL is returned if the specified address is not set.
1146:.\Generated_Source\PSoC4/CyLFClk.c ****     *
1147:.\Generated_Source\PSoC4/CyLFClk.c ****     *******************************************************************************/
1148:.\Generated_Source\PSoC4/CyLFClk.c ****     cyWdtCallback CySysWdtSetInterruptCallback(uint32 counterNum, cyWdtCallback function)
1149:.\Generated_Source\PSoC4/CyLFClk.c ****     {
1150:.\Generated_Source\PSoC4/CyLFClk.c ****         cyWdtCallback prevCallback = (void *)0;
1151:.\Generated_Source\PSoC4/CyLFClk.c **** 
1152:.\Generated_Source\PSoC4/CyLFClk.c ****         if(counterNum < CY_WDT_NUM_OF_WDT)
1153:.\Generated_Source\PSoC4/CyLFClk.c ****         {
1154:.\Generated_Source\PSoC4/CyLFClk.c ****             prevCallback = cySysWdtCallback[counterNum];
1155:.\Generated_Source\PSoC4/CyLFClk.c ****             cySysWdtCallback[counterNum] = function;
1156:.\Generated_Source\PSoC4/CyLFClk.c ****         }
ARM GAS  C:\Users\Jarik\AppData\Local\Temp\ccPjN50m.s 			page 39


1157:.\Generated_Source\PSoC4/CyLFClk.c ****         else
1158:.\Generated_Source\PSoC4/CyLFClk.c ****         {
1159:.\Generated_Source\PSoC4/CyLFClk.c ****             CYASSERT(0u != 0u);
1160:.\Generated_Source\PSoC4/CyLFClk.c ****         }
1161:.\Generated_Source\PSoC4/CyLFClk.c **** 
1162:.\Generated_Source\PSoC4/CyLFClk.c ****         return((cyWdtCallback)prevCallback);
1163:.\Generated_Source\PSoC4/CyLFClk.c ****     }
1164:.\Generated_Source\PSoC4/CyLFClk.c **** 
1165:.\Generated_Source\PSoC4/CyLFClk.c **** 
1166:.\Generated_Source\PSoC4/CyLFClk.c ****     /*******************************************************************************
1167:.\Generated_Source\PSoC4/CyLFClk.c ****     * Function Name: CySysWdtGetInterruptCallback
1168:.\Generated_Source\PSoC4/CyLFClk.c ****     ********************************************************************************
1169:.\Generated_Source\PSoC4/CyLFClk.c ****     *
1170:.\Generated_Source\PSoC4/CyLFClk.c ****     * Summary:
1171:.\Generated_Source\PSoC4/CyLFClk.c ****     *  Gets the ISR callback function for the particular WDT counter.
1172:.\Generated_Source\PSoC4/CyLFClk.c ****     *
1173:.\Generated_Source\PSoC4/CyLFClk.c ****     * Parameters:
1174:.\Generated_Source\PSoC4/CyLFClk.c ****     *  counterNum : The number of the WDT counter.
1175:.\Generated_Source\PSoC4/CyLFClk.c ****     *
1176:.\Generated_Source\PSoC4/CyLFClk.c ****     * Return:
1177:.\Generated_Source\PSoC4/CyLFClk.c ****     *  The pointer to the callback function registered for a particular WDT by
1178:.\Generated_Source\PSoC4/CyLFClk.c ****     *  a particular address that are passed through arguments.
1179:.\Generated_Source\PSoC4/CyLFClk.c ****     *
1180:.\Generated_Source\PSoC4/CyLFClk.c ****     *******************************************************************************/
1181:.\Generated_Source\PSoC4/CyLFClk.c ****     cyWdtCallback CySysWdtGetInterruptCallback(uint32 counterNum)
1182:.\Generated_Source\PSoC4/CyLFClk.c ****     {
1183:.\Generated_Source\PSoC4/CyLFClk.c ****         cyWdtCallback retCallback = (void *)0;
1184:.\Generated_Source\PSoC4/CyLFClk.c **** 
1185:.\Generated_Source\PSoC4/CyLFClk.c ****         if(counterNum < CY_WDT_NUM_OF_WDT)
1186:.\Generated_Source\PSoC4/CyLFClk.c ****         {
1187:.\Generated_Source\PSoC4/CyLFClk.c ****             retCallback = (cyWdtCallback)cySysWdtCallback[counterNum];
1188:.\Generated_Source\PSoC4/CyLFClk.c ****         }
1189:.\Generated_Source\PSoC4/CyLFClk.c ****         else
1190:.\Generated_Source\PSoC4/CyLFClk.c ****         {
1191:.\Generated_Source\PSoC4/CyLFClk.c ****             CYASSERT(0u != 0u);
1192:.\Generated_Source\PSoC4/CyLFClk.c ****         }
1193:.\Generated_Source\PSoC4/CyLFClk.c **** 
1194:.\Generated_Source\PSoC4/CyLFClk.c ****         return(retCallback);
1195:.\Generated_Source\PSoC4/CyLFClk.c ****     }
1196:.\Generated_Source\PSoC4/CyLFClk.c **** 
1197:.\Generated_Source\PSoC4/CyLFClk.c **** 
1198:.\Generated_Source\PSoC4/CyLFClk.c ****     /*******************************************************************************
1199:.\Generated_Source\PSoC4/CyLFClk.c ****     * Function Name: CySysWdtEnableCounterIsr
1200:.\Generated_Source\PSoC4/CyLFClk.c ****     ********************************************************************************
1201:.\Generated_Source\PSoC4/CyLFClk.c ****     *
1202:.\Generated_Source\PSoC4/CyLFClk.c ****     * Summary:
1203:.\Generated_Source\PSoC4/CyLFClk.c ****     *  Enables the ISR callback servicing for the particular WDT counter
1204:.\Generated_Source\PSoC4/CyLFClk.c ****     *
1205:.\Generated_Source\PSoC4/CyLFClk.c ****     * Parameters:
1206:.\Generated_Source\PSoC4/CyLFClk.c ****     *  counterNum: Valid range [0-2].  The number of the WDT counter.
1207:.\Generated_Source\PSoC4/CyLFClk.c ****     *
1208:.\Generated_Source\PSoC4/CyLFClk.c ****     *******************************************************************************/
1209:.\Generated_Source\PSoC4/CyLFClk.c ****     void CySysWdtEnableCounterIsr(uint32 counterNum)
1210:.\Generated_Source\PSoC4/CyLFClk.c ****     {
1211:.\Generated_Source\PSoC4/CyLFClk.c ****         if(counterNum <= CY_SYS_WDT_COUNTER2)
1212:.\Generated_Source\PSoC4/CyLFClk.c ****         {
1213:.\Generated_Source\PSoC4/CyLFClk.c ****             disableServicedIsr &= ~counterIntMaskTbl[counterNum];
ARM GAS  C:\Users\Jarik\AppData\Local\Temp\ccPjN50m.s 			page 40


1214:.\Generated_Source\PSoC4/CyLFClk.c ****             wdtIsrMask |= counterIntMaskTbl[counterNum];
1215:.\Generated_Source\PSoC4/CyLFClk.c ****         }
1216:.\Generated_Source\PSoC4/CyLFClk.c ****         else
1217:.\Generated_Source\PSoC4/CyLFClk.c ****         {
1218:.\Generated_Source\PSoC4/CyLFClk.c ****             CYASSERT(0u != 0u);
1219:.\Generated_Source\PSoC4/CyLFClk.c ****         }
1220:.\Generated_Source\PSoC4/CyLFClk.c ****     }
1221:.\Generated_Source\PSoC4/CyLFClk.c **** 
1222:.\Generated_Source\PSoC4/CyLFClk.c **** 
1223:.\Generated_Source\PSoC4/CyLFClk.c ****     /*******************************************************************************
1224:.\Generated_Source\PSoC4/CyLFClk.c ****     * Function Name: CySysWdtDisableCounterIsr
1225:.\Generated_Source\PSoC4/CyLFClk.c ****     ********************************************************************************
1226:.\Generated_Source\PSoC4/CyLFClk.c ****     *
1227:.\Generated_Source\PSoC4/CyLFClk.c ****     * Summary:
1228:.\Generated_Source\PSoC4/CyLFClk.c ****     *  Disables the ISR callback servicing for the particular WDT counter
1229:.\Generated_Source\PSoC4/CyLFClk.c ****     *
1230:.\Generated_Source\PSoC4/CyLFClk.c ****     * Parameters:
1231:.\Generated_Source\PSoC4/CyLFClk.c ****     *  counterNum: Valid range [0-2].  The number of the WDT counter.
1232:.\Generated_Source\PSoC4/CyLFClk.c ****     *
1233:.\Generated_Source\PSoC4/CyLFClk.c ****     *******************************************************************************/
1234:.\Generated_Source\PSoC4/CyLFClk.c ****     void CySysWdtDisableCounterIsr(uint32 counterNum)
1235:.\Generated_Source\PSoC4/CyLFClk.c ****     {
1236:.\Generated_Source\PSoC4/CyLFClk.c ****         if(counterNum <= CY_SYS_WDT_COUNTER2)
1237:.\Generated_Source\PSoC4/CyLFClk.c ****         {
1238:.\Generated_Source\PSoC4/CyLFClk.c ****             wdtIsrMask &= ~counterIntMaskTbl[counterNum];
1239:.\Generated_Source\PSoC4/CyLFClk.c ****         }
1240:.\Generated_Source\PSoC4/CyLFClk.c ****         else
1241:.\Generated_Source\PSoC4/CyLFClk.c ****         {
1242:.\Generated_Source\PSoC4/CyLFClk.c ****             CYASSERT(0u != 0u);
1243:.\Generated_Source\PSoC4/CyLFClk.c ****         }
1244:.\Generated_Source\PSoC4/CyLFClk.c ****     }
1245:.\Generated_Source\PSoC4/CyLFClk.c **** 
1246:.\Generated_Source\PSoC4/CyLFClk.c **** 
1247:.\Generated_Source\PSoC4/CyLFClk.c ****     /*******************************************************************************
1248:.\Generated_Source\PSoC4/CyLFClk.c ****     * Function Name: CySysWdtIsr
1249:.\Generated_Source\PSoC4/CyLFClk.c ****     ********************************************************************************
1250:.\Generated_Source\PSoC4/CyLFClk.c ****     *
1251:.\Generated_Source\PSoC4/CyLFClk.c ****     * Summary:
1252:.\Generated_Source\PSoC4/CyLFClk.c ****     *  This is the handler of the WDT interrupt in CPU NVIC. The handler checks
1253:.\Generated_Source\PSoC4/CyLFClk.c ****     *  which WDT triggered in the interrupt and calls the respective callback
1254:.\Generated_Source\PSoC4/CyLFClk.c ****     *  functions configured by the user by using CySysWdtSetIsrCallback() API.
1255:.\Generated_Source\PSoC4/CyLFClk.c ****     *
1256:.\Generated_Source\PSoC4/CyLFClk.c ****     *  The order of the callback execution is incremental. Callback-0 is
1257:.\Generated_Source\PSoC4/CyLFClk.c ****     *  run as the first one and callback-2 is called as the last one.
1258:.\Generated_Source\PSoC4/CyLFClk.c ****     *
1259:.\Generated_Source\PSoC4/CyLFClk.c ****     * Parameters:
1260:.\Generated_Source\PSoC4/CyLFClk.c ****     *  None.
1261:.\Generated_Source\PSoC4/CyLFClk.c ****     *
1262:.\Generated_Source\PSoC4/CyLFClk.c ****     * Return:
1263:.\Generated_Source\PSoC4/CyLFClk.c ****     *  None.
1264:.\Generated_Source\PSoC4/CyLFClk.c ****     *
1265:.\Generated_Source\PSoC4/CyLFClk.c ****     * Side Effects:
1266:.\Generated_Source\PSoC4/CyLFClk.c ****     *  This function clears the WDT interrupt every time when it is called.
1267:.\Generated_Source\PSoC4/CyLFClk.c ****     *  Reset after the 3rd interrupt does not happen if this function is registered
1268:.\Generated_Source\PSoC4/CyLFClk.c ****     *  as the interrupt handler even if the "Watchdog with Interrupt" mode is
1269:.\Generated_Source\PSoC4/CyLFClk.c ****     *  selected on the "Low Frequency Clocks" tab.
1270:.\Generated_Source\PSoC4/CyLFClk.c ****     *
ARM GAS  C:\Users\Jarik\AppData\Local\Temp\ccPjN50m.s 			page 41


1271:.\Generated_Source\PSoC4/CyLFClk.c ****     *******************************************************************************/
1272:.\Generated_Source\PSoC4/CyLFClk.c ****     void CySysWdtIsr(void)
1273:.\Generated_Source\PSoC4/CyLFClk.c ****     {
1274:.\Generated_Source\PSoC4/CyLFClk.c ****         if(0u != (CY_SYS_WDT_COUNTER0_INT & CY_SYS_WDT_CONTROL_REG))
1275:.\Generated_Source\PSoC4/CyLFClk.c ****         {
1276:.\Generated_Source\PSoC4/CyLFClk.c ****             if(0u != (CY_SYS_WDT_COUNTER0_INT & wdtIsrMask))
1277:.\Generated_Source\PSoC4/CyLFClk.c ****             {
1278:.\Generated_Source\PSoC4/CyLFClk.c ****                 wdtIsrMask &= ~(disableServicedIsr & CY_SYS_WDT_COUNTER0_INT);
1279:.\Generated_Source\PSoC4/CyLFClk.c ****                 disableServicedIsr  &= ~CY_SYS_WDT_COUNTER0_INT;
1280:.\Generated_Source\PSoC4/CyLFClk.c ****                 if(cySysWdtCallback[CY_SYS_WDT_COUNTER0] != (void *) 0)
1281:.\Generated_Source\PSoC4/CyLFClk.c ****                 {
1282:.\Generated_Source\PSoC4/CyLFClk.c ****                     (void)(cySysWdtCallback[CY_SYS_WDT_COUNTER0])();
1283:.\Generated_Source\PSoC4/CyLFClk.c ****                 }
1284:.\Generated_Source\PSoC4/CyLFClk.c ****             }
1285:.\Generated_Source\PSoC4/CyLFClk.c ****             CySysWdtClearInterrupt(CY_SYS_WDT_COUNTER0_INT);
1286:.\Generated_Source\PSoC4/CyLFClk.c ****         }
1287:.\Generated_Source\PSoC4/CyLFClk.c **** 
1288:.\Generated_Source\PSoC4/CyLFClk.c ****         if(0u != (CY_SYS_WDT_COUNTER1_INT & CY_SYS_WDT_CONTROL_REG))
1289:.\Generated_Source\PSoC4/CyLFClk.c ****         {
1290:.\Generated_Source\PSoC4/CyLFClk.c ****             if(0u != (CY_SYS_WDT_COUNTER1_INT & wdtIsrMask))
1291:.\Generated_Source\PSoC4/CyLFClk.c ****             {
1292:.\Generated_Source\PSoC4/CyLFClk.c ****                 wdtIsrMask &= ~(disableServicedIsr & CY_SYS_WDT_COUNTER1_INT);
1293:.\Generated_Source\PSoC4/CyLFClk.c ****                 disableServicedIsr  &= ~CY_SYS_WDT_COUNTER1_INT;
1294:.\Generated_Source\PSoC4/CyLFClk.c ****                 if(cySysWdtCallback[CY_SYS_WDT_COUNTER1] != (void *) 0)
1295:.\Generated_Source\PSoC4/CyLFClk.c ****                 {
1296:.\Generated_Source\PSoC4/CyLFClk.c ****                     (void)(cySysWdtCallback[CY_SYS_WDT_COUNTER1])();
1297:.\Generated_Source\PSoC4/CyLFClk.c ****                 }
1298:.\Generated_Source\PSoC4/CyLFClk.c ****             }
1299:.\Generated_Source\PSoC4/CyLFClk.c ****             CySysWdtClearInterrupt(CY_SYS_WDT_COUNTER1_INT);
1300:.\Generated_Source\PSoC4/CyLFClk.c ****         }
1301:.\Generated_Source\PSoC4/CyLFClk.c **** 
1302:.\Generated_Source\PSoC4/CyLFClk.c ****         if(0u != (CY_SYS_WDT_COUNTER2_INT & CY_SYS_WDT_CONTROL_REG))
1303:.\Generated_Source\PSoC4/CyLFClk.c ****         {
1304:.\Generated_Source\PSoC4/CyLFClk.c ****             if(0u != (CY_SYS_WDT_COUNTER2_INT & wdtIsrMask))
1305:.\Generated_Source\PSoC4/CyLFClk.c ****             {
1306:.\Generated_Source\PSoC4/CyLFClk.c ****                 if(cySysWdtCallback[CY_SYS_WDT_COUNTER2] != (void *) 0)
1307:.\Generated_Source\PSoC4/CyLFClk.c ****                 {
1308:.\Generated_Source\PSoC4/CyLFClk.c ****                     (void)(cySysWdtCallback[CY_SYS_WDT_COUNTER2])();
1309:.\Generated_Source\PSoC4/CyLFClk.c ****                 }
1310:.\Generated_Source\PSoC4/CyLFClk.c ****             }
1311:.\Generated_Source\PSoC4/CyLFClk.c ****             CySysWdtClearInterrupt(CY_SYS_WDT_COUNTER2_INT);
1312:.\Generated_Source\PSoC4/CyLFClk.c ****         }
1313:.\Generated_Source\PSoC4/CyLFClk.c ****     }
1314:.\Generated_Source\PSoC4/CyLFClk.c **** 
1315:.\Generated_Source\PSoC4/CyLFClk.c **** 
1316:.\Generated_Source\PSoC4/CyLFClk.c ****     /*******************************************************************************
1317:.\Generated_Source\PSoC4/CyLFClk.c ****     * Function Name: CySysTimerDelay
1318:.\Generated_Source\PSoC4/CyLFClk.c ****     ********************************************************************************
1319:.\Generated_Source\PSoC4/CyLFClk.c ****     *
1320:.\Generated_Source\PSoC4/CyLFClk.c ****     * Summary:
1321:.\Generated_Source\PSoC4/CyLFClk.c ****     *  The function implements the delay specified in the LFCLK clock ticks. The
1322:.\Generated_Source\PSoC4/CyLFClk.c ****     *  specified WDT counter should be configured as described below and started.
1323:.\Generated_Source\PSoC4/CyLFClk.c ****     *
1324:.\Generated_Source\PSoC4/CyLFClk.c ****     *  This function can operate in two modes: the "WAIT" and "INTERRUPT" modes. In
1325:.\Generated_Source\PSoC4/CyLFClk.c ****     *  the "WAIT" mode, the function waits for the specified number of ticks. In the
1326:.\Generated_Source\PSoC4/CyLFClk.c ****     *  "INTERRUPT" mode, the interrupt is generated after the specified number of
1327:.\Generated_Source\PSoC4/CyLFClk.c ****     *  ticks.
ARM GAS  C:\Users\Jarik\AppData\Local\Temp\ccPjN50m.s 			page 42


1328:.\Generated_Source\PSoC4/CyLFClk.c ****     *
1329:.\Generated_Source\PSoC4/CyLFClk.c ****     *  For the correct function operation, the "Clear On Match" option should be
1330:.\Generated_Source\PSoC4/CyLFClk.c ****     *  disabled for the specified WDT counter. Use CySysWdtSetClearOnMatch()
1331:.\Generated_Source\PSoC4/CyLFClk.c ****     *  function with the "enable" parameter equal to zero for the used WDT counter.
1332:.\Generated_Source\PSoC4/CyLFClk.c ****     *
1333:.\Generated_Source\PSoC4/CyLFClk.c ****     *  The corresponding WDT counter should be configured to match the selected
1334:.\Generated_Source\PSoC4/CyLFClk.c ****     *  mode: "Free running Timer" for the "WAIT" mode, and
1335:.\Generated_Source\PSoC4/CyLFClk.c ****     *  "Periodic Timer" / "Watchdog (w/Interrupt)" for the "INTERRUPT" mode.
1336:.\Generated_Source\PSoC4/CyLFClk.c ****     *
1337:.\Generated_Source\PSoC4/CyLFClk.c ****     *  This can be configured in two ways:
1338:.\Generated_Source\PSoC4/CyLFClk.c ****     *  - Through the DWR page. Open the "Clocks" tab, click the "Edit Clocks..."
1339:.\Generated_Source\PSoC4/CyLFClk.c ****     *    button, in the "Configure System Clocks" window click on the
1340:.\Generated_Source\PSoC4/CyLFClk.c ****     *    "Low Frequency Clocks" tab and choose the appropriate option for the used
1341:.\Generated_Source\PSoC4/CyLFClk.c ****     *    WDT counter.
1342:.\Generated_Source\PSoC4/CyLFClk.c ****     *
1343:.\Generated_Source\PSoC4/CyLFClk.c ****     *  - Through the CySysWdtSetMode() function. Call it with the appropriate mode
1344:.\Generated_Source\PSoC4/CyLFClk.c ****     *    parameter for the used WDT counter.
1345:.\Generated_Source\PSoC4/CyLFClk.c ****     *
1346:.\Generated_Source\PSoC4/CyLFClk.c ****     *  For the "INTERRUPT" mode, the recommended sequence is the following:
1347:.\Generated_Source\PSoC4/CyLFClk.c ****     *  - Call the CySysWdtDisableCounterIsr() function to disable servicing
1348:.\Generated_Source\PSoC4/CyLFClk.c ****     *    interrupts of the specified WDT counter.
1349:.\Generated_Source\PSoC4/CyLFClk.c ****     *
1350:.\Generated_Source\PSoC4/CyLFClk.c ****     *  - Call the CySysWdtSetInterruptCallback() function to register the callback
1351:.\Generated_Source\PSoC4/CyLFClk.c ****     *    function for the corresponding WDT counter.
1352:.\Generated_Source\PSoC4/CyLFClk.c ****     *
1353:.\Generated_Source\PSoC4/CyLFClk.c ****     *  - Call the CySysTimerDelay() function.
1354:.\Generated_Source\PSoC4/CyLFClk.c ****     *
1355:.\Generated_Source\PSoC4/CyLFClk.c ****     * Parameters:
1356:.\Generated_Source\PSoC4/CyLFClk.c ****     *  counterNum: Valid range [0-1]. The number of the WDT counter (WDT0 or WDT1).
1357:.\Generated_Source\PSoC4/CyLFClk.c ****     *  delayType : Defines the operation mode.
1358:.\Generated_Source\PSoC4/CyLFClk.c ****     *               CY_SYS_TIMER_WAIT       "WAIT" mode.
1359:.\Generated_Source\PSoC4/CyLFClk.c ****     *               CY_SYS_TIMER_INTERRUPT  "INTERRUPT" mode.
1360:.\Generated_Source\PSoC4/CyLFClk.c ****     *  delay:  The delay value in the LFCLK ticks (allowable range - 16-bit value).
1361:.\Generated_Source\PSoC4/CyLFClk.c ****     *
1362:.\Generated_Source\PSoC4/CyLFClk.c ****     * Return:
1363:.\Generated_Source\PSoC4/CyLFClk.c ****     *  None
1364:.\Generated_Source\PSoC4/CyLFClk.c ****     *
1365:.\Generated_Source\PSoC4/CyLFClk.c ****     * Side effects:
1366:.\Generated_Source\PSoC4/CyLFClk.c ****     *  In the "INTERRUPT" mode, this function enables ISR callback servicing
1367:.\Generated_Source\PSoC4/CyLFClk.c ****     *  from the corresponding WDT counter. Servicing of this ISR callback will be
1368:.\Generated_Source\PSoC4/CyLFClk.c ****     *  disabled after the expiration of the delay time.
1369:.\Generated_Source\PSoC4/CyLFClk.c ****     *
1370:.\Generated_Source\PSoC4/CyLFClk.c ****     *******************************************************************************/
1371:.\Generated_Source\PSoC4/CyLFClk.c ****     void CySysTimerDelay(uint32 counterNum, cy_sys_timer_delaytype_enum delayType, uint32 delay)
1372:.\Generated_Source\PSoC4/CyLFClk.c ****     {
1373:.\Generated_Source\PSoC4/CyLFClk.c ****         uint32 regValue;
1374:.\Generated_Source\PSoC4/CyLFClk.c ****         uint32 matchValue;
1375:.\Generated_Source\PSoC4/CyLFClk.c **** 
1376:.\Generated_Source\PSoC4/CyLFClk.c ****         if((counterNum < CY_SYS_WDT_COUNTER2) && (0uL == CySysWdtGetClearOnMatch(counterNum)) && (d
1377:.\Generated_Source\PSoC4/CyLFClk.c ****         {
1378:.\Generated_Source\PSoC4/CyLFClk.c ****             regValue   = CySysWdtGetCount(counterNum);
1379:.\Generated_Source\PSoC4/CyLFClk.c ****             matchValue = (regValue + delay) & (uint32)UINT16_MAX_VAL;
1380:.\Generated_Source\PSoC4/CyLFClk.c **** 
1381:.\Generated_Source\PSoC4/CyLFClk.c ****             CySysTimerDelayUntilMatch(counterNum, delayType, matchValue);
1382:.\Generated_Source\PSoC4/CyLFClk.c ****         }
1383:.\Generated_Source\PSoC4/CyLFClk.c ****         else
1384:.\Generated_Source\PSoC4/CyLFClk.c ****         {
ARM GAS  C:\Users\Jarik\AppData\Local\Temp\ccPjN50m.s 			page 43


1385:.\Generated_Source\PSoC4/CyLFClk.c ****             CYASSERT(0u != 0u);
1386:.\Generated_Source\PSoC4/CyLFClk.c ****         }
1387:.\Generated_Source\PSoC4/CyLFClk.c ****     }
1388:.\Generated_Source\PSoC4/CyLFClk.c **** 
1389:.\Generated_Source\PSoC4/CyLFClk.c **** 
1390:.\Generated_Source\PSoC4/CyLFClk.c ****     /*******************************************************************************
1391:.\Generated_Source\PSoC4/CyLFClk.c ****     * Function Name: CySysTimerDelayUntilMatch
1392:.\Generated_Source\PSoC4/CyLFClk.c ****     ********************************************************************************
1393:.\Generated_Source\PSoC4/CyLFClk.c ****     *
1394:.\Generated_Source\PSoC4/CyLFClk.c ****     * Summary:
1395:.\Generated_Source\PSoC4/CyLFClk.c ****     *  The function implements the delay specified as the number of LFCLK ticks
1396:.\Generated_Source\PSoC4/CyLFClk.c ****     *  between the specified WDT counter's current value and the "match" passed as
1397:.\Generated_Source\PSoC4/CyLFClk.c ****     *  the parameter to this function. The current WDT counter value can be obtained
1398:.\Generated_Source\PSoC4/CyLFClk.c ****     *  using the CySysWdtGetCount() function.
1399:.\Generated_Source\PSoC4/CyLFClk.c ****     *
1400:.\Generated_Source\PSoC4/CyLFClk.c ****     *  This function can operate in two modes: the "WAIT" and "INTERRUPT" mode. In
1401:.\Generated_Source\PSoC4/CyLFClk.c ****     *  the "WAIT" mode, the function waits while the used WDT counter value becomes
1402:.\Generated_Source\PSoC4/CyLFClk.c ****     *  equal to the match value. In the "INTERRUPT" mode, the interrupt is generated
1403:.\Generated_Source\PSoC4/CyLFClk.c ****     *  when the used WDT counter became equal to the "match" value.
1404:.\Generated_Source\PSoC4/CyLFClk.c ****     *
1405:.\Generated_Source\PSoC4/CyLFClk.c ****     *  For the correct function operation, the "Clear On Match" option should be
1406:.\Generated_Source\PSoC4/CyLFClk.c ****     *  disabled for the specified WDT counter. Use CySysWdtSetClearOnMatch()
1407:.\Generated_Source\PSoC4/CyLFClk.c ****     *  function with the "enable" parameter equal to zero for the used WDT counter.
1408:.\Generated_Source\PSoC4/CyLFClk.c ****     *
1409:.\Generated_Source\PSoC4/CyLFClk.c ****     *  The corresponding WDT counter should be configured to match the selected mode:
1410:.\Generated_Source\PSoC4/CyLFClk.c ****     *  "Free running Timer" for the "WAIT" mode, and "Periodic Timer" / "Watchdog
1411:.\Generated_Source\PSoC4/CyLFClk.c ****     *  (w/Interrupt)" for the "INTERRUPT" mode.
1412:.\Generated_Source\PSoC4/CyLFClk.c ****     *
1413:.\Generated_Source\PSoC4/CyLFClk.c ****     *  This can be configured in two ways:
1414:.\Generated_Source\PSoC4/CyLFClk.c ****     *  - Through the DWR page. Open the "Clocks" tab, click the "Edit Clocks..."
1415:.\Generated_Source\PSoC4/CyLFClk.c ****     *    button, in the "Configure System Clocks" window click on the
1416:.\Generated_Source\PSoC4/CyLFClk.c ****     *    "Low Frequency Clocks" tab and choose the appropriate option for the used
1417:.\Generated_Source\PSoC4/CyLFClk.c ****     *    WDT counter.
1418:.\Generated_Source\PSoC4/CyLFClk.c ****     *
1419:.\Generated_Source\PSoC4/CyLFClk.c ****     *  - Through the CySysWdtSetMode() function. Call it with the appropriate "mode"
1420:.\Generated_Source\PSoC4/CyLFClk.c ****     *    parameter for the used WDT counter.
1421:.\Generated_Source\PSoC4/CyLFClk.c ****     *
1422:.\Generated_Source\PSoC4/CyLFClk.c ****     *  For the "INTERRUPT" mode, the recommended sequence is the following:
1423:.\Generated_Source\PSoC4/CyLFClk.c ****     *  - Call the CySysWdtDisableCounterIsr() function to disable servicing
1424:.\Generated_Source\PSoC4/CyLFClk.c ****     *    interrupts of the specified WDT counter.
1425:.\Generated_Source\PSoC4/CyLFClk.c ****     *
1426:.\Generated_Source\PSoC4/CyLFClk.c ****     *  - Call the CySysWdtSetInterruptCallback() function to register the callback
1427:.\Generated_Source\PSoC4/CyLFClk.c ****     *    function for the corresponding WDT counter.
1428:.\Generated_Source\PSoC4/CyLFClk.c ****     *
1429:.\Generated_Source\PSoC4/CyLFClk.c ****     *  - Call the CySysTimerDelay() function.
1430:.\Generated_Source\PSoC4/CyLFClk.c ****     *
1431:.\Generated_Source\PSoC4/CyLFClk.c ****     * Parameters:
1432:.\Generated_Source\PSoC4/CyLFClk.c ****     *  counterNum: Valid range [0-1]. The number of the WDT counter (WDT0 or WDT1).
1433:.\Generated_Source\PSoC4/CyLFClk.c ****     *  delayType : Defines the operation mode.
1434:.\Generated_Source\PSoC4/CyLFClk.c ****     *               CY_SYS_TIMER_WAIT       "WAIT" mode.
1435:.\Generated_Source\PSoC4/CyLFClk.c ****     *               CY_SYS_TIMER_INTERRUPT  "INTERRUPT" mode.
1436:.\Generated_Source\PSoC4/CyLFClk.c ****     *  delay:  The delay value in the LFCLK ticks (allowable range - 16-bit value).
1437:.\Generated_Source\PSoC4/CyLFClk.c ****     *
1438:.\Generated_Source\PSoC4/CyLFClk.c ****     * Return:
1439:.\Generated_Source\PSoC4/CyLFClk.c ****     *  None
1440:.\Generated_Source\PSoC4/CyLFClk.c ****     *
1441:.\Generated_Source\PSoC4/CyLFClk.c ****     * Side effects:
ARM GAS  C:\Users\Jarik\AppData\Local\Temp\ccPjN50m.s 			page 44


1442:.\Generated_Source\PSoC4/CyLFClk.c ****     *  In the "INTERRUPT" mode, this function enables ISR callback servicing
1443:.\Generated_Source\PSoC4/CyLFClk.c ****     *  from the corresponding WDT counter. Servicing of this ISR callback will be
1444:.\Generated_Source\PSoC4/CyLFClk.c ****     *  disabled after the expiration of the delay time.
1445:.\Generated_Source\PSoC4/CyLFClk.c ****     *
1446:.\Generated_Source\PSoC4/CyLFClk.c ****     *******************************************************************************/
1447:.\Generated_Source\PSoC4/CyLFClk.c ****     void CySysTimerDelayUntilMatch(uint32 counterNum, cy_sys_timer_delaytype_enum delayType, uint32
1448:.\Generated_Source\PSoC4/CyLFClk.c ****     {
1449:.\Generated_Source\PSoC4/CyLFClk.c ****         uint32 tmpValue;
1450:.\Generated_Source\PSoC4/CyLFClk.c **** 
1451:.\Generated_Source\PSoC4/CyLFClk.c ****         if((counterNum < CY_SYS_WDT_COUNTER2) && (0uL == CySysWdtGetClearOnMatch(counterNum)) && (m
1452:.\Generated_Source\PSoC4/CyLFClk.c ****         {
1453:.\Generated_Source\PSoC4/CyLFClk.c ****             if(delayType == CY_SYS_TIMER_WAIT)
1454:.\Generated_Source\PSoC4/CyLFClk.c ****             {
1455:.\Generated_Source\PSoC4/CyLFClk.c ****                 do
1456:.\Generated_Source\PSoC4/CyLFClk.c ****                 {
1457:.\Generated_Source\PSoC4/CyLFClk.c ****                     tmpValue = CySysWdtGetCount(counterNum);
1458:.\Generated_Source\PSoC4/CyLFClk.c ****                 }while(tmpValue > match);
1459:.\Generated_Source\PSoC4/CyLFClk.c **** 
1460:.\Generated_Source\PSoC4/CyLFClk.c ****                 do
1461:.\Generated_Source\PSoC4/CyLFClk.c ****                 {
1462:.\Generated_Source\PSoC4/CyLFClk.c ****                     tmpValue = CySysWdtGetCount(counterNum);
1463:.\Generated_Source\PSoC4/CyLFClk.c ****                 }while(tmpValue < match);
1464:.\Generated_Source\PSoC4/CyLFClk.c ****             }
1465:.\Generated_Source\PSoC4/CyLFClk.c ****             else
1466:.\Generated_Source\PSoC4/CyLFClk.c ****             {
1467:.\Generated_Source\PSoC4/CyLFClk.c ****                 tmpValue = counterIntMaskTbl[counterNum];
1468:.\Generated_Source\PSoC4/CyLFClk.c ****                 CySysWdtSetMatch(counterNum, match);
1469:.\Generated_Source\PSoC4/CyLFClk.c **** 
1470:.\Generated_Source\PSoC4/CyLFClk.c ****                 disableServicedIsr  |= tmpValue;
1471:.\Generated_Source\PSoC4/CyLFClk.c ****                 wdtIsrMask |= tmpValue;
1472:.\Generated_Source\PSoC4/CyLFClk.c ****             }
1473:.\Generated_Source\PSoC4/CyLFClk.c ****         }
1474:.\Generated_Source\PSoC4/CyLFClk.c ****         else
1475:.\Generated_Source\PSoC4/CyLFClk.c ****         {
1476:.\Generated_Source\PSoC4/CyLFClk.c ****             CYASSERT(0u != 0u);
1477:.\Generated_Source\PSoC4/CyLFClk.c ****         }
1478:.\Generated_Source\PSoC4/CyLFClk.c ****     }
1479:.\Generated_Source\PSoC4/CyLFClk.c **** 
1480:.\Generated_Source\PSoC4/CyLFClk.c **** 
1481:.\Generated_Source\PSoC4/CyLFClk.c ****     /*******************************************************************************
1482:.\Generated_Source\PSoC4/CyLFClk.c ****     * Function Name: CySysWatchdogFeed
1483:.\Generated_Source\PSoC4/CyLFClk.c ****     ********************************************************************************
1484:.\Generated_Source\PSoC4/CyLFClk.c ****     *
1485:.\Generated_Source\PSoC4/CyLFClk.c ****     * Summary:
1486:.\Generated_Source\PSoC4/CyLFClk.c ****     *  Feeds the watchdog counter before it causes the device reset. Supported only
1487:.\Generated_Source\PSoC4/CyLFClk.c ****     *  for WDT0 and WDT1 in the "Watchdog" or "Watchdog w/ Interrupts" modes.
1488:.\Generated_Source\PSoC4/CyLFClk.c ****     *
1489:.\Generated_Source\PSoC4/CyLFClk.c ****     * Parameters:
1490:.\Generated_Source\PSoC4/CyLFClk.c ****     *  counterNum:    The number of the WDT counter.
1491:.\Generated_Source\PSoC4/CyLFClk.c ****     *
1492:.\Generated_Source\PSoC4/CyLFClk.c ****     * Return:
1493:.\Generated_Source\PSoC4/CyLFClk.c ****     *  None.
1494:.\Generated_Source\PSoC4/CyLFClk.c ****     *
1495:.\Generated_Source\PSoC4/CyLFClk.c ****     * Side effects:
1496:.\Generated_Source\PSoC4/CyLFClk.c ****     *  Clears the WDT counter in the "Watchdog" mode or clears the WDT interrupt in
1497:.\Generated_Source\PSoC4/CyLFClk.c ****     *  "Watchdog w/ Interrupts" mode. Does nothing in other modes.
1498:.\Generated_Source\PSoC4/CyLFClk.c ****     *
ARM GAS  C:\Users\Jarik\AppData\Local\Temp\ccPjN50m.s 			page 45


1499:.\Generated_Source\PSoC4/CyLFClk.c ****     *******************************************************************************/
1500:.\Generated_Source\PSoC4/CyLFClk.c ****     void CySysWatchdogFeed(uint32 counterNum)
1501:.\Generated_Source\PSoC4/CyLFClk.c ****     {
1502:.\Generated_Source\PSoC4/CyLFClk.c ****         if(counterNum == CY_SYS_WDT_COUNTER0)
1503:.\Generated_Source\PSoC4/CyLFClk.c ****         {
1504:.\Generated_Source\PSoC4/CyLFClk.c ****             if(CY_SYS_WDT_MODE_INT_RESET == CySysWdtGetMode(counterNum))
1505:.\Generated_Source\PSoC4/CyLFClk.c ****             {
1506:.\Generated_Source\PSoC4/CyLFClk.c ****                 CySysWdtClearInterrupt(CY_SYS_WDT_COUNTER0_MASK);
1507:.\Generated_Source\PSoC4/CyLFClk.c ****             }
1508:.\Generated_Source\PSoC4/CyLFClk.c ****             else if(CY_SYS_WDT_MODE_RESET == CySysWdtGetMode(counterNum))
1509:.\Generated_Source\PSoC4/CyLFClk.c ****             {
1510:.\Generated_Source\PSoC4/CyLFClk.c ****                 CySysWdtResetCounters(CY_SYS_WDT_COUNTER0_RESET);
1511:.\Generated_Source\PSoC4/CyLFClk.c ****                 CySysWdtClearInterrupt(CY_SYS_WDT_COUNTER0_MASK);
1512:.\Generated_Source\PSoC4/CyLFClk.c ****             }
1513:.\Generated_Source\PSoC4/CyLFClk.c ****             else
1514:.\Generated_Source\PSoC4/CyLFClk.c ****             {
1515:.\Generated_Source\PSoC4/CyLFClk.c ****                 /* Do nothing. */
1516:.\Generated_Source\PSoC4/CyLFClk.c ****             }
1517:.\Generated_Source\PSoC4/CyLFClk.c ****         }
1518:.\Generated_Source\PSoC4/CyLFClk.c ****         else if(counterNum == CY_SYS_WDT_COUNTER1)
1519:.\Generated_Source\PSoC4/CyLFClk.c ****         {
1520:.\Generated_Source\PSoC4/CyLFClk.c ****             if(CY_SYS_WDT_MODE_INT_RESET == CySysWdtGetMode(counterNum))
1521:.\Generated_Source\PSoC4/CyLFClk.c ****             {
1522:.\Generated_Source\PSoC4/CyLFClk.c ****                 CySysWdtClearInterrupt(CY_SYS_WDT_COUNTER1_MASK);
1523:.\Generated_Source\PSoC4/CyLFClk.c ****             }
1524:.\Generated_Source\PSoC4/CyLFClk.c ****             else if(CY_SYS_WDT_MODE_RESET == CySysWdtGetMode(counterNum))
1525:.\Generated_Source\PSoC4/CyLFClk.c ****             {
1526:.\Generated_Source\PSoC4/CyLFClk.c ****                 CySysWdtResetCounters(CY_SYS_WDT_COUNTER1_RESET);
1527:.\Generated_Source\PSoC4/CyLFClk.c ****                 CySysWdtClearInterrupt(CY_SYS_WDT_COUNTER1_MASK);
1528:.\Generated_Source\PSoC4/CyLFClk.c ****             }
1529:.\Generated_Source\PSoC4/CyLFClk.c ****             else
1530:.\Generated_Source\PSoC4/CyLFClk.c ****             {
1531:.\Generated_Source\PSoC4/CyLFClk.c ****                 /* Do nothing. */
1532:.\Generated_Source\PSoC4/CyLFClk.c ****             }
1533:.\Generated_Source\PSoC4/CyLFClk.c ****         }
1534:.\Generated_Source\PSoC4/CyLFClk.c ****         else
1535:.\Generated_Source\PSoC4/CyLFClk.c ****         {
1536:.\Generated_Source\PSoC4/CyLFClk.c ****             /* Do nothing. */
1537:.\Generated_Source\PSoC4/CyLFClk.c ****         }
1538:.\Generated_Source\PSoC4/CyLFClk.c ****     }
1539:.\Generated_Source\PSoC4/CyLFClk.c **** 
1540:.\Generated_Source\PSoC4/CyLFClk.c **** 
1541:.\Generated_Source\PSoC4/CyLFClk.c ****     /*******************************************************************************
1542:.\Generated_Source\PSoC4/CyLFClk.c ****     * Function Name: CySysClkLfclkPosedgeCatch
1543:.\Generated_Source\PSoC4/CyLFClk.c ****     ********************************************************************************
1544:.\Generated_Source\PSoC4/CyLFClk.c ****     *
1545:.\Generated_Source\PSoC4/CyLFClk.c ****     * Summary:
1546:.\Generated_Source\PSoC4/CyLFClk.c ****     *  Returns once the LFCLK positive edge occurred.
1547:.\Generated_Source\PSoC4/CyLFClk.c ****     *
1548:.\Generated_Source\PSoC4/CyLFClk.c ****     *  CySysClkLfclkPosedgeRestore() should be called after this function
1549:.\Generated_Source\PSoC4/CyLFClk.c ****     *  to restore the WDT configuration.
1550:.\Generated_Source\PSoC4/CyLFClk.c ****     *
1551:.\Generated_Source\PSoC4/CyLFClk.c ****     *  A pair of the CySysClkLfclkPosedgeCatch() and CySysClkLfclkPosedgeRestore()
1552:.\Generated_Source\PSoC4/CyLFClk.c ****     *  functions is expected to be called inside a critical section.
1553:.\Generated_Source\PSoC4/CyLFClk.c ****     *
1554:.\Generated_Source\PSoC4/CyLFClk.c ****     *  To ensure that the WDT counter value is read until it changes, the enabled
1555:.\Generated_Source\PSoC4/CyLFClk.c ****     *  WDT counter is used. If no counter is enabled, counter 0 is enabled.
ARM GAS  C:\Users\Jarik\AppData\Local\Temp\ccPjN50m.s 			page 46


1556:.\Generated_Source\PSoC4/CyLFClk.c ****     *  And after the LFCLK source is switched, the counter 0 configuration
1557:.\Generated_Source\PSoC4/CyLFClk.c ****     *  is restored.
1558:.\Generated_Source\PSoC4/CyLFClk.c ****     *
1559:.\Generated_Source\PSoC4/CyLFClk.c ****     *  Not applicable for the PSoC 4000 devices.
1560:.\Generated_Source\PSoC4/CyLFClk.c ****     *
1561:.\Generated_Source\PSoC4/CyLFClk.c ****     * Parameters:
1562:.\Generated_Source\PSoC4/CyLFClk.c ****     *  None.
1563:.\Generated_Source\PSoC4/CyLFClk.c ****     *
1564:.\Generated_Source\PSoC4/CyLFClk.c ****     * Return:
1565:.\Generated_Source\PSoC4/CyLFClk.c ****     *  None.
1566:.\Generated_Source\PSoC4/CyLFClk.c ****     *
1567:.\Generated_Source\PSoC4/CyLFClk.c ****     * Side Effects:
1568:.\Generated_Source\PSoC4/CyLFClk.c ****     *  This function has no effect if WDT is locked (CySysWdtLock() is
1569:.\Generated_Source\PSoC4/CyLFClk.c ****     *  called). Call CySysWdtUnlock() to unlock WDT.
1570:.\Generated_Source\PSoC4/CyLFClk.c ****     *
1571:.\Generated_Source\PSoC4/CyLFClk.c ****     *******************************************************************************/
1572:.\Generated_Source\PSoC4/CyLFClk.c ****     static void CySysClkLfclkPosedgeCatch(void)
1573:.\Generated_Source\PSoC4/CyLFClk.c ****     {
1574:.\Generated_Source\PSoC4/CyLFClk.c ****         uint32 firstCount;
1575:.\Generated_Source\PSoC4/CyLFClk.c ****         static uint32 lfclkPosedgeEnabledWdtCounter = 0u;
1576:.\Generated_Source\PSoC4/CyLFClk.c **** 
1577:.\Generated_Source\PSoC4/CyLFClk.c ****         if (0u != CySysWdtGetEnabledStatus(CY_SYS_WDT_COUNTER0))
 961              		.loc 1 1577 0
 962 0026 9B07     		lsl	r3, r3, #30
 963 0028 01D5     		bpl	.L111
1578:.\Generated_Source\PSoC4/CyLFClk.c ****         {
1579:.\Generated_Source\PSoC4/CyLFClk.c ****             lfclkPosedgeEnabledWdtCounter = CY_SYS_WDT_COUNTER0;
 964              		.loc 1 1579 0
 965 002a 009B     		ldr	r3, [sp]
 966 002c 0AE0     		b	.L110
 967              	.L111:
 968              	.LVL77:
 969              	.LBB90:
 970              	.LBB91:
 496:.\Generated_Source\PSoC4/CyLFClk.c ****     }
 971              		.loc 1 496 0
 972 002e 2B68     		ldr	r3, [r5]
 973 0030 5B0A     		lsr	r3, r3, #9
 974              	.LBE91:
 975              	.LBE90:
1580:.\Generated_Source\PSoC4/CyLFClk.c ****         }
1581:.\Generated_Source\PSoC4/CyLFClk.c ****         else if (0u != CySysWdtGetEnabledStatus(CY_SYS_WDT_COUNTER1))
 976              		.loc 1 1581 0
 977 0032 3342     		tst	r3, r6
 978 0034 01D0     		beq	.L99
1582:.\Generated_Source\PSoC4/CyLFClk.c ****         {
1583:.\Generated_Source\PSoC4/CyLFClk.c ****             lfclkPosedgeEnabledWdtCounter = CY_SYS_WDT_COUNTER1;
 979              		.loc 1 1583 0
 980 0036 2660     		str	r6, [r4]
 981 0038 13E0     		b	.L98
 982              	.L99:
 983              	.LVL78:
 984              	.LBB92:
 985              	.LBB93:
 496:.\Generated_Source\PSoC4/CyLFClk.c ****     }
 986              		.loc 1 496 0
 987 003a 2968     		ldr	r1, [r5]
ARM GAS  C:\Users\Jarik\AppData\Local\Temp\ccPjN50m.s 			page 47


 988 003c 490C     		lsr	r1, r1, #17
 989 003e 3140     		and	r1, r6
 990              	.LBE93:
 991              	.LBE92:
1584:.\Generated_Source\PSoC4/CyLFClk.c ****         }
1585:.\Generated_Source\PSoC4/CyLFClk.c ****         else if (0u != CySysWdtGetEnabledStatus(CY_SYS_WDT_COUNTER2))
 992              		.loc 1 1585 0
 993 0040 02D0     		beq	.L100
1586:.\Generated_Source\PSoC4/CyLFClk.c ****         {
1587:.\Generated_Source\PSoC4/CyLFClk.c ****             lfclkPosedgeEnabledWdtCounter = CY_SYS_WDT_COUNTER2;
 994              		.loc 1 1587 0
 995 0042 0223     		mov	r3, #2
 996              	.LVL79:
 997              	.L110:
 998 0044 2360     		str	r3, [r4]
 999 0046 0CE0     		b	.L98
 1000              	.LVL80:
 1001              	.L100:
 1002              	.LBB94:
 1003              	.LBB95:
 562:.\Generated_Source\PSoC4/CyLFClk.c ****     }
 1004              		.loc 1 562 0
 1005 0048 1A4B     		ldr	r3, .L112+16
 1006              	.LBE95:
 1007              	.LBE94:
1588:.\Generated_Source\PSoC4/CyLFClk.c ****         }
1589:.\Generated_Source\PSoC4/CyLFClk.c ****         else /* All WDT counters are disabled */
1590:.\Generated_Source\PSoC4/CyLFClk.c ****         {
1591:.\Generated_Source\PSoC4/CyLFClk.c ****             /* Configure WDT counter # 0 */
1592:.\Generated_Source\PSoC4/CyLFClk.c ****             lfclkPosedgeWdtCounter0Enabled = 1u;
 1008              		.loc 1 1592 0
 1009 004a 6660     		str	r6, [r4, #4]
1593:.\Generated_Source\PSoC4/CyLFClk.c ****             lfclkPosedgeEnabledWdtCounter = CY_SYS_WDT_COUNTER0;
 1010              		.loc 1 1593 0
 1011 004c 2160     		str	r1, [r4]
 1012              	.LVL81:
 1013              	.LBB98:
 1014              	.LBB96:
 562:.\Generated_Source\PSoC4/CyLFClk.c ****     }
 1015              		.loc 1 562 0
 1016 004e 1A68     		ldr	r2, [r3]
 1017 0050 0323     		mov	r3, #3
 1018              	.LBE96:
 1019              	.LBE98:
1594:.\Generated_Source\PSoC4/CyLFClk.c **** 
1595:.\Generated_Source\PSoC4/CyLFClk.c ****             lfclkPosedgeWdtCounter0Mode = CySysWdtGetMode(CY_SYS_WDT_COUNTER0);
1596:.\Generated_Source\PSoC4/CyLFClk.c ****             CySysWdtSetMode(CY_SYS_WDT_COUNTER0, CY_SYS_WDT_MODE_NONE);
 1020              		.loc 1 1596 0
 1021 0052 081C     		mov	r0, r1
 1022              	.LBB99:
 1023              	.LBB97:
 562:.\Generated_Source\PSoC4/CyLFClk.c ****     }
 1024              		.loc 1 562 0
 1025 0054 1340     		and	r3, r2
 1026              	.LBE97:
 1027              	.LBE99:
1595:.\Generated_Source\PSoC4/CyLFClk.c ****             CySysWdtSetMode(CY_SYS_WDT_COUNTER0, CY_SYS_WDT_MODE_NONE);
ARM GAS  C:\Users\Jarik\AppData\Local\Temp\ccPjN50m.s 			page 48


 1028              		.loc 1 1595 0
 1029 0056 A360     		str	r3, [r4, #8]
 1030              		.loc 1 1596 0
 1031 0058 FFF7FEFF 		bl	CySysWdtSetMode
 1032              	.LVL82:
1597:.\Generated_Source\PSoC4/CyLFClk.c ****             CySysWdtEnable(CY_SYS_WDT_COUNTER0_MASK);
 1033              		.loc 1 1597 0
 1034 005c 301C     		mov	r0, r6
 1035 005e FFF7FEFF 		bl	CySysWdtEnable
 1036              	.LVL83:
 1037              	.L98:
1598:.\Generated_Source\PSoC4/CyLFClk.c ****         }
1599:.\Generated_Source\PSoC4/CyLFClk.c **** 
1600:.\Generated_Source\PSoC4/CyLFClk.c ****         firstCount = CySysWdtGetCount(lfclkPosedgeEnabledWdtCounter);
 1038              		.loc 1 1600 0
 1039 0062 2668     		ldr	r6, [r4]
 1040 0064 301C     		mov	r0, r6
 1041 0066 FFF7FEFF 		bl	CySysWdtGetCount
 1042              	.LVL84:
 1043 006a 0090     		str	r0, [sp]
 1044              	.LVL85:
 1045              	.L101:
1601:.\Generated_Source\PSoC4/CyLFClk.c ****         while (CySysWdtGetCount(lfclkPosedgeEnabledWdtCounter) == firstCount)
 1046              		.loc 1 1601 0
 1047 006c 301C     		mov	r0, r6
 1048 006e FFF7FEFF 		bl	CySysWdtGetCount
 1049              	.LVL86:
 1050 0072 009B     		ldr	r3, [sp]
 1051 0074 9842     		cmp	r0, r3
 1052 0076 F9D0     		beq	.L101
 1053              	.LBE100:
 1054              	.LBE101:
 114:.\Generated_Source\PSoC4/CyLFClk.c ****                 CySysClkLfclkPosedgeRestore();
 1055              		.loc 1 114 0
 1056 0078 3B68     		ldr	r3, [r7]
 1057 007a 5B00     		lsl	r3, r3, #1
 1058 007c 5B08     		lsr	r3, r3, #1
 1059 007e 3B60     		str	r3, [r7]
 1060              	.LBB102:
 1061              	.LBB103:
1602:.\Generated_Source\PSoC4/CyLFClk.c ****         {
1603:.\Generated_Source\PSoC4/CyLFClk.c ****             /* Wait for counter to increment */
1604:.\Generated_Source\PSoC4/CyLFClk.c ****         }
1605:.\Generated_Source\PSoC4/CyLFClk.c ****     }
1606:.\Generated_Source\PSoC4/CyLFClk.c **** 
1607:.\Generated_Source\PSoC4/CyLFClk.c **** 
1608:.\Generated_Source\PSoC4/CyLFClk.c ****     /*******************************************************************************
1609:.\Generated_Source\PSoC4/CyLFClk.c ****     * Function Name: CySysClkLfclkPosedgeRestore
1610:.\Generated_Source\PSoC4/CyLFClk.c ****     ********************************************************************************
1611:.\Generated_Source\PSoC4/CyLFClk.c ****     *
1612:.\Generated_Source\PSoC4/CyLFClk.c ****     * Summary:
1613:.\Generated_Source\PSoC4/CyLFClk.c ****     *  Restores the WDT configuration after a CySysClkLfclkPosedgeCatch() call.
1614:.\Generated_Source\PSoC4/CyLFClk.c ****     *
1615:.\Generated_Source\PSoC4/CyLFClk.c ****     *  A pair of the CySysClkLfclkPosedgeCatch() and CySysClkLfclkPosedgeRestore()
1616:.\Generated_Source\PSoC4/CyLFClk.c ****     *  functions is expected to be called inside a critical section.
1617:.\Generated_Source\PSoC4/CyLFClk.c ****     *
1618:.\Generated_Source\PSoC4/CyLFClk.c ****     *  Not applicable for the PSoC 4000 devices.
ARM GAS  C:\Users\Jarik\AppData\Local\Temp\ccPjN50m.s 			page 49


1619:.\Generated_Source\PSoC4/CyLFClk.c ****     *
1620:.\Generated_Source\PSoC4/CyLFClk.c ****     * Parameters:
1621:.\Generated_Source\PSoC4/CyLFClk.c ****     *  None.
1622:.\Generated_Source\PSoC4/CyLFClk.c ****     *
1623:.\Generated_Source\PSoC4/CyLFClk.c ****     * Return:
1624:.\Generated_Source\PSoC4/CyLFClk.c ****     *  None.
1625:.\Generated_Source\PSoC4/CyLFClk.c ****     *
1626:.\Generated_Source\PSoC4/CyLFClk.c ****     * Side Effects:
1627:.\Generated_Source\PSoC4/CyLFClk.c ****     *  This function has no effect if WDT is locked (CySysWdtLock() is
1628:.\Generated_Source\PSoC4/CyLFClk.c ****     *  called). Call CySysWdtUnlock() to unlock WDT.
1629:.\Generated_Source\PSoC4/CyLFClk.c ****     *
1630:.\Generated_Source\PSoC4/CyLFClk.c ****     *******************************************************************************/
1631:.\Generated_Source\PSoC4/CyLFClk.c ****     static void CySysClkLfclkPosedgeRestore(void)
1632:.\Generated_Source\PSoC4/CyLFClk.c ****     {
1633:.\Generated_Source\PSoC4/CyLFClk.c ****         if (lfclkPosedgeWdtCounter0Enabled != 0u)
 1062              		.loc 1 1633 0
 1063 0080 6368     		ldr	r3, [r4, #4]
 1064 0082 002B     		cmp	r3, #0
 1065 0084 09D0     		beq	.L102
1634:.\Generated_Source\PSoC4/CyLFClk.c ****         {
1635:.\Generated_Source\PSoC4/CyLFClk.c ****             /* Restore counter # 0 configuration and force its shutdown */
1636:.\Generated_Source\PSoC4/CyLFClk.c ****             CY_SYS_WDT_CONTROL_REG &= (uint32)(~CY_SYS_WDT_COUNTER0_MASK);
 1066              		.loc 1 1636 0
 1067 0086 0122     		mov	r2, #1
 1068 0088 2B68     		ldr	r3, [r5]
1637:.\Generated_Source\PSoC4/CyLFClk.c ****             CySysWdtSetMode(CY_SYS_WDT_COUNTER0, lfclkPosedgeWdtCounter0Mode);
 1069              		.loc 1 1637 0
 1070 008a 0020     		mov	r0, #0
1636:.\Generated_Source\PSoC4/CyLFClk.c ****             CySysWdtSetMode(CY_SYS_WDT_COUNTER0, lfclkPosedgeWdtCounter0Mode);
 1071              		.loc 1 1636 0
 1072 008c 9343     		bic	r3, r2
 1073 008e 2B60     		str	r3, [r5]
 1074              		.loc 1 1637 0
 1075 0090 A168     		ldr	r1, [r4, #8]
 1076 0092 FFF7FEFF 		bl	CySysWdtSetMode
 1077              	.LVL87:
1638:.\Generated_Source\PSoC4/CyLFClk.c ****             lfclkPosedgeWdtCounter0Enabled = 0u;
 1078              		.loc 1 1638 0
 1079 0096 0023     		mov	r3, #0
 1080 0098 6360     		str	r3, [r4, #4]
 1081              	.L102:
 1082              	.LBE103:
 1083              	.LBE102:
 116:.\Generated_Source\PSoC4/CyLFClk.c **** 
 1084              		.loc 1 116 0
 1085 009a 0198     		ldr	r0, [sp, #4]
 1086 009c FFF7FEFF 		bl	CyExitCriticalSection
 1087              	.LVL88:
 1088              	.L95:
 131:.\Generated_Source\PSoC4/CyLFClk.c **** 
 1089              		.loc 1 131 0
 1090              		@ sp needed
 1091 00a0 F7BD     		pop	{r0, r1, r2, r4, r5, r6, r7, pc}
 1092              	.L113:
 1093 00a2 C046     		.align	2
 1094              	.L112:
 1095 00a4 00010B40 		.word	1074462976
ARM GAS  C:\Users\Jarik\AppData\Local\Temp\ccPjN50m.s 			page 50


 1096 00a8 04010B40 		.word	1074462980
 1097 00ac 10020B40 		.word	1074463248
 1098 00b0 00000000 		.word	.LANCHOR0
 1099 00b4 0C020B40 		.word	1074463244
 1100              		.cfi_endproc
 1101              	.LFE1:
 1102              		.size	CySysClkIloStop, .-CySysClkIloStop
 1103              		.section	.text.CySysWdtGetInterruptSource,"ax",%progbits
 1104              		.align	1
 1105              		.global	CySysWdtGetInterruptSource
 1106              		.code	16
 1107              		.thumb_func
 1108              		.type	CySysWdtGetInterruptSource, %function
 1109              	CySysWdtGetInterruptSource:
 1110              	.LFB20:
1022:.\Generated_Source\PSoC4/CyLFClk.c ****         return (CY_SYS_WDT_CONTROL_REG & (CY_SYS_WDT_COUNTER0_INT | CY_SYS_WDT_COUNTER1_INT | CY_SY
 1111              		.loc 1 1022 0
 1112              		.cfi_startproc
1023:.\Generated_Source\PSoC4/CyLFClk.c ****     }
 1113              		.loc 1 1023 0
 1114 0000 024B     		ldr	r3, .L115
1024:.\Generated_Source\PSoC4/CyLFClk.c **** 
 1115              		.loc 1 1024 0
 1116              		@ sp needed
1023:.\Generated_Source\PSoC4/CyLFClk.c ****     }
 1117              		.loc 1 1023 0
 1118 0002 1868     		ldr	r0, [r3]
 1119 0004 024B     		ldr	r3, .L115+4
 1120 0006 1840     		and	r0, r3
1024:.\Generated_Source\PSoC4/CyLFClk.c **** 
 1121              		.loc 1 1024 0
 1122 0008 7047     		bx	lr
 1123              	.L116:
 1124 000a C046     		.align	2
 1125              	.L115:
 1126 000c 10020B40 		.word	1074463248
 1127 0010 04040400 		.word	263172
 1128              		.cfi_endproc
 1129              	.LFE20:
 1130              		.size	CySysWdtGetInterruptSource, .-CySysWdtGetInterruptSource
 1131              		.section	.text.CySysWdtClearInterrupt,"ax",%progbits
 1132              		.align	1
 1133              		.global	CySysWdtClearInterrupt
 1134              		.code	16
 1135              		.thumb_func
 1136              		.type	CySysWdtClearInterrupt, %function
 1137              	CySysWdtClearInterrupt:
 1138              	.LFB21:
1056:.\Generated_Source\PSoC4/CyLFClk.c ****         uint8 interruptState;
 1139              		.loc 1 1056 0
 1140              		.cfi_startproc
 1141              	.LVL89:
 1142 0000 70B5     		push	{r4, r5, r6, lr}
 1143              		.cfi_def_cfa_offset 16
 1144              		.cfi_offset 4, -16
 1145              		.cfi_offset 5, -12
 1146              		.cfi_offset 6, -8
ARM GAS  C:\Users\Jarik\AppData\Local\Temp\ccPjN50m.s 			page 51


 1147              		.cfi_offset 14, -4
1056:.\Generated_Source\PSoC4/CyLFClk.c ****         uint8 interruptState;
 1148              		.loc 1 1056 0
 1149 0002 051C     		mov	r5, r0
1060:.\Generated_Source\PSoC4/CyLFClk.c **** 
 1150              		.loc 1 1060 0
 1151 0004 FFF7FEFF 		bl	CyEnterCriticalSection
 1152              	.LVL90:
 1153              	.LBB106:
 1154              	.LBB107:
 437:.\Generated_Source\PSoC4/CyLFClk.c ****     }
 1155              		.loc 1 437 0
 1156 0008 0E4B     		ldr	r3, .L122
 1157              	.LBE107:
 1158              	.LBE106:
1060:.\Generated_Source\PSoC4/CyLFClk.c **** 
 1159              		.loc 1 1060 0
 1160 000a 041C     		mov	r4, r0
 1161              	.LVL91:
 1162              	.LBB109:
 1163              	.LBB108:
 437:.\Generated_Source\PSoC4/CyLFClk.c ****     }
 1164              		.loc 1 437 0
 1165 000c 1A68     		ldr	r2, [r3]
 1166 000e C023     		mov	r3, #192
 1167 0010 1B02     		lsl	r3, r3, #8
 1168 0012 1340     		and	r3, r2
 1169 0014 11D1     		bne	.L118
 1170              	.L120:
 1171              	.LVL92:
 1172              	.LBE108:
 1173              	.LBE109:
1073:.\Generated_Source\PSoC4/CyLFClk.c ****                         CY_SYS_WDT_COUNTER1_INT |
 1174              		.loc 1 1073 0
 1175 0016 0C48     		ldr	r0, .L122+4
1077:.\Generated_Source\PSoC4/CyLFClk.c ****                                                                            CY_SYS_WDT_COUNTER1_INT 
 1176              		.loc 1 1077 0
 1177 0018 0C49     		ldr	r1, .L122+8
1073:.\Generated_Source\PSoC4/CyLFClk.c ****                         CY_SYS_WDT_COUNTER1_INT |
 1178              		.loc 1 1073 0
 1179 001a 0540     		and	r5, r0
 1180              	.LVL93:
1077:.\Generated_Source\PSoC4/CyLFClk.c ****                                                                            CY_SYS_WDT_COUNTER1_INT 
 1181              		.loc 1 1077 0
 1182 001c 281C     		mov	r0, r5
 1183 001e 0E68     		ldr	r6, [r1]
 1184 0020 0B4A     		ldr	r2, .L122+12
 1185 0022 3240     		and	r2, r6
 1186 0024 1043     		orr	r0, r2
 1187 0026 0860     		str	r0, [r1]
1084:.\Generated_Source\PSoC4/CyLFClk.c **** 
 1188              		.loc 1 1084 0
 1189 0028 0A68     		ldr	r2, [r1]
1086:.\Generated_Source\PSoC4/CyLFClk.c ****         {
 1190              		.loc 1 1086 0
 1191 002a 012B     		cmp	r3, #1
 1192 002c 01D1     		bne	.L119
ARM GAS  C:\Users\Jarik\AppData\Local\Temp\ccPjN50m.s 			page 52


 1193              	.LVL94:
1088:.\Generated_Source\PSoC4/CyLFClk.c ****         }
 1194              		.loc 1 1088 0
 1195 002e FFF7FEFF 		bl	CySysWdtLock
 1196              	.LVL95:
 1197              	.L119:
1091:.\Generated_Source\PSoC4/CyLFClk.c ****     }
 1198              		.loc 1 1091 0
 1199 0032 201C     		mov	r0, r4
 1200 0034 FFF7FEFF 		bl	CyExitCriticalSection
 1201              	.LVL96:
1092:.\Generated_Source\PSoC4/CyLFClk.c **** 
 1202              		.loc 1 1092 0
 1203              		@ sp needed
 1204              	.LVL97:
 1205 0038 70BD     		pop	{r4, r5, r6, pc}
 1206              	.LVL98:
 1207              	.L118:
1065:.\Generated_Source\PSoC4/CyLFClk.c ****         }
 1208              		.loc 1 1065 0
 1209 003a FFF7FEFF 		bl	CySysWdtUnlock
 1210              	.LVL99:
1064:.\Generated_Source\PSoC4/CyLFClk.c ****             CySysWdtUnlock();
 1211              		.loc 1 1064 0
 1212 003e 0123     		mov	r3, #1
 1213 0040 E9E7     		b	.L120
 1214              	.L123:
 1215 0042 C046     		.align	2
 1216              	.L122:
 1217 0044 00010B40 		.word	1074462976
 1218 0048 04040400 		.word	263172
 1219 004c 10020B40 		.word	1074463248
 1220 0050 FBFBFBFF 		.word	-263173
 1221              		.cfi_endproc
 1222              	.LFE21:
 1223              		.size	CySysWdtClearInterrupt, .-CySysWdtClearInterrupt
 1224              		.section	.text.CySysWdtResetCounters,"ax",%progbits
 1225              		.align	1
 1226              		.global	CySysWdtResetCounters
 1227              		.code	16
 1228              		.thumb_func
 1229              		.type	CySysWdtResetCounters, %function
 1230              	CySysWdtResetCounters:
 1231              	.LFB22:
1120:.\Generated_Source\PSoC4/CyLFClk.c ****         /* Set new WDT reset value */
 1232              		.loc 1 1120 0
 1233              		.cfi_startproc
 1234              	.LVL100:
1122:.\Generated_Source\PSoC4/CyLFClk.c **** 
 1235              		.loc 1 1122 0
 1236 0000 044B     		ldr	r3, .L126
 1237 0002 054A     		ldr	r2, .L126+4
 1238 0004 1968     		ldr	r1, [r3]
 1239 0006 1040     		and	r0, r2
 1240              	.LVL101:
 1241 0008 0843     		orr	r0, r1
 1242 000a 1860     		str	r0, [r3]
ARM GAS  C:\Users\Jarik\AppData\Local\Temp\ccPjN50m.s 			page 53


 1243              	.L125:
1124:.\Generated_Source\PSoC4/CyLFClk.c ****         {
 1244              		.loc 1 1124 0 discriminator 1
 1245 000c 1968     		ldr	r1, [r3]
 1246 000e 1142     		tst	r1, r2
 1247 0010 FCD1     		bne	.L125
1128:.\Generated_Source\PSoC4/CyLFClk.c **** 
 1248              		.loc 1 1128 0
 1249              		@ sp needed
 1250 0012 7047     		bx	lr
 1251              	.L127:
 1252              		.align	2
 1253              	.L126:
 1254 0014 10020B40 		.word	1074463248
 1255 0018 08080800 		.word	526344
 1256              		.cfi_endproc
 1257              	.LFE22:
 1258              		.size	CySysWdtResetCounters, .-CySysWdtResetCounters
 1259              		.section	.text.CySysWdtSetInterruptCallback,"ax",%progbits
 1260              		.align	1
 1261              		.global	CySysWdtSetInterruptCallback
 1262              		.code	16
 1263              		.thumb_func
 1264              		.type	CySysWdtSetInterruptCallback, %function
 1265              	CySysWdtSetInterruptCallback:
 1266              	.LFB23:
1149:.\Generated_Source\PSoC4/CyLFClk.c ****         cyWdtCallback prevCallback = (void *)0;
 1267              		.loc 1 1149 0
 1268              		.cfi_startproc
 1269              	.LVL102:
1150:.\Generated_Source\PSoC4/CyLFClk.c **** 
 1270              		.loc 1 1150 0
 1271 0000 0022     		mov	r2, #0
1152:.\Generated_Source\PSoC4/CyLFClk.c ****         {
 1272              		.loc 1 1152 0
 1273 0002 0228     		cmp	r0, #2
 1274 0004 04D8     		bhi	.L129
1154:.\Generated_Source\PSoC4/CyLFClk.c ****             cySysWdtCallback[counterNum] = function;
 1275              		.loc 1 1154 0
 1276 0006 034B     		ldr	r3, .L131
 1277 0008 8000     		lsl	r0, r0, #2
 1278              	.LVL103:
 1279 000a 1B18     		add	r3, r3, r0
 1280 000c DA68     		ldr	r2, [r3, #12]
 1281              	.LVL104:
1155:.\Generated_Source\PSoC4/CyLFClk.c ****         }
 1282              		.loc 1 1155 0
 1283 000e D960     		str	r1, [r3, #12]
 1284              	.LVL105:
 1285              	.L129:
1163:.\Generated_Source\PSoC4/CyLFClk.c **** 
 1286              		.loc 1 1163 0
 1287 0010 101C     		mov	r0, r2
 1288              		@ sp needed
 1289 0012 7047     		bx	lr
 1290              	.L132:
 1291              		.align	2
ARM GAS  C:\Users\Jarik\AppData\Local\Temp\ccPjN50m.s 			page 54


 1292              	.L131:
 1293 0014 00000000 		.word	.LANCHOR0
 1294              		.cfi_endproc
 1295              	.LFE23:
 1296              		.size	CySysWdtSetInterruptCallback, .-CySysWdtSetInterruptCallback
 1297              		.section	.text.CySysWdtGetInterruptCallback,"ax",%progbits
 1298              		.align	1
 1299              		.global	CySysWdtGetInterruptCallback
 1300              		.code	16
 1301              		.thumb_func
 1302              		.type	CySysWdtGetInterruptCallback, %function
 1303              	CySysWdtGetInterruptCallback:
 1304              	.LFB24:
1182:.\Generated_Source\PSoC4/CyLFClk.c ****         cyWdtCallback retCallback = (void *)0;
 1305              		.loc 1 1182 0
 1306              		.cfi_startproc
 1307              	.LVL106:
1183:.\Generated_Source\PSoC4/CyLFClk.c **** 
 1308              		.loc 1 1183 0
 1309 0000 0023     		mov	r3, #0
1185:.\Generated_Source\PSoC4/CyLFClk.c ****         {
 1310              		.loc 1 1185 0
 1311 0002 0228     		cmp	r0, #2
 1312 0004 03D8     		bhi	.L134
1187:.\Generated_Source\PSoC4/CyLFClk.c ****         }
 1313              		.loc 1 1187 0
 1314 0006 034B     		ldr	r3, .L136
 1315 0008 8000     		lsl	r0, r0, #2
 1316              	.LVL107:
 1317 000a 1818     		add	r0, r3, r0
 1318 000c C368     		ldr	r3, [r0, #12]
 1319              	.LVL108:
 1320              	.L134:
1195:.\Generated_Source\PSoC4/CyLFClk.c **** 
 1321              		.loc 1 1195 0
 1322 000e 181C     		mov	r0, r3
 1323              		@ sp needed
 1324 0010 7047     		bx	lr
 1325              	.L137:
 1326 0012 C046     		.align	2
 1327              	.L136:
 1328 0014 00000000 		.word	.LANCHOR0
 1329              		.cfi_endproc
 1330              	.LFE24:
 1331              		.size	CySysWdtGetInterruptCallback, .-CySysWdtGetInterruptCallback
 1332              		.section	.text.CySysWdtEnableCounterIsr,"ax",%progbits
 1333              		.align	1
 1334              		.global	CySysWdtEnableCounterIsr
 1335              		.code	16
 1336              		.thumb_func
 1337              		.type	CySysWdtEnableCounterIsr, %function
 1338              	CySysWdtEnableCounterIsr:
 1339              	.LFB25:
1210:.\Generated_Source\PSoC4/CyLFClk.c ****         if(counterNum <= CY_SYS_WDT_COUNTER2)
 1340              		.loc 1 1210 0
 1341              		.cfi_startproc
 1342              	.LVL109:
ARM GAS  C:\Users\Jarik\AppData\Local\Temp\ccPjN50m.s 			page 55


1211:.\Generated_Source\PSoC4/CyLFClk.c ****         {
 1343              		.loc 1 1211 0
 1344 0000 0228     		cmp	r0, #2
 1345 0002 0AD8     		bhi	.L138
1213:.\Generated_Source\PSoC4/CyLFClk.c ****             wdtIsrMask |= counterIntMaskTbl[counterNum];
 1346              		.loc 1 1213 0
 1347 0004 054B     		ldr	r3, .L140
 1348 0006 0649     		ldr	r1, .L140+4
 1349 0008 8000     		lsl	r0, r0, #2
 1350              	.LVL110:
 1351 000a 9A69     		ldr	r2, [r3, #24]
 1352 000c 4158     		ldr	r1, [r0, r1]
 1353 000e 8A43     		bic	r2, r1
 1354 0010 9A61     		str	r2, [r3, #24]
1214:.\Generated_Source\PSoC4/CyLFClk.c ****         }
 1355              		.loc 1 1214 0
 1356 0012 044A     		ldr	r2, .L140+8
 1357 0014 1368     		ldr	r3, [r2]
 1358 0016 0B43     		orr	r3, r1
 1359 0018 1360     		str	r3, [r2]
 1360              	.L138:
1220:.\Generated_Source\PSoC4/CyLFClk.c **** 
 1361              		.loc 1 1220 0
 1362              		@ sp needed
 1363 001a 7047     		bx	lr
 1364              	.L141:
 1365              		.align	2
 1366              	.L140:
 1367 001c 00000000 		.word	.LANCHOR0
 1368 0020 00000000 		.word	.LANCHOR1
 1369 0024 00000000 		.word	.LANCHOR2
 1370              		.cfi_endproc
 1371              	.LFE25:
 1372              		.size	CySysWdtEnableCounterIsr, .-CySysWdtEnableCounterIsr
 1373              		.section	.text.CySysWdtDisableCounterIsr,"ax",%progbits
 1374              		.align	1
 1375              		.global	CySysWdtDisableCounterIsr
 1376              		.code	16
 1377              		.thumb_func
 1378              		.type	CySysWdtDisableCounterIsr, %function
 1379              	CySysWdtDisableCounterIsr:
 1380              	.LFB26:
1235:.\Generated_Source\PSoC4/CyLFClk.c ****         if(counterNum <= CY_SYS_WDT_COUNTER2)
 1381              		.loc 1 1235 0
 1382              		.cfi_startproc
 1383              	.LVL111:
1236:.\Generated_Source\PSoC4/CyLFClk.c ****         {
 1384              		.loc 1 1236 0
 1385 0000 0228     		cmp	r0, #2
 1386 0002 06D8     		bhi	.L142
1238:.\Generated_Source\PSoC4/CyLFClk.c ****         }
 1387              		.loc 1 1238 0
 1388 0004 034A     		ldr	r2, .L144
 1389 0006 0449     		ldr	r1, .L144+4
 1390 0008 8000     		lsl	r0, r0, #2
 1391              	.LVL112:
 1392 000a 1368     		ldr	r3, [r2]
ARM GAS  C:\Users\Jarik\AppData\Local\Temp\ccPjN50m.s 			page 56


 1393 000c 4158     		ldr	r1, [r0, r1]
 1394 000e 8B43     		bic	r3, r1
 1395 0010 1360     		str	r3, [r2]
 1396              	.L142:
1244:.\Generated_Source\PSoC4/CyLFClk.c **** 
 1397              		.loc 1 1244 0
 1398              		@ sp needed
 1399 0012 7047     		bx	lr
 1400              	.L145:
 1401              		.align	2
 1402              	.L144:
 1403 0014 00000000 		.word	.LANCHOR2
 1404 0018 00000000 		.word	.LANCHOR1
 1405              		.cfi_endproc
 1406              	.LFE26:
 1407              		.size	CySysWdtDisableCounterIsr, .-CySysWdtDisableCounterIsr
 1408              		.section	.text.CySysWdtIsr,"ax",%progbits
 1409              		.align	1
 1410              		.global	CySysWdtIsr
 1411              		.code	16
 1412              		.thumb_func
 1413              		.type	CySysWdtIsr, %function
 1414              	CySysWdtIsr:
 1415              	.LFB27:
1273:.\Generated_Source\PSoC4/CyLFClk.c ****         if(0u != (CY_SYS_WDT_COUNTER0_INT & CY_SYS_WDT_CONTROL_REG))
 1416              		.loc 1 1273 0
 1417              		.cfi_startproc
1274:.\Generated_Source\PSoC4/CyLFClk.c ****         {
 1418              		.loc 1 1274 0
 1419 0000 0422     		mov	r2, #4
1273:.\Generated_Source\PSoC4/CyLFClk.c ****         if(0u != (CY_SYS_WDT_COUNTER0_INT & CY_SYS_WDT_CONTROL_REG))
 1420              		.loc 1 1273 0
 1421 0002 38B5     		push	{r3, r4, r5, lr}
 1422              		.cfi_def_cfa_offset 16
 1423              		.cfi_offset 3, -16
 1424              		.cfi_offset 4, -12
 1425              		.cfi_offset 5, -8
 1426              		.cfi_offset 14, -4
1274:.\Generated_Source\PSoC4/CyLFClk.c ****         {
 1427              		.loc 1 1274 0
 1428 0004 224C     		ldr	r4, .L178
 1429 0006 2368     		ldr	r3, [r4]
 1430 0008 1342     		tst	r3, r2
 1431 000a 13D0     		beq	.L147
1276:.\Generated_Source\PSoC4/CyLFClk.c ****             {
 1432              		.loc 1 1276 0
 1433 000c 2149     		ldr	r1, .L178+4
 1434 000e 0B68     		ldr	r3, [r1]
 1435 0010 1342     		tst	r3, r2
 1436 0012 0CD0     		beq	.L149
1278:.\Generated_Source\PSoC4/CyLFClk.c ****                 disableServicedIsr  &= ~CY_SYS_WDT_COUNTER0_INT;
 1437              		.loc 1 1278 0
 1438 0014 204B     		ldr	r3, .L178+8
 1439 0016 9D69     		ldr	r5, [r3, #24]
 1440 0018 0868     		ldr	r0, [r1]
 1441 001a 1540     		and	r5, r2
 1442 001c A843     		bic	r0, r5
ARM GAS  C:\Users\Jarik\AppData\Local\Temp\ccPjN50m.s 			page 57


 1443 001e 0860     		str	r0, [r1]
1279:.\Generated_Source\PSoC4/CyLFClk.c ****                 if(cySysWdtCallback[CY_SYS_WDT_COUNTER0] != (void *) 0)
 1444              		.loc 1 1279 0
 1445 0020 9969     		ldr	r1, [r3, #24]
 1446 0022 9143     		bic	r1, r2
 1447 0024 9961     		str	r1, [r3, #24]
1280:.\Generated_Source\PSoC4/CyLFClk.c ****                 {
 1448              		.loc 1 1280 0
 1449 0026 DB68     		ldr	r3, [r3, #12]
 1450 0028 002B     		cmp	r3, #0
 1451 002a 00D0     		beq	.L149
1282:.\Generated_Source\PSoC4/CyLFClk.c ****                 }
 1452              		.loc 1 1282 0
 1453 002c 9847     		blx	r3
 1454              	.LVL113:
 1455              	.L149:
1285:.\Generated_Source\PSoC4/CyLFClk.c ****         }
 1456              		.loc 1 1285 0
 1457 002e 0420     		mov	r0, #4
 1458 0030 FFF7FEFF 		bl	CySysWdtClearInterrupt
 1459              	.LVL114:
 1460              	.L147:
1288:.\Generated_Source\PSoC4/CyLFClk.c ****         {
 1461              		.loc 1 1288 0
 1462 0034 8023     		mov	r3, #128
 1463 0036 2268     		ldr	r2, [r4]
 1464 0038 DB00     		lsl	r3, r3, #3
 1465 003a 1A42     		tst	r2, r3
 1466 003c 15D0     		beq	.L151
1290:.\Generated_Source\PSoC4/CyLFClk.c ****             {
 1467              		.loc 1 1290 0
 1468 003e 1549     		ldr	r1, .L178+4
 1469 0040 0A68     		ldr	r2, [r1]
 1470 0042 1A42     		tst	r2, r3
 1471 0044 0DD0     		beq	.L153
1292:.\Generated_Source\PSoC4/CyLFClk.c ****                 disableServicedIsr  &= ~CY_SYS_WDT_COUNTER1_INT;
 1472              		.loc 1 1292 0
 1473 0046 144A     		ldr	r2, .L178+8
 1474 0048 9569     		ldr	r5, [r2, #24]
 1475 004a 0868     		ldr	r0, [r1]
 1476 004c 2B40     		and	r3, r5
 1477 004e 9843     		bic	r0, r3
 1478 0050 0860     		str	r0, [r1]
1293:.\Generated_Source\PSoC4/CyLFClk.c ****                 if(cySysWdtCallback[CY_SYS_WDT_COUNTER1] != (void *) 0)
 1479              		.loc 1 1293 0
 1480 0052 9169     		ldr	r1, [r2, #24]
 1481 0054 114B     		ldr	r3, .L178+12
 1482 0056 0B40     		and	r3, r1
 1483 0058 9361     		str	r3, [r2, #24]
1294:.\Generated_Source\PSoC4/CyLFClk.c ****                 {
 1484              		.loc 1 1294 0
 1485 005a 1369     		ldr	r3, [r2, #16]
 1486 005c 002B     		cmp	r3, #0
 1487 005e 00D0     		beq	.L153
1296:.\Generated_Source\PSoC4/CyLFClk.c ****                 }
 1488              		.loc 1 1296 0
 1489 0060 9847     		blx	r3
ARM GAS  C:\Users\Jarik\AppData\Local\Temp\ccPjN50m.s 			page 58


 1490              	.LVL115:
 1491              	.L153:
1299:.\Generated_Source\PSoC4/CyLFClk.c ****         }
 1492              		.loc 1 1299 0
 1493 0062 8020     		mov	r0, #128
 1494 0064 C000     		lsl	r0, r0, #3
 1495 0066 FFF7FEFF 		bl	CySysWdtClearInterrupt
 1496              	.LVL116:
 1497              	.L151:
1302:.\Generated_Source\PSoC4/CyLFClk.c ****         {
 1498              		.loc 1 1302 0
 1499 006a 8023     		mov	r3, #128
 1500 006c 2268     		ldr	r2, [r4]
 1501 006e DB02     		lsl	r3, r3, #11
 1502 0070 1A42     		tst	r2, r3
 1503 0072 0CD0     		beq	.L146
1304:.\Generated_Source\PSoC4/CyLFClk.c ****             {
 1504              		.loc 1 1304 0
 1505 0074 074A     		ldr	r2, .L178+4
 1506 0076 1268     		ldr	r2, [r2]
 1507 0078 1A42     		tst	r2, r3
 1508 007a 04D0     		beq	.L156
1306:.\Generated_Source\PSoC4/CyLFClk.c ****                 {
 1509              		.loc 1 1306 0
 1510 007c 064B     		ldr	r3, .L178+8
 1511 007e 5B69     		ldr	r3, [r3, #20]
 1512 0080 002B     		cmp	r3, #0
 1513 0082 00D0     		beq	.L156
1308:.\Generated_Source\PSoC4/CyLFClk.c ****                 }
 1514              		.loc 1 1308 0
 1515 0084 9847     		blx	r3
 1516              	.LVL117:
 1517              	.L156:
1311:.\Generated_Source\PSoC4/CyLFClk.c ****         }
 1518              		.loc 1 1311 0
 1519 0086 8020     		mov	r0, #128
 1520 0088 C002     		lsl	r0, r0, #11
 1521 008a FFF7FEFF 		bl	CySysWdtClearInterrupt
 1522              	.LVL118:
 1523              	.L146:
1313:.\Generated_Source\PSoC4/CyLFClk.c **** 
 1524              		.loc 1 1313 0
 1525              		@ sp needed
 1526 008e 38BD     		pop	{r3, r4, r5, pc}
 1527              	.L179:
 1528              		.align	2
 1529              	.L178:
 1530 0090 10020B40 		.word	1074463248
 1531 0094 00000000 		.word	.LANCHOR2
 1532 0098 00000000 		.word	.LANCHOR0
 1533 009c FFFBFFFF 		.word	-1025
 1534              		.cfi_endproc
 1535              	.LFE27:
 1536              		.size	CySysWdtIsr, .-CySysWdtIsr
 1537              		.section	.text.CySysTimerDelayUntilMatch,"ax",%progbits
 1538              		.align	1
 1539              		.global	CySysTimerDelayUntilMatch
ARM GAS  C:\Users\Jarik\AppData\Local\Temp\ccPjN50m.s 			page 59


 1540              		.code	16
 1541              		.thumb_func
 1542              		.type	CySysTimerDelayUntilMatch, %function
 1543              	CySysTimerDelayUntilMatch:
 1544              	.LFB29:
1448:.\Generated_Source\PSoC4/CyLFClk.c ****         uint32 tmpValue;
 1545              		.loc 1 1448 0
 1546              		.cfi_startproc
 1547              	.LVL119:
 1548 0000 70B5     		push	{r4, r5, r6, lr}
 1549              		.cfi_def_cfa_offset 16
 1550              		.cfi_offset 4, -16
 1551              		.cfi_offset 5, -12
 1552              		.cfi_offset 6, -8
 1553              		.cfi_offset 14, -4
1451:.\Generated_Source\PSoC4/CyLFClk.c ****         {
 1554              		.loc 1 1451 0
 1555 0002 0128     		cmp	r0, #1
 1556 0004 25D8     		bhi	.L180
 1557 0006 151C     		mov	r5, r2
 1558 0008 0E1C     		mov	r6, r1
 1559 000a 041C     		mov	r4, r0
1451:.\Generated_Source\PSoC4/CyLFClk.c ****         {
 1560              		.loc 1 1451 0 is_stmt 0 discriminator 1
 1561 000c FFF7FEFF 		bl	CySysWdtGetClearOnMatch
 1562              	.LVL120:
 1563 0010 0028     		cmp	r0, #0
 1564 0012 1ED1     		bne	.L180
1451:.\Generated_Source\PSoC4/CyLFClk.c ****         {
 1565              		.loc 1 1451 0 discriminator 2
 1566 0014 0F4B     		ldr	r3, .L187
 1567 0016 9D42     		cmp	r5, r3
 1568 0018 1BD8     		bhi	.L180
1453:.\Generated_Source\PSoC4/CyLFClk.c ****             {
 1569              		.loc 1 1453 0 is_stmt 1
 1570 001a 002E     		cmp	r6, #0
 1571 001c 0AD1     		bne	.L184
 1572              	.L185:
1457:.\Generated_Source\PSoC4/CyLFClk.c ****                 }while(tmpValue > match);
 1573              		.loc 1 1457 0 discriminator 1
 1574 001e 201C     		mov	r0, r4
 1575 0020 FFF7FEFF 		bl	CySysWdtGetCount
 1576              	.LVL121:
1458:.\Generated_Source\PSoC4/CyLFClk.c **** 
 1577              		.loc 1 1458 0 discriminator 1
 1578 0024 A842     		cmp	r0, r5
 1579 0026 FAD8     		bhi	.L185
 1580              	.L186:
1462:.\Generated_Source\PSoC4/CyLFClk.c ****                 }while(tmpValue < match);
 1581              		.loc 1 1462 0 discriminator 1
 1582 0028 201C     		mov	r0, r4
 1583              	.LVL122:
 1584 002a FFF7FEFF 		bl	CySysWdtGetCount
 1585              	.LVL123:
1463:.\Generated_Source\PSoC4/CyLFClk.c ****             }
 1586              		.loc 1 1463 0 discriminator 1
 1587 002e A842     		cmp	r0, r5
ARM GAS  C:\Users\Jarik\AppData\Local\Temp\ccPjN50m.s 			page 60


 1588 0030 FAD3     		bcc	.L186
 1589 0032 0EE0     		b	.L180
 1590              	.LVL124:
 1591              	.L184:
 1592              	.LBB112:
 1593              	.LBB113:
1467:.\Generated_Source\PSoC4/CyLFClk.c ****                 CySysWdtSetMatch(counterNum, match);
 1594              		.loc 1 1467 0
 1595 0034 084B     		ldr	r3, .L187+4
 1596 0036 A200     		lsl	r2, r4, #2
1468:.\Generated_Source\PSoC4/CyLFClk.c **** 
 1597              		.loc 1 1468 0
 1598 0038 201C     		mov	r0, r4
 1599 003a 291C     		mov	r1, r5
1467:.\Generated_Source\PSoC4/CyLFClk.c ****                 CySysWdtSetMatch(counterNum, match);
 1600              		.loc 1 1467 0
 1601 003c D658     		ldr	r6, [r2, r3]
 1602              	.LVL125:
1468:.\Generated_Source\PSoC4/CyLFClk.c **** 
 1603              		.loc 1 1468 0
 1604 003e FFF7FEFF 		bl	CySysWdtSetMatch
 1605              	.LVL126:
1470:.\Generated_Source\PSoC4/CyLFClk.c ****                 wdtIsrMask |= tmpValue;
 1606              		.loc 1 1470 0
 1607 0042 064A     		ldr	r2, .L187+8
 1608 0044 9369     		ldr	r3, [r2, #24]
 1609 0046 3343     		orr	r3, r6
 1610 0048 9361     		str	r3, [r2, #24]
1471:.\Generated_Source\PSoC4/CyLFClk.c ****             }
 1611              		.loc 1 1471 0
 1612 004a 054A     		ldr	r2, .L187+12
 1613 004c 1368     		ldr	r3, [r2]
 1614 004e 3343     		orr	r3, r6
 1615 0050 1360     		str	r3, [r2]
 1616              	.LVL127:
 1617              	.L180:
 1618              	.LBE113:
 1619              	.LBE112:
1478:.\Generated_Source\PSoC4/CyLFClk.c **** 
 1620              		.loc 1 1478 0
 1621              		@ sp needed
 1622 0052 70BD     		pop	{r4, r5, r6, pc}
 1623              	.L188:
 1624              		.align	2
 1625              	.L187:
 1626 0054 FFFF0000 		.word	65535
 1627 0058 00000000 		.word	.LANCHOR1
 1628 005c 00000000 		.word	.LANCHOR0
 1629 0060 00000000 		.word	.LANCHOR2
 1630              		.cfi_endproc
 1631              	.LFE29:
 1632              		.size	CySysTimerDelayUntilMatch, .-CySysTimerDelayUntilMatch
 1633              		.section	.text.CySysTimerDelay,"ax",%progbits
 1634              		.align	1
 1635              		.global	CySysTimerDelay
 1636              		.code	16
 1637              		.thumb_func
ARM GAS  C:\Users\Jarik\AppData\Local\Temp\ccPjN50m.s 			page 61


 1638              		.type	CySysTimerDelay, %function
 1639              	CySysTimerDelay:
 1640              	.LFB28:
1372:.\Generated_Source\PSoC4/CyLFClk.c ****         uint32 regValue;
 1641              		.loc 1 1372 0
 1642              		.cfi_startproc
 1643              	.LVL128:
 1644 0000 70B5     		push	{r4, r5, r6, lr}
 1645              		.cfi_def_cfa_offset 16
 1646              		.cfi_offset 4, -16
 1647              		.cfi_offset 5, -12
 1648              		.cfi_offset 6, -8
 1649              		.cfi_offset 14, -4
1376:.\Generated_Source\PSoC4/CyLFClk.c ****         {
 1650              		.loc 1 1376 0
 1651 0002 0128     		cmp	r0, #1
 1652 0004 12D8     		bhi	.L189
 1653 0006 141C     		mov	r4, r2
 1654 0008 0E1C     		mov	r6, r1
 1655 000a 051C     		mov	r5, r0
1376:.\Generated_Source\PSoC4/CyLFClk.c ****         {
 1656              		.loc 1 1376 0 is_stmt 0 discriminator 1
 1657 000c FFF7FEFF 		bl	CySysWdtGetClearOnMatch
 1658              	.LVL129:
 1659 0010 0028     		cmp	r0, #0
 1660 0012 0BD1     		bne	.L189
1376:.\Generated_Source\PSoC4/CyLFClk.c ****         {
 1661              		.loc 1 1376 0 discriminator 2
 1662 0014 064B     		ldr	r3, .L193
 1663 0016 9C42     		cmp	r4, r3
 1664 0018 08D8     		bhi	.L189
1378:.\Generated_Source\PSoC4/CyLFClk.c ****             matchValue = (regValue + delay) & (uint32)UINT16_MAX_VAL;
 1665              		.loc 1 1378 0 is_stmt 1
 1666 001a 281C     		mov	r0, r5
 1667 001c FFF7FEFF 		bl	CySysWdtGetCount
 1668              	.LVL130:
1379:.\Generated_Source\PSoC4/CyLFClk.c **** 
 1669              		.loc 1 1379 0
 1670 0020 0219     		add	r2, r0, r4
 1671 0022 92B2     		uxth	r2, r2
1381:.\Generated_Source\PSoC4/CyLFClk.c ****         }
 1672              		.loc 1 1381 0
 1673 0024 281C     		mov	r0, r5
 1674              	.LVL131:
 1675 0026 311C     		mov	r1, r6
 1676 0028 FFF7FEFF 		bl	CySysTimerDelayUntilMatch
 1677              	.LVL132:
 1678              	.L189:
1387:.\Generated_Source\PSoC4/CyLFClk.c **** 
 1679              		.loc 1 1387 0
 1680              		@ sp needed
 1681 002c 70BD     		pop	{r4, r5, r6, pc}
 1682              	.L194:
 1683 002e C046     		.align	2
 1684              	.L193:
 1685 0030 FFFF0000 		.word	65535
 1686              		.cfi_endproc
ARM GAS  C:\Users\Jarik\AppData\Local\Temp\ccPjN50m.s 			page 62


 1687              	.LFE28:
 1688              		.size	CySysTimerDelay, .-CySysTimerDelay
 1689              		.section	.text.CySysWatchdogFeed,"ax",%progbits
 1690              		.align	1
 1691              		.global	CySysWatchdogFeed
 1692              		.code	16
 1693              		.thumb_func
 1694              		.type	CySysWatchdogFeed, %function
 1695              	CySysWatchdogFeed:
 1696              	.LFB30:
1501:.\Generated_Source\PSoC4/CyLFClk.c ****         if(counterNum == CY_SYS_WDT_COUNTER0)
 1697              		.loc 1 1501 0
 1698              		.cfi_startproc
 1699              	.LVL133:
 1700 0000 10B5     		push	{r4, lr}
 1701              		.cfi_def_cfa_offset 8
 1702              		.cfi_offset 4, -8
 1703              		.cfi_offset 14, -4
1501:.\Generated_Source\PSoC4/CyLFClk.c ****         if(counterNum == CY_SYS_WDT_COUNTER0)
 1704              		.loc 1 1501 0
 1705 0002 041E     		sub	r4, r0, #0
1502:.\Generated_Source\PSoC4/CyLFClk.c ****         {
 1706              		.loc 1 1502 0
 1707 0004 0FD1     		bne	.L196
1504:.\Generated_Source\PSoC4/CyLFClk.c ****             {
 1708              		.loc 1 1504 0
 1709 0006 FFF7FEFF 		bl	CySysWdtGetMode
 1710              	.LVL134:
 1711 000a 0328     		cmp	r0, #3
 1712 000c 01D1     		bne	.L197
1506:.\Generated_Source\PSoC4/CyLFClk.c ****             }
 1713              		.loc 1 1506 0
 1714 000e 0238     		sub	r0, r0, #2
 1715 0010 1CE0     		b	.L202
 1716              	.L197:
1508:.\Generated_Source\PSoC4/CyLFClk.c ****             {
 1717              		.loc 1 1508 0
 1718 0012 201C     		mov	r0, r4
 1719 0014 FFF7FEFF 		bl	CySysWdtGetMode
 1720              	.LVL135:
 1721 0018 0228     		cmp	r0, #2
 1722 001a 19D1     		bne	.L195
1510:.\Generated_Source\PSoC4/CyLFClk.c ****                 CySysWdtClearInterrupt(CY_SYS_WDT_COUNTER0_MASK);
 1723              		.loc 1 1510 0
 1724 001c 0630     		add	r0, r0, #6
 1725 001e FFF7FEFF 		bl	CySysWdtResetCounters
 1726              	.LVL136:
1511:.\Generated_Source\PSoC4/CyLFClk.c ****             }
 1727              		.loc 1 1511 0
 1728 0022 0120     		mov	r0, #1
 1729 0024 12E0     		b	.L202
 1730              	.LVL137:
 1731              	.L196:
1518:.\Generated_Source\PSoC4/CyLFClk.c ****         {
 1732              		.loc 1 1518 0
 1733 0026 0128     		cmp	r0, #1
 1734 0028 12D1     		bne	.L195
ARM GAS  C:\Users\Jarik\AppData\Local\Temp\ccPjN50m.s 			page 63


1520:.\Generated_Source\PSoC4/CyLFClk.c ****             {
 1735              		.loc 1 1520 0
 1736 002a FFF7FEFF 		bl	CySysWdtGetMode
 1737              	.LVL138:
 1738 002e 0328     		cmp	r0, #3
 1739 0030 01D1     		bne	.L201
1522:.\Generated_Source\PSoC4/CyLFClk.c ****             }
 1740              		.loc 1 1522 0
 1741 0032 FD30     		add	r0, r0, #253
 1742 0034 0AE0     		b	.L202
 1743              	.L201:
1524:.\Generated_Source\PSoC4/CyLFClk.c ****             {
 1744              		.loc 1 1524 0
 1745 0036 201C     		mov	r0, r4
 1746 0038 FFF7FEFF 		bl	CySysWdtGetMode
 1747              	.LVL139:
 1748 003c 0228     		cmp	r0, #2
 1749 003e 07D1     		bne	.L195
1526:.\Generated_Source\PSoC4/CyLFClk.c ****                 CySysWdtClearInterrupt(CY_SYS_WDT_COUNTER1_MASK);
 1750              		.loc 1 1526 0
 1751 0040 8020     		mov	r0, #128
 1752 0042 0001     		lsl	r0, r0, #4
 1753 0044 FFF7FEFF 		bl	CySysWdtResetCounters
 1754              	.LVL140:
1527:.\Generated_Source\PSoC4/CyLFClk.c ****             }
 1755              		.loc 1 1527 0
 1756 0048 8020     		mov	r0, #128
 1757 004a 4000     		lsl	r0, r0, #1
 1758              	.L202:
 1759 004c FFF7FEFF 		bl	CySysWdtClearInterrupt
 1760              	.LVL141:
 1761              	.L195:
1538:.\Generated_Source\PSoC4/CyLFClk.c **** 
 1762              		.loc 1 1538 0
 1763              		@ sp needed
 1764              	.LVL142:
 1765 0050 10BD     		pop	{r4, pc}
 1766              		.cfi_endproc
 1767              	.LFE30:
 1768              		.size	CySysWatchdogFeed, .-CySysWatchdogFeed
 1769              		.section	.rodata
 1770              		.align	2
 1771              		.set	.LANCHOR1,. + 0
 1772              		.type	counterIntMaskTbl, %object
 1773              		.size	counterIntMaskTbl, 12
 1774              	counterIntMaskTbl:
 1775 0000 04000000 		.word	4
 1776 0004 00040000 		.word	1024
 1777 0008 00000400 		.word	262144
 1778              		.data
 1779              		.align	2
 1780              		.set	.LANCHOR2,. + 0
 1781              		.type	wdtIsrMask, %object
 1782              		.size	wdtIsrMask, 4
 1783              	wdtIsrMask:
 1784 0000 04040400 		.word	263172
 1785              		.bss
ARM GAS  C:\Users\Jarik\AppData\Local\Temp\ccPjN50m.s 			page 64


 1786              		.align	2
 1787              		.set	.LANCHOR0,. + 0
 1788              		.type	lfclkPosedgeEnabledWdtCounter.4838, %object
 1789              		.size	lfclkPosedgeEnabledWdtCounter.4838, 4
 1790              	lfclkPosedgeEnabledWdtCounter.4838:
 1791 0000 00000000 		.space	4
 1792              		.type	lfclkPosedgeWdtCounter0Enabled, %object
 1793              		.size	lfclkPosedgeWdtCounter0Enabled, 4
 1794              	lfclkPosedgeWdtCounter0Enabled:
 1795 0004 00000000 		.space	4
 1796              		.type	lfclkPosedgeWdtCounter0Mode, %object
 1797              		.size	lfclkPosedgeWdtCounter0Mode, 4
 1798              	lfclkPosedgeWdtCounter0Mode:
 1799 0008 00000000 		.space	4
 1800              		.type	cySysWdtCallback, %object
 1801              		.size	cySysWdtCallback, 12
 1802              	cySysWdtCallback:
 1803 000c 00000000 		.space	12
 1803      00000000 
 1803      00000000 
 1804              		.type	disableServicedIsr, %object
 1805              		.size	disableServicedIsr, 4
 1806              	disableServicedIsr:
 1807 0018 00000000 		.space	4
 1808              		.text
 1809              	.Letext0:
 1810              		.file 2 ".\\Generated_Source\\PSoC4\\cytypes.h"
 1811              		.file 3 ".\\Generated_Source\\PSoC4\\CyLFClk.h"
 1812              		.file 4 ".\\Generated_Source\\PSoC4\\CyLib.h"