ARM GAS  C:\Users\Jarik\AppData\Local\Temp\ccASvTaK.s 			page 1


   1              		.cpu cortex-m0
   2              		.fpu softvfp
   3              		.eabi_attribute 20, 1
   4              		.eabi_attribute 21, 1
   5              		.eabi_attribute 23, 3
   6              		.eabi_attribute 24, 1
   7              		.eabi_attribute 25, 1
   8              		.eabi_attribute 26, 1
   9              		.eabi_attribute 30, 4
  10              		.eabi_attribute 34, 0
  11              		.eabi_attribute 18, 4
  12              		.code	16
  13              		.file	"ff.c"
  14              		.text
  15              	.Ltext0:
  16              		.cfi_sections	.debug_frame
  17              		.section	.text.mem_cpy,"ax",%progbits
  18              		.align	1
  19              		.code	16
  20              		.thumb_func
  21              		.type	mem_cpy, %function
  22              	mem_cpy:
  23              	.LFB0:
  24              		.file 1 ".\\sd\\ff.c"
   1:.\sd/ff.c     **** /*----------------------------------------------------------------------------/
   2:.\sd/ff.c     **** /  FatFs - FAT file system module  R0.09                  (C)ChaN, 2011
   3:.\sd/ff.c     **** /-----------------------------------------------------------------------------/
   4:.\sd/ff.c     **** / FatFs module is a generic FAT file system module for small embedded systems.
   5:.\sd/ff.c     **** / This is a free software that opened for education, research and commercial
   6:.\sd/ff.c     **** / developments under license policy of following terms.
   7:.\sd/ff.c     **** /
   8:.\sd/ff.c     **** /  Copyright (C) 2011, ChaN, all right reserved.
   9:.\sd/ff.c     **** /
  10:.\sd/ff.c     **** / * The FatFs module is a free software and there is NO WARRANTY.
  11:.\sd/ff.c     **** / * No restriction on use. You can use, modify and redistribute it for
  12:.\sd/ff.c     **** /   personal, non-profit or commercial products UNDER YOUR RESPONSIBILITY.
  13:.\sd/ff.c     **** / * Redistributions of source code must retain the above copyright notice.
  14:.\sd/ff.c     **** /
  15:.\sd/ff.c     **** /-----------------------------------------------------------------------------/
  16:.\sd/ff.c     **** / Feb 26,'06 R0.00  Prototype.
  17:.\sd/ff.c     **** /
  18:.\sd/ff.c     **** / Apr 29,'06 R0.01  First stable version.
  19:.\sd/ff.c     **** /
  20:.\sd/ff.c     **** / Jun 01,'06 R0.02  Added FAT12 support.
  21:.\sd/ff.c     **** /                   Removed unbuffered mode.
  22:.\sd/ff.c     **** /                   Fixed a problem on small (<32M) partition.
  23:.\sd/ff.c     **** / Jun 10,'06 R0.02a Added a configuration option (_FS_MINIMUM).
  24:.\sd/ff.c     **** /
  25:.\sd/ff.c     **** / Sep 22,'06 R0.03  Added f_rename().
  26:.\sd/ff.c     **** /                   Changed option _FS_MINIMUM to _FS_MINIMIZE.
  27:.\sd/ff.c     **** / Dec 11,'06 R0.03a Improved cluster scan algorithm to write files fast.
  28:.\sd/ff.c     **** /                   Fixed f_mkdir() creates incorrect directory on FAT32.
  29:.\sd/ff.c     **** /
  30:.\sd/ff.c     **** / Feb 04,'07 R0.04  Supported multiple drive system.
  31:.\sd/ff.c     **** /                   Changed some interfaces for multiple drive system.
  32:.\sd/ff.c     **** /                   Changed f_mountdrv() to f_mount().
  33:.\sd/ff.c     **** /                   Added f_mkfs().
ARM GAS  C:\Users\Jarik\AppData\Local\Temp\ccASvTaK.s 			page 2


  34:.\sd/ff.c     **** / Apr 01,'07 R0.04a Supported multiple partitions on a physical drive.
  35:.\sd/ff.c     **** /                   Added a capability of extending file size to f_lseek().
  36:.\sd/ff.c     **** /                   Added minimization level 3.
  37:.\sd/ff.c     **** /                   Fixed an endian sensitive code in f_mkfs().
  38:.\sd/ff.c     **** / May 05,'07 R0.04b Added a configuration option _USE_NTFLAG.
  39:.\sd/ff.c     **** /                   Added FSInfo support.
  40:.\sd/ff.c     **** /                   Fixed DBCS name can result FR_INVALID_NAME.
  41:.\sd/ff.c     **** /                   Fixed short seek (<= csize) collapses the file object.
  42:.\sd/ff.c     **** /
  43:.\sd/ff.c     **** / Aug 25,'07 R0.05  Changed arguments of f_read(), f_write() and f_mkfs().
  44:.\sd/ff.c     **** /                   Fixed f_mkfs() on FAT32 creates incorrect FSInfo.
  45:.\sd/ff.c     **** /                   Fixed f_mkdir() on FAT32 creates incorrect directory.
  46:.\sd/ff.c     **** / Feb 03,'08 R0.05a Added f_truncate() and f_utime().
  47:.\sd/ff.c     **** /                   Fixed off by one error at FAT sub-type determination.
  48:.\sd/ff.c     **** /                   Fixed btr in f_read() can be mistruncated.
  49:.\sd/ff.c     **** /                   Fixed cached sector is not flushed when create and close without write.
  50:.\sd/ff.c     **** /
  51:.\sd/ff.c     **** / Apr 01,'08 R0.06  Added fputc(), fputs(), fprintf() and fgets().
  52:.\sd/ff.c     **** /                   Improved performance of f_lseek() on moving to the same or following cluster.
  53:.\sd/ff.c     **** /
  54:.\sd/ff.c     **** / Apr 01,'09 R0.07  Merged Tiny-FatFs as a configuration option. (_FS_TINY)
  55:.\sd/ff.c     **** /                   Added LONG_ file name feature.
  56:.\sd/ff.c     **** /                   Added multiple code page feature.
  57:.\sd/ff.c     **** /                   Added re-entrancy for multitask operation.
  58:.\sd/ff.c     **** /                   Added auto cluster size selection to f_mkfs().
  59:.\sd/ff.c     **** /                   Added rewind option to f_readdir().
  60:.\sd/ff.c     **** /                   Changed result code of critical errors.
  61:.\sd/ff.c     **** /                   Renamed string functions to avoid name collision.
  62:.\sd/ff.c     **** / Apr 14,'09 R0.07a Separated out OS dependent code on reentrant cfg.
  63:.\sd/ff.c     **** /                   Added multiple sector size feature.
  64:.\sd/ff.c     **** / Jun 21,'09 R0.07c Fixed f_unlink() can return FR_OK on error.
  65:.\sd/ff.c     **** /                   Fixed wrong cache control in f_lseek().
  66:.\sd/ff.c     **** /                   Added relative path feature.
  67:.\sd/ff.c     **** /                   Added f_chdir() and f_chdrive().
  68:.\sd/ff.c     **** /                   Added proper case conversion to extended char.
  69:.\sd/ff.c     **** / Nov 03,'09 R0.07e Separated out configuration options from ff.h to ffconf.h.
  70:.\sd/ff.c     **** /                   Fixed f_unlink() fails to remove a sub-dir on _FS_RPATH.
  71:.\sd/ff.c     **** /                   Fixed name matching error on the 13 char boundary.
  72:.\sd/ff.c     **** /                   Added a configuration option, _LFN_UNICODE.
  73:.\sd/ff.c     **** /                   Changed f_readdir() to return the SFN with always upper case on non-LFN cfg.
  74:.\sd/ff.c     **** /
  75:.\sd/ff.c     **** / May 15,'10 R0.08  Added a memory configuration option. (_USE_LFN = 3)
  76:.\sd/ff.c     **** /                   Added file lock feature. (_FS_SHARE)
  77:.\sd/ff.c     **** /                   Added fast seek feature. (_USE_FASTSEEK)
  78:.\sd/ff.c     **** /                   Changed some types on the API, XCHAR->TCHAR.
  79:.\sd/ff.c     **** /                   Changed fname member in the FILINFO structure on Unicode cfg.
  80:.\sd/ff.c     **** /                   String functions support UTF-8 encoding files on Unicode cfg.
  81:.\sd/ff.c     **** / Aug 16,'10 R0.08a Added f_getcwd(). (_FS_RPATH = 2)
  82:.\sd/ff.c     **** /                   Added sector erase feature. (_USE_ERASE)
  83:.\sd/ff.c     **** /                   Moved file lock semaphore table from fs object to the bss.
  84:.\sd/ff.c     **** /                   Fixed a wrong directory entry is created on non-LFN cfg when the given name con
  85:.\sd/ff.c     **** /                   Fixed f_mkfs() creates wrong FAT32 volume.
  86:.\sd/ff.c     **** / Jan 15,'11 R0.08b Fast seek feature is also applied to f_read() and f_write().
  87:.\sd/ff.c     **** /                   f_lseek() reports required table size on creating CLMP.
  88:.\sd/ff.c     **** /                   Extended format syntax of f_printf function.
  89:.\sd/ff.c     **** /                   Ignores duplicated directory separators in given path names.
  90:.\sd/ff.c     **** /
ARM GAS  C:\Users\Jarik\AppData\Local\Temp\ccASvTaK.s 			page 3


  91:.\sd/ff.c     **** / Sep 06,'11 R0.09  f_mkfs() supports multiple partition to finish the multiple partition feature.
  92:.\sd/ff.c     **** /                   Added f_fdisk(). (_MULTI_PARTITION = 2)
  93:.\sd/ff.c     **** /---------------------------------------------------------------------------*/
  94:.\sd/ff.c     **** 
  95:.\sd/ff.c     **** #include "sd/ff.h"			/* FatFs configurations and declarations */
  96:.\sd/ff.c     **** #include "sd/diskio.h"		/* Declarations of low level disk I/O functions */
  97:.\sd/ff.c     **** 
  98:.\sd/ff.c     **** 
  99:.\sd/ff.c     **** /*--------------------------------------------------------------------------
 100:.\sd/ff.c     **** 
 101:.\sd/ff.c     ****    Module Private Definitions
 102:.\sd/ff.c     **** 
 103:.\sd/ff.c     **** ---------------------------------------------------------------------------*/
 104:.\sd/ff.c     **** 
 105:.\sd/ff.c     **** #if _FATFS != 6502	/* Revision ID */
 106:.\sd/ff.c     **** #error Wrong include file (ff.h).
 107:.\sd/ff.c     **** #endif
 108:.\sd/ff.c     **** 
 109:.\sd/ff.c     **** 
 110:.\sd/ff.c     **** /* Definitions on sector size */
 111:.\sd/ff.c     **** #if _MAX_SS != 512 && _MAX_SS != 1024 && _MAX_SS != 2048 && _MAX_SS != 4096
 112:.\sd/ff.c     **** #error Wrong sector size.
 113:.\sd/ff.c     **** #endif
 114:.\sd/ff.c     **** #if _MAX_SS != 512
 115:.\sd/ff.c     **** #define	SS(fs)	((fs)->ssize)	/* Variable sector size */
 116:.\sd/ff.c     **** #else
 117:.\sd/ff.c     **** #define	SS(fs)	512U			/* Fixed sector size */
 118:.\sd/ff.c     **** #endif
 119:.\sd/ff.c     **** 
 120:.\sd/ff.c     **** 
 121:.\sd/ff.c     **** /* Reentrancy related */
 122:.\sd/ff.c     **** #if _FS_REENTRANT
 123:.\sd/ff.c     **** #if _USE_LFN == 1
 124:.\sd/ff.c     **** #error Static LFN work area must not be used in re-entrant configuration.
 125:.\sd/ff.c     **** #endif
 126:.\sd/ff.c     **** #define	ENTER_FF(fs)		{ if (!lock_fs(fs)) return FR_TIMEOUT; }
 127:.\sd/ff.c     **** #define	LEAVE_FF(fs, res)	{ unlock_fs(fs, res); return res; }
 128:.\sd/ff.c     **** #else
 129:.\sd/ff.c     **** #define	ENTER_FF(fs)
 130:.\sd/ff.c     **** #define LEAVE_FF(fs, res)	return res
 131:.\sd/ff.c     **** #endif
 132:.\sd/ff.c     **** 
 133:.\sd/ff.c     **** #define	ABORT(fs, res)		{ fp->flag |= FA__ERROR; LEAVE_FF(fs, res); }
 134:.\sd/ff.c     **** 
 135:.\sd/ff.c     **** 
 136:.\sd/ff.c     **** /* File shareing feature */
 137:.\sd/ff.c     **** #if _FS_SHARE
 138:.\sd/ff.c     **** #if _FS_READONLY
 139:.\sd/ff.c     **** #error _FS_SHARE must be 0 on read-only cfg.
 140:.\sd/ff.c     **** #endif
 141:.\sd/ff.c     **** typedef struct {
 142:.\sd/ff.c     **** 	FATFS *fs;				/* File ID 1, volume (NULL:blank entry) */
 143:.\sd/ff.c     **** 	DWORD clu;				/* File ID 2, directory */
 144:.\sd/ff.c     **** 	WORD idx;				/* File ID 3, directory index */
 145:.\sd/ff.c     **** 	WORD ctr;				/* File open counter, 0:none, 0x01..0xFF:read open count, 0x100:write mode */
 146:.\sd/ff.c     **** } FILESEM;
 147:.\sd/ff.c     **** #endif
ARM GAS  C:\Users\Jarik\AppData\Local\Temp\ccASvTaK.s 			page 4


 148:.\sd/ff.c     **** 
 149:.\sd/ff.c     **** 
 150:.\sd/ff.c     **** /* Misc definitions */
 151:.\sd/ff.c     **** #define LD_CLUST(dir)	(((DWORD)LD_WORD(dir+DIR_FstClusHI)<<16) | LD_WORD(dir+DIR_FstClusLO))
 152:.\sd/ff.c     **** #define ST_CLUST(dir,cl) {ST_WORD(dir+DIR_FstClusLO, cl); ST_WORD(dir+DIR_FstClusHI, (DWORD)cl>>16)
 153:.\sd/ff.c     **** 
 154:.\sd/ff.c     **** 
 155:.\sd/ff.c     **** /* DBCS code ranges and SBCS extend char conversion table */
 156:.\sd/ff.c     **** 
 157:.\sd/ff.c     **** #if _CODE_PAGE == 932	/* Japanese Shift-JIS */
 158:.\sd/ff.c     **** #define _DF1S	0x81	/* DBC 1st byte range 1 start */
 159:.\sd/ff.c     **** #define _DF1E	0x9F	/* DBC 1st byte range 1 end */
 160:.\sd/ff.c     **** #define _DF2S	0xE0	/* DBC 1st byte range 2 start */
 161:.\sd/ff.c     **** #define _DF2E	0xFC	/* DBC 1st byte range 2 end */
 162:.\sd/ff.c     **** #define _DS1S	0x40	/* DBC 2nd byte range 1 start */
 163:.\sd/ff.c     **** #define _DS1E	0x7E	/* DBC 2nd byte range 1 end */
 164:.\sd/ff.c     **** #define _DS2S	0x80	/* DBC 2nd byte range 2 start */
 165:.\sd/ff.c     **** #define _DS2E	0xFC	/* DBC 2nd byte range 2 end */
 166:.\sd/ff.c     **** 
 167:.\sd/ff.c     **** #elif _CODE_PAGE == 936	/* Simplified Chinese GBK */
 168:.\sd/ff.c     **** #define _DF1S	0x81
 169:.\sd/ff.c     **** #define _DF1E	0xFE
 170:.\sd/ff.c     **** #define _DS1S	0x40
 171:.\sd/ff.c     **** #define _DS1E	0x7E
 172:.\sd/ff.c     **** #define _DS2S	0x80
 173:.\sd/ff.c     **** #define _DS2E	0xFE
 174:.\sd/ff.c     **** 
 175:.\sd/ff.c     **** #elif _CODE_PAGE == 949	/* Korean */
 176:.\sd/ff.c     **** #define _DF1S	0x81
 177:.\sd/ff.c     **** #define _DF1E	0xFE
 178:.\sd/ff.c     **** #define _DS1S	0x41
 179:.\sd/ff.c     **** #define _DS1E	0x5A
 180:.\sd/ff.c     **** #define _DS2S	0x61
 181:.\sd/ff.c     **** #define _DS2E	0x7A
 182:.\sd/ff.c     **** #define _DS3S	0x81
 183:.\sd/ff.c     **** #define _DS3E	0xFE
 184:.\sd/ff.c     **** 
 185:.\sd/ff.c     **** #elif _CODE_PAGE == 950	/* Traditional Chinese Big5 */
 186:.\sd/ff.c     **** #define _DF1S	0x81
 187:.\sd/ff.c     **** #define _DF1E	0xFE
 188:.\sd/ff.c     **** #define _DS1S	0x40
 189:.\sd/ff.c     **** #define _DS1E	0x7E
 190:.\sd/ff.c     **** #define _DS2S	0xA1
 191:.\sd/ff.c     **** #define _DS2E	0xFE
 192:.\sd/ff.c     **** 
 193:.\sd/ff.c     **** #elif _CODE_PAGE == 437	/* U.S. (OEM) */
 194:.\sd/ff.c     **** #define _DF1S	0
 195:.\sd/ff.c     **** #define _EXCVT {0x80,0x9A,0x90,0x41,0x8E,0x41,0x8F,0x80,0x45,0x45,0x45,0x49,0x49,0x49,0x8E,0x8F,0x9
 196:.\sd/ff.c     **** 				0x41,0x49,0x4F,0x55,0xA5,0xA5,0xA6,0xA7,0xA8,0xA9,0xAA,0xAB,0xAC,0x21,0xAE,0xAF,0xB0,0xB1,0xB2,
 197:.\sd/ff.c     **** 				0xC0,0xC1,0xC2,0xC3,0xC4,0xC5,0xC6,0xC7,0xC8,0xC9,0xCA,0xCB,0xCC,0xCD,0xCE,0xCF,0xD0,0xD1,0xD2,
 198:.\sd/ff.c     **** 				0xE0,0xE1,0xE2,0xE3,0xE4,0xE5,0xE6,0xE7,0xE8,0xE9,0xEA,0xEB,0xEC,0xED,0xEE,0xEF,0xF0,0xF1,0xF2,
 199:.\sd/ff.c     **** 
 200:.\sd/ff.c     **** #elif _CODE_PAGE == 720	/* Arabic (OEM) */
 201:.\sd/ff.c     **** #define _DF1S	0
 202:.\sd/ff.c     **** #define _EXCVT {0x80,0x81,0x45,0x41,0x84,0x41,0x86,0x43,0x45,0x45,0x45,0x49,0x49,0x8D,0x8E,0x8F,0x9
 203:.\sd/ff.c     **** 				0xA0,0xA1,0xA2,0xA3,0xA4,0xA5,0xA6,0xA7,0xA8,0xA9,0xAA,0xAB,0xAC,0xAD,0xAE,0xAF,0xB0,0xB1,0xB2,
 204:.\sd/ff.c     **** 				0xC0,0xC1,0xC2,0xC3,0xC4,0xC5,0xC6,0xC7,0xC8,0xC9,0xCA,0xCB,0xCC,0xCD,0xCE,0xCF,0xD0,0xD1,0xD2,
ARM GAS  C:\Users\Jarik\AppData\Local\Temp\ccASvTaK.s 			page 5


 205:.\sd/ff.c     **** 				0xE0,0xE1,0xE2,0xE3,0xE4,0xE5,0xE6,0xE7,0xE8,0xE9,0xEA,0xEB,0xEC,0xED,0xEE,0xEF,0xF0,0xF1,0xF2,
 206:.\sd/ff.c     **** 
 207:.\sd/ff.c     **** #elif _CODE_PAGE == 737	/* Greek (OEM) */
 208:.\sd/ff.c     **** #define _DF1S	0
 209:.\sd/ff.c     **** #define _EXCVT {0x80,0x81,0x82,0x83,0x84,0x85,0x86,0x87,0x88,0x89,0x8A,0x8B,0x8C,0x8D,0x8E,0x8F,0x9
 210:.\sd/ff.c     **** 				0x88,0x89,0x8A,0x8B,0x8C,0x8D,0x8E,0x8F,0x90,0x91,0xAA,0x92,0x93,0x94,0x95,0x96,0xB0,0xB1,0xB2,
 211:.\sd/ff.c     **** 				0xC0,0xC1,0xC2,0xC3,0xC4,0xC5,0xC6,0xC7,0xC8,0xC9,0xCA,0xCB,0xCC,0xCD,0xCE,0xCF,0xD0,0xD1,0xD2,
 212:.\sd/ff.c     **** 				0x97,0xEA,0xEB,0xEC,0xE4,0xED,0xEE,0xE7,0xE8,0xF1,0xEA,0xEB,0xEC,0xED,0xEE,0xEF,0xF0,0xF1,0xF2,
 213:.\sd/ff.c     **** 
 214:.\sd/ff.c     **** #elif _CODE_PAGE == 775	/* Baltic (OEM) */
 215:.\sd/ff.c     **** #define _DF1S	0
 216:.\sd/ff.c     **** #define _EXCVT {0x80,0x9A,0x91,0xA0,0x8E,0x95,0x8F,0x80,0xAD,0xED,0x8A,0x8A,0xA1,0x8D,0x8E,0x8F,0x9
 217:.\sd/ff.c     **** 				0xA0,0xA1,0xE0,0xA3,0xA3,0xA5,0xA6,0xA7,0xA8,0xA9,0xAA,0xAB,0xAC,0xAD,0xAE,0xAF,0xB0,0xB1,0xB2,
 218:.\sd/ff.c     **** 				0xC0,0xC1,0xC2,0xC3,0xC4,0xC5,0xC6,0xC7,0xC8,0xC9,0xCA,0xCB,0xCC,0xCD,0xCE,0xCF,0xB5,0xB6,0xB7,
 219:.\sd/ff.c     **** 				0xE0,0xE1,0xE2,0xE3,0xE5,0xE5,0xE6,0xE3,0xE8,0xE8,0xEA,0xEA,0xEE,0xED,0xEE,0xEF,0xF0,0xF1,0xF2,
 220:.\sd/ff.c     **** 
 221:.\sd/ff.c     **** #elif _CODE_PAGE == 850	/* Multilingual Latin 1 (OEM) */
 222:.\sd/ff.c     **** #define _DF1S	0
 223:.\sd/ff.c     **** #define _EXCVT {0x80,0x9A,0x90,0xB6,0x8E,0xB7,0x8F,0x80,0xD2,0xD3,0xD4,0xD8,0xD7,0xDE,0x8E,0x8F,0x9
 224:.\sd/ff.c     **** 				0xB5,0xD6,0xE0,0xE9,0xA5,0xA5,0xA6,0xA7,0xA8,0xA9,0xAA,0xAB,0xAC,0x21,0xAE,0xAF,0xB0,0xB1,0xB2,
 225:.\sd/ff.c     **** 				0xC0,0xC1,0xC2,0xC3,0xC4,0xC5,0xC7,0xC7,0xC8,0xC9,0xCA,0xCB,0xCC,0xCD,0xCE,0xCF,0xD0,0xD1,0xD2,
 226:.\sd/ff.c     **** 				0xE0,0xE1,0xE2,0xE3,0xE5,0xE5,0xE6,0xE7,0xE7,0xE9,0xEA,0xEB,0xED,0xED,0xEE,0xEF,0xF0,0xF1,0xF2,
 227:.\sd/ff.c     **** 
 228:.\sd/ff.c     **** #elif _CODE_PAGE == 852	/* Latin 2 (OEM) */
 229:.\sd/ff.c     **** #define _DF1S	0
 230:.\sd/ff.c     **** #define _EXCVT {0x80,0x9A,0x90,0xB6,0x8E,0xDE,0x8F,0x80,0x9D,0xD3,0x8A,0x8A,0xD7,0x8D,0x8E,0x8F,0x9
 231:.\sd/ff.c     **** 				0xB5,0xD6,0xE0,0xE9,0xA4,0xA4,0xA6,0xA6,0xA8,0xA8,0xAA,0x8D,0xAC,0xB8,0xAE,0xAF,0xB0,0xB1,0xB2,
 232:.\sd/ff.c     **** 				0xC0,0xC1,0xC2,0xC3,0xC4,0xC5,0xC6,0xC6,0xC8,0xC9,0xCA,0xCB,0xCC,0xCD,0xCE,0xCF,0xD1,0xD1,0xD2,
 233:.\sd/ff.c     **** 				0xE0,0xE1,0xE2,0xE3,0xE3,0xD5,0xE6,0xE6,0xE8,0xE9,0xE8,0xEB,0xED,0xED,0xDD,0xEF,0xF0,0xF1,0xF2,
 234:.\sd/ff.c     **** 
 235:.\sd/ff.c     **** #elif _CODE_PAGE == 855	/* Cyrillic (OEM) */
 236:.\sd/ff.c     **** #define _DF1S	0
 237:.\sd/ff.c     **** #define _EXCVT {0x81,0x81,0x83,0x83,0x85,0x85,0x87,0x87,0x89,0x89,0x8B,0x8B,0x8D,0x8D,0x8F,0x8F,0x9
 238:.\sd/ff.c     **** 				0xA1,0xA1,0xA3,0xA3,0xA5,0xA5,0xA7,0xA7,0xA9,0xA9,0xAB,0xAB,0xAD,0xAD,0xAE,0xAF,0xB0,0xB1,0xB2,
 239:.\sd/ff.c     **** 				0xC0,0xC1,0xC2,0xC3,0xC4,0xC5,0xC7,0xC7,0xC8,0xC9,0xCA,0xCB,0xCC,0xCD,0xCE,0xCF,0xD1,0xD1,0xD3,
 240:.\sd/ff.c     **** 				0xE0,0xE2,0xE2,0xE4,0xE4,0xE6,0xE6,0xE8,0xE8,0xEA,0xEA,0xEC,0xEC,0xEE,0xEE,0xEF,0xF0,0xF2,0xF2,
 241:.\sd/ff.c     **** 
 242:.\sd/ff.c     **** #elif _CODE_PAGE == 857	/* Turkish (OEM) */
 243:.\sd/ff.c     **** #define _DF1S	0
 244:.\sd/ff.c     **** #define _EXCVT {0x80,0x9A,0x90,0xB6,0x8E,0xB7,0x8F,0x80,0xD2,0xD3,0xD4,0xD8,0xD7,0x98,0x8E,0x8F,0x9
 245:.\sd/ff.c     **** 				0xB5,0xD6,0xE0,0xE9,0xA5,0xA5,0xA6,0xA6,0xA8,0xA9,0xAA,0xAB,0xAC,0x21,0xAE,0xAF,0xB0,0xB1,0xB2,
 246:.\sd/ff.c     **** 				0xC0,0xC1,0xC2,0xC3,0xC4,0xC5,0xC7,0xC7,0xC8,0xC9,0xCA,0xCB,0xCC,0xCD,0xCE,0xCF,0xD0,0xD1,0xD2,
 247:.\sd/ff.c     **** 				0xE0,0xE1,0xE2,0xE3,0xE5,0xE5,0xE6,0xE7,0xE8,0xE9,0xEA,0xEB,0xDE,0x59,0xEE,0xEF,0xF0,0xF1,0xF2,
 248:.\sd/ff.c     **** 
 249:.\sd/ff.c     **** #elif _CODE_PAGE == 858	/* Multilingual Latin 1 + Euro (OEM) */
 250:.\sd/ff.c     **** #define _DF1S	0
 251:.\sd/ff.c     **** #define _EXCVT {0x80,0x9A,0x90,0xB6,0x8E,0xB7,0x8F,0x80,0xD2,0xD3,0xD4,0xD8,0xD7,0xDE,0x8E,0x8F,0x9
 252:.\sd/ff.c     **** 				0xB5,0xD6,0xE0,0xE9,0xA5,0xA5,0xA6,0xA7,0xA8,0xA9,0xAA,0xAB,0xAC,0x21,0xAE,0xAF,0xB0,0xB1,0xB2,
 253:.\sd/ff.c     **** 				0xC0,0xC1,0xC2,0xC3,0xC4,0xC5,0xC7,0xC7,0xC8,0xC9,0xCA,0xCB,0xCC,0xCD,0xCE,0xCF,0xD1,0xD1,0xD2,
 254:.\sd/ff.c     **** 				0xE0,0xE1,0xE2,0xE3,0xE5,0xE5,0xE6,0xE7,0xE7,0xE9,0xEA,0xEB,0xED,0xED,0xEE,0xEF,0xF0,0xF1,0xF2,
 255:.\sd/ff.c     **** 
 256:.\sd/ff.c     **** #elif _CODE_PAGE == 862	/* Hebrew (OEM) */
 257:.\sd/ff.c     **** #define _DF1S	0
 258:.\sd/ff.c     **** #define _EXCVT {0x80,0x81,0x82,0x83,0x84,0x85,0x86,0x87,0x88,0x89,0x8A,0x8B,0x8C,0x8D,0x8E,0x8F,0x9
 259:.\sd/ff.c     **** 				0x41,0x49,0x4F,0x55,0xA5,0xA5,0xA6,0xA7,0xA8,0xA9,0xAA,0xAB,0xAC,0x21,0xAE,0xAF,0xB0,0xB1,0xB2,
 260:.\sd/ff.c     **** 				0xC0,0xC1,0xC2,0xC3,0xC4,0xC5,0xC6,0xC7,0xC8,0xC9,0xCA,0xCB,0xCC,0xCD,0xCE,0xCF,0xD0,0xD1,0xD2,
 261:.\sd/ff.c     **** 				0xE0,0xE1,0xE2,0xE3,0xE4,0xE5,0xE6,0xE7,0xE8,0xE9,0xEA,0xEB,0xEC,0xED,0xEE,0xEF,0xF0,0xF1,0xF2,
ARM GAS  C:\Users\Jarik\AppData\Local\Temp\ccASvTaK.s 			page 6


 262:.\sd/ff.c     **** 
 263:.\sd/ff.c     **** #elif _CODE_PAGE == 866	/* Russian (OEM) */
 264:.\sd/ff.c     **** #define _DF1S	0
 265:.\sd/ff.c     **** #define _EXCVT {0x80,0x81,0x82,0x83,0x84,0x85,0x86,0x87,0x88,0x89,0x8A,0x8B,0x8C,0x8D,0x8E,0x8F,0x9
 266:.\sd/ff.c     **** 				0x80,0x81,0x82,0x83,0x84,0x85,0x86,0x87,0x88,0x89,0x8A,0x8B,0x8C,0x8D,0x8E,0x8F,0xB0,0xB1,0xB2,
 267:.\sd/ff.c     **** 				0xC0,0xC1,0xC2,0xC3,0xC4,0xC5,0xC6,0xC7,0xC8,0xC9,0xCA,0xCB,0xCC,0xCD,0xCE,0xCF,0xD0,0xD1,0xD2,
 268:.\sd/ff.c     **** 				0x90,0x91,0x92,0x93,0x9d,0x95,0x96,0x97,0x98,0x99,0x9A,0x9B,0x9C,0x9D,0x9E,0x9F,0xF0,0xF0,0xF2,
 269:.\sd/ff.c     **** 
 270:.\sd/ff.c     **** #elif _CODE_PAGE == 874	/* Thai (OEM, Windows) */
 271:.\sd/ff.c     **** #define _DF1S	0
 272:.\sd/ff.c     **** #define _EXCVT {0x80,0x81,0x82,0x83,0x84,0x85,0x86,0x87,0x88,0x89,0x8A,0x8B,0x8C,0x8D,0x8E,0x8F,0x9
 273:.\sd/ff.c     **** 				0xA0,0xA1,0xA2,0xA3,0xA4,0xA5,0xA6,0xA7,0xA8,0xA9,0xAA,0xAB,0xAC,0xAD,0xAE,0xAF,0xB0,0xB1,0xB2,
 274:.\sd/ff.c     **** 				0xC0,0xC1,0xC2,0xC3,0xC4,0xC5,0xC6,0xC7,0xC8,0xC9,0xCA,0xCB,0xCC,0xCD,0xCE,0xCF,0xD0,0xD1,0xD2,
 275:.\sd/ff.c     **** 				0xE0,0xE1,0xE2,0xE3,0xE4,0xE5,0xE6,0xE7,0xE8,0xE9,0xEA,0xEB,0xEC,0xED,0xEE,0xEF,0xF0,0xF1,0xF2,
 276:.\sd/ff.c     **** 
 277:.\sd/ff.c     **** #elif _CODE_PAGE == 1250 /* Central Europe (Windows) */
 278:.\sd/ff.c     **** #define _DF1S	0
 279:.\sd/ff.c     **** #define _EXCVT {0x80,0x81,0x82,0x83,0x84,0x85,0x86,0x87,0x88,0x89,0x8A,0x8B,0x8C,0x8D,0x8E,0x8F,0x9
 280:.\sd/ff.c     **** 				0xA0,0xA1,0xA2,0xA3,0xA4,0xA5,0xA6,0xA7,0xA8,0xA9,0xAA,0xAB,0xAC,0xAD,0xAE,0xAF,0xB0,0xB1,0xB2,
 281:.\sd/ff.c     **** 				0xC0,0xC1,0xC2,0xC3,0xC4,0xC5,0xC6,0xC7,0xC8,0xC9,0xCA,0xCB,0xCC,0xCD,0xCE,0xCF,0xD0,0xD1,0xD2,
 282:.\sd/ff.c     **** 				0xC0,0xC1,0xC2,0xC3,0xC4,0xC5,0xC6,0xC7,0xC8,0xC9,0xCA,0xCB,0xCC,0xCD,0xCE,0xCF,0xD0,0xD1,0xD2,
 283:.\sd/ff.c     **** 
 284:.\sd/ff.c     **** #elif _CODE_PAGE == 1251 /* Cyrillic (Windows) */
 285:.\sd/ff.c     **** #define _DF1S	0
 286:.\sd/ff.c     **** #define _EXCVT {0x80,0x81,0x82,0x82,0x84,0x85,0x86,0x87,0x88,0x89,0x8A,0x8B,0x8C,0x8D,0x8E,0x8F,0x8
 287:.\sd/ff.c     **** 				0xA0,0xA2,0xA2,0xA3,0xA4,0xA5,0xA6,0xA7,0xA8,0xA9,0xAA,0xAB,0xAC,0xAD,0xAE,0xAF,0xB0,0xB1,0xB2,
 288:.\sd/ff.c     **** 				0xC0,0xC1,0xC2,0xC3,0xC4,0xC5,0xC6,0xC7,0xC8,0xC9,0xCA,0xCB,0xCC,0xCD,0xCE,0xCF,0xD0,0xD1,0xD2,
 289:.\sd/ff.c     **** 				0xC0,0xC1,0xC2,0xC3,0xC4,0xC5,0xC6,0xC7,0xC8,0xC9,0xCA,0xCB,0xCC,0xCD,0xCE,0xCF,0xD0,0xD1,0xD2,
 290:.\sd/ff.c     **** 
 291:.\sd/ff.c     **** #elif _CODE_PAGE == 1252 /* Latin 1 (Windows) */
 292:.\sd/ff.c     **** #define _DF1S	0
 293:.\sd/ff.c     **** #define _EXCVT {0x80,0x81,0x82,0x83,0x84,0x85,0x86,0x87,0x88,0x89,0x8A,0x8B,0x8C,0x8D,0x8E,0x8F,0x9
 294:.\sd/ff.c     **** 				0xA0,0x21,0xA2,0xA3,0xA4,0xA5,0xA6,0xA7,0xA8,0xA9,0xAA,0xAB,0xAC,0xAD,0xAE,0xAF,0xB0,0xB1,0xB2,
 295:.\sd/ff.c     **** 				0xC0,0xC1,0xC2,0xC3,0xC4,0xC5,0xC6,0xC7,0xC8,0xC9,0xCA,0xCB,0xCC,0xCD,0xCE,0xCF,0xD0,0xD1,0xD2,
 296:.\sd/ff.c     **** 				0xC0,0xC1,0xC2,0xC3,0xC4,0xC5,0xC6,0xC7,0xC8,0xC9,0xCA,0xCB,0xCC,0xCD,0xCE,0xCF,0xD0,0xD1,0xD2,
 297:.\sd/ff.c     **** 
 298:.\sd/ff.c     **** #elif _CODE_PAGE == 1253 /* Greek (Windows) */
 299:.\sd/ff.c     **** #define _DF1S	0
 300:.\sd/ff.c     **** #define _EXCVT {0x80,0x81,0x82,0x83,0x84,0x85,0x86,0x87,0x88,0x89,0x8A,0x8B,0x8C,0x8D,0x8E,0x8F,0x9
 301:.\sd/ff.c     **** 				0xA0,0xA1,0xA2,0xA3,0xA4,0xA5,0xA6,0xA7,0xA8,0xA9,0xAA,0xAB,0xAC,0xAD,0xAE,0xAF,0xB0,0xB1,0xB2,
 302:.\sd/ff.c     **** 				0xC0,0xC1,0xC2,0xC3,0xC4,0xC5,0xC6,0xC7,0xC8,0xC9,0xCA,0xCB,0xCC,0xCD,0xCE,0xCF,0xD0,0xD1,0xD2,
 303:.\sd/ff.c     **** 				0xE0,0xC1,0xC2,0xC3,0xC4,0xC5,0xC6,0xC7,0xC8,0xC9,0xCA,0xCB,0xCC,0xCD,0xCE,0xCF,0xD0,0xD1,0xF2,
 304:.\sd/ff.c     **** 
 305:.\sd/ff.c     **** #elif _CODE_PAGE == 1254 /* Turkish (Windows) */
 306:.\sd/ff.c     **** #define _DF1S	0
 307:.\sd/ff.c     **** #define _EXCVT {0x80,0x81,0x82,0x83,0x84,0x85,0x86,0x87,0x88,0x89,0x8A,0x8B,0x8C,0x8D,0x8E,0x8F,0x9
 308:.\sd/ff.c     **** 				0xA0,0x21,0xA2,0xA3,0xA4,0xA5,0xA6,0xA7,0xA8,0xA9,0xAA,0xAB,0xAC,0xAD,0xAE,0xAF,0xB0,0xB1,0xB2,
 309:.\sd/ff.c     **** 				0xC0,0xC1,0xC2,0xC3,0xC4,0xC5,0xC6,0xC7,0xC8,0xC9,0xCA,0xCB,0xCC,0xCD,0xCE,0xCF,0xD0,0xD1,0xD2,
 310:.\sd/ff.c     **** 				0xC0,0xC1,0xC2,0xC3,0xC4,0xC5,0xC6,0xC7,0xC8,0xC9,0xCA,0xCB,0xCC,0xCD,0xCE,0xCF,0xD0,0xD1,0xD2,
 311:.\sd/ff.c     **** 
 312:.\sd/ff.c     **** #elif _CODE_PAGE == 1255 /* Hebrew (Windows) */
 313:.\sd/ff.c     **** #define _DF1S	0
 314:.\sd/ff.c     **** #define _EXCVT {0x80,0x81,0x82,0x83,0x84,0x85,0x86,0x87,0x88,0x89,0x8A,0x8B,0x8C,0x8D,0x8E,0x8F,0x9
 315:.\sd/ff.c     **** 				0xA0,0x21,0xA2,0xA3,0xA4,0xA5,0xA6,0xA7,0xA8,0xA9,0xAA,0xAB,0xAC,0xAD,0xAE,0xAF,0xB0,0xB1,0xB2,
 316:.\sd/ff.c     **** 				0xC0,0xC1,0xC2,0xC3,0xC4,0xC5,0xC6,0xC7,0xC8,0xC9,0xCA,0xCB,0xCC,0xCD,0xCE,0xCF,0xD0,0xD1,0xD2,
 317:.\sd/ff.c     **** 				0xE0,0xE1,0xE2,0xE3,0xE4,0xE5,0xE6,0xE7,0xE8,0xE9,0xEA,0xEB,0xEC,0xED,0xEE,0xEF,0xF0,0xF1,0xF2,
 318:.\sd/ff.c     **** 
ARM GAS  C:\Users\Jarik\AppData\Local\Temp\ccASvTaK.s 			page 7


 319:.\sd/ff.c     **** #elif _CODE_PAGE == 1256 /* Arabic (Windows) */
 320:.\sd/ff.c     **** #define _DF1S	0
 321:.\sd/ff.c     **** #define _EXCVT {0x80,0x81,0x82,0x83,0x84,0x85,0x86,0x87,0x88,0x89,0x8A,0x8B,0x8C,0x8D,0x8E,0x8F,0x9
 322:.\sd/ff.c     **** 				0xA0,0xA1,0xA2,0xA3,0xA4,0xA5,0xA6,0xA7,0xA8,0xA9,0xAA,0xAB,0xAC,0xAD,0xAE,0xAF,0xB0,0xB1,0xB2,
 323:.\sd/ff.c     **** 				0xC0,0xC1,0xC2,0xC3,0xC4,0xC5,0xC6,0xC7,0xC8,0xC9,0xCA,0xCB,0xCC,0xCD,0xCE,0xCF,0xD0,0xD1,0xD2,
 324:.\sd/ff.c     **** 				0x41,0xE1,0x41,0xE3,0xE4,0xE5,0xE6,0x43,0x45,0x45,0x45,0x45,0xEC,0xED,0x49,0x49,0xF0,0xF1,0xF2,
 325:.\sd/ff.c     **** 
 326:.\sd/ff.c     **** #elif _CODE_PAGE == 1257 /* Baltic (Windows) */
 327:.\sd/ff.c     **** #define _DF1S	0
 328:.\sd/ff.c     **** #define _EXCVT {0x80,0x81,0x82,0x83,0x84,0x85,0x86,0x87,0x88,0x89,0x8A,0x8B,0x8C,0x8D,0x8E,0x8F,0x9
 329:.\sd/ff.c     **** 				0xA0,0xA1,0xA2,0xA3,0xA4,0xA5,0xA6,0xA7,0xA8,0xA9,0xAA,0xAB,0xAC,0xAD,0xAE,0xAF,0xB0,0xB1,0xB2,
 330:.\sd/ff.c     **** 				0xC0,0xC1,0xC2,0xC3,0xC4,0xC5,0xC6,0xC7,0xC8,0xC9,0xCA,0xCB,0xCC,0xCD,0xCE,0xCF,0xD0,0xD1,0xD2,
 331:.\sd/ff.c     **** 				0xC0,0xC1,0xC2,0xC3,0xC4,0xC5,0xC6,0xC7,0xC8,0xC9,0xCA,0xCB,0xCC,0xCD,0xCE,0xCF,0xD0,0xD1,0xD2,
 332:.\sd/ff.c     **** 
 333:.\sd/ff.c     **** #elif _CODE_PAGE == 1258 /* Vietnam (OEM, Windows) */
 334:.\sd/ff.c     **** #define _DF1S	0
 335:.\sd/ff.c     **** #define _EXCVT {0x80,0x81,0x82,0x83,0x84,0x85,0x86,0x87,0x88,0x89,0x8A,0x8B,0x8C,0x8D,0x8E,0x8F,0x9
 336:.\sd/ff.c     **** 				0xA0,0x21,0xA2,0xA3,0xA4,0xA5,0xA6,0xA7,0xA8,0xA9,0xAA,0xAB,0xAC,0xAD,0xAE,0xAF,0xB0,0xB1,0xB2,
 337:.\sd/ff.c     **** 				0xC0,0xC1,0xC2,0xC3,0xC4,0xC5,0xC6,0xC7,0xC8,0xC9,0xCA,0xCB,0xCC,0xCD,0xCE,0xCF,0xD0,0xD1,0xD2,
 338:.\sd/ff.c     **** 				0xC0,0xC1,0xC2,0xC3,0xC4,0xC5,0xC6,0xC7,0xC8,0xC9,0xCA,0xCB,0xEC,0xCD,0xCE,0xCF,0xD0,0xD1,0xF2,
 339:.\sd/ff.c     **** 
 340:.\sd/ff.c     **** #elif _CODE_PAGE == 1	/* ASCII (for only non-LFN cfg) */
 341:.\sd/ff.c     **** #if _USE_LFN
 342:.\sd/ff.c     **** #error Cannot use LFN feature without valid code page.
 343:.\sd/ff.c     **** #endif
 344:.\sd/ff.c     **** #define _DF1S	0
 345:.\sd/ff.c     **** 
 346:.\sd/ff.c     **** #else
 347:.\sd/ff.c     **** #error Unknown code page
 348:.\sd/ff.c     **** 
 349:.\sd/ff.c     **** #endif
 350:.\sd/ff.c     **** 
 351:.\sd/ff.c     **** 
 352:.\sd/ff.c     **** /* Character code support macros */
 353:.\sd/ff.c     **** #define IsUpper(c)	(((c)>='A')&&((c)<='Z'))
 354:.\sd/ff.c     **** #define IsLower(c)	(((c)>='a')&&((c)<='z'))
 355:.\sd/ff.c     **** #define IsDigit(c)	(((c)>='0')&&((c)<='9'))
 356:.\sd/ff.c     **** 
 357:.\sd/ff.c     **** #if _DF1S		/* Code page is DBCS */
 358:.\sd/ff.c     **** 
 359:.\sd/ff.c     **** #ifdef _DF2S	/* Two 1st byte areas */
 360:.\sd/ff.c     **** #define IsDBCS1(c)	(((BYTE)(c) >= _DF1S && (BYTE)(c) <= _DF1E) || ((BYTE)(c) >= _DF2S && (BYTE)(c) 
 361:.\sd/ff.c     **** #else			/* One 1st byte area */
 362:.\sd/ff.c     **** #define IsDBCS1(c)	((BYTE)(c) >= _DF1S && (BYTE)(c) <= _DF1E)
 363:.\sd/ff.c     **** #endif
 364:.\sd/ff.c     **** 
 365:.\sd/ff.c     **** #ifdef _DS3S	/* Three 2nd byte areas */
 366:.\sd/ff.c     **** #define IsDBCS2(c)	(((BYTE)(c) >= _DS1S && (BYTE)(c) <= _DS1E) || ((BYTE)(c) >= _DS2S && (BYTE)(c) 
 367:.\sd/ff.c     **** #else			/* Two 2nd byte areas */
 368:.\sd/ff.c     **** #define IsDBCS2(c)	(((BYTE)(c) >= _DS1S && (BYTE)(c) <= _DS1E) || ((BYTE)(c) >= _DS2S && (BYTE)(c) 
 369:.\sd/ff.c     **** #endif
 370:.\sd/ff.c     **** 
 371:.\sd/ff.c     **** #else			/* Code page is SBCS */
 372:.\sd/ff.c     **** 
 373:.\sd/ff.c     **** #define IsDBCS1(c)	0
 374:.\sd/ff.c     **** #define IsDBCS2(c)	0
 375:.\sd/ff.c     **** 
ARM GAS  C:\Users\Jarik\AppData\Local\Temp\ccASvTaK.s 			page 8


 376:.\sd/ff.c     **** #endif /* _DF1S */
 377:.\sd/ff.c     **** 
 378:.\sd/ff.c     **** 
 379:.\sd/ff.c     **** /* Name status flags */
 380:.\sd/ff.c     **** #define NS			11		/* Index of name status byte in fn[] */
 381:.\sd/ff.c     **** #define NS_LOSS		0x01	/* Out of 8.3 format */
 382:.\sd/ff.c     **** #define NS_LFN		0x02	/* Force to create LFN entry */
 383:.\sd/ff.c     **** #define NS_LAST		0x04	/* Last segment */
 384:.\sd/ff.c     **** #define NS_BODY		0x08	/* Lower case flag (body) */
 385:.\sd/ff.c     **** #define NS_EXT		0x10	/* Lower case flag (ext) */
 386:.\sd/ff.c     **** #define NS_DOT		0x20	/* Dot entry */
 387:.\sd/ff.c     **** 
 388:.\sd/ff.c     **** 
 389:.\sd/ff.c     **** /* FAT sub-type boundaries */
 390:.\sd/ff.c     **** /* Note that the FAT spec by Microsoft says 4085 but Windows works with 4087! */
 391:.\sd/ff.c     **** #define MIN_FAT16	4086	/* Minimum number of clusters for FAT16 */
 392:.\sd/ff.c     **** #define	MIN_FAT32	65526	/* Minimum number of clusters for FAT32 */
 393:.\sd/ff.c     **** 
 394:.\sd/ff.c     **** 
 395:.\sd/ff.c     **** /* FatFs refers the members in the FAT structures as byte array instead of
 396:.\sd/ff.c     **** / structure member because the structure is not binary compatible between
 397:.\sd/ff.c     **** / different platforms */
 398:.\sd/ff.c     **** 
 399:.\sd/ff.c     **** #define BS_jmpBoot			0	/* Jump instruction (3) */
 400:.\sd/ff.c     **** #define BS_OEMName			3	/* OEM name (8) */
 401:.\sd/ff.c     **** #define BPB_BytsPerSec		11	/* Sector size [byte] (2) */
 402:.\sd/ff.c     **** #define BPB_SecPerClus		13	/* Cluster size [sector] (1) */
 403:.\sd/ff.c     **** #define BPB_RsvdSecCnt		14	/* Size of reserved area [sector] (2) */
 404:.\sd/ff.c     **** #define BPB_NumFATs			16	/* Number of FAT copies (1) */
 405:.\sd/ff.c     **** #define BPB_RootEntCnt		17	/* Number of root dir entries for FAT12/16 (2) */
 406:.\sd/ff.c     **** #define BPB_TotSec16		19	/* Volume size [sector] (2) */
 407:.\sd/ff.c     **** #define BPB_Media			21	/* Media descriptor (1) */
 408:.\sd/ff.c     **** #define BPB_FATSz16			22	/* FAT size [sector] (2) */
 409:.\sd/ff.c     **** #define BPB_SecPerTrk		24	/* Track size [sector] (2) */
 410:.\sd/ff.c     **** #define BPB_NumHeads		26	/* Number of heads (2) */
 411:.\sd/ff.c     **** #define BPB_HiddSec			28	/* Number of special hidden sectors (4) */
 412:.\sd/ff.c     **** #define BPB_TotSec32		32	/* Volume size [sector] (4) */
 413:.\sd/ff.c     **** #define BS_DrvNum			36	/* Physical drive number (2) */
 414:.\sd/ff.c     **** #define BS_BootSig			38	/* Extended boot signature (1) */
 415:.\sd/ff.c     **** #define BS_VolID			39	/* Volume serial number (4) */
 416:.\sd/ff.c     **** #define BS_VolLab			43	/* Volume label (8) */
 417:.\sd/ff.c     **** #define BS_FilSysType		54	/* File system type (1) */
 418:.\sd/ff.c     **** #define BPB_FATSz32			36	/* FAT size [sector] (4) */
 419:.\sd/ff.c     **** #define BPB_ExtFlags		40	/* Extended flags (2) */
 420:.\sd/ff.c     **** #define BPB_FSVer			42	/* File system version (2) */
 421:.\sd/ff.c     **** #define BPB_RootClus		44	/* Root dir first cluster (4) */
 422:.\sd/ff.c     **** #define BPB_FSInfo			48	/* Offset of FSInfo sector (2) */
 423:.\sd/ff.c     **** #define BPB_BkBootSec		50	/* Offset of backup boot sectot (2) */
 424:.\sd/ff.c     **** #define BS_DrvNum32			64	/* Physical drive number (2) */
 425:.\sd/ff.c     **** #define BS_BootSig32		66	/* Extended boot signature (1) */
 426:.\sd/ff.c     **** #define BS_VolID32			67	/* Volume serial number (4) */
 427:.\sd/ff.c     **** #define BS_VolLab32			71	/* Volume label (8) */
 428:.\sd/ff.c     **** #define BS_FilSysType32		82	/* File system type (1) */
 429:.\sd/ff.c     **** #define	FSI_LeadSig			0	/* FSI: Leading signature (4) */
 430:.\sd/ff.c     **** #define	FSI_StrucSig		484	/* FSI: Structure signature (4) */
 431:.\sd/ff.c     **** #define	FSI_Free_Count		488	/* FSI: Number of free clusters (4) */
 432:.\sd/ff.c     **** #define	FSI_Nxt_Free		492	/* FSI: Last allocated cluster (4) */
ARM GAS  C:\Users\Jarik\AppData\Local\Temp\ccASvTaK.s 			page 9


 433:.\sd/ff.c     **** #define MBR_Table			446	/* MBR: Partition table offset (2) */
 434:.\sd/ff.c     **** #define	SZ_PTE				16	/* MBR: Size of a partition table entry */
 435:.\sd/ff.c     **** #define BS_55AA				510	/* Boot sector signature (2) */
 436:.\sd/ff.c     **** 
 437:.\sd/ff.c     **** #define	DIR_Name			0	/* Short file name (11) */
 438:.\sd/ff.c     **** #define	DIR_Attr			11	/* Attribute (1) */
 439:.\sd/ff.c     **** #define	DIR_NTres			12	/* NT flag (1) */
 440:.\sd/ff.c     **** #define	DIR_CrtTime			14	/* Created time (2) */
 441:.\sd/ff.c     **** #define	DIR_CrtDate			16	/* Created date (2) */
 442:.\sd/ff.c     **** #define	DIR_FstClusHI		20	/* Higher 16-bit of first cluster (2) */
 443:.\sd/ff.c     **** #define	DIR_WrtTime			22	/* Modified time (2) */
 444:.\sd/ff.c     **** #define	DIR_WrtDate			24	/* Modified date (2) */
 445:.\sd/ff.c     **** #define	DIR_FstClusLO		26	/* Lower 16-bit of first cluster (2) */
 446:.\sd/ff.c     **** #define	DIR_FileSize		28	/* File size (4) */
 447:.\sd/ff.c     **** #define	LDIR_Ord			0	/* LFN entry order and LLE flag (1) */
 448:.\sd/ff.c     **** #define	LDIR_Attr			11	/* LFN attribute (1) */
 449:.\sd/ff.c     **** #define	LDIR_Type			12	/* LFN type (1) */
 450:.\sd/ff.c     **** #define	LDIR_Chksum			13	/* Sum of corresponding SFN entry */
 451:.\sd/ff.c     **** #define	LDIR_FstClusLO		26	/* Filled by zero (0) */
 452:.\sd/ff.c     **** #define	SZ_DIR				32		/* Size of a directory entry */
 453:.\sd/ff.c     **** #define	LLE					0x40	/* Last LONG_ entry flag in LDIR_Ord */
 454:.\sd/ff.c     **** #define	DDE					0xE5	/* Deleted directory enrty mark in DIR_Name[0] */
 455:.\sd/ff.c     **** #define	NDDE				0x05	/* Replacement of a character collides with DDE */
 456:.\sd/ff.c     **** 
 457:.\sd/ff.c     **** 
 458:.\sd/ff.c     **** /*------------------------------------------------------------*/
 459:.\sd/ff.c     **** /* Module private work area                                   */
 460:.\sd/ff.c     **** /*------------------------------------------------------------*/
 461:.\sd/ff.c     **** /* Note that uninitialized variables with static duration are
 462:.\sd/ff.c     **** /  zeroed/nulled at start-up. If not, the compiler or start-up
 463:.\sd/ff.c     **** /  routine is out of ANSI-C standard.
 464:.\sd/ff.c     **** */
 465:.\sd/ff.c     **** 
 466:.\sd/ff.c     **** #if _VOLUMES
 467:.\sd/ff.c     **** static
 468:.\sd/ff.c     **** FATFS *FatFs[_VOLUMES];	/* Pointer to the file system objects (logical drives) */
 469:.\sd/ff.c     **** #else
 470:.\sd/ff.c     **** #error Number of volumes must not be 0.
 471:.\sd/ff.c     **** #endif
 472:.\sd/ff.c     **** 
 473:.\sd/ff.c     **** static
 474:.\sd/ff.c     **** WORD Fsid;				/* File system mount ID */
 475:.\sd/ff.c     **** 
 476:.\sd/ff.c     **** #if _FS_RPATH
 477:.\sd/ff.c     **** static
 478:.\sd/ff.c     **** BYTE CurrVol;			/* Current drive */
 479:.\sd/ff.c     **** #endif
 480:.\sd/ff.c     **** 
 481:.\sd/ff.c     **** #if _FS_SHARE
 482:.\sd/ff.c     **** static
 483:.\sd/ff.c     **** FILESEM	Files[_FS_SHARE];	/* File lock semaphores */
 484:.\sd/ff.c     **** #endif
 485:.\sd/ff.c     **** 
 486:.\sd/ff.c     **** #if _USE_LFN == 0			/* No LFN feature */
 487:.\sd/ff.c     **** #define	DEF_NAMEBUF			BYTE sfn[12]
 488:.\sd/ff.c     **** #define INIT_BUF(dobj)		(dobj).fn = sfn
 489:.\sd/ff.c     **** #define	FREE_BUF()
ARM GAS  C:\Users\Jarik\AppData\Local\Temp\ccASvTaK.s 			page 10


 490:.\sd/ff.c     **** 
 491:.\sd/ff.c     **** #elif _USE_LFN == 1			/* LFN feature with static working buffer */
 492:.\sd/ff.c     **** static WCHAR LfnBuf[_MAX_LFN+1];
 493:.\sd/ff.c     **** #define	DEF_NAMEBUF			BYTE sfn[12]
 494:.\sd/ff.c     **** #define INIT_BUF(dobj)		{ (dobj).fn = sfn; (dobj).lfn = LfnBuf; }
 495:.\sd/ff.c     **** #define	FREE_BUF()
 496:.\sd/ff.c     **** 
 497:.\sd/ff.c     **** #elif _USE_LFN == 2 		/* LFN feature with dynamic working buffer on the stack */
 498:.\sd/ff.c     **** #define	DEF_NAMEBUF			BYTE sfn[12]; WCHAR lbuf[_MAX_LFN+1]
 499:.\sd/ff.c     **** #define INIT_BUF(dobj)		{ (dobj).fn = sfn; (dobj).lfn = lbuf; }
 500:.\sd/ff.c     **** #define	FREE_BUF()
 501:.\sd/ff.c     **** 
 502:.\sd/ff.c     **** #elif _USE_LFN == 3 		/* LFN feature with dynamic working buffer on the heap */
 503:.\sd/ff.c     **** #define	DEF_NAMEBUF			BYTE sfn[12]; WCHAR *lfn
 504:.\sd/ff.c     **** #define INIT_BUF(dobj)		{ lfn = ff_memalloc((_MAX_LFN + 1) * 2); \
 505:.\sd/ff.c     **** 							  if (!lfn) LEAVE_FF((dobj).fs, FR_NOT_ENOUGH_CORE); \
 506:.\sd/ff.c     **** 							  (dobj).lfn = lfn;	(dobj).fn = sfn; }
 507:.\sd/ff.c     **** #define	FREE_BUF()			ff_memfree(lfn)
 508:.\sd/ff.c     **** 
 509:.\sd/ff.c     **** #else
 510:.\sd/ff.c     **** #error Wrong LFN configuration.
 511:.\sd/ff.c     **** #endif
 512:.\sd/ff.c     **** 
 513:.\sd/ff.c     **** 
 514:.\sd/ff.c     **** 
 515:.\sd/ff.c     **** 
 516:.\sd/ff.c     **** /*--------------------------------------------------------------------------
 517:.\sd/ff.c     **** 
 518:.\sd/ff.c     ****    Module Private Functions
 519:.\sd/ff.c     **** 
 520:.\sd/ff.c     **** ---------------------------------------------------------------------------*/
 521:.\sd/ff.c     **** 
 522:.\sd/ff.c     **** 
 523:.\sd/ff.c     **** /*-----------------------------------------------------------------------*/
 524:.\sd/ff.c     **** /* String functions                                                      */
 525:.\sd/ff.c     **** /*-----------------------------------------------------------------------*/
 526:.\sd/ff.c     **** 
 527:.\sd/ff.c     **** /* Copy memory to memory */
 528:.\sd/ff.c     **** static
 529:.\sd/ff.c     **** void mem_cpy (void* dst, const void* src, UINT cnt) {
  25              		.loc 1 529 0
  26              		.cfi_startproc
  27              	.LVL0:
 530:.\sd/ff.c     **** 	BYTE *d = (BYTE*)dst;
 531:.\sd/ff.c     **** 	const BYTE *s = (const BYTE*)src;
 532:.\sd/ff.c     **** 
 533:.\sd/ff.c     **** #if _WORD_ACCESS == 1
 534:.\sd/ff.c     **** 	while (cnt >= sizeof(int)) {
 535:.\sd/ff.c     **** 		*(int*)d = *(int*)s;
 536:.\sd/ff.c     **** 		d += sizeof(int); s += sizeof(int);
 537:.\sd/ff.c     **** 		cnt -= sizeof(int);
 538:.\sd/ff.c     **** 	}
 539:.\sd/ff.c     **** #endif
 540:.\sd/ff.c     **** 	while (cnt--)
  28              		.loc 1 540 0
  29 0000 0023     		mov	r3, #0
 529:.\sd/ff.c     **** 	BYTE *d = (BYTE*)dst;
ARM GAS  C:\Users\Jarik\AppData\Local\Temp\ccASvTaK.s 			page 11


  30              		.loc 1 529 0
  31 0002 10B5     		push	{r4, lr}
  32              		.cfi_def_cfa_offset 8
  33              		.cfi_offset 4, -8
  34              		.cfi_offset 14, -4
  35              	.LVL1:
  36              	.L2:
  37              		.loc 1 540 0
  38 0004 9342     		cmp	r3, r2
  39 0006 03D0     		beq	.L5
  40              	.LVL2:
 541:.\sd/ff.c     **** 		*d++ = *s++;
  41              		.loc 1 541 0
  42 0008 CC5C     		ldrb	r4, [r1, r3]
  43 000a C454     		strb	r4, [r0, r3]
  44 000c 0133     		add	r3, r3, #1
  45              	.LVL3:
  46 000e F9E7     		b	.L2
  47              	.LVL4:
  48              	.L5:
 542:.\sd/ff.c     **** }
  49              		.loc 1 542 0
  50              		@ sp needed
  51 0010 10BD     		pop	{r4, pc}
  52              		.cfi_endproc
  53              	.LFE0:
  54              		.size	mem_cpy, .-mem_cpy
  55              		.section	.text.chk_lock,"ax",%progbits
  56              		.align	1
  57              		.code	16
  58              		.thumb_func
  59              		.type	chk_lock, %function
  60              	chk_lock:
  61              	.LFB4:
 543:.\sd/ff.c     **** 
 544:.\sd/ff.c     **** /* Fill memory */
 545:.\sd/ff.c     **** static
 546:.\sd/ff.c     **** void mem_set (void* dst, int val, UINT cnt) {
 547:.\sd/ff.c     **** 	BYTE *d = (BYTE*)dst;
 548:.\sd/ff.c     **** 
 549:.\sd/ff.c     **** 	while (cnt--)
 550:.\sd/ff.c     **** 		*d++ = (BYTE)val;
 551:.\sd/ff.c     **** }
 552:.\sd/ff.c     **** 
 553:.\sd/ff.c     **** /* Compare memory to memory */
 554:.\sd/ff.c     **** static
 555:.\sd/ff.c     **** int mem_cmp (const void* dst, const void* src, UINT cnt) {
 556:.\sd/ff.c     **** 	const BYTE *d = (const BYTE *)dst, *s = (const BYTE *)src;
 557:.\sd/ff.c     **** 	int r = 0;
 558:.\sd/ff.c     **** 
 559:.\sd/ff.c     **** 	while (cnt-- && (r = *d++ - *s++) == 0) ;
 560:.\sd/ff.c     **** 	return r;
 561:.\sd/ff.c     **** }
 562:.\sd/ff.c     **** 
 563:.\sd/ff.c     **** /* Check if chr is contained in the string */
 564:.\sd/ff.c     **** static
 565:.\sd/ff.c     **** int chk_chr (const char* str, int chr) {
ARM GAS  C:\Users\Jarik\AppData\Local\Temp\ccASvTaK.s 			page 12


 566:.\sd/ff.c     **** 	while (*str && *str != chr) str++;
 567:.\sd/ff.c     **** 	return *str;
 568:.\sd/ff.c     **** }
 569:.\sd/ff.c     **** 
 570:.\sd/ff.c     **** 
 571:.\sd/ff.c     **** 
 572:.\sd/ff.c     **** /*-----------------------------------------------------------------------*/
 573:.\sd/ff.c     **** /* Request/Release grant to access the volume                            */
 574:.\sd/ff.c     **** /*-----------------------------------------------------------------------*/
 575:.\sd/ff.c     **** #if _FS_REENTRANT
 576:.\sd/ff.c     **** 
 577:.\sd/ff.c     **** static
 578:.\sd/ff.c     **** int lock_fs (
 579:.\sd/ff.c     **** 	FATFS *fs		/* File system object */
 580:.\sd/ff.c     **** )
 581:.\sd/ff.c     **** {
 582:.\sd/ff.c     **** 	return ff_req_grant(fs->sobj);
 583:.\sd/ff.c     **** }
 584:.\sd/ff.c     **** 
 585:.\sd/ff.c     **** 
 586:.\sd/ff.c     **** static
 587:.\sd/ff.c     **** void unlock_fs (
 588:.\sd/ff.c     **** 	FATFS *fs,		/* File system object */
 589:.\sd/ff.c     **** 	FRESULT res		/* Result code to be returned */
 590:.\sd/ff.c     **** )
 591:.\sd/ff.c     **** {
 592:.\sd/ff.c     **** 	if (res != FR_NOT_ENABLED &&
 593:.\sd/ff.c     **** 		res != FR_INVALID_DRIVE &&
 594:.\sd/ff.c     **** 		res != FR_INVALID_OBJECT &&
 595:.\sd/ff.c     **** 		res != FR_TIMEOUT) {
 596:.\sd/ff.c     **** 		ff_rel_grant(fs->sobj);
 597:.\sd/ff.c     **** 	}
 598:.\sd/ff.c     **** }
 599:.\sd/ff.c     **** #endif
 600:.\sd/ff.c     **** 
 601:.\sd/ff.c     **** 
 602:.\sd/ff.c     **** 
 603:.\sd/ff.c     **** /*-----------------------------------------------------------------------*/
 604:.\sd/ff.c     **** /* File shareing control functions                                       */
 605:.\sd/ff.c     **** /*-----------------------------------------------------------------------*/
 606:.\sd/ff.c     **** #if _FS_SHARE
 607:.\sd/ff.c     **** 
 608:.\sd/ff.c     **** static
 609:.\sd/ff.c     **** FRESULT chk_lock (	/* Check if the file can be accessed */
 610:.\sd/ff.c     **** 	DIR* dj,		/* Directory object pointing the file to be checked */
 611:.\sd/ff.c     **** 	int acc			/* Desired access (0:Read, 1:Write, 2:Delete/Rename) */
 612:.\sd/ff.c     **** )
 613:.\sd/ff.c     **** {
  62              		.loc 1 613 0
  63              		.cfi_startproc
  64              	.LVL5:
  65 0000 F0B5     		push	{r4, r5, r6, r7, lr}
  66              		.cfi_def_cfa_offset 20
  67              		.cfi_offset 4, -20
  68              		.cfi_offset 5, -16
  69              		.cfi_offset 6, -12
  70              		.cfi_offset 7, -8
ARM GAS  C:\Users\Jarik\AppData\Local\Temp\ccASvTaK.s 			page 13


  71              		.cfi_offset 14, -4
 614:.\sd/ff.c     **** 	UINT i, be;
 615:.\sd/ff.c     **** 
 616:.\sd/ff.c     **** 	/* Search file semaphore table */
 617:.\sd/ff.c     **** 	for (i = be = 0; i < _FS_SHARE; i++) {
  72              		.loc 1 617 0
  73 0002 0024     		mov	r4, #0
  74 0004 231C     		mov	r3, r4
  75 0006 164D     		ldr	r5, .L25
  76 0008 2A1D     		add	r2, r5, #4
  77              	.LVL6:
  78              	.L10:
  79 000a 161F     		sub	r6, r2, #4
 618:.\sd/ff.c     **** 		if (Files[i].fs) {	/* Existing entry */
  80              		.loc 1 618 0
  81 000c 3668     		ldr	r6, [r6]
  82 000e 002E     		cmp	r6, #0
  83 0010 0BD0     		beq	.L7
 619:.\sd/ff.c     **** 			if (Files[i].fs == dj->fs &&	 	/* Check if the file matched with an open file */
  84              		.loc 1 619 0
  85 0012 0768     		ldr	r7, [r0]
  86 0014 BE42     		cmp	r6, r7
  87 0016 09D1     		bne	.L8
  88              		.loc 1 619 0 is_stmt 0 discriminator 1
  89 0018 1668     		ldr	r6, [r2]
  90 001a 8768     		ldr	r7, [r0, #8]
  91 001c BE42     		cmp	r6, r7
  92 001e 05D1     		bne	.L8
 620:.\sd/ff.c     **** 				Files[i].clu == dj->sclust &&
  93              		.loc 1 620 0 is_stmt 1
  94 0020 9788     		ldrh	r7, [r2, #4]
  95 0022 C688     		ldrh	r6, [r0, #6]
  96 0024 B742     		cmp	r7, r6
  97 0026 01D1     		bne	.L8
  98 0028 05E0     		b	.L23
  99              	.L7:
 621:.\sd/ff.c     **** 				Files[i].idx == dj->index) break;
 622:.\sd/ff.c     **** 		} else {			/* Blank entry */
 623:.\sd/ff.c     **** 			be++;
 100              		.loc 1 623 0
 101 002a 0134     		add	r4, r4, #1
 102              	.LVL7:
 103              	.L8:
 617:.\sd/ff.c     **** 		if (Files[i].fs) {	/* Existing entry */
 104              		.loc 1 617 0 discriminator 2
 105 002c 0133     		add	r3, r3, #1
 106              	.LVL8:
 107 002e 0C32     		add	r2, r2, #12
 108 0030 032B     		cmp	r3, #3
 109 0032 EAD1     		bne	.L10
 110 0034 0CE0     		b	.L24
 111              	.L23:
 624:.\sd/ff.c     **** 		}
 625:.\sd/ff.c     **** 	}
 626:.\sd/ff.c     **** 	if (i == _FS_SHARE)	/* The file is not opened */
 627:.\sd/ff.c     **** 		return (be || acc == 2) ? FR_OK : FR_TOO_MANY_OPEN_FILES;	/* Is there a blank entry for new file?
 628:.\sd/ff.c     **** 
ARM GAS  C:\Users\Jarik\AppData\Local\Temp\ccASvTaK.s 			page 14


 629:.\sd/ff.c     **** 	/* The file has been opened. Reject any open against writing file and all write mode open */
 630:.\sd/ff.c     **** 	return (acc || Files[i].ctr == 0x100) ? FR_LOCKED : FR_OK;
 112              		.loc 1 630 0
 113 0036 1020     		mov	r0, #16
 114              	.LVL9:
 115 0038 0029     		cmp	r1, #0
 116 003a 0FD1     		bne	.L19
 117              		.loc 1 630 0 is_stmt 0 discriminator 2
 118 003c 0C22     		mov	r2, #12
 119 003e 5343     		mul	r3, r2
 120              	.LVL10:
 121 0040 EB18     		add	r3, r5, r3
 122 0042 5889     		ldrh	r0, [r3, #10]
 123 0044 0138     		sub	r0, r0, #1
 124 0046 FF38     		sub	r0, r0, #255
 125 0048 4242     		neg	r2, r0
 126 004a 4241     		adc	r2, r2, r0
 127 004c 1001     		lsl	r0, r2, #4
 128 004e 05E0     		b	.L19
 129              	.LVL11:
 130              	.L24:
 627:.\sd/ff.c     **** 
 131              		.loc 1 627 0 is_stmt 1
 132 0050 0020     		mov	r0, #0
 133              	.LVL12:
 134 0052 8442     		cmp	r4, r0
 135 0054 02D1     		bne	.L19
 627:.\sd/ff.c     **** 
 136              		.loc 1 627 0 is_stmt 0 discriminator 2
 137 0056 0229     		cmp	r1, #2
 138 0058 00D0     		beq	.L19
 627:.\sd/ff.c     **** 
 139              		.loc 1 627 0
 140 005a 1220     		mov	r0, #18
 141              	.LVL13:
 142              	.L19:
 631:.\sd/ff.c     **** }
 143              		.loc 1 631 0 is_stmt 1
 144              		@ sp needed
 145              	.LVL14:
 146 005c F0BD     		pop	{r4, r5, r6, r7, pc}
 147              	.L26:
 148 005e C046     		.align	2
 149              	.L25:
 150 0060 00000000 		.word	.LANCHOR0
 151              		.cfi_endproc
 152              	.LFE4:
 153              		.size	chk_lock, .-chk_lock
 154              		.section	.text.get_fileinfo,"ax",%progbits
 155              		.align	1
 156              		.code	16
 157              		.thumb_func
 158              		.type	get_fileinfo, %function
 159              	get_fileinfo:
 160              	.LFB23:
 632:.\sd/ff.c     **** 
 633:.\sd/ff.c     **** 
ARM GAS  C:\Users\Jarik\AppData\Local\Temp\ccASvTaK.s 			page 15


 634:.\sd/ff.c     **** static
 635:.\sd/ff.c     **** int enq_lock (void)	/* Check if an entry is available for a new file */
 636:.\sd/ff.c     **** {
 637:.\sd/ff.c     **** 	UINT i;
 638:.\sd/ff.c     **** 
 639:.\sd/ff.c     **** 	for (i = 0; i < _FS_SHARE && Files[i].fs; i++) ;
 640:.\sd/ff.c     **** 	return (i == _FS_SHARE) ? 0 : 1;
 641:.\sd/ff.c     **** }
 642:.\sd/ff.c     **** 
 643:.\sd/ff.c     **** 
 644:.\sd/ff.c     **** static
 645:.\sd/ff.c     **** UINT inc_lock (	/* Increment file open counter and returns its index (0:int error) */
 646:.\sd/ff.c     **** 	DIR* dj,	/* Directory object pointing the file to register or increment */
 647:.\sd/ff.c     **** 	int acc		/* Desired access mode (0:Read, !0:Write) */
 648:.\sd/ff.c     **** )
 649:.\sd/ff.c     **** {
 650:.\sd/ff.c     **** 	UINT i;
 651:.\sd/ff.c     **** 
 652:.\sd/ff.c     **** 
 653:.\sd/ff.c     **** 	for (i = 0; i < _FS_SHARE; i++) {	/* Find the file */
 654:.\sd/ff.c     **** 		if (Files[i].fs == dj->fs &&
 655:.\sd/ff.c     **** 			Files[i].clu == dj->sclust &&
 656:.\sd/ff.c     **** 			Files[i].idx == dj->index) break;
 657:.\sd/ff.c     **** 	}
 658:.\sd/ff.c     **** 
 659:.\sd/ff.c     **** 	if (i == _FS_SHARE) {				/* Not opened. Register it as new. */
 660:.\sd/ff.c     **** 		for (i = 0; i < _FS_SHARE && Files[i].fs; i++) ;
 661:.\sd/ff.c     **** 		if (i == _FS_SHARE) return 0;	/* No space to register (int err) */
 662:.\sd/ff.c     **** 		Files[i].fs = dj->fs;
 663:.\sd/ff.c     **** 		Files[i].clu = dj->sclust;
 664:.\sd/ff.c     **** 		Files[i].idx = dj->index;
 665:.\sd/ff.c     **** 		Files[i].ctr = 0;
 666:.\sd/ff.c     **** 	}
 667:.\sd/ff.c     **** 
 668:.\sd/ff.c     **** 	if (acc && Files[i].ctr) return 0;	/* Access violation (int err) */
 669:.\sd/ff.c     **** 
 670:.\sd/ff.c     **** 	Files[i].ctr = acc ? 0x100 : Files[i].ctr + 1;	/* Set semaphore value */
 671:.\sd/ff.c     **** 
 672:.\sd/ff.c     **** 	return i + 1;
 673:.\sd/ff.c     **** }
 674:.\sd/ff.c     **** 
 675:.\sd/ff.c     **** 
 676:.\sd/ff.c     **** static
 677:.\sd/ff.c     **** FRESULT dec_lock (	/* Decrement file open counter */
 678:.\sd/ff.c     **** 	UINT i			/* Semaphore index */
 679:.\sd/ff.c     **** )
 680:.\sd/ff.c     **** {
 681:.\sd/ff.c     **** 	WORD n;
 682:.\sd/ff.c     **** 	FRESULT res;
 683:.\sd/ff.c     **** 
 684:.\sd/ff.c     **** 
 685:.\sd/ff.c     **** 	if (--i < _FS_SHARE) {
 686:.\sd/ff.c     **** 		n = Files[i].ctr;
 687:.\sd/ff.c     **** 		if (n == 0x100) n = 0;
 688:.\sd/ff.c     **** 		if (n) n--;
 689:.\sd/ff.c     **** 		Files[i].ctr = n;
 690:.\sd/ff.c     **** 		if (!n) Files[i].fs = 0;
ARM GAS  C:\Users\Jarik\AppData\Local\Temp\ccASvTaK.s 			page 16


 691:.\sd/ff.c     **** 		res = FR_OK;
 692:.\sd/ff.c     **** 	} else {
 693:.\sd/ff.c     **** 		res = FR_INT_ERR;
 694:.\sd/ff.c     **** 	}
 695:.\sd/ff.c     **** 	return res;
 696:.\sd/ff.c     **** }
 697:.\sd/ff.c     **** 
 698:.\sd/ff.c     **** 
 699:.\sd/ff.c     **** static
 700:.\sd/ff.c     **** void clear_lock (	/* Clear lock entries of the volume */
 701:.\sd/ff.c     **** 	FATFS *fs
 702:.\sd/ff.c     **** )
 703:.\sd/ff.c     **** {
 704:.\sd/ff.c     **** 	UINT i;
 705:.\sd/ff.c     **** 
 706:.\sd/ff.c     **** 	for (i = 0; i < _FS_SHARE; i++) {
 707:.\sd/ff.c     **** 		if (Files[i].fs == fs) Files[i].fs = 0;
 708:.\sd/ff.c     **** 	}
 709:.\sd/ff.c     **** }
 710:.\sd/ff.c     **** #endif
 711:.\sd/ff.c     **** 
 712:.\sd/ff.c     **** 
 713:.\sd/ff.c     **** 
 714:.\sd/ff.c     **** /*-----------------------------------------------------------------------*/
 715:.\sd/ff.c     **** /* Change window offset                                                  */
 716:.\sd/ff.c     **** /*-----------------------------------------------------------------------*/
 717:.\sd/ff.c     **** 
 718:.\sd/ff.c     **** static
 719:.\sd/ff.c     **** FRESULT move_window (
 720:.\sd/ff.c     **** 	FATFS *fs,		/* File system object */
 721:.\sd/ff.c     **** 	DWORD sector	/* Sector number to make appearance in the fs->win[] */
 722:.\sd/ff.c     **** )					/* Move to zero only writes back dirty window */
 723:.\sd/ff.c     **** {
 724:.\sd/ff.c     **** 	DWORD wsect;
 725:.\sd/ff.c     **** 
 726:.\sd/ff.c     **** 
 727:.\sd/ff.c     **** 	wsect = fs->winsect;
 728:.\sd/ff.c     **** 	if (wsect != sector) {	/* Changed current window */
 729:.\sd/ff.c     **** #if !_FS_READONLY
 730:.\sd/ff.c     **** 		if (fs->wflag) {	/* Write back dirty window if needed */
 731:.\sd/ff.c     **** 			if (disk_write(fs->drv, fs->win, wsect, 1) != RES_OK)
 732:.\sd/ff.c     **** 				return FR_DISK_ERR;
 733:.\sd/ff.c     **** 			fs->wflag = 0;
 734:.\sd/ff.c     **** 			if (wsect < (fs->fatbase + fs->fsize)) {	/* In FAT area */
 735:.\sd/ff.c     **** 				BYTE nf;
 736:.\sd/ff.c     **** 				for (nf = fs->n_fats; nf > 1; nf--) {	/* Reflect the change to all FAT copies */
 737:.\sd/ff.c     **** 					wsect += fs->fsize;
 738:.\sd/ff.c     **** 					disk_write(fs->drv, fs->win, wsect, 1);
 739:.\sd/ff.c     **** 				}
 740:.\sd/ff.c     **** 			}
 741:.\sd/ff.c     **** 		}
 742:.\sd/ff.c     **** #endif
 743:.\sd/ff.c     **** 		if (sector) {
 744:.\sd/ff.c     **** 			if (disk_read(fs->drv, fs->win, sector, 1) != RES_OK)
 745:.\sd/ff.c     **** 				return FR_DISK_ERR;
 746:.\sd/ff.c     **** 			fs->winsect = sector;
 747:.\sd/ff.c     **** 		}
ARM GAS  C:\Users\Jarik\AppData\Local\Temp\ccASvTaK.s 			page 17


 748:.\sd/ff.c     **** 	}
 749:.\sd/ff.c     **** 
 750:.\sd/ff.c     **** 	return FR_OK;
 751:.\sd/ff.c     **** }
 752:.\sd/ff.c     **** 
 753:.\sd/ff.c     **** 
 754:.\sd/ff.c     **** 
 755:.\sd/ff.c     **** 
 756:.\sd/ff.c     **** /*-----------------------------------------------------------------------*/
 757:.\sd/ff.c     **** /* Clean-up cached data                                                  */
 758:.\sd/ff.c     **** /*-----------------------------------------------------------------------*/
 759:.\sd/ff.c     **** #if !_FS_READONLY
 760:.\sd/ff.c     **** static
 761:.\sd/ff.c     **** FRESULT sync (	/* FR_OK: successful, FR_DISK_ERR: failed */
 762:.\sd/ff.c     **** 	FATFS *fs	/* File system object */
 763:.\sd/ff.c     **** )
 764:.\sd/ff.c     **** {
 765:.\sd/ff.c     **** 	FRESULT res;
 766:.\sd/ff.c     **** 
 767:.\sd/ff.c     **** 
 768:.\sd/ff.c     **** 	res = move_window(fs, 0);
 769:.\sd/ff.c     **** 	if (res == FR_OK) {
 770:.\sd/ff.c     **** 		/* Update FSInfo sector if needed */
 771:.\sd/ff.c     **** 		if (fs->fs_type == FS_FAT32 && fs->fsi_flag) {
 772:.\sd/ff.c     **** 			fs->winsect = 0;
 773:.\sd/ff.c     **** 			/* Create FSInfo structure */
 774:.\sd/ff.c     **** 			mem_set(fs->win, 0, 512);
 775:.\sd/ff.c     **** 			ST_WORD(fs->win+BS_55AA, 0xAA55);
 776:.\sd/ff.c     **** 			ST_DWORD(fs->win+FSI_LeadSig, 0x41615252);
 777:.\sd/ff.c     **** 			ST_DWORD(fs->win+FSI_StrucSig, 0x61417272);
 778:.\sd/ff.c     **** 			ST_DWORD(fs->win+FSI_Free_Count, fs->free_clust);
 779:.\sd/ff.c     **** 			ST_DWORD(fs->win+FSI_Nxt_Free, fs->last_clust);
 780:.\sd/ff.c     **** 			/* Write it into the FSInfo sector */
 781:.\sd/ff.c     **** 			disk_write(fs->drv, fs->win, fs->fsi_sector, 1);
 782:.\sd/ff.c     **** 			fs->fsi_flag = 0;
 783:.\sd/ff.c     **** 		}
 784:.\sd/ff.c     **** 		/* Make sure that no pending write process in the physical drive */
 785:.\sd/ff.c     **** 		if (disk_ioctl(fs->drv, CTRL_SYNC, 0) != RES_OK)
 786:.\sd/ff.c     **** 			res = FR_DISK_ERR;
 787:.\sd/ff.c     **** 	}
 788:.\sd/ff.c     **** 
 789:.\sd/ff.c     **** 	return res;
 790:.\sd/ff.c     **** }
 791:.\sd/ff.c     **** #endif
 792:.\sd/ff.c     **** 
 793:.\sd/ff.c     **** 
 794:.\sd/ff.c     **** 
 795:.\sd/ff.c     **** 
 796:.\sd/ff.c     **** /*-----------------------------------------------------------------------*/
 797:.\sd/ff.c     **** /* Get sector# from cluster#                                             */
 798:.\sd/ff.c     **** /*-----------------------------------------------------------------------*/
 799:.\sd/ff.c     **** 
 800:.\sd/ff.c     **** 
 801:.\sd/ff.c     **** DWORD clust2sect (	/* !=0: Sector number, 0: Failed - invalid cluster# */
 802:.\sd/ff.c     **** 	FATFS *fs,		/* File system object */
 803:.\sd/ff.c     **** 	DWORD clst		/* Cluster# to be converted */
 804:.\sd/ff.c     **** )
ARM GAS  C:\Users\Jarik\AppData\Local\Temp\ccASvTaK.s 			page 18


 805:.\sd/ff.c     **** {
 806:.\sd/ff.c     **** 	clst -= 2;
 807:.\sd/ff.c     **** 	if (clst >= (fs->n_fatent - 2)) return 0;		/* Invalid cluster# */
 808:.\sd/ff.c     **** 	return clst * fs->csize + fs->database;
 809:.\sd/ff.c     **** }
 810:.\sd/ff.c     **** 
 811:.\sd/ff.c     **** 
 812:.\sd/ff.c     **** 
 813:.\sd/ff.c     **** 
 814:.\sd/ff.c     **** /*-----------------------------------------------------------------------*/
 815:.\sd/ff.c     **** /* FAT access - Read value of a FAT entry                                */
 816:.\sd/ff.c     **** /*-----------------------------------------------------------------------*/
 817:.\sd/ff.c     **** 
 818:.\sd/ff.c     **** 
 819:.\sd/ff.c     **** DWORD get_fat (	/* 0xFFFFFFFF:Disk error, 1:Internal error, Else:Cluster status */
 820:.\sd/ff.c     **** 	FATFS *fs,	/* File system object */
 821:.\sd/ff.c     **** 	DWORD clst	/* Cluster# to get the link information */
 822:.\sd/ff.c     **** )
 823:.\sd/ff.c     **** {
 824:.\sd/ff.c     **** 	UINT wc, bc;
 825:.\sd/ff.c     **** 	BYTE *p;
 826:.\sd/ff.c     **** 
 827:.\sd/ff.c     **** 
 828:.\sd/ff.c     **** 	if (clst < 2 || clst >= fs->n_fatent)	/* Chack range */
 829:.\sd/ff.c     **** 		return 1;
 830:.\sd/ff.c     **** 
 831:.\sd/ff.c     **** 	switch (fs->fs_type) {
 832:.\sd/ff.c     **** 	case FS_FAT12 :
 833:.\sd/ff.c     **** 		bc = (UINT)clst; bc += bc / 2;
 834:.\sd/ff.c     **** 		if (move_window(fs, fs->fatbase + (bc / SS(fs)))) break;
 835:.\sd/ff.c     **** 		wc = fs->win[bc % SS(fs)]; bc++;
 836:.\sd/ff.c     **** 		if (move_window(fs, fs->fatbase + (bc / SS(fs)))) break;
 837:.\sd/ff.c     **** 		wc |= fs->win[bc % SS(fs)] << 8;
 838:.\sd/ff.c     **** 		return (clst & 1) ? (wc >> 4) : (wc & 0xFFF);
 839:.\sd/ff.c     **** 
 840:.\sd/ff.c     **** 	case FS_FAT16 :
 841:.\sd/ff.c     **** 		if (move_window(fs, fs->fatbase + (clst / (SS(fs) / 2)))) break;
 842:.\sd/ff.c     **** 		p = &fs->win[clst * 2 % SS(fs)];
 843:.\sd/ff.c     **** 		return LD_WORD(p);
 844:.\sd/ff.c     **** 
 845:.\sd/ff.c     **** 	case FS_FAT32 :
 846:.\sd/ff.c     **** 		if (move_window(fs, fs->fatbase + (clst / (SS(fs) / 4)))) break;
 847:.\sd/ff.c     **** 		p = &fs->win[clst * 4 % SS(fs)];
 848:.\sd/ff.c     **** 		return LD_DWORD(p) & 0x0FFFFFFF;
 849:.\sd/ff.c     **** 	}
 850:.\sd/ff.c     **** 
 851:.\sd/ff.c     **** 	return 0xFFFFFFFF;	/* An error occurred at the disk I/O layer */
 852:.\sd/ff.c     **** }
 853:.\sd/ff.c     **** 
 854:.\sd/ff.c     **** 
 855:.\sd/ff.c     **** 
 856:.\sd/ff.c     **** 
 857:.\sd/ff.c     **** /*-----------------------------------------------------------------------*/
 858:.\sd/ff.c     **** /* FAT access - Change value of a FAT entry                              */
 859:.\sd/ff.c     **** /*-----------------------------------------------------------------------*/
 860:.\sd/ff.c     **** #if !_FS_READONLY
 861:.\sd/ff.c     **** 
ARM GAS  C:\Users\Jarik\AppData\Local\Temp\ccASvTaK.s 			page 19


 862:.\sd/ff.c     **** FRESULT put_fat (
 863:.\sd/ff.c     **** 	FATFS *fs,	/* File system object */
 864:.\sd/ff.c     **** 	DWORD clst,	/* Cluster# to be changed in range of 2 to fs->n_fatent - 1 */
 865:.\sd/ff.c     **** 	DWORD val	/* New value to mark the cluster */
 866:.\sd/ff.c     **** )
 867:.\sd/ff.c     **** {
 868:.\sd/ff.c     **** 	UINT bc;
 869:.\sd/ff.c     **** 	BYTE *p;
 870:.\sd/ff.c     **** 	FRESULT res;
 871:.\sd/ff.c     **** 
 872:.\sd/ff.c     **** 
 873:.\sd/ff.c     **** 	if (clst < 2 || clst >= fs->n_fatent) {	/* Check range */
 874:.\sd/ff.c     **** 		res = FR_INT_ERR;
 875:.\sd/ff.c     **** 
 876:.\sd/ff.c     **** 	} else {
 877:.\sd/ff.c     **** 		switch (fs->fs_type) {
 878:.\sd/ff.c     **** 		case FS_FAT12 :
 879:.\sd/ff.c     **** 			bc = clst; bc += bc / 2;
 880:.\sd/ff.c     **** 			res = move_window(fs, fs->fatbase + (bc / SS(fs)));
 881:.\sd/ff.c     **** 			if (res != FR_OK) break;
 882:.\sd/ff.c     **** 			p = &fs->win[bc % SS(fs)];
 883:.\sd/ff.c     **** 			*p = (clst & 1) ? ((*p & 0x0F) | ((BYTE)val << 4)) : (BYTE)val;
 884:.\sd/ff.c     **** 			bc++;
 885:.\sd/ff.c     **** 			fs->wflag = 1;
 886:.\sd/ff.c     **** 			res = move_window(fs, fs->fatbase + (bc / SS(fs)));
 887:.\sd/ff.c     **** 			if (res != FR_OK) break;
 888:.\sd/ff.c     **** 			p = &fs->win[bc % SS(fs)];
 889:.\sd/ff.c     **** 			*p = (clst & 1) ? (BYTE)(val >> 4) : ((*p & 0xF0) | ((BYTE)(val >> 8) & 0x0F));
 890:.\sd/ff.c     **** 			break;
 891:.\sd/ff.c     **** 
 892:.\sd/ff.c     **** 		case FS_FAT16 :
 893:.\sd/ff.c     **** 			res = move_window(fs, fs->fatbase + (clst / (SS(fs) / 2)));
 894:.\sd/ff.c     **** 			if (res != FR_OK) break;
 895:.\sd/ff.c     **** 			p = &fs->win[clst * 2 % SS(fs)];
 896:.\sd/ff.c     **** 			ST_WORD(p, (WORD)val);
 897:.\sd/ff.c     **** 			break;
 898:.\sd/ff.c     **** 
 899:.\sd/ff.c     **** 		case FS_FAT32 :
 900:.\sd/ff.c     **** 			res = move_window(fs, fs->fatbase + (clst / (SS(fs) / 4)));
 901:.\sd/ff.c     **** 			if (res != FR_OK) break;
 902:.\sd/ff.c     **** 			p = &fs->win[clst * 4 % SS(fs)];
 903:.\sd/ff.c     **** 			val |= LD_DWORD(p) & 0xF0000000;
 904:.\sd/ff.c     **** 			ST_DWORD(p, val);
 905:.\sd/ff.c     **** 			break;
 906:.\sd/ff.c     **** 
 907:.\sd/ff.c     **** 		default :
 908:.\sd/ff.c     **** 			res = FR_INT_ERR;
 909:.\sd/ff.c     **** 		}
 910:.\sd/ff.c     **** 		fs->wflag = 1;
 911:.\sd/ff.c     **** 	}
 912:.\sd/ff.c     **** 
 913:.\sd/ff.c     **** 	return res;
 914:.\sd/ff.c     **** }
 915:.\sd/ff.c     **** #endif /* !_FS_READONLY */
 916:.\sd/ff.c     **** 
 917:.\sd/ff.c     **** 
 918:.\sd/ff.c     **** 
ARM GAS  C:\Users\Jarik\AppData\Local\Temp\ccASvTaK.s 			page 20


 919:.\sd/ff.c     **** 
 920:.\sd/ff.c     **** /*-----------------------------------------------------------------------*/
 921:.\sd/ff.c     **** /* FAT handling - Remove a cluster chain                                 */
 922:.\sd/ff.c     **** /*-----------------------------------------------------------------------*/
 923:.\sd/ff.c     **** #if !_FS_READONLY
 924:.\sd/ff.c     **** static
 925:.\sd/ff.c     **** FRESULT remove_chain (
 926:.\sd/ff.c     **** 	FATFS *fs,			/* File system object */
 927:.\sd/ff.c     **** 	DWORD clst			/* Cluster# to remove a chain from */
 928:.\sd/ff.c     **** )
 929:.\sd/ff.c     **** {
 930:.\sd/ff.c     **** 	FRESULT res;
 931:.\sd/ff.c     **** 	DWORD nxt;
 932:.\sd/ff.c     **** #if _USE_ERASE
 933:.\sd/ff.c     **** 	DWORD scl = clst, ecl = clst, resion[2];
 934:.\sd/ff.c     **** #endif
 935:.\sd/ff.c     **** 
 936:.\sd/ff.c     **** 	if (clst < 2 || clst >= fs->n_fatent) {	/* Check range */
 937:.\sd/ff.c     **** 		res = FR_INT_ERR;
 938:.\sd/ff.c     **** 
 939:.\sd/ff.c     **** 	} else {
 940:.\sd/ff.c     **** 		res = FR_OK;
 941:.\sd/ff.c     **** 		while (clst < fs->n_fatent) {			/* Not a last link? */
 942:.\sd/ff.c     **** 			nxt = get_fat(fs, clst);			/* Get cluster status */
 943:.\sd/ff.c     **** 			if (nxt == 0) break;				/* Empty cluster? */
 944:.\sd/ff.c     **** 			if (nxt == 1) { res = FR_INT_ERR; break; }	/* Internal error? */
 945:.\sd/ff.c     **** 			if (nxt == 0xFFFFFFFF) { res = FR_DISK_ERR; break; }	/* Disk error? */
 946:.\sd/ff.c     **** 			res = put_fat(fs, clst, 0);			/* Mark the cluster "empty" */
 947:.\sd/ff.c     **** 			if (res != FR_OK) break;
 948:.\sd/ff.c     **** 			if (fs->free_clust != 0xFFFFFFFF) {	/* Update FSInfo */
 949:.\sd/ff.c     **** 				fs->free_clust++;
 950:.\sd/ff.c     **** 				fs->fsi_flag = 1;
 951:.\sd/ff.c     **** 			}
 952:.\sd/ff.c     **** #if _USE_ERASE
 953:.\sd/ff.c     **** 			if (ecl + 1 == nxt) {	/* Next cluster is contiguous */
 954:.\sd/ff.c     **** 				ecl = nxt;
 955:.\sd/ff.c     **** 			} else {				/* End of contiguous clusters */ 
 956:.\sd/ff.c     **** 				resion[0] = clust2sect(fs, scl);					/* Start sector */
 957:.\sd/ff.c     **** 				resion[1] = clust2sect(fs, ecl) + fs->csize - 1;	/* End sector */
 958:.\sd/ff.c     **** 				disk_ioctl(fs->drv, CTRL_ERASE_SECTOR, resion);		/* Erase the block */
 959:.\sd/ff.c     **** 				scl = ecl = nxt;
 960:.\sd/ff.c     **** 			}
 961:.\sd/ff.c     **** #endif
 962:.\sd/ff.c     **** 			clst = nxt;	/* Next cluster */
 963:.\sd/ff.c     **** 		}
 964:.\sd/ff.c     **** 	}
 965:.\sd/ff.c     **** 
 966:.\sd/ff.c     **** 	return res;
 967:.\sd/ff.c     **** }
 968:.\sd/ff.c     **** #endif
 969:.\sd/ff.c     **** 
 970:.\sd/ff.c     **** 
 971:.\sd/ff.c     **** 
 972:.\sd/ff.c     **** 
 973:.\sd/ff.c     **** /*-----------------------------------------------------------------------*/
 974:.\sd/ff.c     **** /* FAT handling - Stretch or Create a cluster chain                      */
 975:.\sd/ff.c     **** /*-----------------------------------------------------------------------*/
ARM GAS  C:\Users\Jarik\AppData\Local\Temp\ccASvTaK.s 			page 21


 976:.\sd/ff.c     **** #if !_FS_READONLY
 977:.\sd/ff.c     **** static
 978:.\sd/ff.c     **** DWORD create_chain (	/* 0:No free cluster, 1:Internal error, 0xFFFFFFFF:Disk error, >=2:New cluster
 979:.\sd/ff.c     **** 	FATFS *fs,			/* File system object */
 980:.\sd/ff.c     **** 	DWORD clst			/* Cluster# to stretch. 0 means create a new chain. */
 981:.\sd/ff.c     **** )
 982:.\sd/ff.c     **** {
 983:.\sd/ff.c     **** 	DWORD cs, ncl, scl;
 984:.\sd/ff.c     **** 	FRESULT res;
 985:.\sd/ff.c     **** 
 986:.\sd/ff.c     **** 
 987:.\sd/ff.c     **** 	if (clst == 0) {		/* Create a new chain */
 988:.\sd/ff.c     **** 		scl = fs->last_clust;			/* Get suggested start point */
 989:.\sd/ff.c     **** 		if (!scl || scl >= fs->n_fatent) scl = 1;
 990:.\sd/ff.c     **** 	}
 991:.\sd/ff.c     **** 	else {					/* Stretch the current chain */
 992:.\sd/ff.c     **** 		cs = get_fat(fs, clst);			/* Check the cluster status */
 993:.\sd/ff.c     **** 		if (cs < 2) return 1;			/* It is an invalid cluster */
 994:.\sd/ff.c     **** 		if (cs < fs->n_fatent) return cs;	/* It is already followed by next cluster */
 995:.\sd/ff.c     **** 		scl = clst;
 996:.\sd/ff.c     **** 	}
 997:.\sd/ff.c     **** 
 998:.\sd/ff.c     **** 	ncl = scl;				/* Start cluster */
 999:.\sd/ff.c     **** 	for (;;) {
1000:.\sd/ff.c     **** 		ncl++;							/* Next cluster */
1001:.\sd/ff.c     **** 		if (ncl >= fs->n_fatent) {		/* Wrap around */
1002:.\sd/ff.c     **** 			ncl = 2;
1003:.\sd/ff.c     **** 			if (ncl > scl) return 0;	/* No free cluster */
1004:.\sd/ff.c     **** 		}
1005:.\sd/ff.c     **** 		cs = get_fat(fs, ncl);			/* Get the cluster status */
1006:.\sd/ff.c     **** 		if (cs == 0) break;				/* Found a free cluster */
1007:.\sd/ff.c     **** 		if (cs == 0xFFFFFFFF || cs == 1)/* An error occurred */
1008:.\sd/ff.c     **** 			return cs;
1009:.\sd/ff.c     **** 		if (ncl == scl) return 0;		/* No free cluster */
1010:.\sd/ff.c     **** 	}
1011:.\sd/ff.c     **** 
1012:.\sd/ff.c     **** 	res = put_fat(fs, ncl, 0x0FFFFFFF);	/* Mark the new cluster "last link" */
1013:.\sd/ff.c     **** 	if (res == FR_OK && clst != 0) {
1014:.\sd/ff.c     **** 		res = put_fat(fs, clst, ncl);	/* Link it to the previous one if needed */
1015:.\sd/ff.c     **** 	}
1016:.\sd/ff.c     **** 	if (res == FR_OK) {
1017:.\sd/ff.c     **** 		fs->last_clust = ncl;			/* Update FSINFO */
1018:.\sd/ff.c     **** 		if (fs->free_clust != 0xFFFFFFFF) {
1019:.\sd/ff.c     **** 			fs->free_clust--;
1020:.\sd/ff.c     **** 			fs->fsi_flag = 1;
1021:.\sd/ff.c     **** 		}
1022:.\sd/ff.c     **** 	} else {
1023:.\sd/ff.c     **** 		ncl = (res == FR_DISK_ERR) ? 0xFFFFFFFF : 1;
1024:.\sd/ff.c     **** 	}
1025:.\sd/ff.c     **** 
1026:.\sd/ff.c     **** 	return ncl;		/* Return new cluster number or error code */
1027:.\sd/ff.c     **** }
1028:.\sd/ff.c     **** #endif /* !_FS_READONLY */
1029:.\sd/ff.c     **** 
1030:.\sd/ff.c     **** 
1031:.\sd/ff.c     **** 
1032:.\sd/ff.c     **** /*-----------------------------------------------------------------------*/
ARM GAS  C:\Users\Jarik\AppData\Local\Temp\ccASvTaK.s 			page 22


1033:.\sd/ff.c     **** /* FAT handling - Convert offset into cluster with link map table        */
1034:.\sd/ff.c     **** /*-----------------------------------------------------------------------*/
1035:.\sd/ff.c     **** 
1036:.\sd/ff.c     **** #if _USE_FASTSEEK
1037:.\sd/ff.c     **** static
1038:.\sd/ff.c     **** DWORD clmt_clust (	/* <2:Error, >=2:Cluster number */
1039:.\sd/ff.c     **** 	FIL* fp,		/* Pointer to the file object */
1040:.\sd/ff.c     **** 	DWORD ofs		/* File offset to be converted to cluster# */
1041:.\sd/ff.c     **** )
1042:.\sd/ff.c     **** {
1043:.\sd/ff.c     **** 	DWORD cl, ncl, *tbl;
1044:.\sd/ff.c     **** 
1045:.\sd/ff.c     **** 
1046:.\sd/ff.c     **** 	tbl = fp->cltbl + 1;	/* Top of CLMT */
1047:.\sd/ff.c     **** 	cl = ofs / SS(fp->fs) / fp->fs->csize;	/* Cluster order from top of the file */
1048:.\sd/ff.c     **** 	for (;;) {
1049:.\sd/ff.c     **** 		ncl = *tbl++;			/* Number of cluters in the fragment */
1050:.\sd/ff.c     **** 		if (!ncl) return 0;		/* End of table? (error) */
1051:.\sd/ff.c     **** 		if (cl < ncl) break;	/* In this fragment? */
1052:.\sd/ff.c     **** 		cl -= ncl; tbl++;		/* Next fragment */
1053:.\sd/ff.c     **** 	}
1054:.\sd/ff.c     **** 	return cl + *tbl;	/* Return the cluster number */
1055:.\sd/ff.c     **** }
1056:.\sd/ff.c     **** #endif	/* _USE_FASTSEEK */
1057:.\sd/ff.c     **** 
1058:.\sd/ff.c     **** 
1059:.\sd/ff.c     **** 
1060:.\sd/ff.c     **** /*-----------------------------------------------------------------------*/
1061:.\sd/ff.c     **** /* Directory handling - Set directory index                              */
1062:.\sd/ff.c     **** /*-----------------------------------------------------------------------*/
1063:.\sd/ff.c     **** 
1064:.\sd/ff.c     **** static
1065:.\sd/ff.c     **** FRESULT dir_sdi (
1066:.\sd/ff.c     **** 	DIR *dj,		/* Pointer to directory object */
1067:.\sd/ff.c     **** 	WORD idx		/* Directory index number */
1068:.\sd/ff.c     **** )
1069:.\sd/ff.c     **** {
1070:.\sd/ff.c     **** 	DWORD clst;
1071:.\sd/ff.c     **** 	WORD ic;
1072:.\sd/ff.c     **** 
1073:.\sd/ff.c     **** 
1074:.\sd/ff.c     **** 	dj->index = idx;
1075:.\sd/ff.c     **** 	clst = dj->sclust;
1076:.\sd/ff.c     **** 	if (clst == 1 || clst >= dj->fs->n_fatent)	/* Check start cluster range */
1077:.\sd/ff.c     **** 		return FR_INT_ERR;
1078:.\sd/ff.c     **** 	if (!clst && dj->fs->fs_type == FS_FAT32)	/* Replace cluster# 0 with root cluster# if in FAT32 */
1079:.\sd/ff.c     **** 		clst = dj->fs->dirbase;
1080:.\sd/ff.c     **** 
1081:.\sd/ff.c     **** 	if (clst == 0) {	/* Static table (root-dir in FAT12/16) */
1082:.\sd/ff.c     **** 		dj->clust = clst;
1083:.\sd/ff.c     **** 		if (idx >= dj->fs->n_rootdir)		/* Index is out of range */
1084:.\sd/ff.c     **** 			return FR_INT_ERR;
1085:.\sd/ff.c     **** 		dj->sect = dj->fs->dirbase + idx / (SS(dj->fs) / SZ_DIR);	/* Sector# */
1086:.\sd/ff.c     **** 	}
1087:.\sd/ff.c     **** 	else {				/* Dynamic table (sub-dirs or root-dir in FAT32) */
1088:.\sd/ff.c     **** 		ic = SS(dj->fs) / SZ_DIR * dj->fs->csize;	/* Entries per cluster */
1089:.\sd/ff.c     **** 		while (idx >= ic) {	/* Follow cluster chain */
ARM GAS  C:\Users\Jarik\AppData\Local\Temp\ccASvTaK.s 			page 23


1090:.\sd/ff.c     **** 			clst = get_fat(dj->fs, clst);				/* Get next cluster */
1091:.\sd/ff.c     **** 			if (clst == 0xFFFFFFFF) return FR_DISK_ERR;	/* Disk error */
1092:.\sd/ff.c     **** 			if (clst < 2 || clst >= dj->fs->n_fatent)	/* Reached to end of table or int error */
1093:.\sd/ff.c     **** 				return FR_INT_ERR;
1094:.\sd/ff.c     **** 			idx -= ic;
1095:.\sd/ff.c     **** 		}
1096:.\sd/ff.c     **** 		dj->clust = clst;
1097:.\sd/ff.c     **** 		dj->sect = clust2sect(dj->fs, clst) + idx / (SS(dj->fs) / SZ_DIR);	/* Sector# */
1098:.\sd/ff.c     **** 	}
1099:.\sd/ff.c     **** 
1100:.\sd/ff.c     **** 	dj->dir = dj->fs->win + (idx % (SS(dj->fs) / SZ_DIR)) * SZ_DIR;	/* Ptr to the entry in the sector 
1101:.\sd/ff.c     **** 
1102:.\sd/ff.c     **** 	return FR_OK;	/* Seek succeeded */
1103:.\sd/ff.c     **** }
1104:.\sd/ff.c     **** 
1105:.\sd/ff.c     **** 
1106:.\sd/ff.c     **** 
1107:.\sd/ff.c     **** 
1108:.\sd/ff.c     **** /*-----------------------------------------------------------------------*/
1109:.\sd/ff.c     **** /* Directory handling - Move directory index next                        */
1110:.\sd/ff.c     **** /*-----------------------------------------------------------------------*/
1111:.\sd/ff.c     **** 
1112:.\sd/ff.c     **** static
1113:.\sd/ff.c     **** FRESULT dir_next (	/* FR_OK:Succeeded, FR_NO_FILE:End of table, FR_DENIED:EOT and could not stretch
1114:.\sd/ff.c     **** 	DIR *dj,		/* Pointer to directory object */
1115:.\sd/ff.c     **** 	int stretch		/* 0: Do not stretch table, 1: Stretch table if needed */
1116:.\sd/ff.c     **** )
1117:.\sd/ff.c     **** {
1118:.\sd/ff.c     **** 	DWORD clst;
1119:.\sd/ff.c     **** 	WORD i;
1120:.\sd/ff.c     **** 
1121:.\sd/ff.c     **** 
1122:.\sd/ff.c     **** 	stretch = stretch;		/* To suppress warning on read-only cfg. */
1123:.\sd/ff.c     **** 	i = dj->index + 1;
1124:.\sd/ff.c     **** 	if (!i || !dj->sect)	/* Report EOT when index has reached 65535 */
1125:.\sd/ff.c     **** 		return FR_NO_FILE;
1126:.\sd/ff.c     **** 
1127:.\sd/ff.c     **** 	if (!(i % (SS(dj->fs) / SZ_DIR))) {	/* Sector changed? */
1128:.\sd/ff.c     **** 		dj->sect++;					/* Next sector */
1129:.\sd/ff.c     **** 
1130:.\sd/ff.c     **** 		if (dj->clust == 0) {	/* Static table */
1131:.\sd/ff.c     **** 			if (i >= dj->fs->n_rootdir)	/* Report EOT when end of table */
1132:.\sd/ff.c     **** 				return FR_NO_FILE;
1133:.\sd/ff.c     **** 		}
1134:.\sd/ff.c     **** 		else {					/* Dynamic table */
1135:.\sd/ff.c     **** 			if (((i / (SS(dj->fs) / SZ_DIR)) & (dj->fs->csize - 1)) == 0) {	/* Cluster changed? */
1136:.\sd/ff.c     **** 				clst = get_fat(dj->fs, dj->clust);				/* Get next cluster */
1137:.\sd/ff.c     **** 				if (clst <= 1) return FR_INT_ERR;
1138:.\sd/ff.c     **** 				if (clst == 0xFFFFFFFF) return FR_DISK_ERR;
1139:.\sd/ff.c     **** 				if (clst >= dj->fs->n_fatent) {					/* When it reached end of dynamic table */
1140:.\sd/ff.c     **** #if !_FS_READONLY
1141:.\sd/ff.c     **** 					BYTE c;
1142:.\sd/ff.c     **** 					if (!stretch) return FR_NO_FILE;			/* When do not stretch, report EOT */
1143:.\sd/ff.c     **** 					clst = create_chain(dj->fs, dj->clust);		/* Stretch cluster chain */
1144:.\sd/ff.c     **** 					if (clst == 0) return FR_DENIED;			/* No free cluster */
1145:.\sd/ff.c     **** 					if (clst == 1) return FR_INT_ERR;
1146:.\sd/ff.c     **** 					if (clst == 0xFFFFFFFF) return FR_DISK_ERR;
ARM GAS  C:\Users\Jarik\AppData\Local\Temp\ccASvTaK.s 			page 24


1147:.\sd/ff.c     **** 					/* Clean-up stretched table */
1148:.\sd/ff.c     **** 					if (move_window(dj->fs, 0)) return FR_DISK_ERR;	/* Flush active window */
1149:.\sd/ff.c     **** 					mem_set(dj->fs->win, 0, SS(dj->fs));			/* Clear window buffer */
1150:.\sd/ff.c     **** 					dj->fs->winsect = clust2sect(dj->fs, clst);	/* Cluster start sector */
1151:.\sd/ff.c     **** 					for (c = 0; c < dj->fs->csize; c++) {		/* Fill the new cluster with 0 */
1152:.\sd/ff.c     **** 						dj->fs->wflag = 1;
1153:.\sd/ff.c     **** 						if (move_window(dj->fs, 0)) return FR_DISK_ERR;
1154:.\sd/ff.c     **** 						dj->fs->winsect++;
1155:.\sd/ff.c     **** 					}
1156:.\sd/ff.c     **** 					dj->fs->winsect -= c;						/* Rewind window address */
1157:.\sd/ff.c     **** #else
1158:.\sd/ff.c     **** 					return FR_NO_FILE;			/* Report EOT */
1159:.\sd/ff.c     **** #endif
1160:.\sd/ff.c     **** 				}
1161:.\sd/ff.c     **** 				dj->clust = clst;				/* Initialize data for new cluster */
1162:.\sd/ff.c     **** 				dj->sect = clust2sect(dj->fs, clst);
1163:.\sd/ff.c     **** 			}
1164:.\sd/ff.c     **** 		}
1165:.\sd/ff.c     **** 	}
1166:.\sd/ff.c     **** 
1167:.\sd/ff.c     **** 	dj->index = i;
1168:.\sd/ff.c     **** 	dj->dir = dj->fs->win + (i % (SS(dj->fs) / SZ_DIR)) * SZ_DIR;
1169:.\sd/ff.c     **** 
1170:.\sd/ff.c     **** 	return FR_OK;
1171:.\sd/ff.c     **** }
1172:.\sd/ff.c     **** 
1173:.\sd/ff.c     **** 
1174:.\sd/ff.c     **** 
1175:.\sd/ff.c     **** 
1176:.\sd/ff.c     **** /*-----------------------------------------------------------------------*/
1177:.\sd/ff.c     **** /* LFN handling - Test/Pick/Fit an LFN segment from/to directory entry   */
1178:.\sd/ff.c     **** /*-----------------------------------------------------------------------*/
1179:.\sd/ff.c     **** #if _USE_LFN
1180:.\sd/ff.c     **** static
1181:.\sd/ff.c     **** const BYTE LfnOfs[] = {1,3,5,7,9,14,16,18,20,22,24,28,30};	/* Offset of LFN chars in the directory 
1182:.\sd/ff.c     **** 
1183:.\sd/ff.c     **** 
1184:.\sd/ff.c     **** static
1185:.\sd/ff.c     **** int cmp_lfn (			/* 1:Matched, 0:Not matched */
1186:.\sd/ff.c     **** 	WCHAR *lfnbuf,		/* Pointer to the LFN to be compared */
1187:.\sd/ff.c     **** 	BYTE *dir			/* Pointer to the directory entry containing a part of LFN */
1188:.\sd/ff.c     **** )
1189:.\sd/ff.c     **** {
1190:.\sd/ff.c     **** 	UINT i, s;
1191:.\sd/ff.c     **** 	WCHAR wc, uc;
1192:.\sd/ff.c     **** 
1193:.\sd/ff.c     **** 
1194:.\sd/ff.c     **** 	i = ((dir[LDIR_Ord] & ~LLE) - 1) * 13;	/* Get offset in the LFN buffer */
1195:.\sd/ff.c     **** 	s = 0; wc = 1;
1196:.\sd/ff.c     **** 	do {
1197:.\sd/ff.c     **** 		uc = LD_WORD(dir+LfnOfs[s]);	/* Pick an LFN character from the entry */
1198:.\sd/ff.c     **** 		if (wc) {	/* Last char has not been processed */
1199:.\sd/ff.c     **** 			wc = ff_wtoupper(uc);		/* Convert it to upper case */
1200:.\sd/ff.c     **** 			if (i >= _MAX_LFN || wc != ff_wtoupper(lfnbuf[i++]))	/* Compare it */
1201:.\sd/ff.c     **** 				return 0;				/* Not matched */
1202:.\sd/ff.c     **** 		} else {
1203:.\sd/ff.c     **** 			if (uc != 0xFFFF) return 0;	/* Check filler */
ARM GAS  C:\Users\Jarik\AppData\Local\Temp\ccASvTaK.s 			page 25


1204:.\sd/ff.c     **** 		}
1205:.\sd/ff.c     **** 	} while (++s < 13);				/* Repeat until all chars in the entry are checked */
1206:.\sd/ff.c     **** 
1207:.\sd/ff.c     **** 	if ((dir[LDIR_Ord] & LLE) && wc && lfnbuf[i])	/* Last segment matched but different length */
1208:.\sd/ff.c     **** 		return 0;
1209:.\sd/ff.c     **** 
1210:.\sd/ff.c     **** 	return 1;						/* The part of LFN matched */
1211:.\sd/ff.c     **** }
1212:.\sd/ff.c     **** 
1213:.\sd/ff.c     **** 
1214:.\sd/ff.c     **** 
1215:.\sd/ff.c     **** static
1216:.\sd/ff.c     **** int pick_lfn (			/* 1:Succeeded, 0:Buffer overflow */
1217:.\sd/ff.c     **** 	WCHAR *lfnbuf,		/* Pointer to the Unicode-LFN buffer */
1218:.\sd/ff.c     **** 	BYTE *dir			/* Pointer to the directory entry */
1219:.\sd/ff.c     **** )
1220:.\sd/ff.c     **** {
1221:.\sd/ff.c     **** 	UINT i, s;
1222:.\sd/ff.c     **** 	WCHAR wc, uc;
1223:.\sd/ff.c     **** 
1224:.\sd/ff.c     **** 
1225:.\sd/ff.c     **** 	i = ((dir[LDIR_Ord] & 0x3F) - 1) * 13;	/* Offset in the LFN buffer */
1226:.\sd/ff.c     **** 
1227:.\sd/ff.c     **** 	s = 0; wc = 1;
1228:.\sd/ff.c     **** 	do {
1229:.\sd/ff.c     **** 		uc = LD_WORD(dir+LfnOfs[s]);		/* Pick an LFN character from the entry */
1230:.\sd/ff.c     **** 		if (wc) {	/* Last char has not been processed */
1231:.\sd/ff.c     **** 			if (i >= _MAX_LFN) return 0;	/* Buffer overflow? */
1232:.\sd/ff.c     **** 			lfnbuf[i++] = wc = uc;			/* Store it */
1233:.\sd/ff.c     **** 		} else {
1234:.\sd/ff.c     **** 			if (uc != 0xFFFF) return 0;		/* Check filler */
1235:.\sd/ff.c     **** 		}
1236:.\sd/ff.c     **** 	} while (++s < 13);						/* Read all character in the entry */
1237:.\sd/ff.c     **** 
1238:.\sd/ff.c     **** 	if (dir[LDIR_Ord] & LLE) {				/* Put terminator if it is the last LFN part */
1239:.\sd/ff.c     **** 		if (i >= _MAX_LFN) return 0;		/* Buffer overflow? */
1240:.\sd/ff.c     **** 		lfnbuf[i] = 0;
1241:.\sd/ff.c     **** 	}
1242:.\sd/ff.c     **** 
1243:.\sd/ff.c     **** 	return 1;
1244:.\sd/ff.c     **** }
1245:.\sd/ff.c     **** 
1246:.\sd/ff.c     **** 
1247:.\sd/ff.c     **** #if !_FS_READONLY
1248:.\sd/ff.c     **** static
1249:.\sd/ff.c     **** void fit_lfn (
1250:.\sd/ff.c     **** 	const WCHAR *lfnbuf,	/* Pointer to the LFN buffer */
1251:.\sd/ff.c     **** 	BYTE *dir,				/* Pointer to the directory entry */
1252:.\sd/ff.c     **** 	BYTE ord,				/* LFN order (1-20) */
1253:.\sd/ff.c     **** 	BYTE sum				/* SFN sum */
1254:.\sd/ff.c     **** )
1255:.\sd/ff.c     **** {
1256:.\sd/ff.c     **** 	UINT i, s;
1257:.\sd/ff.c     **** 	WCHAR wc;
1258:.\sd/ff.c     **** 
1259:.\sd/ff.c     **** 
1260:.\sd/ff.c     **** 	dir[LDIR_Chksum] = sum;			/* Set check sum */
ARM GAS  C:\Users\Jarik\AppData\Local\Temp\ccASvTaK.s 			page 26


1261:.\sd/ff.c     **** 	dir[LDIR_Attr] = AM_LFN;		/* Set attribute. LFN entry */
1262:.\sd/ff.c     **** 	dir[LDIR_Type] = 0;
1263:.\sd/ff.c     **** 	ST_WORD(dir+LDIR_FstClusLO, 0);
1264:.\sd/ff.c     **** 
1265:.\sd/ff.c     **** 	i = (ord - 1) * 13;				/* Get offset in the LFN buffer */
1266:.\sd/ff.c     **** 	s = wc = 0;
1267:.\sd/ff.c     **** 	do {
1268:.\sd/ff.c     **** 		if (wc != 0xFFFF) wc = lfnbuf[i++];	/* Get an effective char */
1269:.\sd/ff.c     **** 		ST_WORD(dir+LfnOfs[s], wc);	/* Put it */
1270:.\sd/ff.c     **** 		if (!wc) wc = 0xFFFF;		/* Padding chars following last char */
1271:.\sd/ff.c     **** 	} while (++s < 13);
1272:.\sd/ff.c     **** 	if (wc == 0xFFFF || !lfnbuf[i]) ord |= LLE;	/* Bottom LFN part is the start of LFN sequence */
1273:.\sd/ff.c     **** 	dir[LDIR_Ord] = ord;			/* Set the LFN order */
1274:.\sd/ff.c     **** }
1275:.\sd/ff.c     **** 
1276:.\sd/ff.c     **** #endif
1277:.\sd/ff.c     **** #endif
1278:.\sd/ff.c     **** 
1279:.\sd/ff.c     **** 
1280:.\sd/ff.c     **** 
1281:.\sd/ff.c     **** /*-----------------------------------------------------------------------*/
1282:.\sd/ff.c     **** /* Create numbered name                                                  */
1283:.\sd/ff.c     **** /*-----------------------------------------------------------------------*/
1284:.\sd/ff.c     **** #if _USE_LFN
1285:.\sd/ff.c     **** void gen_numname (
1286:.\sd/ff.c     **** 	BYTE *dst,			/* Pointer to generated SFN */
1287:.\sd/ff.c     **** 	const BYTE *src,	/* Pointer to source SFN to be modified */
1288:.\sd/ff.c     **** 	const WCHAR *lfn,	/* Pointer to LFN */
1289:.\sd/ff.c     **** 	WORD seq			/* Sequence number */
1290:.\sd/ff.c     **** )
1291:.\sd/ff.c     **** {
1292:.\sd/ff.c     **** 	BYTE ns[8], c;
1293:.\sd/ff.c     **** 	UINT i, j;
1294:.\sd/ff.c     **** 
1295:.\sd/ff.c     **** 
1296:.\sd/ff.c     **** 	mem_cpy(dst, src, 11);
1297:.\sd/ff.c     **** 
1298:.\sd/ff.c     **** 	if (seq > 5) {	/* On many collisions, generate a hash number instead of sequential number */
1299:.\sd/ff.c     **** 		do seq = (seq >> 1) + (seq << 15) + (WORD)*lfn++; while (*lfn);
1300:.\sd/ff.c     **** 	}
1301:.\sd/ff.c     **** 
1302:.\sd/ff.c     **** 	/* itoa (hexdecimal) */
1303:.\sd/ff.c     **** 	i = 7;
1304:.\sd/ff.c     **** 	do {
1305:.\sd/ff.c     **** 		c = (seq % 16) + '0';
1306:.\sd/ff.c     **** 		if (c > '9') c += 7;
1307:.\sd/ff.c     **** 		ns[i--] = c;
1308:.\sd/ff.c     **** 		seq /= 16;
1309:.\sd/ff.c     **** 	} while (seq);
1310:.\sd/ff.c     **** 	ns[i] = '~';
1311:.\sd/ff.c     **** 
1312:.\sd/ff.c     **** 	/* Append the number */
1313:.\sd/ff.c     **** 	for (j = 0; j < i && dst[j] != ' '; j++) {
1314:.\sd/ff.c     **** 		if (IsDBCS1(dst[j])) {
1315:.\sd/ff.c     **** 			if (j == i - 1) break;
1316:.\sd/ff.c     **** 			j++;
1317:.\sd/ff.c     **** 		}
ARM GAS  C:\Users\Jarik\AppData\Local\Temp\ccASvTaK.s 			page 27


1318:.\sd/ff.c     **** 	}
1319:.\sd/ff.c     **** 	do {
1320:.\sd/ff.c     **** 		dst[j++] = (i < 8) ? ns[i++] : ' ';
1321:.\sd/ff.c     **** 	} while (j < 8);
1322:.\sd/ff.c     **** }
1323:.\sd/ff.c     **** #endif
1324:.\sd/ff.c     **** 
1325:.\sd/ff.c     **** 
1326:.\sd/ff.c     **** 
1327:.\sd/ff.c     **** 
1328:.\sd/ff.c     **** /*-----------------------------------------------------------------------*/
1329:.\sd/ff.c     **** /* Calculate sum of an SFN                                               */
1330:.\sd/ff.c     **** /*-----------------------------------------------------------------------*/
1331:.\sd/ff.c     **** #if _USE_LFN
1332:.\sd/ff.c     **** static
1333:.\sd/ff.c     **** BYTE sum_sfn (
1334:.\sd/ff.c     **** 	const BYTE *dir		/* Ptr to directory entry */
1335:.\sd/ff.c     **** )
1336:.\sd/ff.c     **** {
1337:.\sd/ff.c     **** 	BYTE sum = 0;
1338:.\sd/ff.c     **** 	UINT n = 11;
1339:.\sd/ff.c     **** 
1340:.\sd/ff.c     **** 	do sum = (sum >> 1) + (sum << 7) + *dir++; while (--n);
1341:.\sd/ff.c     **** 	return sum;
1342:.\sd/ff.c     **** }
1343:.\sd/ff.c     **** #endif
1344:.\sd/ff.c     **** 
1345:.\sd/ff.c     **** 
1346:.\sd/ff.c     **** 
1347:.\sd/ff.c     **** 
1348:.\sd/ff.c     **** /*-----------------------------------------------------------------------*/
1349:.\sd/ff.c     **** /* Directory handling - Find an object in the directory                  */
1350:.\sd/ff.c     **** /*-----------------------------------------------------------------------*/
1351:.\sd/ff.c     **** 
1352:.\sd/ff.c     **** static
1353:.\sd/ff.c     **** FRESULT dir_find (
1354:.\sd/ff.c     **** 	DIR *dj			/* Pointer to the directory object linked to the file name */
1355:.\sd/ff.c     **** )
1356:.\sd/ff.c     **** {
1357:.\sd/ff.c     **** 	FRESULT res;
1358:.\sd/ff.c     **** 	BYTE c, *dir;
1359:.\sd/ff.c     **** #if _USE_LFN
1360:.\sd/ff.c     **** 	BYTE a, ord, sum;
1361:.\sd/ff.c     **** #endif
1362:.\sd/ff.c     **** 
1363:.\sd/ff.c     **** 	res = dir_sdi(dj, 0);			/* Rewind directory object */
1364:.\sd/ff.c     **** 	if (res != FR_OK) return res;
1365:.\sd/ff.c     **** 
1366:.\sd/ff.c     **** #if _USE_LFN
1367:.\sd/ff.c     **** 	ord = sum = 0xFF;
1368:.\sd/ff.c     **** #endif
1369:.\sd/ff.c     **** 	do {
1370:.\sd/ff.c     **** 		res = move_window(dj->fs, dj->sect);
1371:.\sd/ff.c     **** 		if (res != FR_OK) break;
1372:.\sd/ff.c     **** 		dir = dj->dir;					/* Ptr to the directory entry of current index */
1373:.\sd/ff.c     **** 		c = dir[DIR_Name];
1374:.\sd/ff.c     **** 		if (c == 0) { res = FR_NO_FILE; break; }	/* Reached to end of table */
ARM GAS  C:\Users\Jarik\AppData\Local\Temp\ccASvTaK.s 			page 28


1375:.\sd/ff.c     **** #if _USE_LFN	/* LFN configuration */
1376:.\sd/ff.c     **** 		a = dir[DIR_Attr] & AM_MASK;
1377:.\sd/ff.c     **** 		if (c == DDE || ((a & AM_VOL) && a != AM_LFN)) {	/* An entry without valid data */
1378:.\sd/ff.c     **** 			ord = 0xFF;
1379:.\sd/ff.c     **** 		} else {
1380:.\sd/ff.c     **** 			if (a == AM_LFN) {			/* An LFN entry is found */
1381:.\sd/ff.c     **** 				if (dj->lfn) {
1382:.\sd/ff.c     **** 					if (c & LLE) {		/* Is it start of LFN sequence? */
1383:.\sd/ff.c     **** 						sum = dir[LDIR_Chksum];
1384:.\sd/ff.c     **** 						c &= ~LLE; ord = c;	/* LFN start order */
1385:.\sd/ff.c     **** 						dj->lfn_idx = dj->index;
1386:.\sd/ff.c     **** 					}
1387:.\sd/ff.c     **** 					/* Check validity of the LFN entry and compare it with given name */
1388:.\sd/ff.c     **** 					ord = (c == ord && sum == dir[LDIR_Chksum] && cmp_lfn(dj->lfn, dir)) ? ord - 1 : 0xFF;
1389:.\sd/ff.c     **** 				}
1390:.\sd/ff.c     **** 			} else {					/* An SFN entry is found */
1391:.\sd/ff.c     **** 				if (!ord && sum == sum_sfn(dir)) break;	/* LFN matched? */
1392:.\sd/ff.c     **** 				ord = 0xFF; dj->lfn_idx = 0xFFFF;	/* Reset LFN sequence */
1393:.\sd/ff.c     **** 				if (!(dj->fn[NS] & NS_LOSS) && !mem_cmp(dir, dj->fn, 11)) break;	/* SFN matched? */
1394:.\sd/ff.c     **** 			}
1395:.\sd/ff.c     **** 		}
1396:.\sd/ff.c     **** #else		/* Non LFN configuration */
1397:.\sd/ff.c     **** 		if (!(dir[DIR_Attr] & AM_VOL) && !mem_cmp(dir, dj->fn, 11)) /* Is it a valid entry? */
1398:.\sd/ff.c     **** 			break;
1399:.\sd/ff.c     **** #endif
1400:.\sd/ff.c     **** 		res = dir_next(dj, 0);		/* Next entry */
1401:.\sd/ff.c     **** 	} while (res == FR_OK);
1402:.\sd/ff.c     **** 
1403:.\sd/ff.c     **** 	return res;
1404:.\sd/ff.c     **** }
1405:.\sd/ff.c     **** 
1406:.\sd/ff.c     **** 
1407:.\sd/ff.c     **** 
1408:.\sd/ff.c     **** 
1409:.\sd/ff.c     **** /*-----------------------------------------------------------------------*/
1410:.\sd/ff.c     **** /* Read an object from the directory                                     */
1411:.\sd/ff.c     **** /*-----------------------------------------------------------------------*/
1412:.\sd/ff.c     **** #if _FS_MINIMIZE <= 1
1413:.\sd/ff.c     **** static
1414:.\sd/ff.c     **** FRESULT dir_read (
1415:.\sd/ff.c     **** 	DIR *dj			/* Pointer to the directory object that pointing the entry to be read */
1416:.\sd/ff.c     **** )
1417:.\sd/ff.c     **** {
1418:.\sd/ff.c     **** 	FRESULT res;
1419:.\sd/ff.c     **** 	BYTE c, *dir;
1420:.\sd/ff.c     **** #if _USE_LFN
1421:.\sd/ff.c     **** 	BYTE a, ord = 0xFF, sum = 0xFF;
1422:.\sd/ff.c     **** #endif
1423:.\sd/ff.c     **** 
1424:.\sd/ff.c     **** 	res = FR_NO_FILE;
1425:.\sd/ff.c     **** 	while (dj->sect) {
1426:.\sd/ff.c     **** 		res = move_window(dj->fs, dj->sect);
1427:.\sd/ff.c     **** 		if (res != FR_OK) break;
1428:.\sd/ff.c     **** 		dir = dj->dir;					/* Ptr to the directory entry of current index */
1429:.\sd/ff.c     **** 		c = dir[DIR_Name];
1430:.\sd/ff.c     **** 		if (c == 0) { res = FR_NO_FILE; break; }	/* Reached to end of table */
1431:.\sd/ff.c     **** #if _USE_LFN	/* LFN configuration */
ARM GAS  C:\Users\Jarik\AppData\Local\Temp\ccASvTaK.s 			page 29


1432:.\sd/ff.c     **** 		a = dir[DIR_Attr] & AM_MASK;
1433:.\sd/ff.c     **** 		if (c == DDE || (!_FS_RPATH && c == '.') || ((a & AM_VOL) && a != AM_LFN)) {	/* An entry without 
1434:.\sd/ff.c     **** 			ord = 0xFF;
1435:.\sd/ff.c     **** 		} else {
1436:.\sd/ff.c     **** 			if (a == AM_LFN) {			/* An LFN entry is found */
1437:.\sd/ff.c     **** 				if (c & LLE) {			/* Is it start of LFN sequence? */
1438:.\sd/ff.c     **** 					sum = dir[LDIR_Chksum];
1439:.\sd/ff.c     **** 					c &= ~LLE; ord = c;
1440:.\sd/ff.c     **** 					dj->lfn_idx = dj->index;
1441:.\sd/ff.c     **** 				}
1442:.\sd/ff.c     **** 				/* Check LFN validity and capture it */
1443:.\sd/ff.c     **** 				ord = (c == ord && sum == dir[LDIR_Chksum] && pick_lfn(dj->lfn, dir)) ? ord - 1 : 0xFF;
1444:.\sd/ff.c     **** 			} else {					/* An SFN entry is found */
1445:.\sd/ff.c     **** 				if (ord || sum != sum_sfn(dir))	/* Is there a valid LFN? */
1446:.\sd/ff.c     **** 					dj->lfn_idx = 0xFFFF;		/* It has no LFN. */
1447:.\sd/ff.c     **** 				break;
1448:.\sd/ff.c     **** 			}
1449:.\sd/ff.c     **** 		}
1450:.\sd/ff.c     **** #else		/* Non LFN configuration */
1451:.\sd/ff.c     **** 		if (c != DDE && (_FS_RPATH || c != '.') && !(dir[DIR_Attr] & AM_VOL))	/* Is it a valid entry? */
1452:.\sd/ff.c     **** 			break;
1453:.\sd/ff.c     **** #endif
1454:.\sd/ff.c     **** 		res = dir_next(dj, 0);				/* Next entry */
1455:.\sd/ff.c     **** 		if (res != FR_OK) break;
1456:.\sd/ff.c     **** 	}
1457:.\sd/ff.c     **** 
1458:.\sd/ff.c     **** 	if (res != FR_OK) dj->sect = 0;
1459:.\sd/ff.c     **** 
1460:.\sd/ff.c     **** 	return res;
1461:.\sd/ff.c     **** }
1462:.\sd/ff.c     **** #endif
1463:.\sd/ff.c     **** 
1464:.\sd/ff.c     **** 
1465:.\sd/ff.c     **** 
1466:.\sd/ff.c     **** /*-----------------------------------------------------------------------*/
1467:.\sd/ff.c     **** /* Register an object to the directory                                   */
1468:.\sd/ff.c     **** /*-----------------------------------------------------------------------*/
1469:.\sd/ff.c     **** #if !_FS_READONLY
1470:.\sd/ff.c     **** static
1471:.\sd/ff.c     **** FRESULT dir_register (	/* FR_OK:Successful, FR_DENIED:No free entry or too many SFN collision, FR_D
1472:.\sd/ff.c     **** 	DIR *dj				/* Target directory with object name to be created */
1473:.\sd/ff.c     **** )
1474:.\sd/ff.c     **** {
1475:.\sd/ff.c     **** 	FRESULT res;
1476:.\sd/ff.c     **** 	BYTE c, *dir;
1477:.\sd/ff.c     **** #if _USE_LFN	/* LFN configuration */
1478:.\sd/ff.c     **** 	WORD n, ne, is;
1479:.\sd/ff.c     **** 	BYTE sn[12], *fn, sum;
1480:.\sd/ff.c     **** 	WCHAR *lfn;
1481:.\sd/ff.c     **** 
1482:.\sd/ff.c     **** 
1483:.\sd/ff.c     **** 	fn = dj->fn; lfn = dj->lfn;
1484:.\sd/ff.c     **** 	mem_cpy(sn, fn, 12);
1485:.\sd/ff.c     **** 
1486:.\sd/ff.c     **** 	if (_FS_RPATH && (sn[NS] & NS_DOT))		/* Cannot create dot entry */
1487:.\sd/ff.c     **** 		return FR_INVALID_NAME;
1488:.\sd/ff.c     **** 
ARM GAS  C:\Users\Jarik\AppData\Local\Temp\ccASvTaK.s 			page 30


1489:.\sd/ff.c     **** 	if (sn[NS] & NS_LOSS) {			/* When LFN is out of 8.3 format, generate a numbered name */
1490:.\sd/ff.c     **** 		fn[NS] = 0; dj->lfn = 0;			/* Find only SFN */
1491:.\sd/ff.c     **** 		for (n = 1; n < 100; n++) {
1492:.\sd/ff.c     **** 			gen_numname(fn, sn, lfn, n);	/* Generate a numbered name */
1493:.\sd/ff.c     **** 			res = dir_find(dj);				/* Check if the name collides with existing SFN */
1494:.\sd/ff.c     **** 			if (res != FR_OK) break;
1495:.\sd/ff.c     **** 		}
1496:.\sd/ff.c     **** 		if (n == 100) return FR_DENIED;		/* Abort if too many collisions */
1497:.\sd/ff.c     **** 		if (res != FR_NO_FILE) return res;	/* Abort if the result is other than 'not collided' */
1498:.\sd/ff.c     **** 		fn[NS] = sn[NS]; dj->lfn = lfn;
1499:.\sd/ff.c     **** 	}
1500:.\sd/ff.c     **** 
1501:.\sd/ff.c     **** 	if (sn[NS] & NS_LFN) {			/* When LFN is to be created, reserve an SFN + LFN entries. */
1502:.\sd/ff.c     **** 		for (ne = 0; lfn[ne]; ne++) ;
1503:.\sd/ff.c     **** 		ne = (ne + 25) / 13;
1504:.\sd/ff.c     **** 	} else {						/* Otherwise reserve only an SFN entry. */
1505:.\sd/ff.c     **** 		ne = 1;
1506:.\sd/ff.c     **** 	}
1507:.\sd/ff.c     **** 
1508:.\sd/ff.c     **** 	/* Reserve contiguous entries */
1509:.\sd/ff.c     **** 	res = dir_sdi(dj, 0);
1510:.\sd/ff.c     **** 	if (res != FR_OK) return res;
1511:.\sd/ff.c     **** 	n = is = 0;
1512:.\sd/ff.c     **** 	do {
1513:.\sd/ff.c     **** 		res = move_window(dj->fs, dj->sect);
1514:.\sd/ff.c     **** 		if (res != FR_OK) break;
1515:.\sd/ff.c     **** 		c = *dj->dir;				/* Check the entry status */
1516:.\sd/ff.c     **** 		if (c == DDE || c == 0) {	/* Is it a blank entry? */
1517:.\sd/ff.c     **** 			if (n == 0) is = dj->index;	/* First index of the contiguous entry */
1518:.\sd/ff.c     **** 			if (++n == ne) break;	/* A contiguous entry that required count is found */
1519:.\sd/ff.c     **** 		} else {
1520:.\sd/ff.c     **** 			n = 0;					/* Not a blank entry. Restart to search */
1521:.\sd/ff.c     **** 		}
1522:.\sd/ff.c     **** 		res = dir_next(dj, 1);		/* Next entry with table stretch */
1523:.\sd/ff.c     **** 	} while (res == FR_OK);
1524:.\sd/ff.c     **** 
1525:.\sd/ff.c     **** 	if (res == FR_OK && ne > 1) {	/* Initialize LFN entry if needed */
1526:.\sd/ff.c     **** 		res = dir_sdi(dj, is);
1527:.\sd/ff.c     **** 		if (res == FR_OK) {
1528:.\sd/ff.c     **** 			sum = sum_sfn(dj->fn);	/* Sum of the SFN tied to the LFN */
1529:.\sd/ff.c     **** 			ne--;
1530:.\sd/ff.c     **** 			do {					/* Store LFN entries in bottom first */
1531:.\sd/ff.c     **** 				res = move_window(dj->fs, dj->sect);
1532:.\sd/ff.c     **** 				if (res != FR_OK) break;
1533:.\sd/ff.c     **** 				fit_lfn(dj->lfn, dj->dir, (BYTE)ne, sum);
1534:.\sd/ff.c     **** 				dj->fs->wflag = 1;
1535:.\sd/ff.c     **** 				res = dir_next(dj, 0);	/* Next entry */
1536:.\sd/ff.c     **** 			} while (res == FR_OK && --ne);
1537:.\sd/ff.c     **** 		}
1538:.\sd/ff.c     **** 	}
1539:.\sd/ff.c     **** 
1540:.\sd/ff.c     **** #else	/* Non LFN configuration */
1541:.\sd/ff.c     **** 	res = dir_sdi(dj, 0);
1542:.\sd/ff.c     **** 	if (res == FR_OK) {
1543:.\sd/ff.c     **** 		do {	/* Find a blank entry for the SFN */
1544:.\sd/ff.c     **** 			res = move_window(dj->fs, dj->sect);
1545:.\sd/ff.c     **** 			if (res != FR_OK) break;
ARM GAS  C:\Users\Jarik\AppData\Local\Temp\ccASvTaK.s 			page 31


1546:.\sd/ff.c     **** 			c = *dj->dir;
1547:.\sd/ff.c     **** 			if (c == DDE || c == 0) break;	/* Is it a blank entry? */
1548:.\sd/ff.c     **** 			res = dir_next(dj, 1);			/* Next entry with table stretch */
1549:.\sd/ff.c     **** 		} while (res == FR_OK);
1550:.\sd/ff.c     **** 	}
1551:.\sd/ff.c     **** #endif
1552:.\sd/ff.c     **** 
1553:.\sd/ff.c     **** 	if (res == FR_OK) {		/* Initialize the SFN entry */
1554:.\sd/ff.c     **** 		res = move_window(dj->fs, dj->sect);
1555:.\sd/ff.c     **** 		if (res == FR_OK) {
1556:.\sd/ff.c     **** 			dir = dj->dir;
1557:.\sd/ff.c     **** 			mem_set(dir, 0, SZ_DIR);	/* Clean the entry */
1558:.\sd/ff.c     **** 			mem_cpy(dir, dj->fn, 11);	/* Put SFN */
1559:.\sd/ff.c     **** #if _USE_LFN
1560:.\sd/ff.c     **** 			dir[DIR_NTres] = *(dj->fn+NS) & (NS_BODY | NS_EXT);	/* Put NT flag */
1561:.\sd/ff.c     **** #endif
1562:.\sd/ff.c     **** 			dj->fs->wflag = 1;
1563:.\sd/ff.c     **** 		}
1564:.\sd/ff.c     **** 	}
1565:.\sd/ff.c     **** 
1566:.\sd/ff.c     **** 	return res;
1567:.\sd/ff.c     **** }
1568:.\sd/ff.c     **** #endif /* !_FS_READONLY */
1569:.\sd/ff.c     **** 
1570:.\sd/ff.c     **** 
1571:.\sd/ff.c     **** 
1572:.\sd/ff.c     **** 
1573:.\sd/ff.c     **** /*-----------------------------------------------------------------------*/
1574:.\sd/ff.c     **** /* Remove an object from the directory                                   */
1575:.\sd/ff.c     **** /*-----------------------------------------------------------------------*/
1576:.\sd/ff.c     **** #if !_FS_READONLY && !_FS_MINIMIZE
1577:.\sd/ff.c     **** static
1578:.\sd/ff.c     **** FRESULT dir_remove (	/* FR_OK: Successful, FR_DISK_ERR: A disk error */
1579:.\sd/ff.c     **** 	DIR *dj				/* Directory object pointing the entry to be removed */
1580:.\sd/ff.c     **** )
1581:.\sd/ff.c     **** {
1582:.\sd/ff.c     **** 	FRESULT res;
1583:.\sd/ff.c     **** #if _USE_LFN	/* LFN configuration */
1584:.\sd/ff.c     **** 	WORD i;
1585:.\sd/ff.c     **** 
1586:.\sd/ff.c     **** 	i = dj->index;	/* SFN index */
1587:.\sd/ff.c     **** 	res = dir_sdi(dj, (WORD)((dj->lfn_idx == 0xFFFF) ? i : dj->lfn_idx));	/* Goto the SFN or top of th
1588:.\sd/ff.c     **** 	if (res == FR_OK) {
1589:.\sd/ff.c     **** 		do {
1590:.\sd/ff.c     **** 			res = move_window(dj->fs, dj->sect);
1591:.\sd/ff.c     **** 			if (res != FR_OK) break;
1592:.\sd/ff.c     **** 			*dj->dir = DDE;			/* Mark the entry "deleted" */
1593:.\sd/ff.c     **** 			dj->fs->wflag = 1;
1594:.\sd/ff.c     **** 			if (dj->index >= i) break;	/* When reached SFN, all entries of the object has been deleted. */
1595:.\sd/ff.c     **** 			res = dir_next(dj, 0);		/* Next entry */
1596:.\sd/ff.c     **** 		} while (res == FR_OK);
1597:.\sd/ff.c     **** 		if (res == FR_NO_FILE) res = FR_INT_ERR;
1598:.\sd/ff.c     **** 	}
1599:.\sd/ff.c     **** 
1600:.\sd/ff.c     **** #else			/* Non LFN configuration */
1601:.\sd/ff.c     **** 	res = dir_sdi(dj, dj->index);
1602:.\sd/ff.c     **** 	if (res == FR_OK) {
ARM GAS  C:\Users\Jarik\AppData\Local\Temp\ccASvTaK.s 			page 32


1603:.\sd/ff.c     **** 		res = move_window(dj->fs, dj->sect);
1604:.\sd/ff.c     **** 		if (res == FR_OK) {
1605:.\sd/ff.c     **** 			*dj->dir = DDE;			/* Mark the entry "deleted" */
1606:.\sd/ff.c     **** 			dj->fs->wflag = 1;
1607:.\sd/ff.c     **** 		}
1608:.\sd/ff.c     **** 	}
1609:.\sd/ff.c     **** #endif
1610:.\sd/ff.c     **** 
1611:.\sd/ff.c     **** 	return res;
1612:.\sd/ff.c     **** }
1613:.\sd/ff.c     **** #endif /* !_FS_READONLY */
1614:.\sd/ff.c     **** 
1615:.\sd/ff.c     **** 
1616:.\sd/ff.c     **** 
1617:.\sd/ff.c     **** 
1618:.\sd/ff.c     **** /*-----------------------------------------------------------------------*/
1619:.\sd/ff.c     **** /* Pick a segment and create the object name in directory form           */
1620:.\sd/ff.c     **** /*-----------------------------------------------------------------------*/
1621:.\sd/ff.c     **** 
1622:.\sd/ff.c     **** static
1623:.\sd/ff.c     **** FRESULT create_name (
1624:.\sd/ff.c     **** 	DIR *dj,			/* Pointer to the directory object */
1625:.\sd/ff.c     **** 	const TCHAR **path	/* Pointer to pointer to the segment in the path string */
1626:.\sd/ff.c     **** )
1627:.\sd/ff.c     **** {
1628:.\sd/ff.c     **** #ifdef _EXCVT
1629:.\sd/ff.c     **** 	static const BYTE excvt[] = _EXCVT;	/* Upper conversion table for extended chars */
1630:.\sd/ff.c     **** #endif
1631:.\sd/ff.c     **** 
1632:.\sd/ff.c     **** #if _USE_LFN	/* LFN configuration */
1633:.\sd/ff.c     **** 	BYTE b, cf;
1634:.\sd/ff.c     **** 	WCHAR w, *lfn;
1635:.\sd/ff.c     **** 	UINT i, ni, si, di;
1636:.\sd/ff.c     **** 	const TCHAR *p;
1637:.\sd/ff.c     **** 
1638:.\sd/ff.c     **** 	/* Create LFN in Unicode */
1639:.\sd/ff.c     **** 	for (p = *path; *p == '/' || *p == '\\'; p++) ;	/* Strip duplicated separator */
1640:.\sd/ff.c     **** 	lfn = dj->lfn;
1641:.\sd/ff.c     **** 	si = di = 0;
1642:.\sd/ff.c     **** 	for (;;) {
1643:.\sd/ff.c     **** 		w = p[si++];					/* Get a character */
1644:.\sd/ff.c     **** 		if (w < ' ' || w == '/' || w == '\\') break;	/* Break on end of segment */
1645:.\sd/ff.c     **** 		if (di >= _MAX_LFN)				/* Reject too LONG_ name */
1646:.\sd/ff.c     **** 			return FR_INVALID_NAME;
1647:.\sd/ff.c     **** #if !_LFN_UNICODE
1648:.\sd/ff.c     **** 		w &= 0xFF;
1649:.\sd/ff.c     **** 		if (IsDBCS1(w)) {				/* Check if it is a DBC 1st byte (always false on SBCS cfg) */
1650:.\sd/ff.c     **** 			b = (BYTE)p[si++];			/* Get 2nd byte */
1651:.\sd/ff.c     **** 			if (!IsDBCS2(b))
1652:.\sd/ff.c     **** 				return FR_INVALID_NAME;	/* Reject invalid sequence */
1653:.\sd/ff.c     **** 			w = (w << 8) + b;			/* Create a DBC */
1654:.\sd/ff.c     **** 		}
1655:.\sd/ff.c     **** 		w = ff_convert(w, 1);			/* Convert ANSI/OEM to Unicode */
1656:.\sd/ff.c     **** 		if (!w) return FR_INVALID_NAME;	/* Reject invalid code */
1657:.\sd/ff.c     **** #endif
1658:.\sd/ff.c     **** 		if (w < 0x80 && chk_chr("\"*:<>\?|\x7F", w)) /* Reject illegal chars for LFN */
1659:.\sd/ff.c     **** 			return FR_INVALID_NAME;
ARM GAS  C:\Users\Jarik\AppData\Local\Temp\ccASvTaK.s 			page 33


1660:.\sd/ff.c     **** 		lfn[di++] = w;					/* Store the Unicode char */
1661:.\sd/ff.c     **** 	}
1662:.\sd/ff.c     **** 	*path = &p[si];						/* Return pointer to the next segment */
1663:.\sd/ff.c     **** 	cf = (w < ' ') ? NS_LAST : 0;		/* Set last segment flag if end of path */
1664:.\sd/ff.c     **** #if _FS_RPATH
1665:.\sd/ff.c     **** 	if ((di == 1 && lfn[di-1] == '.') || /* Is this a dot entry? */
1666:.\sd/ff.c     **** 		(di == 2 && lfn[di-1] == '.' && lfn[di-2] == '.')) {
1667:.\sd/ff.c     **** 		lfn[di] = 0;
1668:.\sd/ff.c     **** 		for (i = 0; i < 11; i++)
1669:.\sd/ff.c     **** 			dj->fn[i] = (i < di) ? '.' : ' ';
1670:.\sd/ff.c     **** 		dj->fn[i] = cf | NS_DOT;		/* This is a dot entry */
1671:.\sd/ff.c     **** 		return FR_OK;
1672:.\sd/ff.c     **** 	}
1673:.\sd/ff.c     **** #endif
1674:.\sd/ff.c     **** 	while (di) {						/* Strip trailing spaces and dots */
1675:.\sd/ff.c     **** 		w = lfn[di-1];
1676:.\sd/ff.c     **** 		if (w != ' ' && w != '.') break;
1677:.\sd/ff.c     **** 		di--;
1678:.\sd/ff.c     **** 	}
1679:.\sd/ff.c     **** 	if (!di) return FR_INVALID_NAME;	/* Reject nul string */
1680:.\sd/ff.c     **** 
1681:.\sd/ff.c     **** 	lfn[di] = 0;						/* LFN is created */
1682:.\sd/ff.c     **** 
1683:.\sd/ff.c     **** 	/* Create SFN in directory form */
1684:.\sd/ff.c     **** 	mem_set(dj->fn, ' ', 11);
1685:.\sd/ff.c     **** 	for (si = 0; lfn[si] == ' ' || lfn[si] == '.'; si++) ;	/* Strip leading spaces and dots */
1686:.\sd/ff.c     **** 	if (si) cf |= NS_LOSS | NS_LFN;
1687:.\sd/ff.c     **** 	while (di && lfn[di - 1] != '.') di--;	/* Find extension (di<=si: no extension) */
1688:.\sd/ff.c     **** 
1689:.\sd/ff.c     **** 	b = i = 0; ni = 8;
1690:.\sd/ff.c     **** 	for (;;) {
1691:.\sd/ff.c     **** 		w = lfn[si++];					/* Get an LFN char */
1692:.\sd/ff.c     **** 		if (!w) break;					/* Break on end of the LFN */
1693:.\sd/ff.c     **** 		if (w == ' ' || (w == '.' && si != di)) {	/* Remove spaces and dots */
1694:.\sd/ff.c     **** 			cf |= NS_LOSS | NS_LFN; continue;
1695:.\sd/ff.c     **** 		}
1696:.\sd/ff.c     **** 
1697:.\sd/ff.c     **** 		if (i >= ni || si == di) {		/* Extension or end of SFN */
1698:.\sd/ff.c     **** 			if (ni == 11) {				/* LONG_ extension */
1699:.\sd/ff.c     **** 				cf |= NS_LOSS | NS_LFN; break;
1700:.\sd/ff.c     **** 			}
1701:.\sd/ff.c     **** 			if (si != di) cf |= NS_LOSS | NS_LFN;	/* Out of 8.3 format */
1702:.\sd/ff.c     **** 			if (si > di) break;			/* No extension */
1703:.\sd/ff.c     **** 			si = di; i = 8; ni = 11;	/* Enter extension section */
1704:.\sd/ff.c     **** 			b <<= 2; continue;
1705:.\sd/ff.c     **** 		}
1706:.\sd/ff.c     **** 
1707:.\sd/ff.c     **** 		if (w >= 0x80) {				/* Non ASCII char */
1708:.\sd/ff.c     **** #ifdef _EXCVT
1709:.\sd/ff.c     **** 			w = ff_convert(w, 0);		/* Unicode -> OEM code */
1710:.\sd/ff.c     **** 			if (w) w = excvt[w - 0x80];	/* Convert extended char to upper (SBCS) */
1711:.\sd/ff.c     **** #else
1712:.\sd/ff.c     **** 			w = ff_convert(ff_wtoupper(w), 0);	/* Upper converted Unicode -> OEM code */
1713:.\sd/ff.c     **** #endif
1714:.\sd/ff.c     **** 			cf |= NS_LFN;				/* Force create LFN entry */
1715:.\sd/ff.c     **** 		}
1716:.\sd/ff.c     **** 
ARM GAS  C:\Users\Jarik\AppData\Local\Temp\ccASvTaK.s 			page 34


1717:.\sd/ff.c     **** 		if (_DF1S && w >= 0x100) {		/* Double byte char (always false on SBCS cfg) */
1718:.\sd/ff.c     **** 			if (i >= ni - 1) {
1719:.\sd/ff.c     **** 				cf |= NS_LOSS | NS_LFN; i = ni; continue;
1720:.\sd/ff.c     **** 			}
1721:.\sd/ff.c     **** 			dj->fn[i++] = (BYTE)(w >> 8);
1722:.\sd/ff.c     **** 		} else {						/* Single byte char */
1723:.\sd/ff.c     **** 			if (!w || chk_chr("+,;=[]", w)) {	/* Replace illegal chars for SFN */
1724:.\sd/ff.c     **** 				w = '_'; cf |= NS_LOSS | NS_LFN;/* Lossy conversion */
1725:.\sd/ff.c     **** 			} else {
1726:.\sd/ff.c     **** 				if (IsUpper(w)) {		/* ASCII large capital */
1727:.\sd/ff.c     **** 					b |= 2;
1728:.\sd/ff.c     **** 				} else {
1729:.\sd/ff.c     **** 					if (IsLower(w)) {	/* ASCII small capital */
1730:.\sd/ff.c     **** 						b |= 1; w -= 0x20;
1731:.\sd/ff.c     **** 					}
1732:.\sd/ff.c     **** 				}
1733:.\sd/ff.c     **** 			}
1734:.\sd/ff.c     **** 		}
1735:.\sd/ff.c     **** 		dj->fn[i++] = (BYTE)w;
1736:.\sd/ff.c     **** 	}
1737:.\sd/ff.c     **** 
1738:.\sd/ff.c     **** 	if (dj->fn[0] == DDE) dj->fn[0] = NDDE;	/* If the first char collides with deleted mark, replace i
1739:.\sd/ff.c     **** 
1740:.\sd/ff.c     **** 	if (ni == 8) b <<= 2;
1741:.\sd/ff.c     **** 	if ((b & 0x0C) == 0x0C || (b & 0x03) == 0x03)	/* Create LFN entry when there are composite capital
1742:.\sd/ff.c     **** 		cf |= NS_LFN;
1743:.\sd/ff.c     **** 	if (!(cf & NS_LFN)) {						/* When LFN is in 8.3 format without extended char, NT flags are create
1744:.\sd/ff.c     **** 		if ((b & 0x03) == 0x01) cf |= NS_EXT;	/* NT flag (Extension has only small capital) */
1745:.\sd/ff.c     **** 		if ((b & 0x0C) == 0x04) cf |= NS_BODY;	/* NT flag (Filename has only small capital) */
1746:.\sd/ff.c     **** 	}
1747:.\sd/ff.c     **** 
1748:.\sd/ff.c     **** 	dj->fn[NS] = cf;	/* SFN is created */
1749:.\sd/ff.c     **** 
1750:.\sd/ff.c     **** 	return FR_OK;
1751:.\sd/ff.c     **** 
1752:.\sd/ff.c     **** 
1753:.\sd/ff.c     **** #else	/* Non-LFN configuration */
1754:.\sd/ff.c     **** 	BYTE b, c, d, *sfn;
1755:.\sd/ff.c     **** 	UINT ni, si, i;
1756:.\sd/ff.c     **** 	const char *p;
1757:.\sd/ff.c     **** 
1758:.\sd/ff.c     **** 	/* Create file name in directory form */
1759:.\sd/ff.c     **** 	for (p = *path; *p == '/' || *p == '\\'; p++) ;	/* Strip duplicated separator */
1760:.\sd/ff.c     **** 	sfn = dj->fn;
1761:.\sd/ff.c     **** 	mem_set(sfn, ' ', 11);
1762:.\sd/ff.c     **** 	si = i = b = 0; ni = 8;
1763:.\sd/ff.c     **** #if _FS_RPATH
1764:.\sd/ff.c     **** 	if (p[si] == '.') { /* Is this a dot entry? */
1765:.\sd/ff.c     **** 		for (;;) {
1766:.\sd/ff.c     **** 			c = (BYTE)p[si++];
1767:.\sd/ff.c     **** 			if (c != '.' || si >= 3) break;
1768:.\sd/ff.c     **** 			sfn[i++] = c;
1769:.\sd/ff.c     **** 		}
1770:.\sd/ff.c     **** 		if (c != '/' && c != '\\' && c > ' ') return FR_INVALID_NAME;
1771:.\sd/ff.c     **** 		*path = &p[si];									/* Return pointer to the next segment */
1772:.\sd/ff.c     **** 		sfn[NS] = (c <= ' ') ? NS_LAST | NS_DOT : NS_DOT;	/* Set last segment flag if end of path */
1773:.\sd/ff.c     **** 		return FR_OK;
ARM GAS  C:\Users\Jarik\AppData\Local\Temp\ccASvTaK.s 			page 35


1774:.\sd/ff.c     **** 	}
1775:.\sd/ff.c     **** #endif
1776:.\sd/ff.c     **** 	for (;;) {
1777:.\sd/ff.c     **** 		c = (BYTE)p[si++];
1778:.\sd/ff.c     **** 		if (c <= ' ' || c == '/' || c == '\\') break;	/* Break on end of segment */
1779:.\sd/ff.c     **** 		if (c == '.' || i >= ni) {
1780:.\sd/ff.c     **** 			if (ni != 8 || c != '.') return FR_INVALID_NAME;
1781:.\sd/ff.c     **** 			i = 8; ni = 11;
1782:.\sd/ff.c     **** 			b <<= 2; continue;
1783:.\sd/ff.c     **** 		}
1784:.\sd/ff.c     **** 		if (c >= 0x80) {				/* Extended char? */
1785:.\sd/ff.c     **** 			b |= 3;						/* Eliminate NT flag */
1786:.\sd/ff.c     **** #ifdef _EXCVT
1787:.\sd/ff.c     **** 			c = excvt[c-0x80];			/* Upper conversion (SBCS) */
1788:.\sd/ff.c     **** #else
1789:.\sd/ff.c     **** #if !_DF1S	/* ASCII only cfg */
1790:.\sd/ff.c     **** 			return FR_INVALID_NAME;
1791:.\sd/ff.c     **** #endif
1792:.\sd/ff.c     **** #endif
1793:.\sd/ff.c     **** 		}
1794:.\sd/ff.c     **** 		if (IsDBCS1(c)) {				/* Check if it is a DBC 1st byte (always false on SBCS cfg) */
1795:.\sd/ff.c     **** 			d = (BYTE)p[si++];			/* Get 2nd byte */
1796:.\sd/ff.c     **** 			if (!IsDBCS2(d) || i >= ni - 1)	/* Reject invalid DBC */
1797:.\sd/ff.c     **** 				return FR_INVALID_NAME;
1798:.\sd/ff.c     **** 			sfn[i++] = c;
1799:.\sd/ff.c     **** 			sfn[i++] = d;
1800:.\sd/ff.c     **** 		} else {						/* Single byte code */
1801:.\sd/ff.c     **** 			if (chk_chr("\"*+,:;<=>\?[]|\x7F", c))	/* Reject illegal chrs for SFN */
1802:.\sd/ff.c     **** 				return FR_INVALID_NAME;
1803:.\sd/ff.c     **** 			if (IsUpper(c)) {			/* ASCII large capital? */
1804:.\sd/ff.c     **** 				b |= 2;
1805:.\sd/ff.c     **** 			} else {
1806:.\sd/ff.c     **** 				if (IsLower(c)) {		/* ASCII small capital? */
1807:.\sd/ff.c     **** 					b |= 1; c -= 0x20;
1808:.\sd/ff.c     **** 				}
1809:.\sd/ff.c     **** 			}
1810:.\sd/ff.c     **** 			sfn[i++] = c;
1811:.\sd/ff.c     **** 		}
1812:.\sd/ff.c     **** 	}
1813:.\sd/ff.c     **** 	*path = &p[si];						/* Return pointer to the next segment */
1814:.\sd/ff.c     **** 	c = (c <= ' ') ? NS_LAST : 0;		/* Set last segment flag if end of path */
1815:.\sd/ff.c     **** 
1816:.\sd/ff.c     **** 	if (!i) return FR_INVALID_NAME;		/* Reject nul string */
1817:.\sd/ff.c     **** 	if (sfn[0] == DDE) sfn[0] = NDDE;	/* When first char collides with DDE, replace it with 0x05 */
1818:.\sd/ff.c     **** 
1819:.\sd/ff.c     **** 	if (ni == 8) b <<= 2;
1820:.\sd/ff.c     **** 	if ((b & 0x03) == 0x01) c |= NS_EXT;	/* NT flag (Name extension has only small capital) */
1821:.\sd/ff.c     **** 	if ((b & 0x0C) == 0x04) c |= NS_BODY;	/* NT flag (Name body has only small capital) */
1822:.\sd/ff.c     **** 
1823:.\sd/ff.c     **** 	sfn[NS] = c;		/* Store NT flag, File name is created */
1824:.\sd/ff.c     **** 
1825:.\sd/ff.c     **** 	return FR_OK;
1826:.\sd/ff.c     **** #endif
1827:.\sd/ff.c     **** }
1828:.\sd/ff.c     **** 
1829:.\sd/ff.c     **** 
1830:.\sd/ff.c     **** 
ARM GAS  C:\Users\Jarik\AppData\Local\Temp\ccASvTaK.s 			page 36


1831:.\sd/ff.c     **** 
1832:.\sd/ff.c     **** /*-----------------------------------------------------------------------*/
1833:.\sd/ff.c     **** /* Get file information from directory entry                             */
1834:.\sd/ff.c     **** /*-----------------------------------------------------------------------*/
1835:.\sd/ff.c     **** #if _FS_MINIMIZE <= 1
1836:.\sd/ff.c     **** static
1837:.\sd/ff.c     **** void get_fileinfo (		/* No return code */
1838:.\sd/ff.c     **** 	DIR *dj,			/* Pointer to the directory object */
1839:.\sd/ff.c     **** 	FILINFO *fno	 	/* Pointer to the file information to be filled */
1840:.\sd/ff.c     **** )
1841:.\sd/ff.c     **** {
 161              		.loc 1 1841 0
 162              		.cfi_startproc
 163              	.LVL15:
 164 0000 70B5     		push	{r4, r5, r6, lr}
 165              		.cfi_def_cfa_offset 16
 166              		.cfi_offset 4, -16
 167              		.cfi_offset 5, -12
 168              		.cfi_offset 6, -8
 169              		.cfi_offset 14, -4
1842:.\sd/ff.c     **** 	UINT i;
1843:.\sd/ff.c     **** 	BYTE nt, *dir;
1844:.\sd/ff.c     **** 	TCHAR *p, c;
1845:.\sd/ff.c     **** 
1846:.\sd/ff.c     **** 
1847:.\sd/ff.c     **** 	p = fno->fname;
 170              		.loc 1 1847 0
 171 0002 0C1C     		mov	r4, r1
1848:.\sd/ff.c     **** 	if (dj->sect) {
 172              		.loc 1 1848 0
 173 0004 0369     		ldr	r3, [r0, #16]
1847:.\sd/ff.c     **** 	if (dj->sect) {
 174              		.loc 1 1847 0
 175 0006 0934     		add	r4, r4, #9
 176              	.LVL16:
 177              		.loc 1 1848 0
 178 0008 002B     		cmp	r3, #0
 179 000a 37D0     		beq	.L28
1849:.\sd/ff.c     **** 		dir = dj->dir;
 180              		.loc 1 1849 0
 181 000c 4369     		ldr	r3, [r0, #20]
 182              	.LVL17:
1847:.\sd/ff.c     **** 	if (dj->sect) {
 183              		.loc 1 1847 0
 184 000e 221C     		mov	r2, r4
1850:.\sd/ff.c     **** 		nt = dir[DIR_NTres];		/* NT flag */
1851:.\sd/ff.c     **** 		for (i = 0; i < 8; i++) {	/* Copy name body */
 185              		.loc 1 1851 0
 186 0010 0020     		mov	r0, #0
 187              	.LVL18:
 188              	.L31:
1852:.\sd/ff.c     **** 			c = dir[i];
 189              		.loc 1 1852 0
 190 0012 1D5C     		ldrb	r5, [r3, r0]
 191              	.LVL19:
1853:.\sd/ff.c     **** 			if (c == ' ') break;
 192              		.loc 1 1853 0
ARM GAS  C:\Users\Jarik\AppData\Local\Temp\ccASvTaK.s 			page 37


 193 0014 202D     		cmp	r5, #32
 194 0016 07D0     		beq	.L29
1854:.\sd/ff.c     **** 			if (c == NDDE) c = (TCHAR)DDE;
 195              		.loc 1 1854 0
 196 0018 052D     		cmp	r5, #5
 197 001a 00D1     		bne	.L30
 198 001c E035     		add	r5, r5, #224
 199              	.LVL20:
 200              	.L30:
1855:.\sd/ff.c     **** 			if (_USE_LFN && (nt & NS_BODY) && IsUpper(c)) c += 0x20;
1856:.\sd/ff.c     **** #if _LFN_UNICODE
1857:.\sd/ff.c     **** 			if (IsDBCS1(c) && i < 7 && IsDBCS2(dir[i+1]))
1858:.\sd/ff.c     **** 				c = (c << 8) | dir[++i];
1859:.\sd/ff.c     **** 			c = ff_convert(c, 1);
1860:.\sd/ff.c     **** 			if (!c) c = '?';
1861:.\sd/ff.c     **** #endif
1862:.\sd/ff.c     **** 			*p++ = c;
 201              		.loc 1 1862 0 discriminator 2
 202 001e 2554     		strb	r5, [r4, r0]
1851:.\sd/ff.c     **** 			c = dir[i];
 203              		.loc 1 1851 0 discriminator 2
 204 0020 0130     		add	r0, r0, #1
 205              	.LVL21:
 206              		.loc 1 1862 0 discriminator 2
 207 0022 0132     		add	r2, r2, #1
 208              	.LVL22:
1851:.\sd/ff.c     **** 			c = dir[i];
 209              		.loc 1 1851 0 discriminator 2
 210 0024 0828     		cmp	r0, #8
 211 0026 F4D1     		bne	.L31
 212              	.L29:
1863:.\sd/ff.c     **** 		}
1864:.\sd/ff.c     **** 		if (dir[8] != ' ') {		/* Copy name extension */
 213              		.loc 1 1864 0
 214 0028 187A     		ldrb	r0, [r3, #8]
 215              	.LVL23:
 216 002a 2028     		cmp	r0, #32
 217 002c 0ED0     		beq	.L32
 218              	.LVL24:
1865:.\sd/ff.c     **** 			*p++ = '.';
 219              		.loc 1 1865 0
 220 002e 2E20     		mov	r0, #46
 221 0030 1070     		strb	r0, [r2]
 222              	.LVL25:
 223 0032 181C     		mov	r0, r3
 224 0034 151D     		add	r5, r2, #4
 225              	.LVL26:
 226 0036 0830     		add	r0, r0, #8
 227 0038 0132     		add	r2, r2, #1
 228              	.LVL27:
 229              	.L33:
1866:.\sd/ff.c     **** 			for (i = 8; i < 11; i++) {
1867:.\sd/ff.c     **** 				c = dir[i];
 230              		.loc 1 1867 0
 231 003a 0478     		ldrb	r4, [r0]
 232              	.LVL28:
1868:.\sd/ff.c     **** 				if (c == ' ') break;
ARM GAS  C:\Users\Jarik\AppData\Local\Temp\ccASvTaK.s 			page 38


 233              		.loc 1 1868 0
 234 003c 202C     		cmp	r4, #32
 235 003e 05D0     		beq	.L32
1869:.\sd/ff.c     **** 				if (_USE_LFN && (nt & NS_EXT) && IsUpper(c)) c += 0x20;
1870:.\sd/ff.c     **** #if _LFN_UNICODE
1871:.\sd/ff.c     **** 				if (IsDBCS1(c) && i < 10 && IsDBCS2(dir[i+1]))
1872:.\sd/ff.c     **** 					c = (c << 8) | dir[++i];
1873:.\sd/ff.c     **** 				c = ff_convert(c, 1);
1874:.\sd/ff.c     **** 				if (!c) c = '?';
1875:.\sd/ff.c     **** #endif
1876:.\sd/ff.c     **** 				*p++ = c;
 236              		.loc 1 1876 0 discriminator 2
 237 0040 0132     		add	r2, r2, #1
 238              	.LVL29:
 239 0042 561E     		sub	r6, r2, #1
 240 0044 3470     		strb	r4, [r6]
 241 0046 0130     		add	r0, r0, #1
1866:.\sd/ff.c     **** 				c = dir[i];
 242              		.loc 1 1866 0 discriminator 2
 243 0048 AA42     		cmp	r2, r5
 244 004a F6D1     		bne	.L33
 245              	.LVL30:
 246              	.L32:
1877:.\sd/ff.c     **** 			}
1878:.\sd/ff.c     **** 		}
1879:.\sd/ff.c     **** 		fno->fattrib = dir[DIR_Attr];				/* Attribute */
 247              		.loc 1 1879 0
 248 004c D87A     		ldrb	r0, [r3, #11]
 249 004e 0872     		strb	r0, [r1, #8]
1880:.\sd/ff.c     **** 		fno->fsize = LD_DWORD(dir+DIR_FileSize);	/* Size */
 250              		.loc 1 1880 0
 251 0050 D87F     		ldrb	r0, [r3, #31]
 252 0052 0406     		lsl	r4, r0, #24
 253 0054 987F     		ldrb	r0, [r3, #30]
 254 0056 0004     		lsl	r0, r0, #16
 255 0058 2043     		orr	r0, r4
 256 005a 1C7F     		ldrb	r4, [r3, #28]
 257 005c 2043     		orr	r0, r4
 258 005e 5C7F     		ldrb	r4, [r3, #29]
 259 0060 2402     		lsl	r4, r4, #8
 260 0062 2043     		orr	r0, r4
 261 0064 0860     		str	r0, [r1]
1881:.\sd/ff.c     **** 		fno->fdate = LD_WORD(dir+DIR_WrtDate);		/* Date */
 262              		.loc 1 1881 0
 263 0066 587E     		ldrb	r0, [r3, #25]
 264 0068 1C7E     		ldrb	r4, [r3, #24]
 265 006a 0002     		lsl	r0, r0, #8
 266 006c 2043     		orr	r0, r4
1882:.\sd/ff.c     **** 		fno->ftime = LD_WORD(dir+DIR_WrtTime);		/* Time */
 267              		.loc 1 1882 0
 268 006e 141C     		mov	r4, r2
1881:.\sd/ff.c     **** 		fno->fdate = LD_WORD(dir+DIR_WrtDate);		/* Date */
 269              		.loc 1 1881 0
 270 0070 8880     		strh	r0, [r1, #4]
 271              		.loc 1 1882 0
 272 0072 D87D     		ldrb	r0, [r3, #23]
 273 0074 9B7D     		ldrb	r3, [r3, #22]
ARM GAS  C:\Users\Jarik\AppData\Local\Temp\ccASvTaK.s 			page 39


 274              	.LVL31:
 275 0076 0002     		lsl	r0, r0, #8
 276 0078 0343     		orr	r3, r0
 277 007a CB80     		strh	r3, [r1, #6]
 278              	.LVL32:
 279              	.L28:
1883:.\sd/ff.c     **** 	}
1884:.\sd/ff.c     **** 	*p = 0;		/* Terminate SFN str by a \0 */
 280              		.loc 1 1884 0
 281 007c 0023     		mov	r3, #0
1885:.\sd/ff.c     **** 
1886:.\sd/ff.c     **** #if _USE_LFN
1887:.\sd/ff.c     **** 	if (fno->lfname && fno->lfsize) {
1888:.\sd/ff.c     **** 		TCHAR *tp = fno->lfname;
1889:.\sd/ff.c     **** 		WCHAR w, *lfn;
1890:.\sd/ff.c     **** 
1891:.\sd/ff.c     **** 		i = 0;
1892:.\sd/ff.c     **** 		if (dj->sect && dj->lfn_idx != 0xFFFF) {/* Get LFN if available */
1893:.\sd/ff.c     **** 			lfn = dj->lfn;
1894:.\sd/ff.c     **** 			while ((w = *lfn++) != 0) {			/* Get an LFN char */
1895:.\sd/ff.c     **** #if !_LFN_UNICODE
1896:.\sd/ff.c     **** 				w = ff_convert(w, 0);			/* Unicode -> OEM conversion */
1897:.\sd/ff.c     **** 				if (!w) { i = 0; break; }		/* Could not convert, no LFN */
1898:.\sd/ff.c     **** 				if (_DF1S && w >= 0x100)		/* Put 1st byte if it is a DBC (always false on SBCS cfg) */
1899:.\sd/ff.c     **** 					tp[i++] = (TCHAR)(w >> 8);
1900:.\sd/ff.c     **** #endif
1901:.\sd/ff.c     **** 				if (i >= fno->lfsize - 1) { i = 0; break; }	/* Buffer overflow, no LFN */
1902:.\sd/ff.c     **** 				tp[i++] = (TCHAR)w;
1903:.\sd/ff.c     **** 			}
1904:.\sd/ff.c     **** 		}
1905:.\sd/ff.c     **** 		tp[i] = 0;	/* Terminate the LFN str by a \0 */
1906:.\sd/ff.c     **** 	}
1907:.\sd/ff.c     **** #endif
1908:.\sd/ff.c     **** }
 282              		.loc 1 1908 0
 283              		@ sp needed
1884:.\sd/ff.c     **** 
 284              		.loc 1 1884 0
 285 007e 2370     		strb	r3, [r4]
 286              	.LVL33:
 287              		.loc 1 1908 0
 288 0080 70BD     		pop	{r4, r5, r6, pc}
 289              		.cfi_endproc
 290              	.LFE23:
 291              		.size	get_fileinfo, .-get_fileinfo
 292              		.section	.text.move_window,"ax",%progbits
 293              		.align	1
 294              		.code	16
 295              		.thumb_func
 296              		.type	move_window, %function
 297              	move_window:
 298              	.LFB9:
 723:.\sd/ff.c     **** 	DWORD wsect;
 299              		.loc 1 723 0
 300              		.cfi_startproc
 301              	.LVL34:
 302 0000 F7B5     		push	{r0, r1, r2, r4, r5, r6, r7, lr}
ARM GAS  C:\Users\Jarik\AppData\Local\Temp\ccASvTaK.s 			page 40


 303              		.cfi_def_cfa_offset 32
 304              		.cfi_offset 0, -32
 305              		.cfi_offset 1, -28
 306              		.cfi_offset 2, -24
 307              		.cfi_offset 4, -20
 308              		.cfi_offset 5, -16
 309              		.cfi_offset 6, -12
 310              		.cfi_offset 7, -8
 311              		.cfi_offset 14, -4
 727:.\sd/ff.c     **** 	if (wsect != sector) {	/* Changed current window */
 312              		.loc 1 727 0
 313 0002 C66A     		ldr	r6, [r0, #44]
 314              	.LVL35:
 728:.\sd/ff.c     **** #if !_FS_READONLY
 315              		.loc 1 728 0
 316 0004 8E42     		cmp	r6, r1
 317 0006 01D1     		bne	.L47
 318              	.LVL36:
 319              	.L51:
 750:.\sd/ff.c     **** }
 320              		.loc 1 750 0
 321 0008 0020     		mov	r0, #0
 322 000a 32E0     		b	.L48
 323              	.LVL37:
 324              	.L47:
 730:.\sd/ff.c     **** 			if (disk_write(fs->drv, fs->win, wsect, 1) != RES_OK)
 325              		.loc 1 730 0
 326 000c 0379     		ldrb	r3, [r0, #4]
 327 000e 0D1C     		mov	r5, r1
 328 0010 041C     		mov	r4, r0
 329 0012 002B     		cmp	r3, #0
 330 0014 02D1     		bne	.L49
 331              	.LVL38:
 332              	.L53:
 743:.\sd/ff.c     **** 			if (disk_read(fs->drv, fs->win, sector, 1) != RES_OK)
 333              		.loc 1 743 0
 334 0016 002D     		cmp	r5, #0
 335 0018 F6D0     		beq	.L51
 336 001a 20E0     		b	.L57
 337              	.LVL39:
 338              	.L49:
 731:.\sd/ff.c     **** 				return FR_DISK_ERR;
 339              		.loc 1 731 0
 340 001c 031C     		mov	r3, r0
 341 001e 3033     		add	r3, r3, #48
 342 0020 0193     		str	r3, [sp, #4]
 343 0022 191C     		mov	r1, r3
 344              	.LVL40:
 345 0024 4078     		ldrb	r0, [r0, #1]
 346              	.LVL41:
 347 0026 321C     		mov	r2, r6
 348 0028 0123     		mov	r3, #1
 349 002a FFF7FEFF 		bl	disk_write
 350              	.LVL42:
 351 002e 0028     		cmp	r0, #0
 352 0030 01D0     		beq	.L52
 353              	.L56:
ARM GAS  C:\Users\Jarik\AppData\Local\Temp\ccASvTaK.s 			page 41


 732:.\sd/ff.c     **** 			fs->wflag = 0;
 354              		.loc 1 732 0
 355 0032 0120     		mov	r0, #1
 356 0034 1DE0     		b	.L48
 357              	.L52:
 734:.\sd/ff.c     **** 				BYTE nf;
 358              		.loc 1 734 0
 359 0036 E369     		ldr	r3, [r4, #28]
 360 0038 226A     		ldr	r2, [r4, #32]
 733:.\sd/ff.c     **** 			if (wsect < (fs->fatbase + fs->fsize)) {	/* In FAT area */
 361              		.loc 1 733 0
 362 003a 2071     		strb	r0, [r4, #4]
 734:.\sd/ff.c     **** 				BYTE nf;
 363              		.loc 1 734 0
 364 003c 9B18     		add	r3, r3, r2
 365 003e 9E42     		cmp	r6, r3
 366 0040 E9D2     		bcs	.L53
 367              	.LBB2:
 736:.\sd/ff.c     **** 					wsect += fs->fsize;
 368              		.loc 1 736 0
 369 0042 E778     		ldrb	r7, [r4, #3]
 370              	.LVL43:
 371              	.L54:
 736:.\sd/ff.c     **** 					wsect += fs->fsize;
 372              		.loc 1 736 0 is_stmt 0 discriminator 1
 373 0044 012F     		cmp	r7, #1
 374 0046 E6D9     		bls	.L53
 737:.\sd/ff.c     **** 					disk_write(fs->drv, fs->win, wsect, 1);
 375              		.loc 1 737 0 is_stmt 1 discriminator 3
 376 0048 E369     		ldr	r3, [r4, #28]
 738:.\sd/ff.c     **** 				}
 377              		.loc 1 738 0 discriminator 3
 378 004a 6078     		ldrb	r0, [r4, #1]
 737:.\sd/ff.c     **** 					disk_write(fs->drv, fs->win, wsect, 1);
 379              		.loc 1 737 0 discriminator 3
 380 004c F618     		add	r6, r6, r3
 381              	.LVL44:
 738:.\sd/ff.c     **** 				}
 382              		.loc 1 738 0 discriminator 3
 383 004e 0199     		ldr	r1, [sp, #4]
 384 0050 321C     		mov	r2, r6
 385 0052 0123     		mov	r3, #1
 736:.\sd/ff.c     **** 					wsect += fs->fsize;
 386              		.loc 1 736 0 discriminator 3
 387 0054 013F     		sub	r7, r7, #1
 388              	.LVL45:
 738:.\sd/ff.c     **** 				}
 389              		.loc 1 738 0 discriminator 3
 390 0056 FFF7FEFF 		bl	disk_write
 391              	.LVL46:
 736:.\sd/ff.c     **** 					wsect += fs->fsize;
 392              		.loc 1 736 0 discriminator 3
 393 005a FFB2     		uxtb	r7, r7
 394              	.LVL47:
 395 005c F2E7     		b	.L54
 396              	.LVL48:
 397              	.L57:
ARM GAS  C:\Users\Jarik\AppData\Local\Temp\ccASvTaK.s 			page 42


 398              	.LBE2:
 744:.\sd/ff.c     **** 				return FR_DISK_ERR;
 399              		.loc 1 744 0
 400 005e 211C     		mov	r1, r4
 401 0060 6078     		ldrb	r0, [r4, #1]
 402 0062 3031     		add	r1, r1, #48
 403 0064 2A1C     		mov	r2, r5
 404 0066 0123     		mov	r3, #1
 405 0068 FFF7FEFF 		bl	disk_read
 406              	.LVL49:
 407 006c 0028     		cmp	r0, #0
 408 006e E0D1     		bne	.L56
 746:.\sd/ff.c     **** 		}
 409              		.loc 1 746 0
 410 0070 E562     		str	r5, [r4, #44]
 411              	.LVL50:
 412              	.L48:
 751:.\sd/ff.c     **** 
 413              		.loc 1 751 0
 414              		@ sp needed
 415              	.LVL51:
 416 0072 FEBD     		pop	{r1, r2, r3, r4, r5, r6, r7, pc}
 417              		.cfi_endproc
 418              	.LFE9:
 419              		.size	move_window, .-move_window
 420              		.section	.text.check_fs,"ax",%progbits
 421              		.align	1
 422              		.code	16
 423              		.thumb_func
 424              		.type	check_fs, %function
 425              	check_fs:
 426              	.LFB25:
1909:.\sd/ff.c     **** #endif /* _FS_MINIMIZE <= 1 */
1910:.\sd/ff.c     **** 
1911:.\sd/ff.c     **** 
1912:.\sd/ff.c     **** 
1913:.\sd/ff.c     **** 
1914:.\sd/ff.c     **** /*-----------------------------------------------------------------------*/
1915:.\sd/ff.c     **** /* Follow a file path                                                    */
1916:.\sd/ff.c     **** /*-----------------------------------------------------------------------*/
1917:.\sd/ff.c     **** 
1918:.\sd/ff.c     **** static
1919:.\sd/ff.c     **** FRESULT follow_path (	/* FR_OK(0): successful, !=0: error code */
1920:.\sd/ff.c     **** 	DIR *dj,			/* Directory object to return last directory and found object */
1921:.\sd/ff.c     **** 	const TCHAR *path	/* Full-path string to find a file or directory */
1922:.\sd/ff.c     **** )
1923:.\sd/ff.c     **** {
1924:.\sd/ff.c     **** 	FRESULT res;
1925:.\sd/ff.c     **** 	BYTE *dir, ns;
1926:.\sd/ff.c     **** 
1927:.\sd/ff.c     **** 
1928:.\sd/ff.c     **** #if _FS_RPATH
1929:.\sd/ff.c     **** 	if (*path == '/' || *path == '\\') { /* There is a heading separator */
1930:.\sd/ff.c     **** 		path++;	dj->sclust = 0;		/* Strip it and start from the root dir */
1931:.\sd/ff.c     **** 	} else {							/* No heading separator */
1932:.\sd/ff.c     **** 		dj->sclust = dj->fs->cdir;	/* Start from the current dir */
1933:.\sd/ff.c     **** 	}
ARM GAS  C:\Users\Jarik\AppData\Local\Temp\ccASvTaK.s 			page 43


1934:.\sd/ff.c     **** #else
1935:.\sd/ff.c     **** 	if (*path == '/' || *path == '\\')	/* Strip heading separator if exist */
1936:.\sd/ff.c     **** 		path++;
1937:.\sd/ff.c     **** 	dj->sclust = 0;						/* Start from the root dir */
1938:.\sd/ff.c     **** #endif
1939:.\sd/ff.c     **** 
1940:.\sd/ff.c     **** 	if ((UINT)*path < ' ') {			/* Nul path means the start directory itself */
1941:.\sd/ff.c     **** 		res = dir_sdi(dj, 0);
1942:.\sd/ff.c     **** 		dj->dir = 0;
1943:.\sd/ff.c     **** 
1944:.\sd/ff.c     **** 	} else {							/* Follow path */
1945:.\sd/ff.c     **** 		for (;;) {
1946:.\sd/ff.c     **** 			res = create_name(dj, &path);	/* Get a segment */
1947:.\sd/ff.c     **** 			if (res != FR_OK) break;
1948:.\sd/ff.c     **** 			res = dir_find(dj);				/* Find it */
1949:.\sd/ff.c     **** 			ns = *(dj->fn+NS);
1950:.\sd/ff.c     **** 			if (res != FR_OK) {				/* Failed to find the object */
1951:.\sd/ff.c     **** 				if (res != FR_NO_FILE) break;	/* Abort if any hard error occured */
1952:.\sd/ff.c     **** 				/* Object not found */
1953:.\sd/ff.c     **** 				if (_FS_RPATH && (ns & NS_DOT)) {	/* If dot entry is not exit */
1954:.\sd/ff.c     **** 					dj->sclust = 0; dj->dir = 0;	/* It is the root dir */
1955:.\sd/ff.c     **** 					res = FR_OK;
1956:.\sd/ff.c     **** 					if (!(ns & NS_LAST)) continue;
1957:.\sd/ff.c     **** 				} else {							/* Could not find the object */
1958:.\sd/ff.c     **** 					if (!(ns & NS_LAST)) res = FR_NO_PATH;
1959:.\sd/ff.c     **** 				}
1960:.\sd/ff.c     **** 				break;
1961:.\sd/ff.c     **** 			}
1962:.\sd/ff.c     **** 			if (ns & NS_LAST) break;			/* Last segment match. Function completed. */
1963:.\sd/ff.c     **** 			dir = dj->dir;						/* There is next segment. Follow the sub directory */
1964:.\sd/ff.c     **** 			if (!(dir[DIR_Attr] & AM_DIR)) {	/* Cannot follow because it is a file */
1965:.\sd/ff.c     **** 				res = FR_NO_PATH; break;
1966:.\sd/ff.c     **** 			}
1967:.\sd/ff.c     **** 			dj->sclust = LD_CLUST(dir);
1968:.\sd/ff.c     **** 		}
1969:.\sd/ff.c     **** 	}
1970:.\sd/ff.c     **** 
1971:.\sd/ff.c     **** 	return res;
1972:.\sd/ff.c     **** }
1973:.\sd/ff.c     **** 
1974:.\sd/ff.c     **** 
1975:.\sd/ff.c     **** 
1976:.\sd/ff.c     **** 
1977:.\sd/ff.c     **** /*-----------------------------------------------------------------------*/
1978:.\sd/ff.c     **** /* Load a sector and check if it is an FAT Volume Boot Record            */
1979:.\sd/ff.c     **** /*-----------------------------------------------------------------------*/
1980:.\sd/ff.c     **** 
1981:.\sd/ff.c     **** static
1982:.\sd/ff.c     **** BYTE check_fs (	/* 0:FAT-VBR, 1:Valid BR but not FAT, 2:Not a BR, 3:Disk error */
1983:.\sd/ff.c     **** 	FATFS *fs,	/* File system object */
1984:.\sd/ff.c     **** 	DWORD sect	/* Sector# (lba) to check if it is an FAT boot record or not */
1985:.\sd/ff.c     **** )
1986:.\sd/ff.c     **** {
 427              		.loc 1 1986 0
 428              		.cfi_startproc
 429              	.LVL52:
 430 0000 10B5     		push	{r4, lr}
ARM GAS  C:\Users\Jarik\AppData\Local\Temp\ccASvTaK.s 			page 44


 431              		.cfi_def_cfa_offset 8
 432              		.cfi_offset 4, -8
 433              		.cfi_offset 14, -4
 434              		.loc 1 1986 0
 435 0002 041C     		mov	r4, r0
 436 0004 0A1C     		mov	r2, r1
1987:.\sd/ff.c     **** 	if (disk_read(fs->drv, fs->win, sect, 1) != RES_OK)	/* Load boot record */
 437              		.loc 1 1987 0
 438 0006 211C     		mov	r1, r4
 439              	.LVL53:
 440 0008 4078     		ldrb	r0, [r0, #1]
 441              	.LVL54:
 442 000a 3031     		add	r1, r1, #48
 443              	.LVL55:
 444 000c 0123     		mov	r3, #1
 445 000e FFF7FEFF 		bl	disk_read
 446              	.LVL56:
 447 0012 011C     		mov	r1, r0
1988:.\sd/ff.c     **** 		return 3;
 448              		.loc 1 1988 0
 449 0014 0320     		mov	r0, #3
1987:.\sd/ff.c     **** 	if (disk_read(fs->drv, fs->win, sect, 1) != RES_OK)	/* Load boot record */
 450              		.loc 1 1987 0
 451 0016 0029     		cmp	r1, #0
 452 0018 39D1     		bne	.L59
1989:.\sd/ff.c     **** 	if (LD_WORD(&fs->win[BS_55AA]) != 0xAA55)		/* Check record signature (always placed at offset 510 
 453              		.loc 1 1989 0
 454 001a 1D4B     		ldr	r3, .L63
 455 001c 1D4A     		ldr	r2, .L63+4
 456 001e E35C     		ldrb	r3, [r4, r3]
 457 0020 A25C     		ldrb	r2, [r4, r2]
 458 0022 1B02     		lsl	r3, r3, #8
 459 0024 1343     		orr	r3, r2
 460 0026 1C4A     		ldr	r2, .L63+8
 461 0028 1BB2     		sxth	r3, r3
1990:.\sd/ff.c     **** 		return 2;
 462              		.loc 1 1990 0
 463 002a 0138     		sub	r0, r0, #1
1989:.\sd/ff.c     **** 	if (LD_WORD(&fs->win[BS_55AA]) != 0xAA55)		/* Check record signature (always placed at offset 510 
 464              		.loc 1 1989 0
 465 002c 9342     		cmp	r3, r2
 466 002e 2ED1     		bne	.L59
1991:.\sd/ff.c     **** 
1992:.\sd/ff.c     **** 	if ((LD_DWORD(&fs->win[BS_FilSysType]) & 0xFFFFFF) == 0x544146)	/* Check "FAT" string */
 467              		.loc 1 1992 0
 468 0030 231C     		mov	r3, r4
 469 0032 6933     		add	r3, r3, #105
 470 0034 1B78     		ldrb	r3, [r3]
1993:.\sd/ff.c     **** 		return 0;
 471              		.loc 1 1993 0
 472 0036 081C     		mov	r0, r1
1992:.\sd/ff.c     **** 		return 0;
 473              		.loc 1 1992 0
 474 0038 1A06     		lsl	r2, r3, #24
 475 003a 231C     		mov	r3, r4
 476 003c 6833     		add	r3, r3, #104
 477 003e 1B78     		ldrb	r3, [r3]
ARM GAS  C:\Users\Jarik\AppData\Local\Temp\ccASvTaK.s 			page 45


 478 0040 1B04     		lsl	r3, r3, #16
 479 0042 1343     		orr	r3, r2
 480 0044 221C     		mov	r2, r4
 481 0046 6632     		add	r2, r2, #102
 482 0048 1278     		ldrb	r2, [r2]
 483 004a 1343     		orr	r3, r2
 484 004c 221C     		mov	r2, r4
 485 004e 6732     		add	r2, r2, #103
 486 0050 1278     		ldrb	r2, [r2]
 487 0052 1202     		lsl	r2, r2, #8
 488 0054 1343     		orr	r3, r2
 489 0056 114A     		ldr	r2, .L63+12
 490 0058 1B02     		lsl	r3, r3, #8
 491 005a 1B0A     		lsr	r3, r3, #8
 492 005c 9342     		cmp	r3, r2
 493 005e 16D0     		beq	.L59
 494              	.LVL57:
 495              	.LBB5:
 496              	.LBB6:
1994:.\sd/ff.c     **** 	if ((LD_DWORD(&fs->win[BS_FilSysType32]) & 0xFFFFFF) == 0x544146)
 497              		.loc 1 1994 0
 498 0060 231C     		mov	r3, r4
 499 0062 8533     		add	r3, r3, #133
 500 0064 1878     		ldrb	r0, [r3]
 501 0066 013B     		sub	r3, r3, #1
 502 0068 1B78     		ldrb	r3, [r3]
 503 006a 0006     		lsl	r0, r0, #24
 504 006c 1B04     		lsl	r3, r3, #16
 505 006e 1843     		orr	r0, r3
 506 0070 231C     		mov	r3, r4
 507 0072 8233     		add	r3, r3, #130
 508 0074 1B78     		ldrb	r3, [r3]
 509 0076 8334     		add	r4, r4, #131
 510              	.LVL58:
 511 0078 1843     		orr	r0, r3
 512 007a 2378     		ldrb	r3, [r4]
 513 007c 1B02     		lsl	r3, r3, #8
 514 007e 1843     		orr	r0, r3
 515 0080 0002     		lsl	r0, r0, #8
 516 0082 074B     		ldr	r3, .L63+16
 517 0084 000A     		lsr	r0, r0, #8
 518 0086 C018     		add	r0, r0, r3
 519 0088 431E     		sub	r3, r0, #1
 520 008a 9841     		sbc	r0, r0, r3
 521              	.LBE6:
 522              	.LBE5:
1988:.\sd/ff.c     **** 	if (LD_WORD(&fs->win[BS_55AA]) != 0xAA55)		/* Check record signature (always placed at offset 510 
 523              		.loc 1 1988 0
 524 008c C0B2     		uxtb	r0, r0
 525              	.LVL59:
 526              	.L59:
1995:.\sd/ff.c     **** 		return 0;
1996:.\sd/ff.c     **** 
1997:.\sd/ff.c     **** 	return 1;
1998:.\sd/ff.c     **** }
 527              		.loc 1 1998 0
 528              		@ sp needed
ARM GAS  C:\Users\Jarik\AppData\Local\Temp\ccASvTaK.s 			page 46


 529 008e 10BD     		pop	{r4, pc}
 530              	.L64:
 531              		.align	2
 532              	.L63:
 533 0090 2F020000 		.word	559
 534 0094 2E020000 		.word	558
 535 0098 55AAFFFF 		.word	-21931
 536 009c 46415400 		.word	5521734
 537 00a0 BABEABFF 		.word	-5521734
 538              		.cfi_endproc
 539              	.LFE25:
 540              		.size	check_fs, .-check_fs
 541              		.global	__aeabi_uidiv
 542              		.section	.text.chk_mounted,"ax",%progbits
 543              		.align	1
 544              		.code	16
 545              		.thumb_func
 546              		.type	chk_mounted, %function
 547              	chk_mounted:
 548              	.LFB26:
1999:.\sd/ff.c     **** 
2000:.\sd/ff.c     **** 
2001:.\sd/ff.c     **** 
2002:.\sd/ff.c     **** 
2003:.\sd/ff.c     **** /*-----------------------------------------------------------------------*/
2004:.\sd/ff.c     **** /* Check if the file system object is valid or not                       */
2005:.\sd/ff.c     **** /*-----------------------------------------------------------------------*/
2006:.\sd/ff.c     **** 
2007:.\sd/ff.c     **** static
2008:.\sd/ff.c     **** FRESULT chk_mounted (	/* FR_OK(0): successful, !=0: any error occurred */
2009:.\sd/ff.c     **** 	const TCHAR **path,	/* Pointer to pointer to the path name (drive number) */
2010:.\sd/ff.c     **** 	FATFS **rfs,		/* Pointer to pointer to the found file system object */
2011:.\sd/ff.c     **** 	BYTE chk_wp			/* !=0: Check media write protection for write access */
2012:.\sd/ff.c     **** )
2013:.\sd/ff.c     **** {
 549              		.loc 1 2013 0
 550              		.cfi_startproc
 551              	.LVL60:
 552 0000 F0B5     		push	{r4, r5, r6, r7, lr}
 553              		.cfi_def_cfa_offset 20
 554              		.cfi_offset 4, -20
 555              		.cfi_offset 5, -16
 556              		.cfi_offset 6, -12
 557              		.cfi_offset 7, -8
 558              		.cfi_offset 14, -4
2014:.\sd/ff.c     **** 	BYTE fmt, b, pi, *tbl;
2015:.\sd/ff.c     **** 	UINT vol;
2016:.\sd/ff.c     **** 	DSTATUS stat;
2017:.\sd/ff.c     **** 	DWORD bsect, fasize, tsect, sysect, nclst, szbfat;
2018:.\sd/ff.c     **** 	WORD nrsv;
2019:.\sd/ff.c     **** 	const TCHAR *p = *path;
 559              		.loc 1 2019 0
 560 0002 0368     		ldr	r3, [r0]
 561              	.LVL61:
2013:.\sd/ff.c     **** 	BYTE fmt, b, pi, *tbl;
 562              		.loc 1 2013 0
 563 0004 85B0     		sub	sp, sp, #20
ARM GAS  C:\Users\Jarik\AppData\Local\Temp\ccASvTaK.s 			page 47


 564              		.cfi_def_cfa_offset 40
2020:.\sd/ff.c     **** 	FATFS *fs;
2021:.\sd/ff.c     **** 
2022:.\sd/ff.c     **** 	/* Get logical drive number from the path name */
2023:.\sd/ff.c     **** 	vol = p[0] - '0';					/* Is there a drive number? */
 565              		.loc 1 2023 0
 566 0006 1C78     		ldrb	r4, [r3]
 567 0008 303C     		sub	r4, r4, #48
 568              	.LVL62:
2024:.\sd/ff.c     **** 	if (vol <= 9 && p[1] == ':') {		/* Found a drive number, get and strip it */
 569              		.loc 1 2024 0
 570 000a 092C     		cmp	r4, #9
 571 000c 06D9     		bls	.L66
 572              	.LVL63:
 573              	.L69:
2025:.\sd/ff.c     **** 		p += 2; *path = p;				/* Return pointer to the path name */
2026:.\sd/ff.c     **** 	} else {							/* No drive number is given */
2027:.\sd/ff.c     **** #if _FS_RPATH
2028:.\sd/ff.c     **** 		vol = CurrVol;					/* Use current drive */
2029:.\sd/ff.c     **** #else
2030:.\sd/ff.c     **** 		vol = 0;						/* Use drive 0 */
2031:.\sd/ff.c     **** #endif
2032:.\sd/ff.c     **** 	}
2033:.\sd/ff.c     **** 
2034:.\sd/ff.c     **** 	/* Check if the file system object is valid or not */
2035:.\sd/ff.c     **** 	if (vol >= _VOLUMES) 				/* Is the drive number valid? */
2036:.\sd/ff.c     **** 		return FR_INVALID_DRIVE;
2037:.\sd/ff.c     **** 	*rfs = fs = FatFs[vol];				/* Return pointer to the corresponding file system object */
 574              		.loc 1 2037 0
 575 000e CA4B     		ldr	r3, .L119
 576 0010 5C6A     		ldr	r4, [r3, #36]
 577              	.LVL64:
2038:.\sd/ff.c     **** 	if (!fs) return FR_NOT_ENABLED;		/* Is the file system object available? */
 578              		.loc 1 2038 0
 579 0012 0C23     		mov	r3, #12
2037:.\sd/ff.c     **** 	if (!fs) return FR_NOT_ENABLED;		/* Is the file system object available? */
 580              		.loc 1 2037 0
 581 0014 0C60     		str	r4, [r1]
 582              		.loc 1 2038 0
 583 0016 002C     		cmp	r4, #0
 584 0018 0AD1     		bne	.L117
 585 001a 89E1     		b	.L67
 586              	.LVL65:
 587              	.L66:
2024:.\sd/ff.c     **** 		p += 2; *path = p;				/* Return pointer to the path name */
 588              		.loc 1 2024 0 discriminator 1
 589 001c 5D78     		ldrb	r5, [r3, #1]
 590 001e 3A2D     		cmp	r5, #58
 591 0020 F5D1     		bne	.L69
 592              	.LVL66:
2025:.\sd/ff.c     **** 	} else {							/* No drive number is given */
 593              		.loc 1 2025 0
 594 0022 0233     		add	r3, r3, #2
 595              	.LVL67:
 596 0024 0360     		str	r3, [r0]
2036:.\sd/ff.c     **** 	*rfs = fs = FatFs[vol];				/* Return pointer to the corresponding file system object */
 597              		.loc 1 2036 0
ARM GAS  C:\Users\Jarik\AppData\Local\Temp\ccASvTaK.s 			page 48


 598 0026 0B23     		mov	r3, #11
 599              	.LVL68:
2035:.\sd/ff.c     **** 		return FR_INVALID_DRIVE;
 600              		.loc 1 2035 0
 601 0028 002C     		cmp	r4, #0
 602 002a 00D0     		beq	.LCB623
 603 002c 80E1     		b	.L67	@long jump
 604              	.LCB623:
 605 002e EEE7     		b	.L69
 606              	.LVL69:
 607              	.L117:
2039:.\sd/ff.c     **** 
2040:.\sd/ff.c     **** 	ENTER_FF(fs);						/* Lock file system */
2041:.\sd/ff.c     **** 
2042:.\sd/ff.c     **** 	if (fs->fs_type) {					/* If the logical drive has been mounted */
 608              		.loc 1 2042 0
 609 0030 2378     		ldrb	r3, [r4]
 610 0032 151C     		mov	r5, r2
 611 0034 002B     		cmp	r3, #0
 612 0036 0DD0     		beq	.L70
2043:.\sd/ff.c     **** 		stat = disk_status(fs->drv);
 613              		.loc 1 2043 0
 614 0038 6078     		ldrb	r0, [r4, #1]
 615              	.LVL70:
 616 003a FFF7FEFF 		bl	disk_status
 617              	.LVL71:
2044:.\sd/ff.c     **** 		if (!(stat & STA_NOINIT)) {		/* and the physical drive is kept initialized (has not been changed)
 618              		.loc 1 2044 0
 619 003e 0123     		mov	r3, #1
 620 0040 0340     		and	r3, r0
 621 0042 07D1     		bne	.L70
2045:.\sd/ff.c     **** 			if (!_FS_READONLY && chk_wp && (stat & STA_PROTECT))	/* Check write protection if needed */
 622              		.loc 1 2045 0
 623 0044 002D     		cmp	r5, #0
 624 0046 00D1     		bne	.LCB650
 625 0048 72E1     		b	.L67	@long jump
 626              	.LCB650:
 627              		.loc 1 2045 0 is_stmt 0 discriminator 1
 628 004a 4207     		lsl	r2, r0, #29
 629 004c 00D4     		bmi	.LCB655
 630 004e 6FE1     		b	.L67	@long jump
 631              	.LCB655:
 632              	.L72:
2046:.\sd/ff.c     **** 				return FR_WRITE_PROTECTED;
 633              		.loc 1 2046 0 is_stmt 1
 634 0050 0A23     		mov	r3, #10
 635 0052 6DE1     		b	.L67
 636              	.LVL72:
 637              	.L70:
2047:.\sd/ff.c     **** 			return FR_OK;				/* The file system object is valid */
2048:.\sd/ff.c     **** 		}
2049:.\sd/ff.c     **** 	}
2050:.\sd/ff.c     **** 
2051:.\sd/ff.c     **** 	/* The file system object is not valid. */
2052:.\sd/ff.c     **** 	/* Following code attempts to mount the volume. (analyze BPB and initialize the fs object) */
2053:.\sd/ff.c     **** 
2054:.\sd/ff.c     **** 	fs->fs_type = 0;					/* Clear the file system object */
ARM GAS  C:\Users\Jarik\AppData\Local\Temp\ccASvTaK.s 			page 49


 638              		.loc 1 2054 0
 639 0054 0020     		mov	r0, #0
 640 0056 2070     		strb	r0, [r4]
2055:.\sd/ff.c     **** 	fs->drv = LD2PD(vol);				/* Bind the logical drive and a physical drive */
 641              		.loc 1 2055 0
 642 0058 6070     		strb	r0, [r4, #1]
2056:.\sd/ff.c     **** 	stat = disk_initialize(fs->drv);	/* Initialize low level disk I/O layer */
 643              		.loc 1 2056 0
 644 005a FFF7FEFF 		bl	disk_initialize
 645              	.LVL73:
2057:.\sd/ff.c     **** 	if (stat & STA_NOINIT)				/* Check if the initialization succeeded */
2058:.\sd/ff.c     **** 		return FR_NOT_READY;			/* Failed to initialize due to no media or hard error */
 646              		.loc 1 2058 0
 647 005e 0323     		mov	r3, #3
2057:.\sd/ff.c     **** 	if (stat & STA_NOINIT)				/* Check if the initialization succeeded */
 648              		.loc 1 2057 0
 649 0060 C207     		lsl	r2, r0, #31
 650 0062 00D5     		bpl	.LCB675
 651 0064 64E1     		b	.L67	@long jump
 652              	.LCB675:
2059:.\sd/ff.c     **** 	if (!_FS_READONLY && chk_wp && (stat & STA_PROTECT))	/* Check disk write protection if needed */
 653              		.loc 1 2059 0
 654 0066 002D     		cmp	r5, #0
 655 0068 01D0     		beq	.L71
 656              		.loc 1 2059 0 is_stmt 0 discriminator 1
 657 006a 4307     		lsl	r3, r0, #29
 658 006c F0D4     		bmi	.L72
 659              	.L71:
 660              	.LVL74:
2060:.\sd/ff.c     **** 		return FR_WRITE_PROTECTED;
2061:.\sd/ff.c     **** #if _MAX_SS != 512						/* Get disk sector size (variable sector size cfg only) */
2062:.\sd/ff.c     **** 	if (disk_ioctl(fs->drv, GET_SECTOR_SIZE, &fs->ssize) != RES_OK)
2063:.\sd/ff.c     **** 		return FR_DISK_ERR;
2064:.\sd/ff.c     **** #endif
2065:.\sd/ff.c     **** 	/* Search FAT partition on the drive. Supports only generic partitionings, FDISK and SFD. */
2066:.\sd/ff.c     **** 	fmt = check_fs(fs, bsect = 0);		/* Load sector 0 and check if it is an FAT-VBR (in SFD) */
 661              		.loc 1 2066 0 is_stmt 1
 662 006e 201C     		mov	r0, r4
 663              	.LVL75:
 664 0070 0021     		mov	r1, #0
 665 0072 FFF7FEFF 		bl	check_fs
 666              	.LVL76:
 667 0076 0026     		mov	r6, #0
2067:.\sd/ff.c     **** 	if (LD2PT(vol) && !fmt) fmt = 1;	/* Force non-SFD if the volume is forced partition */
2068:.\sd/ff.c     **** 	if (fmt == 1) {						/* Not an FAT-VBR, the physical drive can be partitioned */
 668              		.loc 1 2068 0
 669 0078 0128     		cmp	r0, #1
 670 007a 1BD1     		bne	.L73
 671              	.LVL77:
2069:.\sd/ff.c     **** 		/* Check the partition listed in the partition table */
2070:.\sd/ff.c     **** 		pi = LD2PT(vol);
2071:.\sd/ff.c     **** 		if (pi) pi--;
2072:.\sd/ff.c     **** 		tbl = &fs->win[MBR_Table + pi * SZ_PTE];/* Partition table */
2073:.\sd/ff.c     **** 		if (tbl[4]) {						/* Is the partition existing? */
 672              		.loc 1 2073 0
 673 007c F923     		mov	r3, #249
 674 007e 5B00     		lsl	r3, r3, #1
ARM GAS  C:\Users\Jarik\AppData\Local\Temp\ccASvTaK.s 			page 50


 675 0080 E35C     		ldrb	r3, [r4, r3]
 676 0082 B342     		cmp	r3, r6
 677 0084 01D1     		bne	.L74
 678              	.LVL78:
 679              	.L75:
2074:.\sd/ff.c     **** 			bsect = LD_DWORD(&tbl[8]);		/* Partition offset in LBA */
2075:.\sd/ff.c     **** 			fmt = check_fs(fs, bsect);		/* Check the partition */
2076:.\sd/ff.c     **** 		}
2077:.\sd/ff.c     **** 	}
2078:.\sd/ff.c     **** 	if (fmt == 3) return FR_DISK_ERR;
2079:.\sd/ff.c     **** 	if (fmt) return FR_NO_FILESYSTEM;		/* No FAT volume is found */
 680              		.loc 1 2079 0
 681 0086 0D23     		mov	r3, #13
 682 0088 52E1     		b	.L67
 683              	.LVL79:
 684              	.L74:
2074:.\sd/ff.c     **** 			bsect = LD_DWORD(&tbl[8]);		/* Partition offset in LBA */
 685              		.loc 1 2074 0
 686 008a FA23     		mov	r3, #250
 687 008c FF33     		add	r3, r3, #255
 688 008e E65C     		ldrb	r6, [r4, r3]
 689 0090 013B     		sub	r3, r3, #1
 690 0092 E35C     		ldrb	r3, [r4, r3]
 691 0094 3606     		lsl	r6, r6, #24
 692 0096 1B04     		lsl	r3, r3, #16
 693 0098 1E43     		orr	r6, r3
 694 009a FB23     		mov	r3, #251
 695 009c 5B00     		lsl	r3, r3, #1
 696 009e E25C     		ldrb	r2, [r4, r3]
 697 00a0 F823     		mov	r3, #248
 698 00a2 FF33     		add	r3, r3, #255
 699 00a4 E35C     		ldrb	r3, [r4, r3]
 700 00a6 1643     		orr	r6, r2
 701 00a8 1B02     		lsl	r3, r3, #8
 702 00aa 1E43     		orr	r6, r3
 703              	.LVL80:
2075:.\sd/ff.c     **** 		}
 704              		.loc 1 2075 0
 705 00ac 201C     		mov	r0, r4
 706              	.LVL81:
 707 00ae 311C     		mov	r1, r6
 708 00b0 FFF7FEFF 		bl	check_fs
 709              	.LVL82:
 710              	.L73:
2078:.\sd/ff.c     **** 	if (fmt) return FR_NO_FILESYSTEM;		/* No FAT volume is found */
 711              		.loc 1 2078 0
 712 00b4 0123     		mov	r3, #1
 713 00b6 0328     		cmp	r0, #3
 714 00b8 00D1     		bne	.LCB750
 715 00ba 39E1     		b	.L67	@long jump
 716              	.LCB750:
 717              		.loc 1 2079 0
 718 00bc 0028     		cmp	r0, #0
 719 00be E2D1     		bne	.L75
2080:.\sd/ff.c     **** 
2081:.\sd/ff.c     **** 	/* An FAT volume is found. Following code initializes the file system object */
2082:.\sd/ff.c     **** 
ARM GAS  C:\Users\Jarik\AppData\Local\Temp\ccASvTaK.s 			page 51


2083:.\sd/ff.c     **** 	if (LD_WORD(fs->win+BPB_BytsPerSec) != SS(fs))		/* (BPB_BytsPerSec must be equal to the physical s
 720              		.loc 1 2083 0
 721 00c0 231C     		mov	r3, r4
 722 00c2 221C     		mov	r2, r4
 723 00c4 3C33     		add	r3, r3, #60
 724 00c6 1B78     		ldrb	r3, [r3]
 725 00c8 3B32     		add	r2, r2, #59
 726 00ca 1278     		ldrb	r2, [r2]
 727 00cc 1B02     		lsl	r3, r3, #8
 728 00ce 1343     		orr	r3, r2
 729 00d0 8022     		mov	r2, #128
 730 00d2 1BB2     		sxth	r3, r3
 731 00d4 9200     		lsl	r2, r2, #2
 732 00d6 9342     		cmp	r3, r2
 733 00d8 D5D1     		bne	.L75
2084:.\sd/ff.c     **** 		return FR_NO_FILESYSTEM;
2085:.\sd/ff.c     **** 
2086:.\sd/ff.c     **** 	fasize = LD_WORD(fs->win+BPB_FATSz16);				/* Number of sectors per FAT */
 734              		.loc 1 2086 0
 735 00da 231C     		mov	r3, r4
 736 00dc 221C     		mov	r2, r4
 737 00de 4733     		add	r3, r3, #71
 738 00e0 1B78     		ldrb	r3, [r3]
 739 00e2 4632     		add	r2, r2, #70
 740 00e4 1278     		ldrb	r2, [r2]
 741 00e6 1B02     		lsl	r3, r3, #8
 742 00e8 1343     		orr	r3, r2
 743              	.LVL83:
2087:.\sd/ff.c     **** 	if (!fasize) fasize = LD_DWORD(fs->win+BPB_FATSz32);
 744              		.loc 1 2087 0
 745 00ea 11D1     		bne	.L118
 746              		.loc 1 2087 0 is_stmt 0 discriminator 1
 747 00ec 231C     		mov	r3, r4
 748              	.LVL84:
 749 00ee 5733     		add	r3, r3, #87
 750              	.LVL85:
 751 00f0 1B78     		ldrb	r3, [r3]
 752 00f2 1A06     		lsl	r2, r3, #24
 753              	.LVL86:
 754 00f4 231C     		mov	r3, r4
 755 00f6 5633     		add	r3, r3, #86
 756 00f8 1B78     		ldrb	r3, [r3]
 757 00fa 1B04     		lsl	r3, r3, #16
 758 00fc 1343     		orr	r3, r2
 759 00fe 221C     		mov	r2, r4
 760 0100 5432     		add	r2, r2, #84
 761 0102 1278     		ldrb	r2, [r2]
 762 0104 1343     		orr	r3, r2
 763 0106 221C     		mov	r2, r4
 764 0108 5532     		add	r2, r2, #85
 765 010a 1278     		ldrb	r2, [r2]
 766 010c 1202     		lsl	r2, r2, #8
 767 010e 1343     		orr	r3, r2
 768              	.L118:
 769 0110 0093     		str	r3, [sp]
 770              	.LVL87:
2088:.\sd/ff.c     **** 	fs->fsize = fasize;
ARM GAS  C:\Users\Jarik\AppData\Local\Temp\ccASvTaK.s 			page 52


 771              		.loc 1 2088 0 is_stmt 1 discriminator 1
 772 0112 009B     		ldr	r3, [sp]
 773 0114 E361     		str	r3, [r4, #28]
2089:.\sd/ff.c     **** 
2090:.\sd/ff.c     **** 	fs->n_fats = b = fs->win[BPB_NumFATs];				/* Number of FAT copies */
 774              		.loc 1 2090 0 discriminator 1
 775 0116 231C     		mov	r3, r4
 776              	.LVL88:
 777 0118 4033     		add	r3, r3, #64
 778 011a 1A78     		ldrb	r2, [r3]
 779              	.LVL89:
2091:.\sd/ff.c     **** 	if (b != 1 && b != 2) return FR_NO_FILESYSTEM;		/* (Must be 1 or 2) */
 780              		.loc 1 2091 0 discriminator 1
 781 011c 531E     		sub	r3, r2, #1
2090:.\sd/ff.c     **** 	if (b != 1 && b != 2) return FR_NO_FILESYSTEM;		/* (Must be 1 or 2) */
 782              		.loc 1 2090 0 discriminator 1
 783 011e E270     		strb	r2, [r4, #3]
 784              		.loc 1 2091 0 discriminator 1
 785 0120 012B     		cmp	r3, #1
 786 0122 B0D8     		bhi	.L75
 787              	.LVL90:
2092:.\sd/ff.c     **** 	fasize *= b;										/* Number of sectors for FAT area */
2093:.\sd/ff.c     **** 
2094:.\sd/ff.c     **** 	fs->csize = b = fs->win[BPB_SecPerClus];			/* Number of sectors per cluster */
 788              		.loc 1 2094 0
 789 0124 231C     		mov	r3, r4
 790 0126 3D33     		add	r3, r3, #61
 791 0128 1978     		ldrb	r1, [r3]
 792              	.LVL91:
 793 012a A170     		strb	r1, [r4, #2]
2095:.\sd/ff.c     **** 	if (!b || (b & (b - 1))) return FR_NO_FILESYSTEM;	/* (Must be power of 2) */
 794              		.loc 1 2095 0
 795 012c 0029     		cmp	r1, #0
 796 012e AAD0     		beq	.L75
 797              		.loc 1 2095 0 is_stmt 0 discriminator 2
 798 0130 4B1E     		sub	r3, r1, #1
 799 0132 1942     		tst	r1, r3
 800 0134 A7D1     		bne	.L75
2096:.\sd/ff.c     **** 
2097:.\sd/ff.c     **** 	fs->n_rootdir = LD_WORD(fs->win+BPB_RootEntCnt);	/* Number of root directory entries */
 801              		.loc 1 2097 0 is_stmt 1
 802 0136 231C     		mov	r3, r4
 803 0138 4233     		add	r3, r3, #66
 804 013a 1F78     		ldrb	r7, [r3]
 805 013c 013B     		sub	r3, r3, #1
 806 013e 1B78     		ldrb	r3, [r3]
 807 0140 3F02     		lsl	r7, r7, #8
 808 0142 1F43     		orr	r7, r3
 809 0144 2781     		strh	r7, [r4, #8]
2098:.\sd/ff.c     **** 	if (fs->n_rootdir % (SS(fs) / SZ_DIR)) return FR_NO_FILESYSTEM;	/* (BPB_RootEntCnt must be sector 
 810              		.loc 1 2098 0
 811 0146 3B07     		lsl	r3, r7, #28
 812 0148 9DD1     		bne	.L75
2099:.\sd/ff.c     **** 
2100:.\sd/ff.c     **** 	tsect = LD_WORD(fs->win+BPB_TotSec16);				/* Number of sectors on the volume */
 813              		.loc 1 2100 0
 814 014a 231C     		mov	r3, r4
ARM GAS  C:\Users\Jarik\AppData\Local\Temp\ccASvTaK.s 			page 53


 815 014c 4433     		add	r3, r3, #68
 816 014e 1878     		ldrb	r0, [r3]
 817              	.LVL92:
 818 0150 013B     		sub	r3, r3, #1
 819 0152 1B78     		ldrb	r3, [r3]
 820 0154 0002     		lsl	r0, r0, #8
 821 0156 1843     		orr	r0, r3
 822              	.LVL93:
2101:.\sd/ff.c     **** 	if (!tsect) tsect = LD_DWORD(fs->win+BPB_TotSec32);
 823              		.loc 1 2101 0
 824 0158 10D1     		bne	.L78
 825              		.loc 1 2101 0 is_stmt 0 discriminator 1
 826 015a 231C     		mov	r3, r4
 827 015c 5333     		add	r3, r3, #83
 828 015e 1878     		ldrb	r0, [r3]
 829              	.LVL94:
 830 0160 013B     		sub	r3, r3, #1
 831 0162 1B78     		ldrb	r3, [r3]
 832 0164 0006     		lsl	r0, r0, #24
 833 0166 1B04     		lsl	r3, r3, #16
 834 0168 1843     		orr	r0, r3
 835 016a 231C     		mov	r3, r4
 836 016c 5033     		add	r3, r3, #80
 837 016e 1B78     		ldrb	r3, [r3]
 838 0170 1843     		orr	r0, r3
 839 0172 231C     		mov	r3, r4
 840 0174 5133     		add	r3, r3, #81
 841 0176 1B78     		ldrb	r3, [r3]
 842 0178 1B02     		lsl	r3, r3, #8
 843 017a 1843     		orr	r0, r3
 844              	.LVL95:
 845              	.L78:
2102:.\sd/ff.c     **** 
2103:.\sd/ff.c     **** 	nrsv = LD_WORD(fs->win+BPB_RsvdSecCnt);				/* Number of reserved sectors */
 846              		.loc 1 2103 0 is_stmt 1
 847 017c 231C     		mov	r3, r4
 848 017e 251C     		mov	r5, r4
 849 0180 3F33     		add	r3, r3, #63
 850 0182 1B78     		ldrb	r3, [r3]
 851 0184 3E35     		add	r5, r5, #62
 852 0186 2D78     		ldrb	r5, [r5]
 853 0188 1B02     		lsl	r3, r3, #8
 854 018a 1D43     		orr	r5, r3
 855 018c 0195     		str	r5, [sp, #4]
 856              	.LVL96:
2104:.\sd/ff.c     **** 	if (!nrsv) return FR_NO_FILESYSTEM;					/* (BPB_RsvdSecCnt must not be 0) */
 857              		.loc 1 2104 0
 858 018e 00D1     		bne	.LCB893
 859 0190 79E7     		b	.L75	@long jump
 860              	.LCB893:
2092:.\sd/ff.c     **** 
 861              		.loc 1 2092 0
 862 0192 009B     		ldr	r3, [sp]
 863 0194 5343     		mul	r3, r2
 864 0196 0393     		str	r3, [sp, #12]
2105:.\sd/ff.c     **** 
2106:.\sd/ff.c     **** 	/* Determine the FAT sub type */
ARM GAS  C:\Users\Jarik\AppData\Local\Temp\ccASvTaK.s 			page 54


2107:.\sd/ff.c     **** 	sysect = nrsv + fasize + fs->n_rootdir / (SS(fs) / SZ_DIR);	/* RSV+FAT+DIR */
 865              		.loc 1 2107 0
 866 0198 039A     		ldr	r2, [sp, #12]
 867              	.LVL97:
 868 019a 3B09     		lsr	r3, r7, #4
 869 019c 5B19     		add	r3, r3, r5
 870 019e 9B18     		add	r3, r3, r2
 871 01a0 0293     		str	r3, [sp, #8]
 872              	.LVL98:
2108:.\sd/ff.c     **** 	if (tsect < sysect) return FR_NO_FILESYSTEM;		/* (Invalid volume size) */
 873              		.loc 1 2108 0
 874 01a2 9842     		cmp	r0, r3
 875 01a4 00D2     		bcs	.LCB907
 876 01a6 6EE7     		b	.L75	@long jump
 877              	.LCB907:
2109:.\sd/ff.c     **** 	nclst = (tsect - sysect) / fs->csize;				/* Number of clusters */
 878              		.loc 1 2109 0
 879 01a8 C01A     		sub	r0, r0, r3
 880              	.LVL99:
 881 01aa FFF7FEFF 		bl	__aeabi_uidiv
 882              	.LVL100:
2110:.\sd/ff.c     **** 	if (!nclst) return FR_NO_FILESYSTEM;				/* (Invalid volume size) */
 883              		.loc 1 2110 0
 884 01ae 0028     		cmp	r0, #0
 885 01b0 00D1     		bne	.LCB917
 886 01b2 68E7     		b	.L75	@long jump
 887              	.LCB917:
 888              	.LVL101:
2111:.\sd/ff.c     **** 	fmt = FS_FAT12;
2112:.\sd/ff.c     **** 	if (nclst >= MIN_FAT16) fmt = FS_FAT16;
 889              		.loc 1 2112 0
 890 01b4 614B     		ldr	r3, .L119+4
2111:.\sd/ff.c     **** 	fmt = FS_FAT12;
 891              		.loc 1 2111 0
 892 01b6 0125     		mov	r5, #1
 893              		.loc 1 2112 0
 894 01b8 9842     		cmp	r0, r3
 895 01ba 04D9     		bls	.L80
 896              	.LVL102:
2113:.\sd/ff.c     **** 	if (nclst >= MIN_FAT32) fmt = FS_FAT32;
 897              		.loc 1 2113 0
 898 01bc 604D     		ldr	r5, .L119+8
2112:.\sd/ff.c     **** 	if (nclst >= MIN_FAT32) fmt = FS_FAT32;
 899              		.loc 1 2112 0
 900 01be 8542     		cmp	r5, r0
 901 01c0 AD41     		sbc	r5, r5, r5
 902 01c2 6D42     		neg	r5, r5
 903 01c4 0235     		add	r5, r5, #2
 904              	.LVL103:
 905              	.L80:
2114:.\sd/ff.c     **** 
2115:.\sd/ff.c     **** 	/* Boundaries and Limits */
2116:.\sd/ff.c     **** 	fs->n_fatent = nclst + 2;							/* Number of FAT entries */
2117:.\sd/ff.c     **** 	fs->database = bsect + sysect;						/* Data start sector */
 906              		.loc 1 2117 0
 907 01c6 029B     		ldr	r3, [sp, #8]
2116:.\sd/ff.c     **** 	fs->database = bsect + sysect;						/* Data start sector */
ARM GAS  C:\Users\Jarik\AppData\Local\Temp\ccASvTaK.s 			page 55


 908              		.loc 1 2116 0
 909 01c8 0230     		add	r0, r0, #2
 910              	.LVL104:
 911              		.loc 1 2117 0
 912 01ca 9B19     		add	r3, r3, r6
 913 01cc A362     		str	r3, [r4, #40]
2118:.\sd/ff.c     **** 	fs->fatbase = bsect + nrsv; 						/* FAT start sector */
 914              		.loc 1 2118 0
 915 01ce 019B     		ldr	r3, [sp, #4]
2116:.\sd/ff.c     **** 	fs->database = bsect + sysect;						/* Data start sector */
 916              		.loc 1 2116 0
 917 01d0 A061     		str	r0, [r4, #24]
 918              		.loc 1 2118 0
 919 01d2 F318     		add	r3, r6, r3
 920 01d4 2362     		str	r3, [r4, #32]
2119:.\sd/ff.c     **** 	if (fmt == FS_FAT32) {
 921              		.loc 1 2119 0
 922 01d6 032D     		cmp	r5, #3
 923 01d8 17D1     		bne	.L81
 924              	.LVL105:
2120:.\sd/ff.c     **** 		if (fs->n_rootdir) return FR_NO_FILESYSTEM;		/* (BPB_RootEntCnt must be 0) */
 925              		.loc 1 2120 0
 926 01da 002F     		cmp	r7, #0
 927 01dc 00D0     		beq	.LCB945
 928 01de 52E7     		b	.L75	@long jump
 929              	.LCB945:
2121:.\sd/ff.c     **** 		fs->dirbase = LD_DWORD(fs->win+BPB_RootClus);	/* Root directory start cluster */
 930              		.loc 1 2121 0
 931 01e0 231C     		mov	r3, r4
 932 01e2 5F33     		add	r3, r3, #95
 933 01e4 1B78     		ldrb	r3, [r3]
2122:.\sd/ff.c     **** 		szbfat = fs->n_fatent * 4;						/* (Required FAT size) */
 934              		.loc 1 2122 0
 935 01e6 8000     		lsl	r0, r0, #2
 936              	.LVL106:
2121:.\sd/ff.c     **** 		fs->dirbase = LD_DWORD(fs->win+BPB_RootClus);	/* Root directory start cluster */
 937              		.loc 1 2121 0
 938 01e8 1A06     		lsl	r2, r3, #24
 939 01ea 231C     		mov	r3, r4
 940 01ec 5E33     		add	r3, r3, #94
 941 01ee 1B78     		ldrb	r3, [r3]
 942 01f0 1B04     		lsl	r3, r3, #16
 943 01f2 1343     		orr	r3, r2
 944 01f4 221C     		mov	r2, r4
 945 01f6 5C32     		add	r2, r2, #92
 946 01f8 1278     		ldrb	r2, [r2]
 947 01fa 1343     		orr	r3, r2
 948 01fc 221C     		mov	r2, r4
 949 01fe 5D32     		add	r2, r2, #93
 950 0200 1278     		ldrb	r2, [r2]
 951 0202 1202     		lsl	r2, r2, #8
 952 0204 1343     		orr	r3, r2
 953 0206 6362     		str	r3, [r4, #36]
 954 0208 0FE0     		b	.L82
 955              	.LVL107:
 956              	.L81:
2123:.\sd/ff.c     **** 	} else {
ARM GAS  C:\Users\Jarik\AppData\Local\Temp\ccASvTaK.s 			page 56


2124:.\sd/ff.c     **** 		if (!fs->n_rootdir)	return FR_NO_FILESYSTEM;	/* (BPB_RootEntCnt must not be 0) */
 957              		.loc 1 2124 0
 958 020a 002F     		cmp	r7, #0
 959 020c 00D1     		bne	.LCB977
 960 020e 3AE7     		b	.L75	@long jump
 961              	.LCB977:
2125:.\sd/ff.c     **** 		fs->dirbase = fs->fatbase + fasize;				/* Root directory start sector */
 962              		.loc 1 2125 0
 963 0210 039A     		ldr	r2, [sp, #12]
 964 0212 D318     		add	r3, r2, r3
 965 0214 6362     		str	r3, [r4, #36]
2126:.\sd/ff.c     **** 		szbfat = (fmt == FS_FAT16) ?					/* (Required FAT size) */
2127:.\sd/ff.c     **** 			fs->n_fatent * 2 : fs->n_fatent * 3 / 2 + (fs->n_fatent & 1);
 966              		.loc 1 2127 0
 967 0216 022D     		cmp	r5, #2
 968 0218 01D1     		bne	.L83
 969              		.loc 1 2127 0 is_stmt 0 discriminator 1
 970 021a 4000     		lsl	r0, r0, #1
 971              	.LVL108:
 972 021c 05E0     		b	.L82
 973              	.LVL109:
 974              	.L83:
 975              		.loc 1 2127 0 discriminator 2
 976 021e 0323     		mov	r3, #3
 977 0220 0122     		mov	r2, #1
 978 0222 4343     		mul	r3, r0
 979 0224 1040     		and	r0, r2
 980              	.LVL110:
 981 0226 5B08     		lsr	r3, r3, #1
 982 0228 1818     		add	r0, r3, r0
 983              	.LVL111:
 984              	.L82:
2128:.\sd/ff.c     **** 	}
2129:.\sd/ff.c     **** 	if (fs->fsize < (szbfat + (SS(fs) - 1)) / SS(fs))	/* (BPB_FATSz must not be less than required) */
 985              		.loc 1 2129 0 is_stmt 1
 986 022a 464B     		ldr	r3, .L119+12
 987 022c C018     		add	r0, r0, r3
 988              	.LVL112:
 989 022e 009B     		ldr	r3, [sp]
 990 0230 400A     		lsr	r0, r0, #9
 991              	.LVL113:
 992 0232 8342     		cmp	r3, r0
 993 0234 00D2     		bcs	.LCB1010
 994 0236 26E7     		b	.L75	@long jump
 995              	.LCB1010:
2130:.\sd/ff.c     **** 		return FR_NO_FILESYSTEM;
2131:.\sd/ff.c     **** 
2132:.\sd/ff.c     **** #if !_FS_READONLY
2133:.\sd/ff.c     **** 	/* Initialize cluster allocation information */
2134:.\sd/ff.c     **** 	fs->free_clust = 0xFFFFFFFF;
 996              		.loc 1 2134 0
 997 0238 0123     		mov	r3, #1
 998 023a 5B42     		neg	r3, r3
 999 023c 2361     		str	r3, [r4, #16]
2135:.\sd/ff.c     **** 	fs->last_clust = 0;
 1000              		.loc 1 2135 0
 1001 023e 0023     		mov	r3, #0
ARM GAS  C:\Users\Jarik\AppData\Local\Temp\ccASvTaK.s 			page 57


 1002 0240 E360     		str	r3, [r4, #12]
2136:.\sd/ff.c     **** 
2137:.\sd/ff.c     **** 	/* Get fsinfo if available */
2138:.\sd/ff.c     **** 	if (fmt == FS_FAT32) {
 1003              		.loc 1 2138 0
 1004 0242 032D     		cmp	r5, #3
 1005 0244 61D1     		bne	.L85
2139:.\sd/ff.c     **** 	 	fs->fsi_flag = 0;
 1006              		.loc 1 2139 0
 1007 0246 6371     		strb	r3, [r4, #5]
2140:.\sd/ff.c     **** 		fs->fsi_sector = bsect + LD_WORD(fs->win+BPB_FSInfo);
 1008              		.loc 1 2140 0
 1009 0248 231C     		mov	r3, r4
 1010 024a 6133     		add	r3, r3, #97
 1011 024c 1A78     		ldrb	r2, [r3]
 1012 024e 013B     		sub	r3, r3, #1
 1013 0250 1B78     		ldrb	r3, [r3]
 1014 0252 1202     		lsl	r2, r2, #8
 1015 0254 1A43     		orr	r2, r3
 1016 0256 B218     		add	r2, r6, r2
2141:.\sd/ff.c     **** 		if (disk_read(fs->drv, fs->win, fs->fsi_sector, 1) == RES_OK &&
 1017              		.loc 1 2141 0
 1018 0258 261C     		mov	r6, r4
 1019              	.LVL114:
 1020 025a 3036     		add	r6, r6, #48
2140:.\sd/ff.c     **** 		fs->fsi_sector = bsect + LD_WORD(fs->win+BPB_FSInfo);
 1021              		.loc 1 2140 0
 1022 025c 6261     		str	r2, [r4, #20]
 1023              		.loc 1 2141 0
 1024 025e 6078     		ldrb	r0, [r4, #1]
 1025 0260 311C     		mov	r1, r6
 1026 0262 0123     		mov	r3, #1
 1027 0264 FFF7FEFF 		bl	disk_read
 1028              	.LVL115:
 1029 0268 0028     		cmp	r0, #0
 1030 026a 4ED1     		bne	.L85
2142:.\sd/ff.c     **** 			LD_WORD(fs->win+BS_55AA) == 0xAA55 &&
 1031              		.loc 1 2142 0 discriminator 1
 1032 026c 364B     		ldr	r3, .L119+16
 1033 026e 374A     		ldr	r2, .L119+20
 1034 0270 E35C     		ldrb	r3, [r4, r3]
 1035 0272 A25C     		ldrb	r2, [r4, r2]
 1036 0274 1B02     		lsl	r3, r3, #8
 1037 0276 1343     		orr	r3, r2
2141:.\sd/ff.c     **** 		if (disk_read(fs->drv, fs->win, fs->fsi_sector, 1) == RES_OK &&
 1038              		.loc 1 2141 0 discriminator 1
 1039 0278 354A     		ldr	r2, .L119+24
 1040 027a 1BB2     		sxth	r3, r3
 1041 027c 9342     		cmp	r3, r2
 1042 027e 44D1     		bne	.L85
2143:.\sd/ff.c     **** 			LD_DWORD(fs->win+FSI_LeadSig) == 0x41615252 &&
 1043              		.loc 1 2143 0
 1044 0280 231C     		mov	r3, r4
 1045 0282 3333     		add	r3, r3, #51
 1046 0284 1B78     		ldrb	r3, [r3]
 1047 0286 1A06     		lsl	r2, r3, #24
 1048 0288 231C     		mov	r3, r4
ARM GAS  C:\Users\Jarik\AppData\Local\Temp\ccASvTaK.s 			page 58


 1049 028a 3233     		add	r3, r3, #50
 1050 028c 1B78     		ldrb	r3, [r3]
 1051 028e 1B04     		lsl	r3, r3, #16
 1052 0290 1343     		orr	r3, r2
 1053 0292 3278     		ldrb	r2, [r6]
 1054 0294 1343     		orr	r3, r2
 1055 0296 221C     		mov	r2, r4
 1056 0298 3132     		add	r2, r2, #49
 1057 029a 1278     		ldrb	r2, [r2]
 1058 029c 1202     		lsl	r2, r2, #8
 1059 029e 1343     		orr	r3, r2
2142:.\sd/ff.c     **** 			LD_WORD(fs->win+BS_55AA) == 0xAA55 &&
 1060              		.loc 1 2142 0
 1061 02a0 2C4A     		ldr	r2, .L119+28
 1062 02a2 9342     		cmp	r3, r2
 1063 02a4 31D1     		bne	.L85
2144:.\sd/ff.c     **** 			LD_DWORD(fs->win+FSI_StrucSig) == 0x61417272) {
 1064              		.loc 1 2144 0
 1065 02a6 2C4B     		ldr	r3, .L119+32
 1066 02a8 E35C     		ldrb	r3, [r4, r3]
 1067 02aa 1A06     		lsl	r2, r3, #24
 1068 02ac 2B4B     		ldr	r3, .L119+36
 1069 02ae E35C     		ldrb	r3, [r4, r3]
 1070 02b0 1B04     		lsl	r3, r3, #16
 1071 02b2 1343     		orr	r3, r2
 1072 02b4 8522     		mov	r2, #133
 1073 02b6 9200     		lsl	r2, r2, #2
 1074 02b8 A25C     		ldrb	r2, [r4, r2]
 1075 02ba 1343     		orr	r3, r2
 1076 02bc 284A     		ldr	r2, .L119+40
 1077 02be A25C     		ldrb	r2, [r4, r2]
 1078 02c0 1202     		lsl	r2, r2, #8
 1079 02c2 1343     		orr	r3, r2
2143:.\sd/ff.c     **** 			LD_DWORD(fs->win+FSI_LeadSig) == 0x41615252 &&
 1080              		.loc 1 2143 0
 1081 02c4 274A     		ldr	r2, .L119+44
 1082 02c6 9342     		cmp	r3, r2
 1083 02c8 1FD1     		bne	.L85
2145:.\sd/ff.c     **** 				fs->last_clust = LD_DWORD(fs->win+FSI_Nxt_Free);
 1084              		.loc 1 2145 0
 1085 02ca 274B     		ldr	r3, .L119+48
 1086 02cc E35C     		ldrb	r3, [r4, r3]
 1087 02ce 1A06     		lsl	r2, r3, #24
 1088 02d0 264B     		ldr	r3, .L119+52
 1089 02d2 E35C     		ldrb	r3, [r4, r3]
 1090 02d4 1B04     		lsl	r3, r3, #16
 1091 02d6 1343     		orr	r3, r2
 1092 02d8 8722     		mov	r2, #135
 1093 02da 9200     		lsl	r2, r2, #2
 1094 02dc A25C     		ldrb	r2, [r4, r2]
 1095 02de 1343     		orr	r3, r2
 1096 02e0 234A     		ldr	r2, .L119+56
 1097 02e2 A25C     		ldrb	r2, [r4, r2]
 1098 02e4 1202     		lsl	r2, r2, #8
 1099 02e6 1343     		orr	r3, r2
 1100 02e8 E360     		str	r3, [r4, #12]
2146:.\sd/ff.c     **** 				fs->free_clust = LD_DWORD(fs->win+FSI_Free_Count);
ARM GAS  C:\Users\Jarik\AppData\Local\Temp\ccASvTaK.s 			page 59


 1101              		.loc 1 2146 0
 1102 02ea 224B     		ldr	r3, .L119+60
 1103 02ec E35C     		ldrb	r3, [r4, r3]
 1104 02ee 1A06     		lsl	r2, r3, #24
 1105 02f0 214B     		ldr	r3, .L119+64
 1106 02f2 E35C     		ldrb	r3, [r4, r3]
 1107 02f4 1B04     		lsl	r3, r3, #16
 1108 02f6 1343     		orr	r3, r2
 1109 02f8 8622     		mov	r2, #134
 1110 02fa 9200     		lsl	r2, r2, #2
 1111 02fc A25C     		ldrb	r2, [r4, r2]
 1112 02fe 1343     		orr	r3, r2
 1113 0300 1E4A     		ldr	r2, .L119+68
 1114 0302 A25C     		ldrb	r2, [r4, r2]
 1115 0304 1202     		lsl	r2, r2, #8
 1116 0306 1343     		orr	r3, r2
 1117 0308 2361     		str	r3, [r4, #16]
 1118              	.L85:
2147:.\sd/ff.c     **** 		}
2148:.\sd/ff.c     **** 	}
2149:.\sd/ff.c     **** #endif
2150:.\sd/ff.c     **** 	fs->fs_type = fmt;		/* FAT sub-type */
2151:.\sd/ff.c     **** 	fs->id = ++Fsid;		/* File system mount ID */
 1119              		.loc 1 2151 0
 1120 030a 0B4A     		ldr	r2, .L119
2150:.\sd/ff.c     **** 	fs->id = ++Fsid;		/* File system mount ID */
 1121              		.loc 1 2150 0
 1122 030c 2570     		strb	r5, [r4]
 1123              		.loc 1 2151 0
 1124 030e 138D     		ldrh	r3, [r2, #40]
 1125 0310 0133     		add	r3, r3, #1
 1126 0312 9BB2     		uxth	r3, r3
 1127 0314 1385     		strh	r3, [r2, #40]
 1128 0316 E380     		strh	r3, [r4, #6]
2152:.\sd/ff.c     **** 	fs->winsect = 0;		/* Invalidate sector cache */
 1129              		.loc 1 2152 0
 1130 0318 0023     		mov	r3, #0
 1131 031a E362     		str	r3, [r4, #44]
2153:.\sd/ff.c     **** 	fs->wflag = 0;
 1132              		.loc 1 2153 0
 1133 031c 2371     		strb	r3, [r4, #4]
 1134              	.LVL116:
 1135              	.L88:
 1136              	.LBB9:
 1137              	.LBB10:
 707:.\sd/ff.c     **** 	}
 1138              		.loc 1 707 0
 1139 031e D158     		ldr	r1, [r2, r3]
 1140 0320 A142     		cmp	r1, r4
 1141 0322 01D1     		bne	.L87
 1142 0324 0021     		mov	r1, #0
 1143 0326 D150     		str	r1, [r2, r3]
 1144              	.L87:
 1145 0328 0C33     		add	r3, r3, #12
 706:.\sd/ff.c     **** 		if (Files[i].fs == fs) Files[i].fs = 0;
 1146              		.loc 1 706 0
 1147 032a 242B     		cmp	r3, #36
ARM GAS  C:\Users\Jarik\AppData\Local\Temp\ccASvTaK.s 			page 60


 1148 032c F7D1     		bne	.L88
 1149              	.LBE10:
 1150              	.LBE9:
2154:.\sd/ff.c     **** #if _FS_RPATH
2155:.\sd/ff.c     **** 	fs->cdir = 0;			/* Current directory (root dir) */
2156:.\sd/ff.c     **** #endif
2157:.\sd/ff.c     **** #if _FS_SHARE				/* Clear file lock semaphores */
2158:.\sd/ff.c     **** 	clear_lock(fs);
2159:.\sd/ff.c     **** #endif
2160:.\sd/ff.c     **** 
2161:.\sd/ff.c     **** 	return FR_OK;
 1151              		.loc 1 2161 0
 1152 032e 0023     		mov	r3, #0
 1153              	.LVL117:
 1154              	.L67:
2162:.\sd/ff.c     **** }
 1155              		.loc 1 2162 0
 1156 0330 181C     		mov	r0, r3
 1157 0332 05B0     		add	sp, sp, #20
 1158              		@ sp needed
 1159 0334 F0BD     		pop	{r4, r5, r6, r7, pc}
 1160              	.L120:
 1161 0336 C046     		.align	2
 1162              	.L119:
 1163 0338 00000000 		.word	.LANCHOR0
 1164 033c F50F0000 		.word	4085
 1165 0340 F5FF0000 		.word	65525
 1166 0344 FF010000 		.word	511
 1167 0348 2F020000 		.word	559
 1168 034c 2E020000 		.word	558
 1169 0350 55AAFFFF 		.word	-21931
 1170 0354 52526141 		.word	1096897106
 1171 0358 17020000 		.word	535
 1172 035c 16020000 		.word	534
 1173 0360 15020000 		.word	533
 1174 0364 72724161 		.word	1631679090
 1175 0368 1F020000 		.word	543
 1176 036c 1E020000 		.word	542
 1177 0370 1D020000 		.word	541
 1178 0374 1B020000 		.word	539
 1179 0378 1A020000 		.word	538
 1180 037c 19020000 		.word	537
 1181              		.cfi_endproc
 1182              	.LFE26:
 1183              		.size	chk_mounted, .-chk_mounted
 1184              		.section	.text.validate,"ax",%progbits
 1185              		.align	1
 1186              		.code	16
 1187              		.thumb_func
 1188              		.type	validate, %function
 1189              	validate:
 1190              	.LFB27:
2163:.\sd/ff.c     **** 
2164:.\sd/ff.c     **** 
2165:.\sd/ff.c     **** 
2166:.\sd/ff.c     **** 
2167:.\sd/ff.c     **** /*-----------------------------------------------------------------------*/
ARM GAS  C:\Users\Jarik\AppData\Local\Temp\ccASvTaK.s 			page 61


2168:.\sd/ff.c     **** /* Check if the file/dir object is valid or not                          */
2169:.\sd/ff.c     **** /*-----------------------------------------------------------------------*/
2170:.\sd/ff.c     **** 
2171:.\sd/ff.c     **** static
2172:.\sd/ff.c     **** FRESULT validate (	/* FR_OK(0): The object is valid, !=0: Invalid */
2173:.\sd/ff.c     **** 	FATFS *fs,		/* Pointer to the file system object */
2174:.\sd/ff.c     **** 	WORD id			/* Member id of the target object to be checked */
2175:.\sd/ff.c     **** )
2176:.\sd/ff.c     **** {
 1191              		.loc 1 2176 0
 1192              		.cfi_startproc
 1193              	.LVL118:
 1194 0000 08B5     		push	{r3, lr}
 1195              		.cfi_def_cfa_offset 8
 1196              		.cfi_offset 3, -8
 1197              		.cfi_offset 14, -4
2177:.\sd/ff.c     **** 	if (!fs || !fs->fs_type || fs->id != id)
2178:.\sd/ff.c     **** 		return FR_INVALID_OBJECT;
 1198              		.loc 1 2178 0
 1199 0002 0923     		mov	r3, #9
2177:.\sd/ff.c     **** 	if (!fs || !fs->fs_type || fs->id != id)
 1200              		.loc 1 2177 0
 1201 0004 0028     		cmp	r0, #0
 1202 0006 0CD0     		beq	.L122
2177:.\sd/ff.c     **** 	if (!fs || !fs->fs_type || fs->id != id)
 1203              		.loc 1 2177 0 is_stmt 0 discriminator 1
 1204 0008 0278     		ldrb	r2, [r0]
 1205 000a 002A     		cmp	r2, #0
 1206 000c 09D0     		beq	.L122
2177:.\sd/ff.c     **** 	if (!fs || !fs->fs_type || fs->id != id)
 1207              		.loc 1 2177 0 discriminator 2
 1208 000e C288     		ldrh	r2, [r0, #6]
 1209 0010 8A42     		cmp	r2, r1
 1210 0012 06D1     		bne	.L122
 1211              	.LVL119:
 1212              	.LBB13:
 1213              	.LBB14:
2179:.\sd/ff.c     **** 
2180:.\sd/ff.c     **** 	ENTER_FF(fs);		/* Lock file system */
2181:.\sd/ff.c     **** 
2182:.\sd/ff.c     **** 	if (disk_status(fs->drv) & STA_NOINIT)
 1214              		.loc 1 2182 0 is_stmt 1
 1215 0014 4078     		ldrb	r0, [r0, #1]
 1216              	.LVL120:
 1217 0016 FFF7FEFF 		bl	disk_status
 1218              	.LVL121:
2183:.\sd/ff.c     **** 		return FR_NOT_READY;
 1219              		.loc 1 2183 0
 1220 001a 0323     		mov	r3, #3
2184:.\sd/ff.c     **** 
2185:.\sd/ff.c     **** 	return FR_OK;
 1221              		.loc 1 2185 0
 1222 001c C007     		lsl	r0, r0, #31
 1223 001e C017     		asr	r0, r0, #31
 1224 0020 0340     		and	r3, r0
 1225              	.LVL122:
 1226              	.L122:
ARM GAS  C:\Users\Jarik\AppData\Local\Temp\ccASvTaK.s 			page 62


 1227              	.LBE14:
 1228              	.LBE13:
2186:.\sd/ff.c     **** }
 1229              		.loc 1 2186 0
 1230 0022 181C     		mov	r0, r3
 1231              		@ sp needed
 1232 0024 08BD     		pop	{r3, pc}
 1233              		.cfi_endproc
 1234              	.LFE27:
 1235              		.size	validate, .-validate
 1236              		.section	.text.sync,"ax",%progbits
 1237              		.align	1
 1238              		.code	16
 1239              		.thumb_func
 1240              		.type	sync, %function
 1241              	sync:
 1242              	.LFB10:
 764:.\sd/ff.c     **** 	FRESULT res;
 1243              		.loc 1 764 0
 1244              		.cfi_startproc
 1245              	.LVL123:
 1246 0000 38B5     		push	{r3, r4, r5, lr}
 1247              		.cfi_def_cfa_offset 16
 1248              		.cfi_offset 3, -16
 1249              		.cfi_offset 4, -12
 1250              		.cfi_offset 5, -8
 1251              		.cfi_offset 14, -4
 768:.\sd/ff.c     **** 	if (res == FR_OK) {
 1252              		.loc 1 768 0
 1253 0002 0021     		mov	r1, #0
 764:.\sd/ff.c     **** 	FRESULT res;
 1254              		.loc 1 764 0
 1255 0004 041C     		mov	r4, r0
 768:.\sd/ff.c     **** 	if (res == FR_OK) {
 1256              		.loc 1 768 0
 1257 0006 FFF7FEFF 		bl	move_window
 1258              	.LVL124:
 1259 000a 031E     		sub	r3, r0, #0
 1260              	.LVL125:
 769:.\sd/ff.c     **** 		/* Update FSInfo sector if needed */
 1261              		.loc 1 769 0
 1262 000c 56D1     		bne	.L129
 771:.\sd/ff.c     **** 			fs->winsect = 0;
 1263              		.loc 1 771 0
 1264 000e 2278     		ldrb	r2, [r4]
 1265 0010 032A     		cmp	r2, #3
 1266 0012 4BD1     		bne	.L130
 771:.\sd/ff.c     **** 			fs->winsect = 0;
 1267              		.loc 1 771 0 is_stmt 0 discriminator 1
 1268 0014 6279     		ldrb	r2, [r4, #5]
 1269 0016 002A     		cmp	r2, #0
 1270 0018 48D0     		beq	.L130
 774:.\sd/ff.c     **** 			ST_WORD(fs->win+BS_55AA, 0xAA55);
 1271              		.loc 1 774 0 is_stmt 1
 1272 001a 211C     		mov	r1, r4
 1273 001c 8C22     		mov	r2, #140
 1274 001e 3031     		add	r1, r1, #48
ARM GAS  C:\Users\Jarik\AppData\Local\Temp\ccASvTaK.s 			page 63


 1275              	.LVL126:
 772:.\sd/ff.c     **** 			/* Create FSInfo structure */
 1276              		.loc 1 772 0
 1277 0020 E362     		str	r3, [r4, #44]
 1278 0022 0B1C     		mov	r3, r1
 1279              	.LVL127:
 1280 0024 9200     		lsl	r2, r2, #2
 1281 0026 A218     		add	r2, r4, r2
 1282              	.LVL128:
 1283              	.L131:
 1284              	.LBB17:
 1285              	.LBB18:
 549:.\sd/ff.c     **** 		*d++ = (BYTE)val;
 1286              		.loc 1 549 0
 1287 0028 9342     		cmp	r3, r2
 1288 002a 03D0     		beq	.L136
 1289              	.LVL129:
 550:.\sd/ff.c     **** }
 1290              		.loc 1 550 0
 1291 002c 0020     		mov	r0, #0
 1292 002e 1870     		strb	r0, [r3]
 1293 0030 0133     		add	r3, r3, #1
 1294              	.LVL130:
 1295 0032 F9E7     		b	.L131
 1296              	.LVL131:
 1297              	.L136:
 1298              	.LBE18:
 1299              	.LBE17:
 775:.\sd/ff.c     **** 			ST_DWORD(fs->win+FSI_LeadSig, 0x41615252);
 1300              		.loc 1 775 0
 1301 0034 5522     		mov	r2, #85
 1302 0036 224B     		ldr	r3, .L137
 1303              	.LVL132:
 776:.\sd/ff.c     **** 			ST_DWORD(fs->win+FSI_StrucSig, 0x61417272);
 1304              		.loc 1 776 0
 1305 0038 4120     		mov	r0, #65
 775:.\sd/ff.c     **** 			ST_DWORD(fs->win+FSI_LeadSig, 0x41615252);
 1306              		.loc 1 775 0
 1307 003a E254     		strb	r2, [r4, r3]
 1308 003c 214B     		ldr	r3, .L137+4
 1309 003e 9218     		add	r2, r2, r2
 1310 0040 E254     		strb	r2, [r4, r3]
 776:.\sd/ff.c     **** 			ST_DWORD(fs->win+FSI_StrucSig, 0x61417272);
 1311              		.loc 1 776 0
 1312 0042 221C     		mov	r2, r4
 1313 0044 DE3B     		sub	r3, r3, #222
 1314 0046 FF3B     		sub	r3, r3, #255
 1315 0048 3132     		add	r2, r2, #49
 1316 004a 0B70     		strb	r3, [r1]
 1317 004c 1370     		strb	r3, [r2]
 1318 004e 231C     		mov	r3, r4
 1319 0050 6122     		mov	r2, #97
 1320 0052 3233     		add	r3, r3, #50
 777:.\sd/ff.c     **** 			ST_DWORD(fs->win+FSI_Free_Count, fs->free_clust);
 1321              		.loc 1 777 0
 1322 0054 8525     		mov	r5, #133
 776:.\sd/ff.c     **** 			ST_DWORD(fs->win+FSI_StrucSig, 0x61417272);
ARM GAS  C:\Users\Jarik\AppData\Local\Temp\ccASvTaK.s 			page 64


 1323              		.loc 1 776 0
 1324 0056 1A70     		strb	r2, [r3]
 1325 0058 5870     		strb	r0, [r3, #1]
 777:.\sd/ff.c     **** 			ST_DWORD(fs->win+FSI_Free_Count, fs->free_clust);
 1326              		.loc 1 777 0
 1327 005a 7223     		mov	r3, #114
 1328 005c AD00     		lsl	r5, r5, #2
 1329 005e 6355     		strb	r3, [r4, r5]
 1330 0060 194D     		ldr	r5, .L137+8
 1331 0062 6355     		strb	r3, [r4, r5]
 1332 0064 194B     		ldr	r3, .L137+12
 1333 0066 E054     		strb	r0, [r4, r3]
 1334 0068 194B     		ldr	r3, .L137+16
 1335 006a E254     		strb	r2, [r4, r3]
 778:.\sd/ff.c     **** 			ST_DWORD(fs->win+FSI_Nxt_Free, fs->last_clust);
 1336              		.loc 1 778 0
 1337 006c 2369     		ldr	r3, [r4, #16]
 1338 006e B832     		add	r2, r2, #184
 1339 0070 FF32     		add	r2, r2, #255
 1340 0072 A354     		strb	r3, [r4, r2]
 1341 0074 174A     		ldr	r2, .L137+20
 1342 0076 180A     		lsr	r0, r3, #8
 1343 0078 A054     		strb	r0, [r4, r2]
 1344 007a 174A     		ldr	r2, .L137+24
 1345 007c 180C     		lsr	r0, r3, #16
 1346 007e A054     		strb	r0, [r4, r2]
 1347 0080 164A     		ldr	r2, .L137+28
 1348 0082 1B0E     		lsr	r3, r3, #24
 1349 0084 A354     		strb	r3, [r4, r2]
 779:.\sd/ff.c     **** 			/* Write it into the FSInfo sector */
 1350              		.loc 1 779 0
 1351 0086 E368     		ldr	r3, [r4, #12]
 1352 0088 0132     		add	r2, r2, #1
 1353 008a A354     		strb	r3, [r4, r2]
 1354 008c 144A     		ldr	r2, .L137+32
 1355 008e 180A     		lsr	r0, r3, #8
 1356 0090 A054     		strb	r0, [r4, r2]
 1357 0092 144A     		ldr	r2, .L137+36
 1358 0094 180C     		lsr	r0, r3, #16
 1359 0096 A054     		strb	r0, [r4, r2]
 1360 0098 134A     		ldr	r2, .L137+40
 1361 009a 1B0E     		lsr	r3, r3, #24
 1362 009c A354     		strb	r3, [r4, r2]
 781:.\sd/ff.c     **** 			fs->fsi_flag = 0;
 1363              		.loc 1 781 0
 1364 009e 6078     		ldrb	r0, [r4, #1]
 1365 00a0 0123     		mov	r3, #1
 1366 00a2 6269     		ldr	r2, [r4, #20]
 1367 00a4 FFF7FEFF 		bl	disk_write
 1368              	.LVL133:
 782:.\sd/ff.c     **** 		}
 1369              		.loc 1 782 0
 1370 00a8 0023     		mov	r3, #0
 1371 00aa 6371     		strb	r3, [r4, #5]
 1372              	.LVL134:
 1373              	.L130:
 785:.\sd/ff.c     **** 			res = FR_DISK_ERR;
ARM GAS  C:\Users\Jarik\AppData\Local\Temp\ccASvTaK.s 			page 65


 1374              		.loc 1 785 0
 1375 00ac 0021     		mov	r1, #0
 1376 00ae 6078     		ldrb	r0, [r4, #1]
 1377 00b0 0A1C     		mov	r2, r1
 1378 00b2 FFF7FEFF 		bl	disk_ioctl
 1379              	.LVL135:
 1380 00b6 431E     		sub	r3, r0, #1
 1381 00b8 9841     		sbc	r0, r0, r3
 1382 00ba C0B2     		uxtb	r0, r0
 1383              	.L129:
 1384              	.LVL136:
 790:.\sd/ff.c     **** #endif
 1385              		.loc 1 790 0
 1386              		@ sp needed
 1387              	.LVL137:
 1388 00bc 38BD     		pop	{r3, r4, r5, pc}
 1389              	.L138:
 1390 00be C046     		.align	2
 1391              	.L137:
 1392 00c0 2E020000 		.word	558
 1393 00c4 2F020000 		.word	559
 1394 00c8 15020000 		.word	533
 1395 00cc 16020000 		.word	534
 1396 00d0 17020000 		.word	535
 1397 00d4 19020000 		.word	537
 1398 00d8 1A020000 		.word	538
 1399 00dc 1B020000 		.word	539
 1400 00e0 1D020000 		.word	541
 1401 00e4 1E020000 		.word	542
 1402 00e8 1F020000 		.word	543
 1403              		.cfi_endproc
 1404              	.LFE10:
 1405              		.size	sync, .-sync
 1406              		.section	.text.clust2sect,"ax",%progbits
 1407              		.align	1
 1408              		.global	clust2sect
 1409              		.code	16
 1410              		.thumb_func
 1411              		.type	clust2sect, %function
 1412              	clust2sect:
 1413              	.LFB11:
 805:.\sd/ff.c     **** 	clst -= 2;
 1414              		.loc 1 805 0
 1415              		.cfi_startproc
 1416              	.LVL138:
 807:.\sd/ff.c     **** 	return clst * fs->csize + fs->database;
 1417              		.loc 1 807 0
 1418 0000 8369     		ldr	r3, [r0, #24]
 806:.\sd/ff.c     **** 	if (clst >= (fs->n_fatent - 2)) return 0;		/* Invalid cluster# */
 1419              		.loc 1 806 0
 1420 0002 0239     		sub	r1, r1, #2
 1421              	.LVL139:
 807:.\sd/ff.c     **** 	return clst * fs->csize + fs->database;
 1422              		.loc 1 807 0
 1423 0004 9A1E     		sub	r2, r3, #2
 1424 0006 0023     		mov	r3, #0
 1425 0008 9142     		cmp	r1, r2
ARM GAS  C:\Users\Jarik\AppData\Local\Temp\ccASvTaK.s 			page 66


 1426 000a 03D2     		bcs	.L140
 808:.\sd/ff.c     **** }
 1427              		.loc 1 808 0
 1428 000c 8378     		ldrb	r3, [r0, #2]
 1429 000e 826A     		ldr	r2, [r0, #40]
 1430 0010 5943     		mul	r1, r3
 1431              	.LVL140:
 1432 0012 8B18     		add	r3, r1, r2
 1433              	.L140:
 809:.\sd/ff.c     **** 
 1434              		.loc 1 809 0
 1435 0014 181C     		mov	r0, r3
 1436              	.LVL141:
 1437              		@ sp needed
 1438 0016 7047     		bx	lr
 1439              		.cfi_endproc
 1440              	.LFE11:
 1441              		.size	clust2sect, .-clust2sect
 1442              		.section	.text.get_fat,"ax",%progbits
 1443              		.align	1
 1444              		.global	get_fat
 1445              		.code	16
 1446              		.thumb_func
 1447              		.type	get_fat, %function
 1448              	get_fat:
 1449              	.LFB12:
 823:.\sd/ff.c     **** 	UINT wc, bc;
 1450              		.loc 1 823 0
 1451              		.cfi_startproc
 1452              	.LVL142:
 1453 0000 F7B5     		push	{r0, r1, r2, r4, r5, r6, r7, lr}
 1454              		.cfi_def_cfa_offset 32
 1455              		.cfi_offset 0, -32
 1456              		.cfi_offset 1, -28
 1457              		.cfi_offset 2, -24
 1458              		.cfi_offset 4, -20
 1459              		.cfi_offset 5, -16
 1460              		.cfi_offset 6, -12
 1461              		.cfi_offset 7, -8
 1462              		.cfi_offset 14, -4
 829:.\sd/ff.c     **** 
 1463              		.loc 1 829 0
 1464 0002 0124     		mov	r4, #1
 828:.\sd/ff.c     **** 		return 1;
 1465              		.loc 1 828 0
 1466 0004 A142     		cmp	r1, r4
 1467 0006 65D9     		bls	.L143
 828:.\sd/ff.c     **** 		return 1;
 1468              		.loc 1 828 0 is_stmt 0 discriminator 1
 1469 0008 8369     		ldr	r3, [r0, #24]
 1470 000a 9942     		cmp	r1, r3
 1471 000c 62D2     		bcs	.L143
 1472              	.LBB21:
 1473              	.LBB22:
 831:.\sd/ff.c     **** 	case FS_FAT12 :
 1474              		.loc 1 831 0 is_stmt 1
 1475 000e 0378     		ldrb	r3, [r0]
ARM GAS  C:\Users\Jarik\AppData\Local\Temp\ccASvTaK.s 			page 67


 1476 0010 0F1C     		mov	r7, r1
 1477 0012 051C     		mov	r5, r0
 1478              	.LVL143:
 1479 0014 022B     		cmp	r3, #2
 1480 0016 2AD0     		beq	.L144
 1481 0018 032B     		cmp	r3, #3
 1482 001a 3CD0     		beq	.L145
 1483 001c A342     		cmp	r3, r4
 1484 001e 57D1     		bne	.L153
 1485              	.LVL144:
 833:.\sd/ff.c     **** 		if (move_window(fs, fs->fatbase + (bc / SS(fs)))) break;
 1486              		.loc 1 833 0
 1487 0020 4E08     		lsr	r6, r1, #1
 1488 0022 7618     		add	r6, r6, r1
 1489              	.LVL145:
 834:.\sd/ff.c     **** 		wc = fs->win[bc % SS(fs)]; bc++;
 1490              		.loc 1 834 0
 1491 0024 036A     		ldr	r3, [r0, #32]
 1492 0026 710A     		lsr	r1, r6, #9
 1493              	.LVL146:
 1494 0028 C918     		add	r1, r1, r3
 1495 002a FFF7FEFF 		bl	move_window
 1496              	.LVL147:
 1497 002e 0028     		cmp	r0, #0
 1498 0030 4ED1     		bne	.L153
 835:.\sd/ff.c     **** 		if (move_window(fs, fs->fatbase + (bc / SS(fs)))) break;
 1499              		.loc 1 835 0
 1500 0032 F305     		lsl	r3, r6, #23
 1501 0034 DB0D     		lsr	r3, r3, #23
 1502 0036 EB18     		add	r3, r5, r3
 1503 0038 3033     		add	r3, r3, #48
 1504 003a 1B78     		ldrb	r3, [r3]
 1505 003c 0136     		add	r6, r6, #1
 1506              	.LVL148:
 1507 003e 0193     		str	r3, [sp, #4]
 1508              	.LVL149:
 836:.\sd/ff.c     **** 		wc |= fs->win[bc % SS(fs)] << 8;
 1509              		.loc 1 836 0
 1510 0040 2B6A     		ldr	r3, [r5, #32]
 1511 0042 710A     		lsr	r1, r6, #9
 1512 0044 C918     		add	r1, r1, r3
 1513 0046 281C     		mov	r0, r5
 1514 0048 FFF7FEFF 		bl	move_window
 1515              	.LVL150:
 1516 004c 0028     		cmp	r0, #0
 1517 004e 3FD1     		bne	.L153
 837:.\sd/ff.c     **** 		return (clst & 1) ? (wc >> 4) : (wc & 0xFFF);
 1518              		.loc 1 837 0
 1519 0050 F605     		lsl	r6, r6, #23
 1520              	.LVL151:
 1521 0052 F60D     		lsr	r6, r6, #23
 1522 0054 AD19     		add	r5, r5, r6
 1523              	.LVL152:
 1524 0056 3035     		add	r5, r5, #48
 1525 0058 2B78     		ldrb	r3, [r5]
 1526 005a 019A     		ldr	r2, [sp, #4]
 1527 005c 1B02     		lsl	r3, r3, #8
ARM GAS  C:\Users\Jarik\AppData\Local\Temp\ccASvTaK.s 			page 68


 1528 005e 1343     		orr	r3, r2
 1529              	.LVL153:
 838:.\sd/ff.c     **** 
 1530              		.loc 1 838 0
 1531 0060 2742     		tst	r7, r4
 1532 0062 01D0     		beq	.L149
 1533 0064 1C09     		lsr	r4, r3, #4
 1534 0066 35E0     		b	.L143
 1535              	.L149:
 1536 0068 1C05     		lsl	r4, r3, #20
 1537 006a 240D     		lsr	r4, r4, #20
 1538 006c 32E0     		b	.L143
 1539              	.LVL154:
 1540              	.L144:
 841:.\sd/ff.c     **** 		p = &fs->win[clst * 2 % SS(fs)];
 1541              		.loc 1 841 0
 1542 006e 036A     		ldr	r3, [r0, #32]
 1543 0070 090A     		lsr	r1, r1, #8
 1544              	.LVL155:
 1545 0072 C918     		add	r1, r1, r3
 1546 0074 FFF7FEFF 		bl	move_window
 1547              	.LVL156:
 1548 0078 0028     		cmp	r0, #0
 1549 007a 29D1     		bne	.L153
 842:.\sd/ff.c     **** 		return LD_WORD(p);
 1550              		.loc 1 842 0
 1551 007c FF23     		mov	r3, #255
 1552 007e 7F00     		lsl	r7, r7, #1
 1553              	.LVL157:
 1554 0080 5B00     		lsl	r3, r3, #1
 1555 0082 1F40     		and	r7, r3
 1556              	.LVL158:
 843:.\sd/ff.c     **** 
 1557              		.loc 1 843 0
 1558 0084 EB19     		add	r3, r5, r7
 842:.\sd/ff.c     **** 		return LD_WORD(p);
 1559              		.loc 1 842 0
 1560 0086 3037     		add	r7, r7, #48
 1561              	.LVL159:
 843:.\sd/ff.c     **** 
 1562              		.loc 1 843 0
 1563 0088 ED19     		add	r5, r5, r7
 1564              	.LVL160:
 1565 008a 3033     		add	r3, r3, #48
 1566              	.LVL161:
 1567 008c 6C78     		ldrb	r4, [r5, #1]
 1568 008e 1B78     		ldrb	r3, [r3]
 1569              	.LVL162:
 1570 0090 2402     		lsl	r4, r4, #8
 1571 0092 1C43     		orr	r4, r3
 1572 0094 1EE0     		b	.L143
 1573              	.LVL163:
 1574              	.L145:
 846:.\sd/ff.c     **** 		p = &fs->win[clst * 4 % SS(fs)];
 1575              		.loc 1 846 0
 1576 0096 036A     		ldr	r3, [r0, #32]
 1577 0098 C909     		lsr	r1, r1, #7
ARM GAS  C:\Users\Jarik\AppData\Local\Temp\ccASvTaK.s 			page 69


 1578              	.LVL164:
 1579 009a C918     		add	r1, r1, r3
 1580 009c FFF7FEFF 		bl	move_window
 1581              	.LVL165:
 1582 00a0 0028     		cmp	r0, #0
 1583 00a2 15D1     		bne	.L153
 847:.\sd/ff.c     **** 		return LD_DWORD(p) & 0x0FFFFFFF;
 1584              		.loc 1 847 0
 1585 00a4 FD30     		add	r0, r0, #253
 1586 00a6 BF00     		lsl	r7, r7, #2
 1587              	.LVL166:
 1588 00a8 FF30     		add	r0, r0, #255
 1589 00aa 0740     		and	r7, r0
 1590 00ac 3A1C     		mov	r2, r7
 1591 00ae 3032     		add	r2, r2, #48
 1592 00b0 AA18     		add	r2, r5, r2
 1593              	.LVL167:
 848:.\sd/ff.c     **** 	}
 1594              		.loc 1 848 0
 1595 00b2 9478     		ldrb	r4, [r2, #2]
 1596 00b4 D378     		ldrb	r3, [r2, #3]
 1597 00b6 2404     		lsl	r4, r4, #16
 1598 00b8 1B06     		lsl	r3, r3, #24
 1599 00ba 1C43     		orr	r4, r3
 1600 00bc 5378     		ldrb	r3, [r2, #1]
 1601 00be EF19     		add	r7, r5, r7
 1602 00c0 1B02     		lsl	r3, r3, #8
 1603 00c2 3037     		add	r7, r7, #48
 1604 00c4 1C43     		orr	r4, r3
 1605 00c6 3B78     		ldrb	r3, [r7]
 1606 00c8 1C43     		orr	r4, r3
 1607 00ca 2401     		lsl	r4, r4, #4
 1608 00cc 2409     		lsr	r4, r4, #4
 1609 00ce 01E0     		b	.L143
 1610              	.LVL168:
 1611              	.L153:
 851:.\sd/ff.c     **** }
 1612              		.loc 1 851 0
 1613 00d0 0124     		mov	r4, #1
 1614 00d2 6442     		neg	r4, r4
 1615              	.LVL169:
 1616              	.L143:
 1617              	.LBE22:
 1618              	.LBE21:
 852:.\sd/ff.c     **** 
 1619              		.loc 1 852 0
 1620 00d4 201C     		mov	r0, r4
 1621              		@ sp needed
 1622 00d6 FEBD     		pop	{r1, r2, r3, r4, r5, r6, r7, pc}
 1623              		.cfi_endproc
 1624              	.LFE12:
 1625              		.size	get_fat, .-get_fat
 1626              		.section	.text.dir_sdi,"ax",%progbits
 1627              		.align	1
 1628              		.code	16
 1629              		.thumb_func
 1630              		.type	dir_sdi, %function
ARM GAS  C:\Users\Jarik\AppData\Local\Temp\ccASvTaK.s 			page 70


 1631              	dir_sdi:
 1632              	.LFB16:
1069:.\sd/ff.c     **** 	DWORD clst;
 1633              		.loc 1 1069 0
 1634              		.cfi_startproc
 1635              	.LVL170:
 1636 0000 70B5     		push	{r4, r5, r6, lr}
 1637              		.cfi_def_cfa_offset 16
 1638              		.cfi_offset 4, -16
 1639              		.cfi_offset 5, -12
 1640              		.cfi_offset 6, -8
 1641              		.cfi_offset 14, -4
1069:.\sd/ff.c     **** 	DWORD clst;
 1642              		.loc 1 1069 0
 1643 0002 041C     		mov	r4, r0
 1644 0004 0D1C     		mov	r5, r1
1074:.\sd/ff.c     **** 	clst = dj->sclust;
 1645              		.loc 1 1074 0
 1646 0006 E180     		strh	r1, [r4, #6]
1075:.\sd/ff.c     **** 	if (clst == 1 || clst >= dj->fs->n_fatent)	/* Check start cluster range */
 1647              		.loc 1 1075 0
 1648 0008 8168     		ldr	r1, [r0, #8]
 1649              	.LVL171:
1076:.\sd/ff.c     **** 		return FR_INT_ERR;
 1650              		.loc 1 1076 0
 1651 000a 0129     		cmp	r1, #1
 1652 000c 01D1     		bne	.L155
 1653              	.LVL172:
 1654              	.L157:
1077:.\sd/ff.c     **** 	if (!clst && dj->fs->fs_type == FS_FAT32)	/* Replace cluster# 0 with root cluster# if in FAT32 */
 1655              		.loc 1 1077 0
 1656 000e 0220     		mov	r0, #2
 1657 0010 39E0     		b	.L156
 1658              	.LVL173:
 1659              	.L155:
1076:.\sd/ff.c     **** 		return FR_INT_ERR;
 1660              		.loc 1 1076 0 discriminator 1
 1661 0012 0368     		ldr	r3, [r0]
 1662 0014 9A69     		ldr	r2, [r3, #24]
 1663 0016 9142     		cmp	r1, r2
 1664 0018 F9D2     		bcs	.L157
1078:.\sd/ff.c     **** 		clst = dj->fs->dirbase;
 1665              		.loc 1 1078 0
 1666 001a 0029     		cmp	r1, #0
 1667 001c 0FD1     		bne	.L158
1078:.\sd/ff.c     **** 		clst = dj->fs->dirbase;
 1668              		.loc 1 1078 0 is_stmt 0 discriminator 1
 1669 001e 1A78     		ldrb	r2, [r3]
 1670 0020 032A     		cmp	r2, #3
 1671 0022 02D1     		bne	.L159
1079:.\sd/ff.c     **** 
 1672              		.loc 1 1079 0 is_stmt 1
 1673 0024 596A     		ldr	r1, [r3, #36]
 1674              	.LVL174:
1081:.\sd/ff.c     **** 		dj->clust = clst;
 1675              		.loc 1 1081 0
 1676 0026 0029     		cmp	r1, #0
ARM GAS  C:\Users\Jarik\AppData\Local\Temp\ccASvTaK.s 			page 71


 1677 0028 09D1     		bne	.L158
 1678              	.L159:
 1679              	.LVL175:
1082:.\sd/ff.c     **** 		if (idx >= dj->fs->n_rootdir)		/* Index is out of range */
 1680              		.loc 1 1082 0
 1681 002a 0022     		mov	r2, #0
 1682 002c E260     		str	r2, [r4, #12]
1083:.\sd/ff.c     **** 			return FR_INT_ERR;
 1683              		.loc 1 1083 0
 1684 002e 1A89     		ldrh	r2, [r3, #8]
 1685 0030 AA42     		cmp	r2, r5
 1686 0032 ECD9     		bls	.L157
1085:.\sd/ff.c     **** 	}
 1687              		.loc 1 1085 0
 1688 0034 5A6A     		ldr	r2, [r3, #36]
 1689 0036 2909     		lsr	r1, r5, #4
 1690 0038 8B18     		add	r3, r1, r2
 1691 003a 2361     		str	r3, [r4, #16]
 1692 003c 19E0     		b	.L160
 1693              	.LVL176:
 1694              	.L158:
1088:.\sd/ff.c     **** 		while (idx >= ic) {	/* Follow cluster chain */
 1695              		.loc 1 1088 0
 1696 003e 9E78     		ldrb	r6, [r3, #2]
 1697 0040 3601     		lsl	r6, r6, #4
 1698              	.LVL177:
 1699              	.L161:
1089:.\sd/ff.c     **** 			clst = get_fat(dj->fs, clst);				/* Get next cluster */
 1700              		.loc 1 1089 0
 1701 0042 B542     		cmp	r5, r6
 1702 0044 0ED3     		bcc	.L164
1090:.\sd/ff.c     **** 			if (clst == 0xFFFFFFFF) return FR_DISK_ERR;	/* Disk error */
 1703              		.loc 1 1090 0
 1704 0046 2068     		ldr	r0, [r4]
 1705 0048 FFF7FEFF 		bl	get_fat
 1706              	.LVL178:
 1707 004c 011C     		mov	r1, r0
 1708              	.LVL179:
1091:.\sd/ff.c     **** 			if (clst < 2 || clst >= dj->fs->n_fatent)	/* Reached to end of table or int error */
 1709              		.loc 1 1091 0
 1710 004e 431C     		add	r3, r0, #1
 1711 0050 18D0     		beq	.L163
1092:.\sd/ff.c     **** 				return FR_INT_ERR;
 1712              		.loc 1 1092 0
 1713 0052 0128     		cmp	r0, #1
 1714 0054 DBD9     		bls	.L157
1092:.\sd/ff.c     **** 				return FR_INT_ERR;
 1715              		.loc 1 1092 0 is_stmt 0 discriminator 1
 1716 0056 2368     		ldr	r3, [r4]
 1717 0058 9B69     		ldr	r3, [r3, #24]
 1718 005a 9842     		cmp	r0, r3
 1719 005c D7D2     		bcs	.L157
1094:.\sd/ff.c     **** 		}
 1720              		.loc 1 1094 0 is_stmt 1
 1721 005e AD1B     		sub	r5, r5, r6
 1722              	.LVL180:
 1723 0060 ADB2     		uxth	r5, r5
ARM GAS  C:\Users\Jarik\AppData\Local\Temp\ccASvTaK.s 			page 72


 1724              	.LVL181:
 1725 0062 EEE7     		b	.L161
 1726              	.LVL182:
 1727              	.L164:
1096:.\sd/ff.c     **** 		dj->sect = clust2sect(dj->fs, clst) + idx / (SS(dj->fs) / SZ_DIR);	/* Sector# */
 1728              		.loc 1 1096 0
 1729 0064 E160     		str	r1, [r4, #12]
1097:.\sd/ff.c     **** 	}
 1730              		.loc 1 1097 0
 1731 0066 2068     		ldr	r0, [r4]
 1732 0068 FFF7FEFF 		bl	clust2sect
 1733              	.LVL183:
 1734 006c 2B09     		lsr	r3, r5, #4
 1735 006e 1818     		add	r0, r3, r0
 1736 0070 2061     		str	r0, [r4, #16]
 1737              	.LVL184:
 1738              	.L160:
1100:.\sd/ff.c     **** 
 1739              		.loc 1 1100 0
 1740 0072 0F23     		mov	r3, #15
 1741 0074 1D40     		and	r5, r3
 1742              	.LVL185:
 1743 0076 6D01     		lsl	r5, r5, #5
 1744 0078 2368     		ldr	r3, [r4]
 1745 007a 3035     		add	r5, r5, #48
 1746 007c 5D19     		add	r5, r3, r5
 1747 007e 6561     		str	r5, [r4, #20]
1102:.\sd/ff.c     **** }
 1748              		.loc 1 1102 0
 1749 0080 0020     		mov	r0, #0
 1750 0082 00E0     		b	.L156
 1751              	.LVL186:
 1752              	.L163:
1091:.\sd/ff.c     **** 			if (clst < 2 || clst >= dj->fs->n_fatent)	/* Reached to end of table or int error */
 1753              		.loc 1 1091 0
 1754 0084 0120     		mov	r0, #1
 1755              	.LVL187:
 1756              	.L156:
1103:.\sd/ff.c     **** 
 1757              		.loc 1 1103 0
 1758              		@ sp needed
 1759              	.LVL188:
 1760 0086 70BD     		pop	{r4, r5, r6, pc}
 1761              		.cfi_endproc
 1762              	.LFE16:
 1763              		.size	dir_sdi, .-dir_sdi
 1764              		.section	.text.dir_remove,"ax",%progbits
 1765              		.align	1
 1766              		.code	16
 1767              		.thumb_func
 1768              		.type	dir_remove, %function
 1769              	dir_remove:
 1770              	.LFB21:
1581:.\sd/ff.c     **** 	FRESULT res;
 1771              		.loc 1 1581 0
 1772              		.cfi_startproc
 1773              	.LVL189:
ARM GAS  C:\Users\Jarik\AppData\Local\Temp\ccASvTaK.s 			page 73


 1774 0000 10B5     		push	{r4, lr}
 1775              		.cfi_def_cfa_offset 8
 1776              		.cfi_offset 4, -8
 1777              		.cfi_offset 14, -4
1601:.\sd/ff.c     **** 	if (res == FR_OK) {
 1778              		.loc 1 1601 0
 1779 0002 C188     		ldrh	r1, [r0, #6]
1581:.\sd/ff.c     **** 	FRESULT res;
 1780              		.loc 1 1581 0
 1781 0004 041C     		mov	r4, r0
1601:.\sd/ff.c     **** 	if (res == FR_OK) {
 1782              		.loc 1 1601 0
 1783 0006 FFF7FEFF 		bl	dir_sdi
 1784              	.LVL190:
1602:.\sd/ff.c     **** 		res = move_window(dj->fs, dj->sect);
 1785              		.loc 1 1602 0
 1786 000a 0028     		cmp	r0, #0
 1787 000c 0BD1     		bne	.L166
 1788              	.LVL191:
 1789              	.LBB25:
 1790              	.LBB26:
1603:.\sd/ff.c     **** 		if (res == FR_OK) {
 1791              		.loc 1 1603 0
 1792 000e 2068     		ldr	r0, [r4]
 1793              	.LVL192:
 1794 0010 2169     		ldr	r1, [r4, #16]
 1795 0012 FFF7FEFF 		bl	move_window
 1796              	.LVL193:
1604:.\sd/ff.c     **** 			*dj->dir = DDE;			/* Mark the entry "deleted" */
 1797              		.loc 1 1604 0
 1798 0016 0028     		cmp	r0, #0
 1799 0018 05D1     		bne	.L166
1605:.\sd/ff.c     **** 			dj->fs->wflag = 1;
 1800              		.loc 1 1605 0
 1801 001a E523     		mov	r3, #229
 1802 001c 6269     		ldr	r2, [r4, #20]
 1803 001e 1370     		strb	r3, [r2]
1606:.\sd/ff.c     **** 		}
 1804              		.loc 1 1606 0
 1805 0020 0122     		mov	r2, #1
 1806 0022 2368     		ldr	r3, [r4]
 1807 0024 1A71     		strb	r2, [r3, #4]
 1808              	.LVL194:
 1809              	.L166:
 1810              	.LBE26:
 1811              	.LBE25:
1612:.\sd/ff.c     **** #endif /* !_FS_READONLY */
 1812              		.loc 1 1612 0
 1813              		@ sp needed
 1814              	.LVL195:
 1815 0026 10BD     		pop	{r4, pc}
 1816              		.cfi_endproc
 1817              	.LFE21:
 1818              		.size	dir_remove, .-dir_remove
 1819              		.section	.text.put_fat,"ax",%progbits
 1820              		.align	1
 1821              		.global	put_fat
ARM GAS  C:\Users\Jarik\AppData\Local\Temp\ccASvTaK.s 			page 74


 1822              		.code	16
 1823              		.thumb_func
 1824              		.type	put_fat, %function
 1825              	put_fat:
 1826              	.LFB13:
 867:.\sd/ff.c     **** 	UINT bc;
 1827              		.loc 1 867 0
 1828              		.cfi_startproc
 1829              	.LVL196:
 1830 0000 F7B5     		push	{r0, r1, r2, r4, r5, r6, r7, lr}
 1831              		.cfi_def_cfa_offset 32
 1832              		.cfi_offset 0, -32
 1833              		.cfi_offset 1, -28
 1834              		.cfi_offset 2, -24
 1835              		.cfi_offset 4, -20
 1836              		.cfi_offset 5, -16
 1837              		.cfi_offset 6, -12
 1838              		.cfi_offset 7, -8
 1839              		.cfi_offset 14, -4
 867:.\sd/ff.c     **** 	UINT bc;
 1840              		.loc 1 867 0
 1841 0002 041C     		mov	r4, r0
 1842 0004 0E1C     		mov	r6, r1
 1843 0006 151C     		mov	r5, r2
 874:.\sd/ff.c     **** 
 1844              		.loc 1 874 0
 1845 0008 0220     		mov	r0, #2
 1846              	.LVL197:
 873:.\sd/ff.c     **** 		res = FR_INT_ERR;
 1847              		.loc 1 873 0
 1848 000a 0129     		cmp	r1, #1
 1849 000c 79D9     		bls	.L168
 873:.\sd/ff.c     **** 		res = FR_INT_ERR;
 1850              		.loc 1 873 0 is_stmt 0 discriminator 1
 1851 000e A369     		ldr	r3, [r4, #24]
 1852 0010 9942     		cmp	r1, r3
 1853 0012 76D2     		bcs	.L168
 1854              	.LVL198:
 1855              	.LBB29:
 1856              	.LBB30:
 877:.\sd/ff.c     **** 		case FS_FAT12 :
 1857              		.loc 1 877 0 is_stmt 1
 1858 0014 2778     		ldrb	r7, [r4]
 1859 0016 8742     		cmp	r7, r0
 1860 0018 41D0     		beq	.L170
 1861 001a 032F     		cmp	r7, #3
 1862 001c 53D0     		beq	.L171
 1863 001e 012F     		cmp	r7, #1
 1864 0020 6DD1     		bne	.L169
 1865              	.LVL199:
 879:.\sd/ff.c     **** 			res = move_window(fs, fs->fatbase + (bc / SS(fs)));
 1866              		.loc 1 879 0
 1867 0022 4B08     		lsr	r3, r1, #1
 1868 0024 5B18     		add	r3, r3, r1
 880:.\sd/ff.c     **** 			if (res != FR_OK) break;
 1869              		.loc 1 880 0
 1870 0026 590A     		lsr	r1, r3, #9
ARM GAS  C:\Users\Jarik\AppData\Local\Temp\ccASvTaK.s 			page 75


 1871              	.LVL200:
 879:.\sd/ff.c     **** 			res = move_window(fs, fs->fatbase + (bc / SS(fs)));
 1872              		.loc 1 879 0
 1873 0028 0193     		str	r3, [sp, #4]
 1874              	.LVL201:
 880:.\sd/ff.c     **** 			if (res != FR_OK) break;
 1875              		.loc 1 880 0
 1876 002a 236A     		ldr	r3, [r4, #32]
 1877              	.LVL202:
 1878 002c 201C     		mov	r0, r4
 1879 002e C918     		add	r1, r1, r3
 1880 0030 FFF7FEFF 		bl	move_window
 1881              	.LVL203:
 881:.\sd/ff.c     **** 			p = &fs->win[bc % SS(fs)];
 1882              		.loc 1 881 0
 1883 0034 0028     		cmp	r0, #0
 1884 0036 62D1     		bne	.L169
 882:.\sd/ff.c     **** 			*p = (clst & 1) ? ((*p & 0x0F) | ((BYTE)val << 4)) : (BYTE)val;
 1885              		.loc 1 882 0
 1886 0038 019B     		ldr	r3, [sp, #4]
 883:.\sd/ff.c     **** 			bc++;
 1887              		.loc 1 883 0
 1888 003a 3E40     		and	r6, r7
 1889              	.LVL204:
 882:.\sd/ff.c     **** 			*p = (clst & 1) ? ((*p & 0x0F) | ((BYTE)val << 4)) : (BYTE)val;
 1890              		.loc 1 882 0
 1891 003c DB05     		lsl	r3, r3, #23
 1892 003e DB0D     		lsr	r3, r3, #23
 1893              	.LVL205:
 1894 0040 E318     		add	r3, r4, r3
 1895              	.LVL206:
 883:.\sd/ff.c     **** 			bc++;
 1896              		.loc 1 883 0
 1897 0042 EAB2     		uxtb	r2, r5
 1898 0044 002E     		cmp	r6, #0
 1899 0046 08D0     		beq	.L174
 1900 0048 1A1C     		mov	r2, r3
 1901 004a 3032     		add	r2, r2, #48
 1902              	.LVL207:
 1903 004c 1178     		ldrb	r1, [r2]
 1904 004e 0F22     		mov	r2, #15
 1905              	.LVL208:
 1906 0050 0A40     		and	r2, r1
 1907 0052 E9B2     		uxtb	r1, r5
 1908 0054 0901     		lsl	r1, r1, #4
 1909 0056 0A43     		orr	r2, r1
 1910 0058 D2B2     		uxtb	r2, r2
 1911              	.L174:
 1912 005a 3033     		add	r3, r3, #48
 1913 005c 1A70     		strb	r2, [r3]
 885:.\sd/ff.c     **** 			res = move_window(fs, fs->fatbase + (bc / SS(fs)));
 1914              		.loc 1 885 0
 1915 005e 0123     		mov	r3, #1
 884:.\sd/ff.c     **** 			fs->wflag = 1;
 1916              		.loc 1 884 0
 1917 0060 019F     		ldr	r7, [sp, #4]
 885:.\sd/ff.c     **** 			res = move_window(fs, fs->fatbase + (bc / SS(fs)));
ARM GAS  C:\Users\Jarik\AppData\Local\Temp\ccASvTaK.s 			page 76


 1918              		.loc 1 885 0
 1919 0062 2371     		strb	r3, [r4, #4]
 884:.\sd/ff.c     **** 			fs->wflag = 1;
 1920              		.loc 1 884 0
 1921 0064 0137     		add	r7, r7, #1
 1922              	.LVL209:
 886:.\sd/ff.c     **** 			if (res != FR_OK) break;
 1923              		.loc 1 886 0
 1924 0066 236A     		ldr	r3, [r4, #32]
 1925 0068 790A     		lsr	r1, r7, #9
 1926 006a C918     		add	r1, r1, r3
 1927 006c 201C     		mov	r0, r4
 1928              	.LVL210:
 1929 006e FFF7FEFF 		bl	move_window
 1930              	.LVL211:
 887:.\sd/ff.c     **** 			p = &fs->win[bc % SS(fs)];
 1931              		.loc 1 887 0
 1932 0072 0028     		cmp	r0, #0
 1933 0074 43D1     		bne	.L169
 888:.\sd/ff.c     **** 			*p = (clst & 1) ? (BYTE)(val >> 4) : ((*p & 0xF0) | ((BYTE)(val >> 8) & 0x0F));
 1934              		.loc 1 888 0
 1935 0076 FF05     		lsl	r7, r7, #23
 1936              	.LVL212:
 1937 0078 FF0D     		lsr	r7, r7, #23
 1938              	.LVL213:
 1939 007a E719     		add	r7, r4, r7
 1940              	.LVL214:
 889:.\sd/ff.c     **** 			break;
 1941              		.loc 1 889 0
 1942 007c 002E     		cmp	r6, #0
 1943 007e 02D0     		beq	.L175
 1944 0080 2D09     		lsr	r5, r5, #4
 1945              	.LVL215:
 1946 0082 EDB2     		uxtb	r5, r5
 1947 0084 08E0     		b	.L176
 1948              	.LVL216:
 1949              	.L175:
 1950 0086 3B1C     		mov	r3, r7
 1951 0088 3033     		add	r3, r3, #48
 1952 008a 1A78     		ldrb	r2, [r3]
 1953 008c 0F23     		mov	r3, #15
 1954 008e 2D0A     		lsr	r5, r5, #8
 1955              	.LVL217:
 1956 0090 9A43     		bic	r2, r3
 1957 0092 2B40     		and	r3, r5
 1958 0094 1A43     		orr	r2, r3
 1959 0096 151C     		mov	r5, r2
 1960              	.LVL218:
 1961              	.L176:
 1962 0098 3037     		add	r7, r7, #48
 1963 009a 3D70     		strb	r5, [r7]
 1964 009c 2FE0     		b	.L169
 1965              	.LVL219:
 1966              	.L170:
 893:.\sd/ff.c     **** 			if (res != FR_OK) break;
 1967              		.loc 1 893 0
 1968 009e 236A     		ldr	r3, [r4, #32]
ARM GAS  C:\Users\Jarik\AppData\Local\Temp\ccASvTaK.s 			page 77


 1969 00a0 090A     		lsr	r1, r1, #8
 1970              	.LVL220:
 1971 00a2 C918     		add	r1, r1, r3
 1972 00a4 201C     		mov	r0, r4
 1973 00a6 FFF7FEFF 		bl	move_window
 1974              	.LVL221:
 894:.\sd/ff.c     **** 			p = &fs->win[clst * 2 % SS(fs)];
 1975              		.loc 1 894 0
 1976 00aa 0028     		cmp	r0, #0
 1977 00ac 27D1     		bne	.L169
 895:.\sd/ff.c     **** 			ST_WORD(p, (WORD)val);
 1978              		.loc 1 895 0
 1979 00ae FF23     		mov	r3, #255
 1980 00b0 7600     		lsl	r6, r6, #1
 1981              	.LVL222:
 1982 00b2 5B00     		lsl	r3, r3, #1
 1983 00b4 1E40     		and	r6, r3
 1984              	.LVL223:
 896:.\sd/ff.c     **** 			break;
 1985              		.loc 1 896 0
 1986 00b6 A319     		add	r3, r4, r6
 1987 00b8 3033     		add	r3, r3, #48
 1988              	.LVL224:
 895:.\sd/ff.c     **** 			ST_WORD(p, (WORD)val);
 1989              		.loc 1 895 0
 1990 00ba 3036     		add	r6, r6, #48
 896:.\sd/ff.c     **** 			break;
 1991              		.loc 1 896 0
 1992 00bc 1D70     		strb	r5, [r3]
 1993 00be A619     		add	r6, r4, r6
 1994 00c0 2D0A     		lsr	r5, r5, #8
 1995              	.LVL225:
 1996 00c2 7570     		strb	r5, [r6, #1]
 1997 00c4 1BE0     		b	.L169
 1998              	.LVL226:
 1999              	.L171:
 900:.\sd/ff.c     **** 			if (res != FR_OK) break;
 2000              		.loc 1 900 0
 2001 00c6 236A     		ldr	r3, [r4, #32]
 2002 00c8 C909     		lsr	r1, r1, #7
 2003              	.LVL227:
 2004 00ca C918     		add	r1, r1, r3
 2005 00cc 201C     		mov	r0, r4
 2006 00ce FFF7FEFF 		bl	move_window
 2007              	.LVL228:
 901:.\sd/ff.c     **** 			p = &fs->win[clst * 4 % SS(fs)];
 2008              		.loc 1 901 0
 2009 00d2 0028     		cmp	r0, #0
 2010 00d4 13D1     		bne	.L169
 902:.\sd/ff.c     **** 			val |= LD_DWORD(p) & 0xF0000000;
 2011              		.loc 1 902 0
 2012 00d6 FE23     		mov	r3, #254
 2013 00d8 B600     		lsl	r6, r6, #2
 2014              	.LVL229:
 2015 00da 5B00     		lsl	r3, r3, #1
 2016 00dc 1E40     		and	r6, r3
 2017 00de 331C     		mov	r3, r6
ARM GAS  C:\Users\Jarik\AppData\Local\Temp\ccASvTaK.s 			page 78


 2018 00e0 3033     		add	r3, r3, #48
 2019 00e2 E318     		add	r3, r4, r3
 2020              	.LVL230:
 903:.\sd/ff.c     **** 			ST_DWORD(p, val);
 2021              		.loc 1 903 0
 2022 00e4 DA78     		ldrb	r2, [r3, #3]
 2023 00e6 A619     		add	r6, r4, r6
 2024 00e8 1209     		lsr	r2, r2, #4
 2025 00ea 1207     		lsl	r2, r2, #28
 2026 00ec 1543     		orr	r5, r2
 2027              	.LVL231:
 904:.\sd/ff.c     **** 			break;
 2028              		.loc 1 904 0
 2029 00ee 2A0A     		lsr	r2, r5, #8
 903:.\sd/ff.c     **** 			ST_DWORD(p, val);
 2030              		.loc 1 903 0
 2031 00f0 3036     		add	r6, r6, #48
 904:.\sd/ff.c     **** 			break;
 2032              		.loc 1 904 0
 2033 00f2 3570     		strb	r5, [r6]
 2034 00f4 5A70     		strb	r2, [r3, #1]
 2035 00f6 2A0C     		lsr	r2, r5, #16
 2036 00f8 2D0E     		lsr	r5, r5, #24
 2037              	.LVL232:
 2038 00fa 9A70     		strb	r2, [r3, #2]
 2039 00fc DD70     		strb	r5, [r3, #3]
 2040              	.LVL233:
 2041              	.L169:
 910:.\sd/ff.c     **** 	}
 2042              		.loc 1 910 0
 2043 00fe 0123     		mov	r3, #1
 2044 0100 2371     		strb	r3, [r4, #4]
 2045              	.LVL234:
 2046              	.L168:
 2047              	.LBE30:
 2048              	.LBE29:
 914:.\sd/ff.c     **** #endif /* !_FS_READONLY */
 2049              		.loc 1 914 0
 2050              		@ sp needed
 2051              	.LVL235:
 2052 0102 FEBD     		pop	{r1, r2, r3, r4, r5, r6, r7, pc}
 2053              		.cfi_endproc
 2054              	.LFE13:
 2055              		.size	put_fat, .-put_fat
 2056              		.section	.text.create_chain,"ax",%progbits
 2057              		.align	1
 2058              		.code	16
 2059              		.thumb_func
 2060              		.type	create_chain, %function
 2061              	create_chain:
 2062              	.LFB15:
 982:.\sd/ff.c     **** 	DWORD cs, ncl, scl;
 2063              		.loc 1 982 0
 2064              		.cfi_startproc
 2065              	.LVL236:
 2066 0000 F8B5     		push	{r3, r4, r5, r6, r7, lr}
 2067              		.cfi_def_cfa_offset 24
ARM GAS  C:\Users\Jarik\AppData\Local\Temp\ccASvTaK.s 			page 79


 2068              		.cfi_offset 3, -24
 2069              		.cfi_offset 4, -20
 2070              		.cfi_offset 5, -16
 2071              		.cfi_offset 6, -12
 2072              		.cfi_offset 7, -8
 2073              		.cfi_offset 14, -4
 982:.\sd/ff.c     **** 	DWORD cs, ncl, scl;
 2074              		.loc 1 982 0
 2075 0002 051C     		mov	r5, r0
 2076 0004 0E1E     		sub	r6, r1, #0
 987:.\sd/ff.c     **** 		scl = fs->last_clust;			/* Get suggested start point */
 2077              		.loc 1 987 0
 2078 0006 06D1     		bne	.L182
 988:.\sd/ff.c     **** 		if (!scl || scl >= fs->n_fatent) scl = 1;
 2079              		.loc 1 988 0
 2080 0008 C768     		ldr	r7, [r0, #12]
 2081              	.LVL237:
 989:.\sd/ff.c     **** 	}
 2082              		.loc 1 989 0
 2083 000a 002F     		cmp	r7, #0
 2084 000c 0ED0     		beq	.L195
 989:.\sd/ff.c     **** 	}
 2085              		.loc 1 989 0 is_stmt 0 discriminator 2
 2086 000e 8369     		ldr	r3, [r0, #24]
 2087 0010 9F42     		cmp	r7, r3
 2088 0012 0CD3     		bcc	.L183
 2089 0014 0AE0     		b	.L195
 2090              	.LVL238:
 2091              	.L182:
 992:.\sd/ff.c     **** 		if (cs < 2) return 1;			/* It is an invalid cluster */
 2092              		.loc 1 992 0 is_stmt 1
 2093 0016 FFF7FEFF 		bl	get_fat
 2094              	.LVL239:
 993:.\sd/ff.c     **** 		if (cs < fs->n_fatent) return cs;	/* It is already followed by next cluster */
 2095              		.loc 1 993 0
 2096 001a 0124     		mov	r4, #1
 2097 001c A042     		cmp	r0, r4
 2098 001e 3ED9     		bls	.L184
 994:.\sd/ff.c     **** 		scl = clst;
 2099              		.loc 1 994 0
 2100 0020 AB69     		ldr	r3, [r5, #24]
 2101 0022 041C     		mov	r4, r0
 2102 0024 371C     		mov	r7, r6
 2103 0026 9842     		cmp	r0, r3
 2104 0028 01D2     		bcs	.L183
 2105 002a 38E0     		b	.L184
 2106              	.LVL240:
 2107              	.L195:
 989:.\sd/ff.c     **** 	}
 2108              		.loc 1 989 0
 2109 002c 0127     		mov	r7, #1
 2110              	.LVL241:
 2111              	.L183:
 2112 002e 3C1C     		mov	r4, r7
 2113              	.LVL242:
 2114              	.L190:
1001:.\sd/ff.c     **** 			ncl = 2;
ARM GAS  C:\Users\Jarik\AppData\Local\Temp\ccASvTaK.s 			page 80


 2115              		.loc 1 1001 0
 2116 0030 AB69     		ldr	r3, [r5, #24]
1000:.\sd/ff.c     **** 		if (ncl >= fs->n_fatent) {		/* Wrap around */
 2117              		.loc 1 1000 0
 2118 0032 0134     		add	r4, r4, #1
 2119              	.LVL243:
1001:.\sd/ff.c     **** 			ncl = 2;
 2120              		.loc 1 1001 0
 2121 0034 9C42     		cmp	r4, r3
 2122 0036 04D3     		bcc	.L185
 2123              	.LVL244:
1003:.\sd/ff.c     **** 		}
 2124              		.loc 1 1003 0
 2125 0038 012F     		cmp	r7, #1
 2126 003a 01D8     		bhi	.L198
 2127              	.LVL245:
 2128              	.L189:
 2129 003c 0024     		mov	r4, #0
 2130 003e 2EE0     		b	.L184
 2131              	.LVL246:
 2132              	.L198:
1002:.\sd/ff.c     **** 			if (ncl > scl) return 0;	/* No free cluster */
 2133              		.loc 1 1002 0
 2134 0040 0224     		mov	r4, #2
 2135              	.LVL247:
 2136              	.L185:
1005:.\sd/ff.c     **** 		if (cs == 0) break;				/* Found a free cluster */
 2137              		.loc 1 1005 0
 2138 0042 281C     		mov	r0, r5
 2139 0044 211C     		mov	r1, r4
 2140 0046 FFF7FEFF 		bl	get_fat
 2141              	.LVL248:
1006:.\sd/ff.c     **** 		if (cs == 0xFFFFFFFF || cs == 1)/* An error occurred */
 2142              		.loc 1 1006 0
 2143 004a 0028     		cmp	r0, #0
 2144 004c 08D0     		beq	.L186
1007:.\sd/ff.c     **** 			return cs;
 2145              		.loc 1 1007 0
 2146 004e 431C     		add	r3, r0, #1
 2147 0050 01D0     		beq	.L187
1007:.\sd/ff.c     **** 			return cs;
 2148              		.loc 1 1007 0 is_stmt 0 discriminator 1
 2149 0052 0128     		cmp	r0, #1
 2150 0054 01D1     		bne	.L188
 2151              	.L187:
1008:.\sd/ff.c     **** 		if (ncl == scl) return 0;		/* No free cluster */
 2152              		.loc 1 1008 0 is_stmt 1
 2153 0056 041C     		mov	r4, r0
 2154              	.LVL249:
 2155 0058 21E0     		b	.L184
 2156              	.LVL250:
 2157              	.L188:
1009:.\sd/ff.c     **** 	}
 2158              		.loc 1 1009 0
 2159 005a BC42     		cmp	r4, r7
 2160 005c E8D1     		bne	.L190
 2161 005e EDE7     		b	.L189
ARM GAS  C:\Users\Jarik\AppData\Local\Temp\ccASvTaK.s 			page 81


 2162              	.L186:
1012:.\sd/ff.c     **** 	if (res == FR_OK && clst != 0) {
 2163              		.loc 1 1012 0
 2164 0060 281C     		mov	r0, r5
 2165              	.LVL251:
 2166 0062 211C     		mov	r1, r4
 2167 0064 0F4A     		ldr	r2, .L206
 2168 0066 FFF7FEFF 		bl	put_fat
 2169              	.LVL252:
1013:.\sd/ff.c     **** 		res = put_fat(fs, clst, ncl);	/* Link it to the previous one if needed */
 2170              		.loc 1 1013 0
 2171 006a 0028     		cmp	r0, #0
 2172 006c 11D1     		bne	.L191
1013:.\sd/ff.c     **** 		res = put_fat(fs, clst, ncl);	/* Link it to the previous one if needed */
 2173              		.loc 1 1013 0 is_stmt 0 discriminator 1
 2174 006e 002E     		cmp	r6, #0
 2175 0070 08D1     		bne	.L192
 2176              	.LVL253:
 2177              	.L194:
1018:.\sd/ff.c     **** 			fs->free_clust--;
 2178              		.loc 1 1018 0 is_stmt 1
 2179 0072 2B69     		ldr	r3, [r5, #16]
1017:.\sd/ff.c     **** 		if (fs->free_clust != 0xFFFFFFFF) {
 2180              		.loc 1 1017 0
 2181 0074 EC60     		str	r4, [r5, #12]
1018:.\sd/ff.c     **** 			fs->free_clust--;
 2182              		.loc 1 1018 0
 2183 0076 5A1C     		add	r2, r3, #1
 2184 0078 11D0     		beq	.L184
1019:.\sd/ff.c     **** 			fs->fsi_flag = 1;
 2185              		.loc 1 1019 0
 2186 007a 013B     		sub	r3, r3, #1
 2187 007c 2B61     		str	r3, [r5, #16]
1020:.\sd/ff.c     **** 		}
 2188              		.loc 1 1020 0
 2189 007e 0123     		mov	r3, #1
 2190 0080 6B71     		strb	r3, [r5, #5]
 2191 0082 0CE0     		b	.L184
 2192              	.LVL254:
 2193              	.L192:
1014:.\sd/ff.c     **** 	}
 2194              		.loc 1 1014 0
 2195 0084 281C     		mov	r0, r5
 2196              	.LVL255:
 2197 0086 311C     		mov	r1, r6
 2198 0088 221C     		mov	r2, r4
 2199 008a FFF7FEFF 		bl	put_fat
 2200              	.LVL256:
1016:.\sd/ff.c     **** 		fs->last_clust = ncl;			/* Update FSINFO */
 2201              		.loc 1 1016 0
 2202 008e 0028     		cmp	r0, #0
 2203 0090 EFD0     		beq	.L194
 2204              	.LVL257:
 2205              	.L191:
1023:.\sd/ff.c     **** 	}
 2206              		.loc 1 1023 0
 2207 0092 0138     		sub	r0, r0, #1
ARM GAS  C:\Users\Jarik\AppData\Local\Temp\ccASvTaK.s 			page 82


 2208              	.LVL258:
 2209 0094 4442     		neg	r4, r0
 2210 0096 4441     		adc	r4, r4, r0
 2211              	.LVL259:
 2212 0098 6042     		neg	r0, r4
 2213 009a 0124     		mov	r4, #1
 2214 009c 0443     		orr	r4, r0
 2215              	.LVL260:
 2216              	.L184:
1027:.\sd/ff.c     **** #endif /* !_FS_READONLY */
 2217              		.loc 1 1027 0
 2218 009e 201C     		mov	r0, r4
 2219              		@ sp needed
 2220              	.LVL261:
 2221              	.LVL262:
 2222 00a0 F8BD     		pop	{r3, r4, r5, r6, r7, pc}
 2223              	.L207:
 2224 00a2 C046     		.align	2
 2225              	.L206:
 2226 00a4 FFFFFF0F 		.word	268435455
 2227              		.cfi_endproc
 2228              	.LFE15:
 2229              		.size	create_chain, .-create_chain
 2230              		.section	.text.dir_next,"ax",%progbits
 2231              		.align	1
 2232              		.code	16
 2233              		.thumb_func
 2234              		.type	dir_next, %function
 2235              	dir_next:
 2236              	.LFB17:
1117:.\sd/ff.c     **** 	DWORD clst;
 2237              		.loc 1 1117 0
 2238              		.cfi_startproc
 2239              	.LVL263:
 2240 0000 F7B5     		push	{r0, r1, r2, r4, r5, r6, r7, lr}
 2241              		.cfi_def_cfa_offset 32
 2242              		.cfi_offset 0, -32
 2243              		.cfi_offset 1, -28
 2244              		.cfi_offset 2, -24
 2245              		.cfi_offset 4, -20
 2246              		.cfi_offset 5, -16
 2247              		.cfi_offset 6, -12
 2248              		.cfi_offset 7, -8
 2249              		.cfi_offset 14, -4
1123:.\sd/ff.c     **** 	if (!i || !dj->sect)	/* Report EOT when index has reached 65535 */
 2250              		.loc 1 1123 0
 2251 0002 C688     		ldrh	r6, [r0, #6]
 2252 0004 0136     		add	r6, r6, #1
 2253 0006 B6B2     		uxth	r6, r6
 2254              	.LVL264:
1124:.\sd/ff.c     **** 		return FR_NO_FILE;
 2255              		.loc 1 1124 0
 2256 0008 002E     		cmp	r6, #0
 2257 000a 01D1     		bne	.L209
 2258              	.LVL265:
 2259              	.L211:
1125:.\sd/ff.c     **** 
ARM GAS  C:\Users\Jarik\AppData\Local\Temp\ccASvTaK.s 			page 83


 2260              		.loc 1 1125 0
 2261 000c 0420     		mov	r0, #4
 2262 000e 71E0     		b	.L210
 2263              	.LVL266:
 2264              	.L209:
1124:.\sd/ff.c     **** 		return FR_NO_FILE;
 2265              		.loc 1 1124 0 discriminator 1
 2266 0010 0369     		ldr	r3, [r0, #16]
 2267 0012 002B     		cmp	r3, #0
 2268 0014 FAD0     		beq	.L211
1127:.\sd/ff.c     **** 		dj->sect++;					/* Next sector */
 2269              		.loc 1 1127 0
 2270 0016 0F22     		mov	r2, #15
 2271 0018 3240     		and	r2, r6
 2272 001a 0F1C     		mov	r7, r1
 2273 001c 041C     		mov	r4, r0
 2274 001e 0192     		str	r2, [sp, #4]
 2275 0020 002A     		cmp	r2, #0
 2276 0022 5FD1     		bne	.L213
1130:.\sd/ff.c     **** 			if (i >= dj->fs->n_rootdir)	/* Report EOT when end of table */
 2277              		.loc 1 1130 0
 2278 0024 C168     		ldr	r1, [r0, #12]
 2279              	.LVL267:
1128:.\sd/ff.c     **** 
 2280              		.loc 1 1128 0
 2281 0026 0133     		add	r3, r3, #1
 2282 0028 0361     		str	r3, [r0, #16]
 2283 002a 0068     		ldr	r0, [r0]
 2284              	.LVL268:
1130:.\sd/ff.c     **** 			if (i >= dj->fs->n_rootdir)	/* Report EOT when end of table */
 2285              		.loc 1 1130 0
 2286 002c 0029     		cmp	r1, #0
 2287 002e 03D1     		bne	.L214
1131:.\sd/ff.c     **** 				return FR_NO_FILE;
 2288              		.loc 1 1131 0
 2289 0030 0389     		ldrh	r3, [r0, #8]
 2290 0032 B342     		cmp	r3, r6
 2291 0034 EAD9     		bls	.L211
 2292 0036 55E0     		b	.L213
 2293              	.L214:
1135:.\sd/ff.c     **** 				clst = get_fat(dj->fs, dj->clust);				/* Get next cluster */
 2294              		.loc 1 1135 0
 2295 0038 8378     		ldrb	r3, [r0, #2]
 2296 003a 3209     		lsr	r2, r6, #4
 2297 003c 013B     		sub	r3, r3, #1
 2298 003e 1A42     		tst	r2, r3
 2299 0040 50D1     		bne	.L213
1136:.\sd/ff.c     **** 				if (clst <= 1) return FR_INT_ERR;
 2300              		.loc 1 1136 0
 2301 0042 FFF7FEFF 		bl	get_fat
 2302              	.LVL269:
 2303 0046 051E     		sub	r5, r0, #0
 2304              	.LVL270:
1137:.\sd/ff.c     **** 				if (clst == 0xFFFFFFFF) return FR_DISK_ERR;
 2305              		.loc 1 1137 0
 2306 0048 012D     		cmp	r5, #1
 2307 004a 01D8     		bhi	.L216
ARM GAS  C:\Users\Jarik\AppData\Local\Temp\ccASvTaK.s 			page 84


 2308              	.LVL271:
 2309              	.L219:
 2310 004c 0220     		mov	r0, #2
 2311 004e 51E0     		b	.L210
 2312              	.LVL272:
 2313              	.L216:
1138:.\sd/ff.c     **** 				if (clst >= dj->fs->n_fatent) {					/* When it reached end of dynamic table */
 2314              		.loc 1 1138 0
 2315 0050 431C     		add	r3, r0, #1
 2316 0052 01D1     		bne	.L217
 2317              	.LVL273:
 2318              	.L220:
 2319 0054 0120     		mov	r0, #1
 2320 0056 4DE0     		b	.L210
 2321              	.LVL274:
 2322              	.L217:
1139:.\sd/ff.c     **** #if !_FS_READONLY
 2323              		.loc 1 1139 0
 2324 0058 2068     		ldr	r0, [r4]
 2325              	.LVL275:
 2326 005a 8369     		ldr	r3, [r0, #24]
 2327 005c 9D42     		cmp	r5, r3
 2328 005e 3BD3     		bcc	.L218
 2329              	.LBB34:
1142:.\sd/ff.c     **** 					clst = create_chain(dj->fs, dj->clust);		/* Stretch cluster chain */
 2330              		.loc 1 1142 0
 2331 0060 002F     		cmp	r7, #0
 2332 0062 D3D0     		beq	.L211
1143:.\sd/ff.c     **** 					if (clst == 0) return FR_DENIED;			/* No free cluster */
 2333              		.loc 1 1143 0
 2334 0064 E168     		ldr	r1, [r4, #12]
 2335 0066 FFF7FEFF 		bl	create_chain
 2336              	.LVL276:
 2337 006a 051C     		mov	r5, r0
 2338              	.LVL277:
1144:.\sd/ff.c     **** 					if (clst == 1) return FR_INT_ERR;
 2339              		.loc 1 1144 0
 2340 006c 0720     		mov	r0, #7
 2341              	.LVL278:
 2342 006e 002D     		cmp	r5, #0
 2343 0070 40D0     		beq	.L210
1145:.\sd/ff.c     **** 					if (clst == 0xFFFFFFFF) return FR_DISK_ERR;
 2344              		.loc 1 1145 0
 2345 0072 012D     		cmp	r5, #1
 2346 0074 EAD0     		beq	.L219
1146:.\sd/ff.c     **** 					/* Clean-up stretched table */
 2347              		.loc 1 1146 0
 2348 0076 6B1C     		add	r3, r5, #1
 2349 0078 ECD0     		beq	.L220
1148:.\sd/ff.c     **** 					mem_set(dj->fs->win, 0, SS(dj->fs));			/* Clear window buffer */
 2350              		.loc 1 1148 0
 2351 007a 2068     		ldr	r0, [r4]
 2352 007c 0021     		mov	r1, #0
 2353 007e FFF7FEFF 		bl	move_window
 2354              	.LVL279:
 2355 0082 0028     		cmp	r0, #0
 2356 0084 E6D1     		bne	.L220
ARM GAS  C:\Users\Jarik\AppData\Local\Temp\ccASvTaK.s 			page 85


1149:.\sd/ff.c     **** 					dj->fs->winsect = clust2sect(dj->fs, clst);	/* Cluster start sector */
 2357              		.loc 1 1149 0
 2358 0086 2368     		ldr	r3, [r4]
 2359              	.LVL280:
 2360 0088 8C21     		mov	r1, #140
 2361 008a 1A1C     		mov	r2, r3
 2362 008c 8900     		lsl	r1, r1, #2
 2363 008e 3032     		add	r2, r2, #48
 2364              	.LVL281:
 2365 0090 5B18     		add	r3, r3, r1
 2366              	.LVL282:
 2367              	.L221:
 2368              	.LBB35:
 2369              	.LBB36:
 549:.\sd/ff.c     **** 		*d++ = (BYTE)val;
 2370              		.loc 1 549 0
 2371 0092 9A42     		cmp	r2, r3
 2372 0094 03D0     		beq	.L239
 2373              	.LVL283:
 550:.\sd/ff.c     **** }
 2374              		.loc 1 550 0
 2375 0096 0021     		mov	r1, #0
 2376 0098 1170     		strb	r1, [r2]
 2377 009a 0132     		add	r2, r2, #1
 2378              	.LVL284:
 2379 009c F9E7     		b	.L221
 2380              	.LVL285:
 2381              	.L239:
 2382              	.LBE36:
 2383              	.LBE35:
1150:.\sd/ff.c     **** 					for (c = 0; c < dj->fs->csize; c++) {		/* Fill the new cluster with 0 */
 2384              		.loc 1 1150 0
 2385 009e 2768     		ldr	r7, [r4]
 2386              	.LVL286:
 2387 00a0 291C     		mov	r1, r5
 2388 00a2 381C     		mov	r0, r7
 2389 00a4 FFF7FEFF 		bl	clust2sect
 2390              	.LVL287:
 2391 00a8 F862     		str	r0, [r7, #44]
 2392              	.LVL288:
1151:.\sd/ff.c     **** 						dj->fs->wflag = 1;
 2393              		.loc 1 1151 0
 2394 00aa 0027     		mov	r7, #0
 2395              	.LVL289:
 2396              	.L223:
1151:.\sd/ff.c     **** 						dj->fs->wflag = 1;
 2397              		.loc 1 1151 0 is_stmt 0 discriminator 1
 2398 00ac 2368     		ldr	r3, [r4]
 2399 00ae 9A78     		ldrb	r2, [r3, #2]
 2400 00b0 BA42     		cmp	r2, r7
 2401 00b2 0ED9     		bls	.L240
1152:.\sd/ff.c     **** 						if (move_window(dj->fs, 0)) return FR_DISK_ERR;
 2402              		.loc 1 1152 0 is_stmt 1
 2403 00b4 0122     		mov	r2, #1
 2404 00b6 1A71     		strb	r2, [r3, #4]
1153:.\sd/ff.c     **** 						dj->fs->winsect++;
 2405              		.loc 1 1153 0
ARM GAS  C:\Users\Jarik\AppData\Local\Temp\ccASvTaK.s 			page 86


 2406 00b8 2068     		ldr	r0, [r4]
 2407 00ba 0021     		mov	r1, #0
 2408 00bc FFF7FEFF 		bl	move_window
 2409              	.LVL290:
 2410 00c0 0028     		cmp	r0, #0
 2411 00c2 C7D1     		bne	.L220
1154:.\sd/ff.c     **** 					}
 2412              		.loc 1 1154 0 discriminator 2
 2413 00c4 2268     		ldr	r2, [r4]
1151:.\sd/ff.c     **** 						dj->fs->wflag = 1;
 2414              		.loc 1 1151 0 discriminator 2
 2415 00c6 0137     		add	r7, r7, #1
 2416              	.LVL291:
1154:.\sd/ff.c     **** 					}
 2417              		.loc 1 1154 0 discriminator 2
 2418 00c8 D36A     		ldr	r3, [r2, #44]
1151:.\sd/ff.c     **** 						dj->fs->wflag = 1;
 2419              		.loc 1 1151 0 discriminator 2
 2420 00ca FFB2     		uxtb	r7, r7
 2421              	.LVL292:
1154:.\sd/ff.c     **** 					}
 2422              		.loc 1 1154 0 discriminator 2
 2423 00cc 0133     		add	r3, r3, #1
 2424 00ce D362     		str	r3, [r2, #44]
 2425 00d0 ECE7     		b	.L223
 2426              	.L240:
1156:.\sd/ff.c     **** #else
 2427              		.loc 1 1156 0
 2428 00d2 DA6A     		ldr	r2, [r3, #44]
 2429 00d4 D71B     		sub	r7, r2, r7
 2430              	.LVL293:
 2431 00d6 DF62     		str	r7, [r3, #44]
 2432              	.LVL294:
 2433              	.L218:
 2434              	.LBE34:
1161:.\sd/ff.c     **** 				dj->sect = clust2sect(dj->fs, clst);
 2435              		.loc 1 1161 0
 2436 00d8 E560     		str	r5, [r4, #12]
1162:.\sd/ff.c     **** 			}
 2437              		.loc 1 1162 0
 2438 00da 2068     		ldr	r0, [r4]
 2439 00dc 291C     		mov	r1, r5
 2440 00de FFF7FEFF 		bl	clust2sect
 2441              	.LVL295:
 2442 00e2 2061     		str	r0, [r4, #16]
 2443              	.LVL296:
 2444              	.L213:
1170:.\sd/ff.c     **** }
 2445              		.loc 1 1170 0
 2446 00e4 0020     		mov	r0, #0
1168:.\sd/ff.c     **** 
 2447              		.loc 1 1168 0
 2448 00e6 019B     		ldr	r3, [sp, #4]
 2449 00e8 2268     		ldr	r2, [r4]
 2450 00ea 5B01     		lsl	r3, r3, #5
 2451 00ec 3033     		add	r3, r3, #48
 2452 00ee D318     		add	r3, r2, r3
ARM GAS  C:\Users\Jarik\AppData\Local\Temp\ccASvTaK.s 			page 87


1167:.\sd/ff.c     **** 	dj->dir = dj->fs->win + (i % (SS(dj->fs) / SZ_DIR)) * SZ_DIR;
 2453              		.loc 1 1167 0
 2454 00f0 E680     		strh	r6, [r4, #6]
1168:.\sd/ff.c     **** 
 2455              		.loc 1 1168 0
 2456 00f2 6361     		str	r3, [r4, #20]
 2457              	.LVL297:
 2458              	.L210:
1171:.\sd/ff.c     **** 
 2459              		.loc 1 1171 0
 2460              		@ sp needed
 2461              	.LVL298:
 2462 00f4 FEBD     		pop	{r1, r2, r3, r4, r5, r6, r7, pc}
 2463              		.cfi_endproc
 2464              	.LFE17:
 2465              		.size	dir_next, .-dir_next
 2466              		.section	.text.follow_path,"ax",%progbits
 2467              		.align	1
 2468              		.code	16
 2469              		.thumb_func
 2470              		.type	follow_path, %function
 2471              	follow_path:
 2472              	.LFB24:
1923:.\sd/ff.c     **** 	FRESULT res;
 2473              		.loc 1 1923 0
 2474              		.cfi_startproc
 2475              	.LVL299:
 2476 0000 F7B5     		push	{r0, r1, r2, r4, r5, r6, r7, lr}
 2477              		.cfi_def_cfa_offset 32
 2478              		.cfi_offset 0, -32
 2479              		.cfi_offset 1, -28
 2480              		.cfi_offset 2, -24
 2481              		.cfi_offset 4, -20
 2482              		.cfi_offset 5, -16
 2483              		.cfi_offset 6, -12
 2484              		.cfi_offset 7, -8
 2485              		.cfi_offset 14, -4
1935:.\sd/ff.c     **** 		path++;
 2486              		.loc 1 1935 0
 2487 0002 0B78     		ldrb	r3, [r1]
1923:.\sd/ff.c     **** 	FRESULT res;
 2488              		.loc 1 1923 0
 2489 0004 041C     		mov	r4, r0
 2490 0006 0D1C     		mov	r5, r1
1935:.\sd/ff.c     **** 		path++;
 2491              		.loc 1 1935 0
 2492 0008 2F2B     		cmp	r3, #47
 2493 000a 01D0     		beq	.L242
1935:.\sd/ff.c     **** 		path++;
 2494              		.loc 1 1935 0 is_stmt 0 discriminator 1
 2495 000c 5C2B     		cmp	r3, #92
 2496 000e 00D1     		bne	.L243
 2497              	.L242:
1936:.\sd/ff.c     **** 	dj->sclust = 0;						/* Start from the root dir */
 2498              		.loc 1 1936 0 is_stmt 1
 2499 0010 0135     		add	r5, r5, #1
 2500              	.LVL300:
ARM GAS  C:\Users\Jarik\AppData\Local\Temp\ccASvTaK.s 			page 88


 2501              	.L243:
1937:.\sd/ff.c     **** #endif
 2502              		.loc 1 1937 0
 2503 0012 0026     		mov	r6, #0
 2504 0014 A660     		str	r6, [r4, #8]
1940:.\sd/ff.c     **** 		res = dir_sdi(dj, 0);
 2505              		.loc 1 1940 0
 2506 0016 2B78     		ldrb	r3, [r5]
 2507 0018 1F2B     		cmp	r3, #31
 2508 001a 06D8     		bhi	.L247
1941:.\sd/ff.c     **** 		dj->dir = 0;
 2509              		.loc 1 1941 0
 2510 001c 201C     		mov	r0, r4
 2511              	.LVL301:
 2512 001e 311C     		mov	r1, r6
 2513 0020 FFF7FEFF 		bl	dir_sdi
 2514              	.LVL302:
1942:.\sd/ff.c     **** 
 2515              		.loc 1 1942 0
 2516 0024 6661     		str	r6, [r4, #20]
 2517 0026 B4E0     		b	.L292
 2518              	.LVL303:
 2519              	.L248:
 2520              	.LBB47:
 2521              	.LBB48:
1759:.\sd/ff.c     **** 	sfn = dj->fn;
 2522              		.loc 1 1759 0
 2523 0028 0135     		add	r5, r5, #1
 2524              	.LVL304:
 2525              	.L247:
 2526 002a 2B78     		ldrb	r3, [r5]
 2527 002c 2F2B     		cmp	r3, #47
 2528 002e FBD0     		beq	.L248
 2529 0030 5C2B     		cmp	r3, #92
 2530 0032 F9D0     		beq	.L248
1760:.\sd/ff.c     **** 	mem_set(sfn, ' ', 11);
 2531              		.loc 1 1760 0
 2532 0034 A069     		ldr	r0, [r4, #24]
 2533              	.LVL305:
 2534 0036 021C     		mov	r2, r0
 2535 0038 031C     		mov	r3, r0
 2536 003a 0B32     		add	r2, r2, #11
 2537              	.LVL306:
 2538              	.L249:
 2539              	.LBB49:
 2540              	.LBB50:
 549:.\sd/ff.c     **** 		*d++ = (BYTE)val;
 2541              		.loc 1 549 0
 2542 003c 9342     		cmp	r3, r2
 2543 003e 03D0     		beq	.L307
 2544              	.LVL307:
 550:.\sd/ff.c     **** }
 2545              		.loc 1 550 0
 2546 0040 2021     		mov	r1, #32
 2547 0042 1970     		strb	r1, [r3]
 2548 0044 0133     		add	r3, r3, #1
 2549              	.LVL308:
ARM GAS  C:\Users\Jarik\AppData\Local\Temp\ccASvTaK.s 			page 89


 2550 0046 F9E7     		b	.L249
 2551              	.LVL309:
 2552              	.L307:
 549:.\sd/ff.c     **** 		*d++ = (BYTE)val;
 2553              		.loc 1 549 0
 2554 0048 0021     		mov	r1, #0
 2555 004a 0822     		mov	r2, #8
 2556 004c 0B1C     		mov	r3, r1
 2557              	.LVL310:
 2558 004e 0092     		str	r2, [sp]
 2559 0050 0A1C     		mov	r2, r1
 2560              	.L251:
 2561              	.LVL311:
 2562              	.LBE50:
 2563              	.LBE49:
1777:.\sd/ff.c     **** 		if (c <= ' ' || c == '/' || c == '\\') break;	/* Break on end of segment */
 2564              		.loc 1 1777 0
 2565 0052 5F1C     		add	r7, r3, #1
 2566 0054 EB5C     		ldrb	r3, [r5, r3]
 2567              	.LVL312:
 2568 0056 0197     		str	r7, [sp, #4]
 2569              	.LVL313:
1778:.\sd/ff.c     **** 		if (c == '.' || i >= ni) {
 2570              		.loc 1 1778 0
 2571 0058 202B     		cmp	r3, #32
 2572 005a 19D9     		bls	.L252
 2573 005c 2F2B     		cmp	r3, #47
 2574 005e 17D0     		beq	.L252
 2575 0060 5C2B     		cmp	r3, #92
 2576 0062 15D0     		beq	.L252
1779:.\sd/ff.c     **** 			if (ni != 8 || c != '.') return FR_INVALID_NAME;
 2577              		.loc 1 1779 0
 2578 0064 2E2B     		cmp	r3, #46
 2579 0066 78D0     		beq	.L253
 2580 0068 009E     		ldr	r6, [sp]
 2581 006a B142     		cmp	r1, r6
 2582 006c 73D2     		bcs	.L285
1784:.\sd/ff.c     **** 			b |= 3;						/* Eliminate NT flag */
 2583              		.loc 1 1784 0
 2584 006e 5FB2     		sxtb	r7, r3
 2585              	.LVL314:
 2586 0070 002F     		cmp	r7, #0
 2587 0072 04DA     		bge	.L256
1785:.\sd/ff.c     **** #ifdef _EXCVT
 2588              		.loc 1 1785 0
 2589 0074 0327     		mov	r7, #3
 2590 0076 3A43     		orr	r2, r7
 2591              	.LVL315:
1787:.\sd/ff.c     **** #else
 2592              		.loc 1 1787 0
 2593 0078 464F     		ldr	r7, .L309
 2594 007a 803B     		sub	r3, r3, #128
 2595              	.LVL316:
 2596 007c FB5C     		ldrb	r3, [r7, r3]
 2597              	.LVL317:
 2598              	.L256:
1801:.\sd/ff.c     **** 				return FR_INVALID_NAME;
ARM GAS  C:\Users\Jarik\AppData\Local\Temp\ccASvTaK.s 			page 90


 2599              		.loc 1 1801 0
 2600 007e 0027     		mov	r7, #0
 2601              	.LVL318:
 2602              	.L258:
 2603              	.LBB51:
 2604              	.LBB52:
 566:.\sd/ff.c     **** 	return *str;
 2605              		.loc 1 566 0
 2606 0080 454E     		ldr	r6, .L309+4
 2607 0082 F65D     		ldrb	r6, [r6, r7]
 2608 0084 002E     		cmp	r6, #0
 2609 0086 72D0     		beq	.L257
 2610 0088 0137     		add	r7, r7, #1
 2611              	.LVL319:
 2612 008a 9E42     		cmp	r6, r3
 2613 008c F8D1     		bne	.L258
 2614 008e 62E0     		b	.L285
 2615              	.LVL320:
 2616              	.L252:
 2617              	.LBE52:
 2618              	.LBE51:
1813:.\sd/ff.c     **** 	c = (c <= ' ') ? NS_LAST : 0;		/* Set last segment flag if end of path */
 2619              		.loc 1 1813 0
 2620 0090 019E     		ldr	r6, [sp, #4]
1814:.\sd/ff.c     **** 
 2621              		.loc 1 1814 0
 2622 0092 0027     		mov	r7, #0
 2623              	.LVL321:
1813:.\sd/ff.c     **** 	c = (c <= ' ') ? NS_LAST : 0;		/* Set last segment flag if end of path */
 2624              		.loc 1 1813 0
 2625 0094 AD19     		add	r5, r5, r6
 2626              	.LVL322:
1814:.\sd/ff.c     **** 
 2627              		.loc 1 1814 0
 2628 0096 2026     		mov	r6, #32
 2629 0098 9E42     		cmp	r6, r3
 2630 009a 7F41     		adc	r7, r7, r7
 2631 009c BB00     		lsl	r3, r7, #2
 2632              	.LVL323:
1816:.\sd/ff.c     **** 	if (sfn[0] == DDE) sfn[0] = NDDE;	/* When first char collides with DDE, replace it with 0x05 */
 2633              		.loc 1 1816 0
 2634 009e 0029     		cmp	r1, #0
 2635 00a0 59D0     		beq	.L285
1817:.\sd/ff.c     **** 
 2636              		.loc 1 1817 0
 2637 00a2 0178     		ldrb	r1, [r0]
 2638              	.LVL324:
 2639 00a4 E529     		cmp	r1, #229
 2640 00a6 01D1     		bne	.L261
 2641 00a8 E039     		sub	r1, r1, #224
 2642 00aa 0170     		strb	r1, [r0]
 2643              	.L261:
1819:.\sd/ff.c     **** 	if ((b & 0x03) == 0x01) c |= NS_EXT;	/* NT flag (Name extension has only small capital) */
 2644              		.loc 1 1819 0
 2645 00ac 0099     		ldr	r1, [sp]
 2646 00ae 0829     		cmp	r1, #8
 2647 00b0 01D1     		bne	.L262
ARM GAS  C:\Users\Jarik\AppData\Local\Temp\ccASvTaK.s 			page 91


 2648 00b2 9200     		lsl	r2, r2, #2
 2649              	.LVL325:
 2650 00b4 D2B2     		uxtb	r2, r2
 2651              	.LVL326:
 2652              	.L262:
1820:.\sd/ff.c     **** 	if ((b & 0x0C) == 0x04) c |= NS_BODY;	/* NT flag (Name body has only small capital) */
 2653              		.loc 1 1820 0
 2654 00b6 0321     		mov	r1, #3
 2655 00b8 1140     		and	r1, r2
 2656 00ba 0129     		cmp	r1, #1
 2657 00bc 02D1     		bne	.L263
 2658 00be 0F31     		add	r1, r1, #15
 2659 00c0 0B43     		orr	r3, r1
 2660              	.LVL327:
 2661 00c2 DBB2     		uxtb	r3, r3
 2662              	.LVL328:
 2663              	.L263:
1821:.\sd/ff.c     **** 
 2664              		.loc 1 1821 0
 2665 00c4 0C21     		mov	r1, #12
 2666 00c6 0A40     		and	r2, r1
 2667              	.LVL329:
 2668 00c8 042A     		cmp	r2, #4
 2669 00ca 02D1     		bne	.L264
 2670 00cc 0432     		add	r2, r2, #4
 2671 00ce 1343     		orr	r3, r2
 2672              	.LVL330:
 2673 00d0 DBB2     		uxtb	r3, r3
 2674              	.LVL331:
 2675              	.L264:
1823:.\sd/ff.c     **** 
 2676              		.loc 1 1823 0
 2677 00d2 C372     		strb	r3, [r0, #11]
 2678              	.LVL332:
 2679              	.LBE48:
 2680              	.LBE47:
 2681              	.LBB54:
 2682              	.LBB55:
1363:.\sd/ff.c     **** 	if (res != FR_OK) return res;
 2683              		.loc 1 1363 0
 2684 00d4 0021     		mov	r1, #0
 2685 00d6 201C     		mov	r0, r4
 2686              	.LVL333:
 2687 00d8 FFF7FEFF 		bl	dir_sdi
 2688              	.LVL334:
 2689              	.L306:
1364:.\sd/ff.c     **** 
 2690              		.loc 1 1364 0
 2691 00dc 0028     		cmp	r0, #0
 2692 00de 1CD1     		bne	.L265
1370:.\sd/ff.c     **** 		if (res != FR_OK) break;
 2693              		.loc 1 1370 0
 2694 00e0 2068     		ldr	r0, [r4]
 2695              	.LVL335:
 2696 00e2 2169     		ldr	r1, [r4, #16]
 2697 00e4 FFF7FEFF 		bl	move_window
 2698              	.LVL336:
ARM GAS  C:\Users\Jarik\AppData\Local\Temp\ccASvTaK.s 			page 92


1371:.\sd/ff.c     **** 		dir = dj->dir;					/* Ptr to the directory entry of current index */
 2699              		.loc 1 1371 0
 2700 00e8 0028     		cmp	r0, #0
 2701 00ea 16D1     		bne	.L265
1372:.\sd/ff.c     **** 		c = dir[DIR_Name];
 2702              		.loc 1 1372 0
 2703 00ec 6169     		ldr	r1, [r4, #20]
 2704              	.LVL337:
1374:.\sd/ff.c     **** #if _USE_LFN	/* LFN configuration */
 2705              		.loc 1 1374 0
 2706 00ee 0B78     		ldrb	r3, [r1]
 2707 00f0 002B     		cmp	r3, #0
 2708 00f2 11D0     		beq	.L279
1397:.\sd/ff.c     **** 			break;
 2709              		.loc 1 1397 0
 2710 00f4 0823     		mov	r3, #8
 2711 00f6 CA7A     		ldrb	r2, [r1, #11]
 2712 00f8 1A40     		and	r2, r3
 2713 00fa 08D1     		bne	.L266
 2714 00fc A669     		ldr	r6, [r4, #24]
 2715              	.LVL338:
 2716              	.L267:
 2717              	.LBB56:
 2718              	.LBB57:
 559:.\sd/ff.c     **** 	return r;
 2719              		.loc 1 559 0
 2720 00fe 8B5C     		ldrb	r3, [r1, r2]
 2721 0100 B05C     		ldrb	r0, [r6, r2]
 2722 0102 0132     		add	r2, r2, #1
 2723              	.LVL339:
 2724 0104 181A     		sub	r0, r3, r0
 2725              	.LVL340:
 2726 0106 02D1     		bne	.L266
 2727              	.LVL341:
 2728 0108 0B2A     		cmp	r2, #11
 2729 010a F8D1     		bne	.L267
 2730 010c 05E0     		b	.L265
 2731              	.LVL342:
 2732              	.L266:
 2733              	.LBE57:
 2734              	.LBE56:
1400:.\sd/ff.c     **** 	} while (res == FR_OK);
 2735              		.loc 1 1400 0
 2736 010e 201C     		mov	r0, r4
 2737 0110 0021     		mov	r1, #0
 2738              	.LVL343:
 2739 0112 FFF7FEFF 		bl	dir_next
 2740              	.LVL344:
 2741 0116 E1E7     		b	.L306
 2742              	.LVL345:
 2743              	.L279:
1374:.\sd/ff.c     **** #if _USE_LFN	/* LFN configuration */
 2744              		.loc 1 1374 0
 2745 0118 0420     		mov	r0, #4
 2746              	.LVL346:
 2747              	.L265:
 2748              	.LBE55:
ARM GAS  C:\Users\Jarik\AppData\Local\Temp\ccASvTaK.s 			page 93


 2749              	.LBE54:
1949:.\sd/ff.c     **** 			if (res != FR_OK) {				/* Failed to find the object */
