ARM GAS  C:\Users\Jarik\AppData\Local\Temp\ccYdEmgG.s 			page 1


   1              		.cpu cortex-m0
   2              		.fpu softvfp
   3              		.eabi_attribute 20, 1
   4              		.eabi_attribute 21, 1
   5              		.eabi_attribute 23, 3
   6              		.eabi_attribute 24, 1
   7              		.eabi_attribute 25, 1
   8              		.eabi_attribute 26, 1
   9              		.eabi_attribute 30, 4
  10              		.eabi_attribute 34, 0
  11              		.eabi_attribute 18, 4
  12              		.code	16
  13              		.file	"sdmm.c"
  14              		.text
  15              	.Ltext0:
  16              		.cfi_sections	.debug_frame
  17              		.section	.text.rcvr_mmc,"ax",%progbits
  18              		.align	1
  19              		.code	16
  20              		.thumb_func
  21              		.type	rcvr_mmc, %function
  22              	rcvr_mmc:
  23              	.LFB34:
  24              		.file 1 ".\\sd\\sdmm.c"
   1:.\sd/sdmm.c   **** /*------------------------------------------------------------------------/
   2:.\sd/sdmm.c   **** /  Foolproof MMCv3/SDv1/SDv2 (in SPI mode) control module
   3:.\sd/sdmm.c   **** /-------------------------------------------------------------------------/
   4:.\sd/sdmm.c   **** /
   5:.\sd/sdmm.c   **** /  Copyright (C) 2013, ChaN, all right reserved.
   6:.\sd/sdmm.c   **** /
   7:.\sd/sdmm.c   **** / * This software is a free software and there is NO WARRANTY.
   8:.\sd/sdmm.c   **** / * No restriction on use. You can use, modify and redistribute it for
   9:.\sd/sdmm.c   **** /   personal, non-profit or commercial products UNDER YOUR RESPONSIBILITY.
  10:.\sd/sdmm.c   **** / * Redistributions of source code must retain the above copyright notice.
  11:.\sd/sdmm.c   **** /
  12:.\sd/sdmm.c   **** /-------------------------------------------------------------------------/
  13:.\sd/sdmm.c   ****   Features and Limitations:
  14:.\sd/sdmm.c   **** 
  15:.\sd/sdmm.c   ****  
  16:.\sd/sdmm.c   **** 
  17:.\sd/sdmm.c   **** /-------------------------------------------------------------------------*/
  18:.\sd/sdmm.c   **** 
  19:.\sd/sdmm.c   **** 
  20:.\sd/sdmm.c   **** #include "sd/diskio.h"		/* Common include file for FatFs and disk I/O layer */
  21:.\sd/sdmm.c   **** #include "sd/SPI_routines.h"
  22:.\sd/sdmm.c   **** #include <project.h>
  23:.\sd/sdmm.c   **** 
  24:.\sd/sdmm.c   **** /*-------------------------------------------------------------------------*/
  25:.\sd/sdmm.c   **** /* Platform dependent macros and functions needed to be modified           */
  26:.\sd/sdmm.c   **** /*-------------------------------------------------------------------------*/
  27:.\sd/sdmm.c   **** 
  28:.\sd/sdmm.c   **** 
  29:.\sd/sdmm.c   **** 
  30:.\sd/sdmm.c   **** 
  31:.\sd/sdmm.c   **** 
  32:.\sd/sdmm.c   **** /*--------------------------------------------------------------------------
  33:.\sd/sdmm.c   **** 
ARM GAS  C:\Users\Jarik\AppData\Local\Temp\ccYdEmgG.s 			page 2


  34:.\sd/sdmm.c   ****    Module Private Functions
  35:.\sd/sdmm.c   **** 
  36:.\sd/sdmm.c   **** ---------------------------------------------------------------------------*/
  37:.\sd/sdmm.c   **** 
  38:.\sd/sdmm.c   **** /* MMC/SD command (SPI mode) */
  39:.\sd/sdmm.c   **** #define CMD0	(0)			/* GO_IDLE_STATE */
  40:.\sd/sdmm.c   **** #define CMD1	(1)			/* SEND_OP_COND */
  41:.\sd/sdmm.c   **** #define	ACMD41	(0x80+41)	/* SEND_OP_COND (SDC) */
  42:.\sd/sdmm.c   **** #define CMD8	(8)			/* SEND_IF_COND */
  43:.\sd/sdmm.c   **** #define CMD9	(9)			/* SEND_CSD */
  44:.\sd/sdmm.c   **** #define CMD10	(10)		/* SEND_CID */
  45:.\sd/sdmm.c   **** #define CMD12	(12)		/* STOP_TRANSMISSION */
  46:.\sd/sdmm.c   **** #define CMD13	(13)		/* SEND_STATUS */
  47:.\sd/sdmm.c   **** #define ACMD13	(0x80+13)	/* SD_STATUS (SDC) */
  48:.\sd/sdmm.c   **** #define CMD16	(16)		/* SET_BLOCKLEN */
  49:.\sd/sdmm.c   **** #define CMD17	(17)		/* READ_SINGLE_BLOCK */
  50:.\sd/sdmm.c   **** #define CMD18	(18)		/* READ_MULTIPLE_BLOCK */
  51:.\sd/sdmm.c   **** #define CMD23	(23)		/* SET_BLOCK_COUNT */
  52:.\sd/sdmm.c   **** #define	ACMD23	(0x80+23)	/* SET_WR_BLK_ERASE_COUNT (SDC) */
  53:.\sd/sdmm.c   **** #define CMD24	(24)		/* WRITE_BLOCK */
  54:.\sd/sdmm.c   **** #define CMD25	(25)		/* WRITE_MULTIPLE_BLOCK */
  55:.\sd/sdmm.c   **** #define CMD32	(32)		/* ERASE_ER_BLK_START */
  56:.\sd/sdmm.c   **** #define CMD33	(33)		/* ERASE_ER_BLK_END */
  57:.\sd/sdmm.c   **** #define CMD38	(38)		/* ERASE */
  58:.\sd/sdmm.c   **** #define CMD55	(55)		/* APP_CMD */
  59:.\sd/sdmm.c   **** #define CMD58	(58)		/* READ_OCR */
  60:.\sd/sdmm.c   **** 
  61:.\sd/sdmm.c   **** #define CS_L SPI_CS_Write(0)
  62:.\sd/sdmm.c   **** #define CS_H SPI_CS_Write(1)
  63:.\sd/sdmm.c   **** #define dly_us(T) CyDelayUs(T)
  64:.\sd/sdmm.c   **** 
  65:.\sd/sdmm.c   **** 
  66:.\sd/sdmm.c   **** 
  67:.\sd/sdmm.c   **** static
  68:.\sd/sdmm.c   **** DSTATUS Stat = STA_NOINIT;	/* Disk status */
  69:.\sd/sdmm.c   **** 
  70:.\sd/sdmm.c   **** static
  71:.\sd/sdmm.c   **** BYTE CardType;			/* b0:MMC, b1:SDv1, b2:SDv2, b3:Block addressing */
  72:.\sd/sdmm.c   **** 
  73:.\sd/sdmm.c   **** 
  74:.\sd/sdmm.c   **** 
  75:.\sd/sdmm.c   **** /*-----------------------------------------------------------------------*/
  76:.\sd/sdmm.c   **** /* Transmit bytes to the card (bitbanging)                               */
  77:.\sd/sdmm.c   **** /*-----------------------------------------------------------------------*/
  78:.\sd/sdmm.c   **** 
  79:.\sd/sdmm.c   **** static
  80:.\sd/sdmm.c   **** void xmit_mmc (
  81:.\sd/sdmm.c   **** 	const BYTE* buff,	/* Data to be sent */
  82:.\sd/sdmm.c   **** 	UINT bc				/* Number of bytes to send */
  83:.\sd/sdmm.c   **** )
  84:.\sd/sdmm.c   **** {
  85:.\sd/sdmm.c   **** 	BYTE d;
  86:.\sd/sdmm.c   **** 
  87:.\sd/sdmm.c   **** 
  88:.\sd/sdmm.c   **** 	do {
  89:.\sd/sdmm.c   **** 		d = *buff++;	/* Get a byte to be sent */
  90:.\sd/sdmm.c   **** 		SPI_transmit(d);
ARM GAS  C:\Users\Jarik\AppData\Local\Temp\ccYdEmgG.s 			page 3


  91:.\sd/sdmm.c   **** 	} while (--bc);
  92:.\sd/sdmm.c   **** }
  93:.\sd/sdmm.c   **** 
  94:.\sd/sdmm.c   **** 
  95:.\sd/sdmm.c   **** 
  96:.\sd/sdmm.c   **** /*-----------------------------------------------------------------------*/
  97:.\sd/sdmm.c   **** /* Receive bytes from the card (bitbanging)                              */
  98:.\sd/sdmm.c   **** /*-----------------------------------------------------------------------*/
  99:.\sd/sdmm.c   **** 
 100:.\sd/sdmm.c   **** static
 101:.\sd/sdmm.c   **** void rcvr_mmc (
 102:.\sd/sdmm.c   **** 	BYTE *buff,	/* Pointer to read buffer */
 103:.\sd/sdmm.c   **** 	UINT bc		/* Number of bytes to receive */
 104:.\sd/sdmm.c   **** )
 105:.\sd/sdmm.c   **** {
  25              		.loc 1 105 0
  26              		.cfi_startproc
  27              	.LVL0:
  28 0000 70B5     		push	{r4, r5, r6, lr}
  29              		.cfi_def_cfa_offset 16
  30              		.cfi_offset 4, -16
  31              		.cfi_offset 5, -12
  32              		.cfi_offset 6, -8
  33              		.cfi_offset 14, -4
  34              		.loc 1 105 0
  35 0002 051C     		mov	r5, r0
  36 0004 0E1C     		mov	r6, r1
  37 0006 041C     		mov	r4, r0
  38              	.LVL1:
  39              	.L2:
 106:.\sd/sdmm.c   **** 	BYTE r;
 107:.\sd/sdmm.c   **** 
 108:.\sd/sdmm.c   **** 
 109:.\sd/sdmm.c   **** 	
 110:.\sd/sdmm.c   **** 
 111:.\sd/sdmm.c   **** 	do {
 112:.\sd/sdmm.c   **** 		r= SPI_receive();
  40              		.loc 1 112 0 discriminator 1
  41 0008 FFF7FEFF 		bl	SPI_receive
  42              	.LVL2:
 113:.\sd/sdmm.c   **** 		*buff++ = r;			/* Store a received byte */
  43              		.loc 1 113 0 discriminator 1
  44 000c 2070     		strb	r0, [r4]
  45              	.LVL3:
  46 000e 0134     		add	r4, r4, #1
  47              	.LVL4:
  48 0010 A31B     		sub	r3, r4, r6
 114:.\sd/sdmm.c   **** 	} while (--bc);
  49              		.loc 1 114 0 discriminator 1
  50 0012 AB42     		cmp	r3, r5
  51 0014 F8D1     		bne	.L2
 115:.\sd/sdmm.c   **** }
  52              		.loc 1 115 0
  53              		@ sp needed
  54              	.LVL5:
  55 0016 70BD     		pop	{r4, r5, r6, pc}
  56              		.cfi_endproc
ARM GAS  C:\Users\Jarik\AppData\Local\Temp\ccYdEmgG.s 			page 4


  57              	.LFE34:
  58              		.size	rcvr_mmc, .-rcvr_mmc
  59              		.section	.text.wait_ready,"ax",%progbits
  60              		.align	1
  61              		.code	16
  62              		.thumb_func
  63              		.type	wait_ready, %function
  64              	wait_ready:
  65              	.LFB35:
 116:.\sd/sdmm.c   **** 
 117:.\sd/sdmm.c   **** 
 118:.\sd/sdmm.c   **** 
 119:.\sd/sdmm.c   **** /*-----------------------------------------------------------------------*/
 120:.\sd/sdmm.c   **** /* Wait for card ready                                                   */
 121:.\sd/sdmm.c   **** /*-----------------------------------------------------------------------*/
 122:.\sd/sdmm.c   **** 
 123:.\sd/sdmm.c   **** static
 124:.\sd/sdmm.c   **** int wait_ready (void)	/* 1:OK, 0:Timeout */
 125:.\sd/sdmm.c   **** {
  66              		.loc 1 125 0
  67              		.cfi_startproc
  68              	.LVL6:
  69 0000 37B5     		push	{r0, r1, r2, r4, r5, lr}
  70              		.cfi_def_cfa_offset 24
  71              		.cfi_offset 0, -24
  72              		.cfi_offset 1, -20
  73              		.cfi_offset 2, -16
  74              		.cfi_offset 4, -12
  75              		.cfi_offset 5, -8
  76              		.cfi_offset 14, -4
 126:.\sd/sdmm.c   **** 	BYTE d;
 127:.\sd/sdmm.c   **** 	UINT tmr;
 128:.\sd/sdmm.c   **** 
 129:.\sd/sdmm.c   **** 
 130:.\sd/sdmm.c   **** 	for (tmr = 5000; tmr; tmr--) {	/* Wait for ready in timeout of 500ms */
  77              		.loc 1 130 0
  78 0002 0A4C     		ldr	r4, .L10
  79              	.LVL7:
  80              	.L6:
 131:.\sd/sdmm.c   **** 		rcvr_mmc(&d, 1);
  81              		.loc 1 131 0
  82 0004 6B46     		mov	r3, sp
  83 0006 DD1D     		add	r5, r3, #7
  84 0008 281C     		mov	r0, r5
  85 000a 0121     		mov	r1, #1
  86 000c FFF7FEFF 		bl	rcvr_mmc
  87              	.LVL8:
 132:.\sd/sdmm.c   **** 		if (d == 0xFF) break;
  88              		.loc 1 132 0
  89 0010 2B78     		ldrb	r3, [r5]
  90 0012 FF2B     		cmp	r3, #255
  91 0014 05D0     		beq	.L5
 133:.\sd/sdmm.c   **** 		dly_us(100);
  92              		.loc 1 133 0 discriminator 2
  93 0016 6420     		mov	r0, #100
 130:.\sd/sdmm.c   **** 		rcvr_mmc(&d, 1);
  94              		.loc 1 130 0 discriminator 2
ARM GAS  C:\Users\Jarik\AppData\Local\Temp\ccYdEmgG.s 			page 5


  95 0018 013C     		sub	r4, r4, #1
  96              	.LVL9:
  97              		.loc 1 133 0 discriminator 2
  98 001a FFF7FEFF 		bl	CyDelayUs
  99              	.LVL10:
 130:.\sd/sdmm.c   **** 		rcvr_mmc(&d, 1);
 100              		.loc 1 130 0 discriminator 2
 101 001e 002C     		cmp	r4, #0
 102 0020 F0D1     		bne	.L6
 103              	.L5:
 134:.\sd/sdmm.c   **** 	}
 135:.\sd/sdmm.c   **** 
 136:.\sd/sdmm.c   **** 	return tmr ? 1 : 0;
 104              		.loc 1 136 0
 105 0022 201C     		mov	r0, r4
 137:.\sd/sdmm.c   **** }
 106              		.loc 1 137 0
 107              		@ sp needed
 136:.\sd/sdmm.c   **** }
 108              		.loc 1 136 0
 109 0024 441E     		sub	r4, r0, #1
 110 0026 A041     		sbc	r0, r0, r4
 111              	.LVL11:
 112              		.loc 1 137 0
 113 0028 3EBD     		pop	{r1, r2, r3, r4, r5, pc}
 114              	.L11:
 115 002a C046     		.align	2
 116              	.L10:
 117 002c 88130000 		.word	5000
 118              		.cfi_endproc
 119              	.LFE35:
 120              		.size	wait_ready, .-wait_ready
 121              		.section	.text.rcvr_datablock,"ax",%progbits
 122              		.align	1
 123              		.code	16
 124              		.thumb_func
 125              		.type	rcvr_datablock, %function
 126              	rcvr_datablock:
 127              	.LFB38:
 138:.\sd/sdmm.c   **** 
 139:.\sd/sdmm.c   **** 
 140:.\sd/sdmm.c   **** 
 141:.\sd/sdmm.c   **** /*-----------------------------------------------------------------------*/
 142:.\sd/sdmm.c   **** /* Deselect the card and release SPI bus                                 */
 143:.\sd/sdmm.c   **** /*-----------------------------------------------------------------------*/
 144:.\sd/sdmm.c   **** 
 145:.\sd/sdmm.c   **** static
 146:.\sd/sdmm.c   **** void deselect (void)
 147:.\sd/sdmm.c   **** {
 148:.\sd/sdmm.c   **** 	BYTE d;
 149:.\sd/sdmm.c   **** 
 150:.\sd/sdmm.c   **** 	CS_H;				/* Set CS# high */
 151:.\sd/sdmm.c   **** 	rcvr_mmc(&d, 1);	/* Dummy clock (force DO hi-z for multiple slave SPI) */
 152:.\sd/sdmm.c   **** }
 153:.\sd/sdmm.c   **** 
 154:.\sd/sdmm.c   **** 
 155:.\sd/sdmm.c   **** 
ARM GAS  C:\Users\Jarik\AppData\Local\Temp\ccYdEmgG.s 			page 6


 156:.\sd/sdmm.c   **** /*-----------------------------------------------------------------------*/
 157:.\sd/sdmm.c   **** /* Select the card and wait for ready                                    */
 158:.\sd/sdmm.c   **** /*-----------------------------------------------------------------------*/
 159:.\sd/sdmm.c   **** 
 160:.\sd/sdmm.c   **** static
 161:.\sd/sdmm.c   **** int select (void)	/* 1:OK, 0:Timeout */
 162:.\sd/sdmm.c   **** {
 163:.\sd/sdmm.c   **** 	BYTE d;
 164:.\sd/sdmm.c   **** 
 165:.\sd/sdmm.c   **** 	CS_L;				/* Set CS# low */
 166:.\sd/sdmm.c   **** 	rcvr_mmc(&d, 1);	/* Dummy clock (force DO enabled) */
 167:.\sd/sdmm.c   **** 	if (wait_ready()) return 1;	/* Wait for card ready */
 168:.\sd/sdmm.c   **** 
 169:.\sd/sdmm.c   **** 	deselect();
 170:.\sd/sdmm.c   **** 	return 0;			/* Failed */
 171:.\sd/sdmm.c   **** }
 172:.\sd/sdmm.c   **** 
 173:.\sd/sdmm.c   **** 
 174:.\sd/sdmm.c   **** 
 175:.\sd/sdmm.c   **** /*-----------------------------------------------------------------------*/
 176:.\sd/sdmm.c   **** /* Receive a data packet from the card                                   */
 177:.\sd/sdmm.c   **** /*-----------------------------------------------------------------------*/
 178:.\sd/sdmm.c   **** 
 179:.\sd/sdmm.c   **** static
 180:.\sd/sdmm.c   **** int rcvr_datablock (	/* 1:OK, 0:Failed */
 181:.\sd/sdmm.c   **** 	BYTE *buff,			/* Data buffer to store received data */
 182:.\sd/sdmm.c   **** 	UINT btr			/* Byte count */
 183:.\sd/sdmm.c   **** )
 184:.\sd/sdmm.c   **** {
 128              		.loc 1 184 0
 129              		.cfi_startproc
 130              	.LVL12:
 131 0000 F7B5     		push	{r0, r1, r2, r4, r5, r6, r7, lr}
 132              		.cfi_def_cfa_offset 32
 133              		.cfi_offset 0, -32
 134              		.cfi_offset 1, -28
 135              		.cfi_offset 2, -24
 136              		.cfi_offset 4, -20
 137              		.cfi_offset 5, -16
 138              		.cfi_offset 6, -12
 139              		.cfi_offset 7, -8
 140              		.cfi_offset 14, -4
 141              		.loc 1 184 0
 142 0002 FA25     		mov	r5, #250
 143 0004 071C     		mov	r7, r0
 144 0006 0E1C     		mov	r6, r1
 145 0008 AD00     		lsl	r5, r5, #2
 146              	.LVL13:
 147              	.L16:
 185:.\sd/sdmm.c   **** 	BYTE d[2];
 186:.\sd/sdmm.c   **** 	UINT tmr;
 187:.\sd/sdmm.c   **** 
 188:.\sd/sdmm.c   **** 
 189:.\sd/sdmm.c   **** 	for (tmr = 1000; tmr; tmr--) {	/* Wait for data packet in timeout of 100ms */
 190:.\sd/sdmm.c   **** 		rcvr_mmc(d, 1);
 148              		.loc 1 190 0
 149 000a 01AC     		add	r4, sp, #4
ARM GAS  C:\Users\Jarik\AppData\Local\Temp\ccYdEmgG.s 			page 7


 150 000c 201C     		mov	r0, r4
 151 000e 0121     		mov	r1, #1
 152 0010 FFF7FEFF 		bl	rcvr_mmc
 153              	.LVL14:
 191:.\sd/sdmm.c   **** 		if (d[0] != 0xFF) break;
 154              		.loc 1 191 0
 155 0014 2378     		ldrb	r3, [r4]
 156 0016 FF2B     		cmp	r3, #255
 157 0018 0DD0     		beq	.L13
 158              	.LVL15:
 159              	.L17:
 192:.\sd/sdmm.c   **** 		dly_us(100);
 193:.\sd/sdmm.c   **** 	}
 194:.\sd/sdmm.c   **** 	if (d[0] != 0xFE) return 0;		/* If not valid data token, return with error */
 160              		.loc 1 194 0
 161 001a 2378     		ldrb	r3, [r4]
 162 001c 0020     		mov	r0, #0
 163 001e FE2B     		cmp	r3, #254
 164 0020 10D1     		bne	.L14
 195:.\sd/sdmm.c   **** 
 196:.\sd/sdmm.c   **** 	rcvr_mmc(buff, btr);			/* Receive the data block into buffer */
 165              		.loc 1 196 0
 166 0022 381C     		mov	r0, r7
 167 0024 311C     		mov	r1, r6
 168 0026 FFF7FEFF 		bl	rcvr_mmc
 169              	.LVL16:
 197:.\sd/sdmm.c   **** 	rcvr_mmc(d, 2);					/* Discard CRC */
 170              		.loc 1 197 0
 171 002a 201C     		mov	r0, r4
 172 002c 0221     		mov	r1, #2
 173 002e FFF7FEFF 		bl	rcvr_mmc
 174              	.LVL17:
 198:.\sd/sdmm.c   **** 
 199:.\sd/sdmm.c   **** 	return 1;						/* Return with success */
 175              		.loc 1 199 0
 176 0032 0120     		mov	r0, #1
 177 0034 06E0     		b	.L14
 178              	.LVL18:
 179              	.L13:
 192:.\sd/sdmm.c   **** 	}
 180              		.loc 1 192 0 discriminator 2
 181 0036 6420     		mov	r0, #100
 182 0038 013D     		sub	r5, r5, #1
 183              	.LVL19:
 184 003a FFF7FEFF 		bl	CyDelayUs
 185              	.LVL20:
 189:.\sd/sdmm.c   **** 		rcvr_mmc(d, 1);
 186              		.loc 1 189 0 discriminator 2
 187 003e 002D     		cmp	r5, #0
 188 0040 E3D1     		bne	.L16
 189 0042 EAE7     		b	.L17
 190              	.L14:
 200:.\sd/sdmm.c   **** }
 191              		.loc 1 200 0
 192              		@ sp needed
 193              	.LVL21:
 194              	.LVL22:
ARM GAS  C:\Users\Jarik\AppData\Local\Temp\ccYdEmgG.s 			page 8


 195 0044 FEBD     		pop	{r1, r2, r3, r4, r5, r6, r7, pc}
 196              		.cfi_endproc
 197              	.LFE38:
 198              		.size	rcvr_datablock, .-rcvr_datablock
 199              		.section	.text.deselect,"ax",%progbits
 200              		.align	1
 201              		.code	16
 202              		.thumb_func
 203              		.type	deselect, %function
 204              	deselect:
 205              	.LFB36:
 147:.\sd/sdmm.c   **** 	BYTE d;
 206              		.loc 1 147 0
 207              		.cfi_startproc
 208 0000 07B5     		push	{r0, r1, r2, lr}
 209              		.cfi_def_cfa_offset 16
 210              		.cfi_offset 0, -16
 211              		.cfi_offset 1, -12
 212              		.cfi_offset 2, -8
 213              		.cfi_offset 14, -4
 150:.\sd/sdmm.c   **** 	rcvr_mmc(&d, 1);	/* Dummy clock (force DO hi-z for multiple slave SPI) */
 214              		.loc 1 150 0
 215 0002 0120     		mov	r0, #1
 216 0004 FFF7FEFF 		bl	SPI_CS_Write
 217              	.LVL23:
 151:.\sd/sdmm.c   **** }
 218              		.loc 1 151 0
 219 0008 6B46     		mov	r3, sp
 220 000a 0121     		mov	r1, #1
 221 000c D81D     		add	r0, r3, #7
 222 000e FFF7FEFF 		bl	rcvr_mmc
 223              	.LVL24:
 152:.\sd/sdmm.c   **** 
 224              		.loc 1 152 0
 225              		@ sp needed
 226 0012 07BD     		pop	{r0, r1, r2, pc}
 227              		.cfi_endproc
 228              	.LFE36:
 229              		.size	deselect, .-deselect
 230              		.section	.text.select,"ax",%progbits
 231              		.align	1
 232              		.code	16
 233              		.thumb_func
 234              		.type	select, %function
 235              	select:
 236              	.LFB37:
 162:.\sd/sdmm.c   **** 	BYTE d;
 237              		.loc 1 162 0
 238              		.cfi_startproc
 239 0000 13B5     		push	{r0, r1, r4, lr}
 240              		.cfi_def_cfa_offset 16
 241              		.cfi_offset 0, -16
 242              		.cfi_offset 1, -12
 243              		.cfi_offset 4, -8
 244              		.cfi_offset 14, -4
 165:.\sd/sdmm.c   **** 	rcvr_mmc(&d, 1);	/* Dummy clock (force DO enabled) */
 245              		.loc 1 165 0
ARM GAS  C:\Users\Jarik\AppData\Local\Temp\ccYdEmgG.s 			page 9


 246 0002 0020     		mov	r0, #0
 247 0004 FFF7FEFF 		bl	SPI_CS_Write
 248              	.LVL25:
 166:.\sd/sdmm.c   **** 	if (wait_ready()) return 1;	/* Wait for card ready */
 249              		.loc 1 166 0
 250 0008 6B46     		mov	r3, sp
 251 000a 0121     		mov	r1, #1
 252 000c D81D     		add	r0, r3, #7
 253 000e FFF7FEFF 		bl	rcvr_mmc
 254              	.LVL26:
 167:.\sd/sdmm.c   **** 
 255              		.loc 1 167 0
 256 0012 FFF7FEFF 		bl	wait_ready
 257              	.LVL27:
 258 0016 041E     		sub	r4, r0, #0
 259 0018 02D1     		bne	.L23
 169:.\sd/sdmm.c   **** 	return 0;			/* Failed */
 260              		.loc 1 169 0
 261 001a FFF7FEFF 		bl	deselect
 262              	.LVL28:
 170:.\sd/sdmm.c   **** }
 263              		.loc 1 170 0
 264 001e 00E0     		b	.L22
 265              	.L23:
 167:.\sd/sdmm.c   **** 
 266              		.loc 1 167 0
 267 0020 0124     		mov	r4, #1
 268              	.L22:
 171:.\sd/sdmm.c   **** 
 269              		.loc 1 171 0
 270 0022 201C     		mov	r0, r4
 271              		@ sp needed
 272 0024 16BD     		pop	{r1, r2, r4, pc}
 273              		.cfi_endproc
 274              	.LFE37:
 275              		.size	select, .-select
 276              		.section	.text.xmit_mmc,"ax",%progbits
 277              		.align	1
 278              		.code	16
 279              		.thumb_func
 280              		.type	xmit_mmc, %function
 281              	xmit_mmc:
 282              	.LFB33:
  84:.\sd/sdmm.c   **** 	BYTE d;
 283              		.loc 1 84 0
 284              		.cfi_startproc
 285              	.LVL29:
 286 0000 70B5     		push	{r4, r5, r6, lr}
 287              		.cfi_def_cfa_offset 16
 288              		.cfi_offset 4, -16
 289              		.cfi_offset 5, -12
 290              		.cfi_offset 6, -8
 291              		.cfi_offset 14, -4
  84:.\sd/sdmm.c   **** 	BYTE d;
 292              		.loc 1 84 0
 293 0002 051C     		mov	r5, r0
 294 0004 0E1C     		mov	r6, r1
ARM GAS  C:\Users\Jarik\AppData\Local\Temp\ccYdEmgG.s 			page 10


 295 0006 041C     		mov	r4, r0
 296              	.LVL30:
 297              	.L25:
  90:.\sd/sdmm.c   **** 	} while (--bc);
 298              		.loc 1 90 0 discriminator 1
 299 0008 2078     		ldrb	r0, [r4]
 300 000a 0134     		add	r4, r4, #1
 301              	.LVL31:
 302 000c FFF7FEFF 		bl	SPI_transmit
 303              	.LVL32:
 304 0010 A31B     		sub	r3, r4, r6
  91:.\sd/sdmm.c   **** }
 305              		.loc 1 91 0 discriminator 1
 306 0012 AB42     		cmp	r3, r5
 307 0014 F8D1     		bne	.L25
  92:.\sd/sdmm.c   **** 
 308              		.loc 1 92 0
 309              		@ sp needed
 310              	.LVL33:
 311 0016 70BD     		pop	{r4, r5, r6, pc}
 312              		.cfi_endproc
 313              	.LFE33:
 314              		.size	xmit_mmc, .-xmit_mmc
 315              		.section	.text.send_cmd,"ax",%progbits
 316              		.align	1
 317              		.code	16
 318              		.thumb_func
 319              		.type	send_cmd, %function
 320              	send_cmd:
 321              	.LFB40:
 201:.\sd/sdmm.c   **** 
 202:.\sd/sdmm.c   **** 
 203:.\sd/sdmm.c   **** 
 204:.\sd/sdmm.c   **** /*-----------------------------------------------------------------------*/
 205:.\sd/sdmm.c   **** /* Send a data packet to the card                                        */
 206:.\sd/sdmm.c   **** /*-----------------------------------------------------------------------*/
 207:.\sd/sdmm.c   **** 
 208:.\sd/sdmm.c   **** static
 209:.\sd/sdmm.c   **** int xmit_datablock (	/* 1:OK, 0:Failed */
 210:.\sd/sdmm.c   **** 	const BYTE *buff,	/* 512 byte data block to be transmitted */
 211:.\sd/sdmm.c   **** 	BYTE token			/* Data/Stop token */
 212:.\sd/sdmm.c   **** )
 213:.\sd/sdmm.c   **** {
 214:.\sd/sdmm.c   **** 	BYTE d[2];
 215:.\sd/sdmm.c   **** 
 216:.\sd/sdmm.c   **** 
 217:.\sd/sdmm.c   **** 	if (!wait_ready()) return 0;
 218:.\sd/sdmm.c   **** 
 219:.\sd/sdmm.c   **** 	d[0] = token;
 220:.\sd/sdmm.c   **** 	xmit_mmc(d, 1);				/* Xmit a token */
 221:.\sd/sdmm.c   **** 	if (token != 0xFD) {		/* Is it data token? */
 222:.\sd/sdmm.c   **** 		xmit_mmc(buff, 512);	/* Xmit the 512 byte data block to MMC */
 223:.\sd/sdmm.c   **** 		rcvr_mmc(d, 2);			/* Xmit dummy CRC (0xFF,0xFF) */
 224:.\sd/sdmm.c   **** 		rcvr_mmc(d, 1);			/* Receive data response */
 225:.\sd/sdmm.c   **** 		if ((d[0] & 0x1F) != 0x05)	/* If not accepted, return with error */
 226:.\sd/sdmm.c   **** 			return 0;
 227:.\sd/sdmm.c   **** 	}
ARM GAS  C:\Users\Jarik\AppData\Local\Temp\ccYdEmgG.s 			page 11


 228:.\sd/sdmm.c   **** 
 229:.\sd/sdmm.c   **** 	return 1;
 230:.\sd/sdmm.c   **** }
 231:.\sd/sdmm.c   **** 
 232:.\sd/sdmm.c   **** 
 233:.\sd/sdmm.c   **** 
 234:.\sd/sdmm.c   **** /*-----------------------------------------------------------------------*/
 235:.\sd/sdmm.c   **** /* Send a command packet to the card                                     */
 236:.\sd/sdmm.c   **** /*-----------------------------------------------------------------------*/
 237:.\sd/sdmm.c   **** 
 238:.\sd/sdmm.c   **** static
 239:.\sd/sdmm.c   **** BYTE send_cmd (		/* Returns command response (bit7==1:Send failed)*/
 240:.\sd/sdmm.c   **** 	BYTE cmd,		/* Command byte */
 241:.\sd/sdmm.c   **** 	DWORD arg		/* Argument */
 242:.\sd/sdmm.c   **** )
 243:.\sd/sdmm.c   **** {
 322              		.loc 1 243 0
 323              		.cfi_startproc
 324              	.LVL34:
 325 0000 30B5     		push	{r4, r5, lr}
 326              		.cfi_def_cfa_offset 12
 327              		.cfi_offset 4, -12
 328              		.cfi_offset 5, -8
 329              		.cfi_offset 14, -4
 244:.\sd/sdmm.c   **** 	BYTE n, d, buf[6];
 245:.\sd/sdmm.c   **** 
 246:.\sd/sdmm.c   **** 
 247:.\sd/sdmm.c   **** 	if (cmd & 0x80) {	/* ACMD<n> is the command sequense of CMD55-CMD<n> */
 330              		.loc 1 247 0
 331 0002 43B2     		sxtb	r3, r0
 243:.\sd/sdmm.c   **** 	BYTE n, d, buf[6];
 332              		.loc 1 243 0
 333 0004 85B0     		sub	sp, sp, #20
 334              		.cfi_def_cfa_offset 32
 243:.\sd/sdmm.c   **** 	BYTE n, d, buf[6];
 335              		.loc 1 243 0
 336 0006 041C     		mov	r4, r0
 337 0008 0D1C     		mov	r5, r1
 338              		.loc 1 247 0
 339 000a 002B     		cmp	r3, #0
 340 000c 07DA     		bge	.L27
 341              	.LVL35:
 248:.\sd/sdmm.c   **** 		cmd &= 0x7F;
 249:.\sd/sdmm.c   **** 		n = send_cmd(CMD55, 0);
 342              		.loc 1 249 0
 343 000e 3720     		mov	r0, #55
 344 0010 0021     		mov	r1, #0
 345              	.LVL36:
 346 0012 FFF7F5FF 		bl	send_cmd
 347              	.LVL37:
 250:.\sd/sdmm.c   **** 		if (n > 1) return n;
 348              		.loc 1 250 0
 349 0016 0128     		cmp	r0, #1
 350 0018 38D8     		bhi	.L28
 248:.\sd/sdmm.c   **** 		cmd &= 0x7F;
 351              		.loc 1 248 0
 352 001a 7F23     		mov	r3, #127
ARM GAS  C:\Users\Jarik\AppData\Local\Temp\ccYdEmgG.s 			page 12


 353 001c 1C40     		and	r4, r3
 354              	.LVL38:
 355              	.L27:
 251:.\sd/sdmm.c   **** 	}
 252:.\sd/sdmm.c   **** 
 253:.\sd/sdmm.c   **** 	/* Select the card and wait for ready except to stop multiple block read */
 254:.\sd/sdmm.c   **** 	if ((cmd != CMD12)) {
 356              		.loc 1 254 0
 357 001e 0C2C     		cmp	r4, #12
 358 0020 0ED1     		bne	.L29
 359              	.L32:
 255:.\sd/sdmm.c   **** 		deselect();
 256:.\sd/sdmm.c   **** 		if (!select()) return 0xFF;
 257:.\sd/sdmm.c   **** 	}
 258:.\sd/sdmm.c   ****   
 259:.\sd/sdmm.c   **** 
 260:.\sd/sdmm.c   **** 	/* Send a command packet */
 261:.\sd/sdmm.c   **** 	buf[0] = 0x40 | cmd;			/* Start + Command index */
 360              		.loc 1 261 0
 361 0022 4023     		mov	r3, #64
 362 0024 02A8     		add	r0, sp, #8
 363 0026 2343     		orr	r3, r4
 364 0028 0370     		strb	r3, [r0]
 262:.\sd/sdmm.c   **** 	buf[1] = (BYTE)(arg >> 24);		/* Argument[31..24] */
 365              		.loc 1 262 0
 366 002a 2B0E     		lsr	r3, r5, #24
 367 002c 4370     		strb	r3, [r0, #1]
 263:.\sd/sdmm.c   **** 	buf[2] = (BYTE)(arg >> 16);		/* Argument[23..16] */
 368              		.loc 1 263 0
 369 002e 2B0C     		lsr	r3, r5, #16
 370 0030 8370     		strb	r3, [r0, #2]
 264:.\sd/sdmm.c   **** 	buf[3] = (BYTE)(arg >> 8);		/* Argument[15..8] */
 371              		.loc 1 264 0
 372 0032 2B0A     		lsr	r3, r5, #8
 373 0034 C370     		strb	r3, [r0, #3]
 265:.\sd/sdmm.c   **** 	buf[4] = (BYTE)arg;				/* Argument[7..0] */
 374              		.loc 1 265 0
 375 0036 0571     		strb	r5, [r0, #4]
 376              	.LVL39:
 266:.\sd/sdmm.c   **** 	n = 0x01;						/* Dummy CRC + Stop */
 267:.\sd/sdmm.c   **** 	if (cmd == CMD0) n = 0x95;		/* (valid CRC for CMD0(0)) */
 377              		.loc 1 267 0
 378 0038 9523     		mov	r3, #149
 379 003a 002C     		cmp	r4, #0
 380 003c 0DD0     		beq	.L33
 381 003e 08E0     		b	.L44
 382              	.LVL40:
 383              	.L29:
 255:.\sd/sdmm.c   **** 		if (!select()) return 0xFF;
 384              		.loc 1 255 0
 385 0040 FFF7FEFF 		bl	deselect
 386              	.LVL41:
 256:.\sd/sdmm.c   **** 	}
 387              		.loc 1 256 0
 388 0044 FFF7FEFF 		bl	select
 389              	.LVL42:
 390 0048 031C     		mov	r3, r0
ARM GAS  C:\Users\Jarik\AppData\Local\Temp\ccYdEmgG.s 			page 13


 391 004a FF20     		mov	r0, #255
 392 004c 002B     		cmp	r3, #0
 393 004e 1DD0     		beq	.L28
 394 0050 E7E7     		b	.L32
 395              	.LVL43:
 396              	.L44:
 268:.\sd/sdmm.c   **** 	if (cmd == CMD8) n = 0x87;		/* (valid CRC for CMD8(0x1AA)) */
 397              		.loc 1 268 0
 398 0052 8723     		mov	r3, #135
 399 0054 082C     		cmp	r4, #8
 400 0056 00D0     		beq	.L33
 266:.\sd/sdmm.c   **** 	if (cmd == CMD0) n = 0x95;		/* (valid CRC for CMD0(0)) */
 401              		.loc 1 266 0
 402 0058 863B     		sub	r3, r3, #134
 403              	.L33:
 404              	.LVL44:
 269:.\sd/sdmm.c   **** 	buf[5] = n;
 270:.\sd/sdmm.c   **** 	xmit_mmc(buf, 6);
 405              		.loc 1 270 0
 406 005a 0621     		mov	r1, #6
 269:.\sd/sdmm.c   **** 	buf[5] = n;
 407              		.loc 1 269 0
 408 005c 4371     		strb	r3, [r0, #5]
 409              		.loc 1 270 0
 410 005e FFF7FEFF 		bl	xmit_mmc
 411              	.LVL45:
 412 0062 6B46     		mov	r3, sp
 413 0064 DD1D     		add	r5, r3, #7
 414              	.LVL46:
 271:.\sd/sdmm.c   **** 
 272:.\sd/sdmm.c   **** 	/* Receive command response */
 273:.\sd/sdmm.c   **** 	if (cmd == CMD12) rcvr_mmc(&d, 1);	/* Skip a stuff byte when stop reading */
 415              		.loc 1 273 0
 416 0066 0C2C     		cmp	r4, #12
 417 0068 03D1     		bne	.L34
 418              		.loc 1 273 0 is_stmt 0 discriminator 1
 419 006a 281C     		mov	r0, r5
 420 006c 0121     		mov	r1, #1
 421 006e FFF7FEFF 		bl	rcvr_mmc
 422              	.LVL47:
 423              	.L34:
 268:.\sd/sdmm.c   **** 	buf[5] = n;
 424              		.loc 1 268 0 is_stmt 1 discriminator 2
 425 0072 0A24     		mov	r4, #10
 426              	.LVL48:
 427              	.L35:
 274:.\sd/sdmm.c   **** 	n = 10;								/* Wait for a valid response in timeout of 10 attempts */
 275:.\sd/sdmm.c   **** 	do
 276:.\sd/sdmm.c   **** 		rcvr_mmc(&d, 1);
 428              		.loc 1 276 0 discriminator 2
 429 0074 281C     		mov	r0, r5
 430 0076 0121     		mov	r1, #1
 431 0078 FFF7FEFF 		bl	rcvr_mmc
 432              	.LVL49:
 277:.\sd/sdmm.c   **** 	while ((d & 0x80) && --n);
 433              		.loc 1 277 0 discriminator 2
 434 007c 2878     		ldrb	r0, [r5]
ARM GAS  C:\Users\Jarik\AppData\Local\Temp\ccYdEmgG.s 			page 14


 435 007e 43B2     		sxtb	r3, r0
 436 0080 002B     		cmp	r3, #0
 437 0082 03DA     		bge	.L28
 438              	.LVL50:
 439 0084 013C     		sub	r4, r4, #1
 440              	.LVL51:
 441 0086 E4B2     		uxtb	r4, r4
 442              		.loc 1 277 0 is_stmt 0 discriminator 1
 443 0088 002C     		cmp	r4, #0
 444 008a F3D1     		bne	.L35
 445              	.L28:
 278:.\sd/sdmm.c   **** 
 279:.\sd/sdmm.c   **** 	return d;			/* Return with the response value */
 280:.\sd/sdmm.c   **** }
 446              		.loc 1 280 0 is_stmt 1
 447 008c 05B0     		add	sp, sp, #20
 448              		@ sp needed
 449 008e 30BD     		pop	{r4, r5, pc}
 450              		.cfi_endproc
 451              	.LFE40:
 452              		.size	send_cmd, .-send_cmd
 453              		.section	.text.xmit_datablock,"ax",%progbits
 454              		.align	1
 455              		.code	16
 456              		.thumb_func
 457              		.type	xmit_datablock, %function
 458              	xmit_datablock:
 459              	.LFB39:
 213:.\sd/sdmm.c   **** 	BYTE d[2];
 460              		.loc 1 213 0
 461              		.cfi_startproc
 462              	.LVL52:
 463 0000 F7B5     		push	{r0, r1, r2, r4, r5, r6, r7, lr}
 464              		.cfi_def_cfa_offset 32
 465              		.cfi_offset 0, -32
 466              		.cfi_offset 1, -28
 467              		.cfi_offset 2, -24
 468              		.cfi_offset 4, -20
 469              		.cfi_offset 5, -16
 470              		.cfi_offset 6, -12
 471              		.cfi_offset 7, -8
 472              		.cfi_offset 14, -4
 213:.\sd/sdmm.c   **** 	BYTE d[2];
 473              		.loc 1 213 0
 474 0002 071C     		mov	r7, r0
 475 0004 0E1C     		mov	r6, r1
 217:.\sd/sdmm.c   **** 
 476              		.loc 1 217 0
 477 0006 FFF7FEFF 		bl	wait_ready
 478              	.LVL53:
 479 000a 041E     		sub	r4, r0, #0
 480 000c 1BD0     		beq	.L46
 481              	.LVL54:
 482              	.LBB10:
 483              	.LBB11:
 219:.\sd/sdmm.c   **** 	xmit_mmc(d, 1);				/* Xmit a token */
 484              		.loc 1 219 0
ARM GAS  C:\Users\Jarik\AppData\Local\Temp\ccYdEmgG.s 			page 15


 485 000e 01AD     		add	r5, sp, #4
 220:.\sd/sdmm.c   **** 	if (token != 0xFD) {		/* Is it data token? */
 486              		.loc 1 220 0
 487 0010 281C     		mov	r0, r5
 488 0012 0121     		mov	r1, #1
 219:.\sd/sdmm.c   **** 	xmit_mmc(d, 1);				/* Xmit a token */
 489              		.loc 1 219 0
 490 0014 2E70     		strb	r6, [r5]
 229:.\sd/sdmm.c   **** }
 491              		.loc 1 229 0
 492 0016 0124     		mov	r4, #1
 220:.\sd/sdmm.c   **** 	if (token != 0xFD) {		/* Is it data token? */
 493              		.loc 1 220 0
 494 0018 FFF7FEFF 		bl	xmit_mmc
 495              	.LVL55:
 221:.\sd/sdmm.c   **** 		xmit_mmc(buff, 512);	/* Xmit the 512 byte data block to MMC */
 496              		.loc 1 221 0
 497 001c FD2E     		cmp	r6, #253
 498 001e 12D0     		beq	.L46
 222:.\sd/sdmm.c   **** 		rcvr_mmc(d, 2);			/* Xmit dummy CRC (0xFF,0xFF) */
 499              		.loc 1 222 0
 500 0020 8021     		mov	r1, #128
 501 0022 381C     		mov	r0, r7
 502 0024 8900     		lsl	r1, r1, #2
 503 0026 FFF7FEFF 		bl	xmit_mmc
 504              	.LVL56:
 223:.\sd/sdmm.c   **** 		rcvr_mmc(d, 1);			/* Receive data response */
 505              		.loc 1 223 0
 506 002a 281C     		mov	r0, r5
 507 002c 0221     		mov	r1, #2
 508 002e FFF7FEFF 		bl	rcvr_mmc
 509              	.LVL57:
 224:.\sd/sdmm.c   **** 		if ((d[0] & 0x1F) != 0x05)	/* If not accepted, return with error */
 510              		.loc 1 224 0
 511 0032 281C     		mov	r0, r5
 512 0034 211C     		mov	r1, r4
 513 0036 FFF7FEFF 		bl	rcvr_mmc
 514              	.LVL58:
 225:.\sd/sdmm.c   **** 			return 0;
 515              		.loc 1 225 0
 516 003a 1F23     		mov	r3, #31
 517 003c 2878     		ldrb	r0, [r5]
 518 003e 1840     		and	r0, r3
 519 0040 0538     		sub	r0, r0, #5
 229:.\sd/sdmm.c   **** }
 520              		.loc 1 229 0
 521 0042 4442     		neg	r4, r0
 522 0044 4441     		adc	r4, r4, r0
 523              	.LVL59:
 524              	.L46:
 525              	.LBE11:
 526              	.LBE10:
 230:.\sd/sdmm.c   **** 
 527              		.loc 1 230 0
 528 0046 201C     		mov	r0, r4
 529              		@ sp needed
 530              	.LVL60:
ARM GAS  C:\Users\Jarik\AppData\Local\Temp\ccYdEmgG.s 			page 16


 531 0048 FEBD     		pop	{r1, r2, r3, r4, r5, r6, r7, pc}
 532              		.cfi_endproc
 533              	.LFE39:
 534              		.size	xmit_datablock, .-xmit_datablock
 535              		.section	.text.disk_initialize.part.1,"ax",%progbits
 536              		.align	1
 537              		.code	16
 538              		.thumb_func
 539              		.type	disk_initialize.part.1, %function
 540              	disk_initialize.part.1:
 541              	.LFB49:
 281:.\sd/sdmm.c   **** 
 282:.\sd/sdmm.c   **** 
 283:.\sd/sdmm.c   **** 
 284:.\sd/sdmm.c   **** /*--------------------------------------------------------------------------
 285:.\sd/sdmm.c   **** 
 286:.\sd/sdmm.c   ****    Public Functions
 287:.\sd/sdmm.c   **** 
 288:.\sd/sdmm.c   **** ---------------------------------------------------------------------------*/
 289:.\sd/sdmm.c   **** 
 290:.\sd/sdmm.c   **** 
 291:.\sd/sdmm.c   **** /*-----------------------------------------------------------------------*/
 292:.\sd/sdmm.c   **** /* Get Disk Status                                                       */
 293:.\sd/sdmm.c   **** /*-----------------------------------------------------------------------*/
 294:.\sd/sdmm.c   **** 
 295:.\sd/sdmm.c   **** DSTATUS disk_status (
 296:.\sd/sdmm.c   **** 	BYTE drv			/* Drive number (always 0) */
 297:.\sd/sdmm.c   **** )
 298:.\sd/sdmm.c   **** {
 299:.\sd/sdmm.c   **** 	if (drv) return STA_NOINIT;
 300:.\sd/sdmm.c   **** 
 301:.\sd/sdmm.c   **** 	return Stat;
 302:.\sd/sdmm.c   **** }
 303:.\sd/sdmm.c   **** 
 304:.\sd/sdmm.c   **** 
 305:.\sd/sdmm.c   **** 
 306:.\sd/sdmm.c   **** /*-----------------------------------------------------------------------*/
 307:.\sd/sdmm.c   **** /* Initialize Disk Drive                                                 */
 308:.\sd/sdmm.c   **** /*-----------------------------------------------------------------------*/
 309:.\sd/sdmm.c   **** 
 310:.\sd/sdmm.c   **** DSTATUS disk_initialize (
 542              		.loc 1 310 0
 543              		.cfi_startproc
 544              	.LVL61:
 545 0000 7FB5     		push	{r0, r1, r2, r3, r4, r5, r6, lr}
 546              		.cfi_def_cfa_offset 32
 547              		.cfi_offset 0, -32
 548              		.cfi_offset 1, -28
 549              		.cfi_offset 2, -24
 550              		.cfi_offset 3, -20
 551              		.cfi_offset 4, -16
 552              		.cfi_offset 5, -12
 553              		.cfi_offset 6, -8
 554              		.cfi_offset 14, -4
 311:.\sd/sdmm.c   **** 	BYTE drv		/* Physical drive nmuber (0) */
 312:.\sd/sdmm.c   **** )
 313:.\sd/sdmm.c   **** {
ARM GAS  C:\Users\Jarik\AppData\Local\Temp\ccYdEmgG.s 			page 17


 314:.\sd/sdmm.c   **** 	BYTE n, ty, cmd, buf[12];
 315:.\sd/sdmm.c   **** 	UINT tmr;
 316:.\sd/sdmm.c   **** 	DSTATUS s;
 317:.\sd/sdmm.c   **** 
 318:.\sd/sdmm.c   **** 
 319:.\sd/sdmm.c   **** 	if (drv) return RES_NOTRDY;
 320:.\sd/sdmm.c   ****     spi_init();
 555              		.loc 1 320 0
 556 0002 FFF7FEFF 		bl	spi_init
 557              	.LVL62:
 558 0006 1424     		mov	r4, #20
 559              	.LVL63:
 560              	.L54:
 561 0008 013C     		sub	r4, r4, #1
 562              	.LVL64:
 563 000a E4B2     		uxtb	r4, r4
 321:.\sd/sdmm.c   **** 
 322:.\sd/sdmm.c   **** 	for (n = 20; n; n--) SPI_receive();	/* Apply 160 dummy clocks and the card gets ready to receive c
 564              		.loc 1 322 0
 565 000c FFF7FEFF 		bl	SPI_receive
 566              	.LVL65:
 567 0010 002C     		cmp	r4, #0
 568 0012 F9D1     		bne	.L54
 569              	.LVL66:
 323:.\sd/sdmm.c   **** 
 324:.\sd/sdmm.c   **** 	ty = 0;
 325:.\sd/sdmm.c   **** 	if (send_cmd(CMD0, 0) == 1) {			/* Enter Idle state */
 570              		.loc 1 325 0
 571 0014 201C     		mov	r0, r4
 572 0016 211C     		mov	r1, r4
 573 0018 FFF7FEFF 		bl	send_cmd
 574              	.LVL67:
 575 001c 051E     		sub	r5, r0, #0
 576 001e 012D     		cmp	r5, #1
 577 0020 01D0     		beq	.L55
 578              	.LVL68:
 579              	.L58:
 324:.\sd/sdmm.c   **** 	if (send_cmd(CMD0, 0) == 1) {			/* Enter Idle state */
 580              		.loc 1 324 0
 581 0022 0024     		mov	r4, #0
 582 0024 53E0     		b	.L56
 583              	.LVL69:
 584              	.L55:
 326:.\sd/sdmm.c   **** 		if (send_cmd(CMD8, 0x1AA) == 1) {	/* SDv2? */
 585              		.loc 1 326 0
 586 0026 D521     		mov	r1, #213
 587 0028 0820     		mov	r0, #8
 588 002a 4900     		lsl	r1, r1, #1
 589 002c FFF7FEFF 		bl	send_cmd
 590              	.LVL70:
 591 0030 0128     		cmp	r0, #1
 592 0032 1BD1     		bne	.L57
 327:.\sd/sdmm.c   **** 			rcvr_mmc(buf, 4);							/* Get trailing return value of R7 resp */
 593              		.loc 1 327 0
 594 0034 01AC     		add	r4, sp, #4
 595 0036 201C     		mov	r0, r4
 596 0038 0421     		mov	r1, #4
ARM GAS  C:\Users\Jarik\AppData\Local\Temp\ccYdEmgG.s 			page 18


 597 003a FFF7FEFF 		bl	rcvr_mmc
 598              	.LVL71:
 328:.\sd/sdmm.c   **** 			if (buf[2] == 0x01 && buf[3] == 0xAA) {		/* The card can work at vdd range of 2.7-3.6V */
 599              		.loc 1 328 0
 600 003e A378     		ldrb	r3, [r4, #2]
 601 0040 012B     		cmp	r3, #1
 602 0042 EED1     		bne	.L58
 603 0044 E378     		ldrb	r3, [r4, #3]
 604 0046 AA2B     		cmp	r3, #170
 605 0048 EBD1     		bne	.L58
 606 004a FA25     		mov	r5, #250
 607 004c AD00     		lsl	r5, r5, #2
 608              	.L60:
 609              	.LVL72:
 329:.\sd/sdmm.c   **** 				for (tmr = 1000; tmr; tmr--) {			/* Wait for leaving idle state (ACMD41 with HCS bit) */
 330:.\sd/sdmm.c   **** 					if (send_cmd(ACMD41, 1UL << 30) == 0) break;
 610              		.loc 1 330 0
 611 004e 8021     		mov	r1, #128
 612 0050 A920     		mov	r0, #169
 613 0052 C905     		lsl	r1, r1, #23
 614 0054 FFF7FEFF 		bl	send_cmd
 615              	.LVL73:
 616 0058 011E     		sub	r1, r0, #0
 617 005a 20D0     		beq	.L59
 331:.\sd/sdmm.c   **** 					dly_us(1000);
 618              		.loc 1 331 0
 619 005c FA20     		mov	r0, #250
 620 005e 013D     		sub	r5, r5, #1
 621              	.LVL74:
 622 0060 8000     		lsl	r0, r0, #2
 623 0062 FFF7FEFF 		bl	CyDelayUs
 624              	.LVL75:
 329:.\sd/sdmm.c   **** 				for (tmr = 1000; tmr; tmr--) {			/* Wait for leaving idle state (ACMD41 with HCS bit) */
 625              		.loc 1 329 0
 626 0066 002D     		cmp	r5, #0
 627 0068 F1D1     		bne	.L60
 628 006a DAE7     		b	.L58
 629              	.L57:
 332:.\sd/sdmm.c   **** 				}
 333:.\sd/sdmm.c   **** 				if (tmr && send_cmd(CMD58, 0) == 0) {	/* Check CCS bit in the OCR */
 334:.\sd/sdmm.c   **** 					rcvr_mmc(buf, 4);
 335:.\sd/sdmm.c   **** 					ty = (buf[0] & 0x40) ? CT_SD2 | CT_BLOCK : CT_SD2;	/* SDv2 */
 336:.\sd/sdmm.c   **** 				}
 337:.\sd/sdmm.c   **** 			}
 338:.\sd/sdmm.c   **** 		} else {							/* SDv1 or MMCv3 */
 339:.\sd/sdmm.c   **** 			if (send_cmd(ACMD41, 0) <= 1) 	{
 630              		.loc 1 339 0
 631 006c 211C     		mov	r1, r4
 632 006e A920     		mov	r0, #169
 633 0070 FFF7FEFF 		bl	send_cmd
 634              	.LVL76:
 340:.\sd/sdmm.c   **** 				ty = CT_SD1; cmd = ACMD41;	/* SDv1 */
 341:.\sd/sdmm.c   **** 			} else {
 342:.\sd/sdmm.c   **** 				ty = CT_MMC; cmd = CMD1;	/* MMCv3 */
 635              		.loc 1 342 0
 636 0074 2C1C     		mov	r4, r5
 339:.\sd/sdmm.c   **** 				ty = CT_SD1; cmd = ACMD41;	/* SDv1 */
ARM GAS  C:\Users\Jarik\AppData\Local\Temp\ccYdEmgG.s 			page 19


 637              		.loc 1 339 0
 638 0076 0128     		cmp	r0, #1
 639 0078 01D8     		bhi	.L62
 340:.\sd/sdmm.c   **** 				ty = CT_SD1; cmd = ACMD41;	/* SDv1 */
 640              		.loc 1 340 0
 641 007a A925     		mov	r5, #169
 642 007c 0224     		mov	r4, #2
 643              	.L62:
 644              	.LVL77:
 645              		.loc 1 342 0
 646 007e FA26     		mov	r6, #250
 647 0080 B600     		lsl	r6, r6, #2
 648              	.LVL78:
 649              	.L64:
 343:.\sd/sdmm.c   **** 			}
 344:.\sd/sdmm.c   **** 			for (tmr = 1000; tmr; tmr--) {			/* Wait for leaving idle state */
 345:.\sd/sdmm.c   **** 				if (send_cmd(cmd, 0) == 0) break;
 650              		.loc 1 345 0
 651 0082 281C     		mov	r0, r5
 652 0084 0021     		mov	r1, #0
 653 0086 FFF7FEFF 		bl	send_cmd
 654              	.LVL79:
 655 008a 0028     		cmp	r0, #0
 656 008c 16D0     		beq	.L63
 346:.\sd/sdmm.c   **** 				dly_us(1000);
 657              		.loc 1 346 0
 658 008e FA20     		mov	r0, #250
 659 0090 013E     		sub	r6, r6, #1
 660              	.LVL80:
 661 0092 8000     		lsl	r0, r0, #2
 662 0094 FFF7FEFF 		bl	CyDelayUs
 663              	.LVL81:
 344:.\sd/sdmm.c   **** 				if (send_cmd(cmd, 0) == 0) break;
 664              		.loc 1 344 0
 665 0098 002E     		cmp	r6, #0
 666 009a F2D1     		bne	.L64
 667 009c C1E7     		b	.L58
 668              	.LVL82:
 669              	.L59:
 333:.\sd/sdmm.c   **** 					rcvr_mmc(buf, 4);
 670              		.loc 1 333 0
 671 009e 3A20     		mov	r0, #58
 672 00a0 FFF7FEFF 		bl	send_cmd
 673              	.LVL83:
 674 00a4 0028     		cmp	r0, #0
 675 00a6 BCD1     		bne	.L58
 334:.\sd/sdmm.c   **** 					ty = (buf[0] & 0x40) ? CT_SD2 | CT_BLOCK : CT_SD2;	/* SDv2 */
 676              		.loc 1 334 0
 677 00a8 201C     		mov	r0, r4
 678 00aa 0421     		mov	r1, #4
 679 00ac FFF7FEFF 		bl	rcvr_mmc
 680              	.LVL84:
 335:.\sd/sdmm.c   **** 				}
 681              		.loc 1 335 0
 682 00b0 2378     		ldrb	r3, [r4]
 683 00b2 0C24     		mov	r4, #12
 684 00b4 5B06     		lsl	r3, r3, #25
ARM GAS  C:\Users\Jarik\AppData\Local\Temp\ccYdEmgG.s 			page 20


 685 00b6 0AD4     		bmi	.L56
 686 00b8 0424     		mov	r4, #4
 687 00ba 08E0     		b	.L56
 688              	.LVL85:
 689              	.L63:
 347:.\sd/sdmm.c   **** 			}
 348:.\sd/sdmm.c   **** 			if (!tmr || send_cmd(CMD16, 512) != 0)	/* Set R/W block length to 512 */
 690              		.loc 1 348 0
 691 00bc 8021     		mov	r1, #128
 692 00be 1020     		mov	r0, #16
 693 00c0 8900     		lsl	r1, r1, #2
 694 00c2 FFF7FEFF 		bl	send_cmd
 695              	.LVL86:
 349:.\sd/sdmm.c   **** 				ty = 0;
 696              		.loc 1 349 0
 697 00c6 4342     		neg	r3, r0
 698 00c8 5841     		adc	r0, r0, r3
 699 00ca 4042     		neg	r0, r0
 700 00cc 0440     		and	r4, r0
 701              	.LVL87:
 702              	.L56:
 350:.\sd/sdmm.c   **** 		}
 351:.\sd/sdmm.c   **** 	}
 352:.\sd/sdmm.c   **** 	CardType = ty;
 703              		.loc 1 352 0
 704 00ce 064B     		ldr	r3, .L72
 705 00d0 1C70     		strb	r4, [r3]
 353:.\sd/sdmm.c   **** 	s = ty ? 0 : STA_NOINIT;
 706              		.loc 1 353 0
 707 00d2 6342     		neg	r3, r4
 708 00d4 5C41     		adc	r4, r4, r3
 709              	.LVL88:
 354:.\sd/sdmm.c   **** 	Stat = s;
 710              		.loc 1 354 0
 711 00d6 054B     		ldr	r3, .L72+4
 353:.\sd/sdmm.c   **** 	s = ty ? 0 : STA_NOINIT;
 712              		.loc 1 353 0
 713 00d8 E4B2     		uxtb	r4, r4
 714              	.LVL89:
 715              		.loc 1 354 0
 716 00da 1C70     		strb	r4, [r3]
 355:.\sd/sdmm.c   **** 
 356:.\sd/sdmm.c   **** 	deselect();
 717              		.loc 1 356 0
 718 00dc FFF7FEFF 		bl	deselect
 719              	.LVL90:
 357:.\sd/sdmm.c   **** 
 358:.\sd/sdmm.c   **** 	return s;
 359:.\sd/sdmm.c   **** }
 720              		.loc 1 359 0
 721 00e0 201C     		mov	r0, r4
 722 00e2 04B0     		add	sp, sp, #16
 723              		@ sp needed
 724              	.LVL91:
 725 00e4 70BD     		pop	{r4, r5, r6, pc}
 726              	.L73:
 727 00e6 C046     		.align	2
ARM GAS  C:\Users\Jarik\AppData\Local\Temp\ccYdEmgG.s 			page 21


 728              	.L72:
 729 00e8 00000000 		.word	.LANCHOR0
 730 00ec 00000000 		.word	.LANCHOR1
 731              		.cfi_endproc
 732              	.LFE49:
 733              		.size	disk_initialize.part.1, .-disk_initialize.part.1
 734              		.section	.text.disk_status,"ax",%progbits
 735              		.align	1
 736              		.global	disk_status
 737              		.code	16
 738              		.thumb_func
 739              		.type	disk_status, %function
 740              	disk_status:
 741              	.LFB41:
 298:.\sd/sdmm.c   **** 	if (drv) return STA_NOINIT;
 742              		.loc 1 298 0
 743              		.cfi_startproc
 744              	.LVL92:
 299:.\sd/sdmm.c   **** 
 745              		.loc 1 299 0
 746 0000 0123     		mov	r3, #1
 747 0002 0028     		cmp	r0, #0
 748 0004 01D1     		bne	.L75
 301:.\sd/sdmm.c   **** }
 749              		.loc 1 301 0
 750 0006 024B     		ldr	r3, .L77
 751 0008 1B78     		ldrb	r3, [r3]
 752              	.L75:
 302:.\sd/sdmm.c   **** 
 753              		.loc 1 302 0
 754 000a 181C     		mov	r0, r3
 755              	.LVL93:
 756              		@ sp needed
 757 000c 7047     		bx	lr
 758              	.L78:
 759 000e C046     		.align	2
 760              	.L77:
 761 0010 00000000 		.word	.LANCHOR1
 762              		.cfi_endproc
 763              	.LFE41:
 764              		.size	disk_status, .-disk_status
 765              		.section	.text.disk_initialize,"ax",%progbits
 766              		.align	1
 767              		.global	disk_initialize
 768              		.code	16
 769              		.thumb_func
 770              		.type	disk_initialize, %function
 771              	disk_initialize:
 772              	.LFB42:
 313:.\sd/sdmm.c   **** 	BYTE n, ty, cmd, buf[12];
 773              		.loc 1 313 0
 774              		.cfi_startproc
 775              	.LVL94:
 776 0000 08B5     		push	{r3, lr}
 777              		.cfi_def_cfa_offset 8
 778              		.cfi_offset 3, -8
 779              		.cfi_offset 14, -4
ARM GAS  C:\Users\Jarik\AppData\Local\Temp\ccYdEmgG.s 			page 22


 313:.\sd/sdmm.c   **** 	BYTE n, ty, cmd, buf[12];
 780              		.loc 1 313 0
 781 0002 031C     		mov	r3, r0
 319:.\sd/sdmm.c   ****     spi_init();
 782              		.loc 1 319 0
 783 0004 0320     		mov	r0, #3
 784              	.LVL95:
 785 0006 002B     		cmp	r3, #0
 786 0008 01D1     		bne	.L80
 787 000a FFF7FEFF 		bl	disk_initialize.part.1
 788              	.LVL96:
 789              	.L80:
 790              		.loc 1 359 0
 791              		@ sp needed
 792 000e 08BD     		pop	{r3, pc}
 793              		.cfi_endproc
 794              	.LFE42:
 795              		.size	disk_initialize, .-disk_initialize
 796              		.section	.text.disk_read,"ax",%progbits
 797              		.align	1
 798              		.global	disk_read
 799              		.code	16
 800              		.thumb_func
 801              		.type	disk_read, %function
 802              	disk_read:
 803              	.LFB43:
 360:.\sd/sdmm.c   **** 
 361:.\sd/sdmm.c   **** 
 362:.\sd/sdmm.c   **** 
 363:.\sd/sdmm.c   **** /*-----------------------------------------------------------------------*/
 364:.\sd/sdmm.c   **** /* Read Sector(s)                                                        */
 365:.\sd/sdmm.c   **** /*-----------------------------------------------------------------------*/
 366:.\sd/sdmm.c   **** 
 367:.\sd/sdmm.c   **** DRESULT disk_read (
 368:.\sd/sdmm.c   **** 	BYTE drv,			/* Physical drive nmuber (0) */
 369:.\sd/sdmm.c   **** 	BYTE *buff,			/* Pointer to the data buffer to store read data */
 370:.\sd/sdmm.c   **** 	DWORD sector,		/* Start sector number (LBA) */
 371:.\sd/sdmm.c   **** 	UINT count			/* Sector count (1..128) */
 372:.\sd/sdmm.c   **** )
 373:.\sd/sdmm.c   **** {
 804              		.loc 1 373 0
 805              		.cfi_startproc
 806              	.LVL97:
 807 0000 70B5     		push	{r4, r5, r6, lr}
 808              		.cfi_def_cfa_offset 16
 809              		.cfi_offset 4, -16
 810              		.cfi_offset 5, -12
 811              		.cfi_offset 6, -8
 812              		.cfi_offset 14, -4
 813              		.loc 1 373 0
 814 0002 1D1C     		mov	r5, r3
 815 0004 0123     		mov	r3, #1
 816              	.LVL98:
 817 0006 0E1C     		mov	r6, r1
 818              	.LBB12:
 819              	.LBB13:
 299:.\sd/sdmm.c   **** 
ARM GAS  C:\Users\Jarik\AppData\Local\Temp\ccYdEmgG.s 			page 23


 820              		.loc 1 299 0
 821 0008 191C     		mov	r1, r3
 822              	.LVL99:
 823 000a 0028     		cmp	r0, #0
 824 000c 01D1     		bne	.L83
 301:.\sd/sdmm.c   **** }
 825              		.loc 1 301 0
 826 000e 1749     		ldr	r1, .L96
 827 0010 0978     		ldrb	r1, [r1]
 828              	.L83:
 829              	.LBE13:
 830              	.LBE12:
 374:.\sd/sdmm.c   **** 	BYTE cmd;
 375:.\sd/sdmm.c   **** 
 376:.\sd/sdmm.c   **** 
 377:.\sd/sdmm.c   **** 	if (disk_status(drv) & STA_NOINIT) return RES_NOTRDY;
 831              		.loc 1 377 0
 832 0012 0320     		mov	r0, #3
 833              	.LVL100:
 834 0014 1942     		tst	r1, r3
 835 0016 28D1     		bne	.L84
 378:.\sd/sdmm.c   **** 	if (!(CardType & CT_BLOCK)) sector *= 512;	/* Convert LBA to byte address if needed */
 836              		.loc 1 378 0
 837 0018 154B     		ldr	r3, .L96+4
 838 001a 1B78     		ldrb	r3, [r3]
 839 001c 1B07     		lsl	r3, r3, #28
 840 001e 00D4     		bmi	.L85
 841              		.loc 1 378 0 is_stmt 0 discriminator 1
 842 0020 5202     		lsl	r2, r2, #9
 843              	.LVL101:
 844              	.L85:
 379:.\sd/sdmm.c   **** 
 380:.\sd/sdmm.c   **** 	cmd = count > 1 ? CMD18 : CMD17;			/*  READ_MULTIPLE_BLOCK : READ_SINGLE_BLOCK */
 845              		.loc 1 380 0 is_stmt 1
 846 0022 0124     		mov	r4, #1
 847 0024 AC42     		cmp	r4, r5
 848 0026 A441     		sbc	r4, r4, r4
 849 0028 6442     		neg	r4, r4
 850 002a 1134     		add	r4, r4, #17
 851              	.LVL102:
 381:.\sd/sdmm.c   **** 	if (send_cmd(cmd, sector) == 0) {
 852              		.loc 1 381 0
 853 002c 201C     		mov	r0, r4
 854 002e 111C     		mov	r1, r2
 855 0030 FFF7FEFF 		bl	send_cmd
 856              	.LVL103:
 857 0034 0028     		cmp	r0, #0
 858 0036 12D1     		bne	.L87
 859              	.L89:
 382:.\sd/sdmm.c   **** 		do {
 383:.\sd/sdmm.c   **** 			if (!rcvr_datablock(buff, 512)) break;
 860              		.loc 1 383 0
 861 0038 8021     		mov	r1, #128
 862 003a 301C     		mov	r0, r6
 863 003c 8900     		lsl	r1, r1, #2
 864 003e FFF7FEFF 		bl	rcvr_datablock
 865              	.LVL104:
ARM GAS  C:\Users\Jarik\AppData\Local\Temp\ccYdEmgG.s 			page 24


 866 0042 0028     		cmp	r0, #0
 867 0044 05D0     		beq	.L88
 384:.\sd/sdmm.c   **** 			buff += 512;
 868              		.loc 1 384 0
 869 0046 8023     		mov	r3, #128
 385:.\sd/sdmm.c   **** 		} while (--count);
 870              		.loc 1 385 0
 871 0048 013D     		sub	r5, r5, #1
 872              	.LVL105:
 384:.\sd/sdmm.c   **** 			buff += 512;
 873              		.loc 1 384 0
 874 004a 9B00     		lsl	r3, r3, #2
 875 004c F618     		add	r6, r6, r3
 876              	.LVL106:
 877              		.loc 1 385 0
 878 004e 002D     		cmp	r5, #0
 879 0050 F2D1     		bne	.L89
 880              	.L88:
 386:.\sd/sdmm.c   **** 		if (cmd == CMD18) send_cmd(CMD12, 0);	/* STOP_TRANSMISSION */
 881              		.loc 1 386 0
 882 0052 122C     		cmp	r4, #18
 883 0054 03D1     		bne	.L87
 884              		.loc 1 386 0 is_stmt 0 discriminator 1
 885 0056 0C20     		mov	r0, #12
 886 0058 0021     		mov	r1, #0
 887 005a FFF7FEFF 		bl	send_cmd
 888              	.LVL107:
 889              	.L87:
 387:.\sd/sdmm.c   **** 	}
 388:.\sd/sdmm.c   **** 	deselect();
 890              		.loc 1 388 0 is_stmt 1
 891 005e FFF7FEFF 		bl	deselect
 892              	.LVL108:
 389:.\sd/sdmm.c   **** 
 390:.\sd/sdmm.c   **** 	return count ? RES_ERROR : RES_OK;
 893              		.loc 1 390 0
 894 0062 2B1C     		mov	r3, r5
 895 0064 5D1E     		sub	r5, r3, #1
 896 0066 AB41     		sbc	r3, r3, r5
 897              	.LVL109:
 898 0068 D8B2     		uxtb	r0, r3
 899              	.LVL110:
 900              	.L84:
 391:.\sd/sdmm.c   **** }
 901              		.loc 1 391 0
 902              		@ sp needed
 903              	.LVL111:
 904 006a 70BD     		pop	{r4, r5, r6, pc}
 905              	.L97:
 906              		.align	2
 907              	.L96:
 908 006c 00000000 		.word	.LANCHOR1
 909 0070 00000000 		.word	.LANCHOR0
 910              		.cfi_endproc
 911              	.LFE43:
 912              		.size	disk_read, .-disk_read
 913              		.section	.text.disk_write,"ax",%progbits
ARM GAS  C:\Users\Jarik\AppData\Local\Temp\ccYdEmgG.s 			page 25


 914              		.align	1
 915              		.global	disk_write
 916              		.code	16
 917              		.thumb_func
 918              		.type	disk_write, %function
 919              	disk_write:
 920              	.LFB44:
 392:.\sd/sdmm.c   **** 
 393:.\sd/sdmm.c   **** 
 394:.\sd/sdmm.c   **** 
 395:.\sd/sdmm.c   **** /*-----------------------------------------------------------------------*/
 396:.\sd/sdmm.c   **** /* Write Sector(s)                                                       */
 397:.\sd/sdmm.c   **** /*-----------------------------------------------------------------------*/
 398:.\sd/sdmm.c   **** 
 399:.\sd/sdmm.c   **** DRESULT disk_write (
 400:.\sd/sdmm.c   **** 	BYTE drv,			/* Physical drive nmuber (0) */
 401:.\sd/sdmm.c   **** 	const BYTE *buff,	/* Pointer to the data to be written */
 402:.\sd/sdmm.c   **** 	DWORD sector,		/* Start sector number (LBA) */
 403:.\sd/sdmm.c   **** 	UINT count			/* Sector count (1..128) */
 404:.\sd/sdmm.c   **** )
 405:.\sd/sdmm.c   **** {
 921              		.loc 1 405 0
 922              		.cfi_startproc
 923              	.LVL112:
 924 0000 70B5     		push	{r4, r5, r6, lr}
 925              		.cfi_def_cfa_offset 16
 926              		.cfi_offset 4, -16
 927              		.cfi_offset 5, -12
 928              		.cfi_offset 6, -8
 929              		.cfi_offset 14, -4
 930              		.loc 1 405 0
 931 0002 1C1C     		mov	r4, r3
 932 0004 0123     		mov	r3, #1
 933              	.LVL113:
 934 0006 161C     		mov	r6, r2
 935 0008 0D1C     		mov	r5, r1
 936              	.LBB14:
 937              	.LBB15:
 299:.\sd/sdmm.c   **** 
 938              		.loc 1 299 0
 939 000a 1A1C     		mov	r2, r3
 940              	.LVL114:
 941 000c 0028     		cmp	r0, #0
 942 000e 01D1     		bne	.L99
 301:.\sd/sdmm.c   **** }
 943              		.loc 1 301 0
 944 0010 1F4A     		ldr	r2, .L115
 945 0012 1278     		ldrb	r2, [r2]
 946              	.L99:
 947              	.LBE15:
 948              	.LBE14:
 406:.\sd/sdmm.c   **** 	if (disk_status(drv) & STA_NOINIT) return RES_NOTRDY;
 949              		.loc 1 406 0
 950 0014 0320     		mov	r0, #3
 951              	.LVL115:
 952 0016 1A42     		tst	r2, r3
 953 0018 38D1     		bne	.L100
ARM GAS  C:\Users\Jarik\AppData\Local\Temp\ccYdEmgG.s 			page 26


 407:.\sd/sdmm.c   **** 	if (!(CardType & CT_BLOCK)) sector *= 512;	/* Convert LBA to byte address if needed */
 954              		.loc 1 407 0
 955 001a 1E4B     		ldr	r3, .L115+4
 956 001c 1B78     		ldrb	r3, [r3]
 957 001e 1A07     		lsl	r2, r3, #28
 958 0020 00D4     		bmi	.L101
 959              		.loc 1 407 0 is_stmt 0 discriminator 1
 960 0022 7602     		lsl	r6, r6, #9
 961              	.LVL116:
 962              	.L101:
 408:.\sd/sdmm.c   **** 
 409:.\sd/sdmm.c   **** 	if (count == 1) {	/* Single block write */
 963              		.loc 1 409 0 is_stmt 1
 964 0024 012C     		cmp	r4, #1
 965 0026 0CD1     		bne	.L102
 410:.\sd/sdmm.c   **** 		if ((send_cmd(CMD24, sector) == 0)	/* WRITE_BLOCK */
 966              		.loc 1 410 0
 967 0028 1820     		mov	r0, #24
 968 002a 311C     		mov	r1, r6
 969              	.LVL117:
 970 002c FFF7FEFF 		bl	send_cmd
 971              	.LVL118:
 972 0030 0028     		cmp	r0, #0
 973 0032 26D1     		bne	.L103
 411:.\sd/sdmm.c   **** 			&& xmit_datablock(buff, 0xFE))
 974              		.loc 1 411 0
 975 0034 281C     		mov	r0, r5
 976 0036 FE21     		mov	r1, #254
 977 0038 FFF7FEFF 		bl	xmit_datablock
 978              	.LVL119:
 979 003c 4442     		neg	r4, r0
 980 003e 4441     		adc	r4, r4, r0
 981              	.LVL120:
 982 0040 1FE0     		b	.L103
 983              	.LVL121:
 984              	.L102:
 412:.\sd/sdmm.c   **** 			count = 0;
 413:.\sd/sdmm.c   **** 	}
 414:.\sd/sdmm.c   **** 	else {				/* Multiple block write */
 415:.\sd/sdmm.c   **** 		if (CardType & CT_SDC) send_cmd(ACMD23, count);
 985              		.loc 1 415 0
 986 0042 0622     		mov	r2, #6
 987 0044 1342     		tst	r3, r2
 988 0046 03D0     		beq	.L104
 989              		.loc 1 415 0 is_stmt 0 discriminator 1
 990 0048 9720     		mov	r0, #151
 991 004a 211C     		mov	r1, r4
 992              	.LVL122:
 993 004c FFF7FEFF 		bl	send_cmd
 994              	.LVL123:
 995              	.L104:
 416:.\sd/sdmm.c   **** 		if (send_cmd(CMD25, sector) == 0) {	/* WRITE_MULTIPLE_BLOCK */
 996              		.loc 1 416 0 is_stmt 1
 997 0050 1920     		mov	r0, #25
 998 0052 311C     		mov	r1, r6
 999 0054 FFF7FEFF 		bl	send_cmd
 1000              	.LVL124:
ARM GAS  C:\Users\Jarik\AppData\Local\Temp\ccYdEmgG.s 			page 27


 1001 0058 0028     		cmp	r0, #0
 1002 005a 12D1     		bne	.L103
 1003              	.L106:
 417:.\sd/sdmm.c   **** 			do {
 418:.\sd/sdmm.c   **** 				if (!xmit_datablock(buff, 0xFC)) break;
 1004              		.loc 1 418 0
 1005 005c 281C     		mov	r0, r5
 1006 005e FC21     		mov	r1, #252
 1007 0060 FFF7FEFF 		bl	xmit_datablock
 1008              	.LVL125:
 1009 0064 0028     		cmp	r0, #0
 1010 0066 05D0     		beq	.L105
 419:.\sd/sdmm.c   **** 				buff += 512;
 1011              		.loc 1 419 0
 1012 0068 8023     		mov	r3, #128
 420:.\sd/sdmm.c   **** 			} while (--count);
 1013              		.loc 1 420 0
 1014 006a 013C     		sub	r4, r4, #1
 1015              	.LVL126:
 419:.\sd/sdmm.c   **** 				buff += 512;
 1016              		.loc 1 419 0
 1017 006c 9B00     		lsl	r3, r3, #2
 1018 006e ED18     		add	r5, r5, r3
 1019              	.LVL127:
 1020              		.loc 1 420 0
 1021 0070 002C     		cmp	r4, #0
 1022 0072 F3D1     		bne	.L106
 1023              	.L105:
 421:.\sd/sdmm.c   **** 			if (!xmit_datablock(0, 0xFD))	/* STOP_TRAN token */
 1024              		.loc 1 421 0
 1025 0074 0020     		mov	r0, #0
 1026 0076 FD21     		mov	r1, #253
 1027 0078 FFF7FEFF 		bl	xmit_datablock
 1028              	.LVL128:
 1029 007c 0028     		cmp	r0, #0
 1030 007e 00D1     		bne	.L103
 422:.\sd/sdmm.c   **** 				count = 1;
 1031              		.loc 1 422 0
 1032 0080 0124     		mov	r4, #1
 1033              	.LVL129:
 1034              	.L103:
 423:.\sd/sdmm.c   **** 		}
 424:.\sd/sdmm.c   **** 	}
 425:.\sd/sdmm.c   **** 	deselect();
 426:.\sd/sdmm.c   **** 
 427:.\sd/sdmm.c   **** 	return count ? RES_ERROR : RES_OK;
 1035              		.loc 1 427 0
 1036 0082 601E     		sub	r0, r4, #1
 1037 0084 8441     		sbc	r4, r4, r0
 1038              	.LVL130:
 425:.\sd/sdmm.c   **** 
 1039              		.loc 1 425 0
 1040 0086 FFF7FEFF 		bl	deselect
 1041              	.LVL131:
 1042              		.loc 1 427 0
 1043 008a E0B2     		uxtb	r0, r4
 1044              	.L100:
ARM GAS  C:\Users\Jarik\AppData\Local\Temp\ccYdEmgG.s 			page 28


 428:.\sd/sdmm.c   **** }
 1045              		.loc 1 428 0
 1046              		@ sp needed
 1047              	.LVL132:
 1048              	.LVL133:
 1049 008c 70BD     		pop	{r4, r5, r6, pc}
 1050              	.L116:
 1051 008e C046     		.align	2
 1052              	.L115:
 1053 0090 00000000 		.word	.LANCHOR1
 1054 0094 00000000 		.word	.LANCHOR0
 1055              		.cfi_endproc
 1056              	.LFE44:
 1057              		.size	disk_write, .-disk_write
 1058              		.section	.text.disk_ioctl,"ax",%progbits
 1059              		.align	1
 1060              		.global	disk_ioctl
 1061              		.code	16
 1062              		.thumb_func
 1063              		.type	disk_ioctl, %function
 1064              	disk_ioctl:
 1065              	.LFB45:
 429:.\sd/sdmm.c   **** 
 430:.\sd/sdmm.c   **** 
 431:.\sd/sdmm.c   **** /*-----------------------------------------------------------------------*/
 432:.\sd/sdmm.c   **** /* Miscellaneous Functions                                               */
 433:.\sd/sdmm.c   **** /*-----------------------------------------------------------------------*/
 434:.\sd/sdmm.c   **** 
 435:.\sd/sdmm.c   **** DRESULT disk_ioctl (
 436:.\sd/sdmm.c   **** 	BYTE drv,		/* Physical drive nmuber (0) */
 437:.\sd/sdmm.c   **** 	BYTE ctrl,		/* Control code */
 438:.\sd/sdmm.c   **** 	void *buff		/* Buffer to send/receive control data */
 439:.\sd/sdmm.c   **** )
 440:.\sd/sdmm.c   **** {
 1066              		.loc 1 440 0
 1067              		.cfi_startproc
 1068              	.LVL134:
 1069 0000 0123     		mov	r3, #1
 1070 0002 F0B5     		push	{r4, r5, r6, r7, lr}
 1071              		.cfi_def_cfa_offset 20
 1072              		.cfi_offset 4, -20
 1073              		.cfi_offset 5, -16
 1074              		.cfi_offset 6, -12
 1075              		.cfi_offset 7, -8
 1076              		.cfi_offset 14, -4
 1077              	.LBB16:
 1078              	.LBB17:
 299:.\sd/sdmm.c   **** 
 1079              		.loc 1 299 0
 1080 0004 1C1C     		mov	r4, r3
 1081              	.LBE17:
 1082              	.LBE16:
 1083              		.loc 1 440 0
 1084 0006 85B0     		sub	sp, sp, #20
 1085              		.cfi_def_cfa_offset 40
 1086              	.LBB19:
 1087              	.LBB18:
ARM GAS  C:\Users\Jarik\AppData\Local\Temp\ccYdEmgG.s 			page 29


 299:.\sd/sdmm.c   **** 
 1088              		.loc 1 299 0
 1089 0008 0028     		cmp	r0, #0
 1090 000a 01D1     		bne	.L118
 301:.\sd/sdmm.c   **** }
 1091              		.loc 1 301 0
 1092 000c 2B48     		ldr	r0, .L136
 1093              	.LVL135:
 1094 000e 0478     		ldrb	r4, [r0]
 1095              	.L118:
 1096              	.LBE18:
 1097              	.LBE19:
 441:.\sd/sdmm.c   **** 	DRESULT res;
 442:.\sd/sdmm.c   **** 	BYTE n, csd[16];
 443:.\sd/sdmm.c   **** 	DWORD cs;
 444:.\sd/sdmm.c   **** 
 445:.\sd/sdmm.c   **** 
 446:.\sd/sdmm.c   **** 	if (disk_status(drv) & STA_NOINIT) return RES_NOTRDY;	/* Check if card is in the socket */
 1098              		.loc 1 446 0
 1099 0010 1C40     		and	r4, r3
 1100 0012 0326     		mov	r6, #3
 1101 0014 002C     		cmp	r4, #0
 1102 0016 4ED1     		bne	.L119
 1103 0018 151C     		mov	r5, r2
 1104              	.LVL136:
 447:.\sd/sdmm.c   **** 
 448:.\sd/sdmm.c   **** 	res = RES_ERROR;
 449:.\sd/sdmm.c   **** 	switch (ctrl) {
 1105              		.loc 1 449 0
 1106 001a 0129     		cmp	r1, #1
 1107 001c 0CD0     		beq	.L121
 1108 001e 0029     		cmp	r1, #0
 1109 0020 04D0     		beq	.L122
 1110 0022 B142     		cmp	r1, r6
 1111 0024 43D1     		bne	.L135
 450:.\sd/sdmm.c   **** 		case CTRL_SYNC :		/* Make sure that no pending write process */
 451:.\sd/sdmm.c   **** 			if (select()) res = RES_OK;
 452:.\sd/sdmm.c   **** 			break;
 453:.\sd/sdmm.c   **** 
 454:.\sd/sdmm.c   **** 		case GET_SECTOR_COUNT :	/* Get number of sectors on the disk (DWORD) */
 455:.\sd/sdmm.c   **** 			if ((send_cmd(CMD9, 0) == 0) && rcvr_datablock(csd, 16)) {
 456:.\sd/sdmm.c   **** 				if ((csd[0] >> 6) == 1) {	/* SDC ver 2.00 */
 457:.\sd/sdmm.c   **** 					cs = csd[9] + ((WORD)csd[8] << 8) + ((DWORD)(csd[7] & 63) << 16) + 1;
 458:.\sd/sdmm.c   **** 					*(DWORD*)buff = cs << 10;
 459:.\sd/sdmm.c   **** 				} else {					/* SDC ver 1.XX or MMC */
 460:.\sd/sdmm.c   **** 					n = (csd[5] & 15) + ((csd[10] & 128) >> 7) + ((csd[9] & 3) << 1) + 2;
 461:.\sd/sdmm.c   **** 					cs = (csd[8] >> 6) + ((WORD)csd[7] << 2) + ((WORD)(csd[6] & 3) << 10) + 1;
 462:.\sd/sdmm.c   **** 					*(DWORD*)buff = cs << (n - 9);
 463:.\sd/sdmm.c   **** 				}
 464:.\sd/sdmm.c   **** 				res = RES_OK;
 465:.\sd/sdmm.c   **** 			}
 466:.\sd/sdmm.c   **** 			break;
 467:.\sd/sdmm.c   **** 
 468:.\sd/sdmm.c   **** 		case GET_BLOCK_SIZE :	/* Get erase block size in unit of sector (DWORD) */
 469:.\sd/sdmm.c   **** 			*(DWORD*)buff = 128;
 1112              		.loc 1 469 0
 1113 0026 8023     		mov	r3, #128
ARM GAS  C:\Users\Jarik\AppData\Local\Temp\ccYdEmgG.s 			page 30


 1114 0028 1360     		str	r3, [r2]
 1115              	.LVL137:
 470:.\sd/sdmm.c   **** 			res = RES_OK;
 471:.\sd/sdmm.c   **** 			break;
 1116              		.loc 1 471 0
 1117 002a 41E0     		b	.L120
 1118              	.LVL138:
 1119              	.L122:
 451:.\sd/sdmm.c   **** 			break;
 1120              		.loc 1 451 0
 1121 002c FFF7FEFF 		bl	select
 1122              	.LVL139:
 1123 0030 4442     		neg	r4, r0
 1124 0032 4441     		adc	r4, r4, r0
 1125 0034 E4B2     		uxtb	r4, r4
 1126 0036 3BE0     		b	.L120
 1127              	.LVL140:
 1128              	.L121:
 455:.\sd/sdmm.c   **** 				if ((csd[0] >> 6) == 1) {	/* SDC ver 2.00 */
 1129              		.loc 1 455 0
 1130 0038 211C     		mov	r1, r4
 1131              	.LVL141:
 1132 003a 0920     		mov	r0, #9
 1133 003c FFF7FEFF 		bl	send_cmd
 1134              	.LVL142:
 1135 0040 041E     		sub	r4, r0, #0
 1136 0042 01D0     		beq	.L124
 1137              	.L125:
 448:.\sd/sdmm.c   **** 	switch (ctrl) {
 1138              		.loc 1 448 0
 1139 0044 0124     		mov	r4, #1
 1140 0046 33E0     		b	.L120
 1141              	.L124:
 455:.\sd/sdmm.c   **** 				if ((csd[0] >> 6) == 1) {	/* SDC ver 2.00 */
 1142              		.loc 1 455 0 discriminator 1
 1143 0048 6846     		mov	r0, sp
 1144 004a 1021     		mov	r1, #16
 1145 004c FFF7FEFF 		bl	rcvr_datablock
 1146              	.LVL143:
 1147 0050 0028     		cmp	r0, #0
 1148 0052 F7D0     		beq	.L125
 456:.\sd/sdmm.c   **** 					cs = csd[9] + ((WORD)csd[8] << 8) + ((DWORD)(csd[7] & 63) << 16) + 1;
 1149              		.loc 1 456 0
 1150 0054 6B46     		mov	r3, sp
 1151 0056 6A46     		mov	r2, sp
 1152 0058 1878     		ldrb	r0, [r3]
 1153 005a 517A     		ldrb	r1, [r2, #9]
 1154 005c 8009     		lsr	r0, r0, #6
 1155 005e DB79     		ldrb	r3, [r3, #7]
 1156 0060 127A     		ldrb	r2, [r2, #8]
 1157 0062 0128     		cmp	r0, #1
 1158 0064 08D1     		bne	.L126
 1159              	.LVL144:
 457:.\sd/sdmm.c   **** 					*(DWORD*)buff = cs << 10;
 1160              		.loc 1 457 0
 1161 0066 3E30     		add	r0, r0, #62
 1162 0068 0340     		and	r3, r0
ARM GAS  C:\Users\Jarik\AppData\Local\Temp\ccYdEmgG.s 			page 31


 1163 006a 1E04     		lsl	r6, r3, #16
 1164 006c 1202     		lsl	r2, r2, #8
 1165 006e 0136     		add	r6, r6, #1
 1166 0070 8A18     		add	r2, r1, r2
 1167 0072 B118     		add	r1, r6, r2
 458:.\sd/sdmm.c   **** 				} else {					/* SDC ver 1.XX or MMC */
 1168              		.loc 1 458 0
 1169 0074 8902     		lsl	r1, r1, #10
 1170 0076 18E0     		b	.L134
 1171              	.LVL145:
 1172              	.L126:
 461:.\sd/sdmm.c   **** 					*(DWORD*)buff = cs << (n - 9);
 1173              		.loc 1 461 0
 1174 0078 9B00     		lsl	r3, r3, #2
 1175 007a 9209     		lsr	r2, r2, #6
 1176 007c D218     		add	r2, r2, r3
 1177 007e 6B46     		mov	r3, sp
 1178 0080 9B79     		ldrb	r3, [r3, #6]
 460:.\sd/sdmm.c   **** 					cs = (csd[8] >> 6) + ((WORD)csd[7] << 2) + ((WORD)(csd[6] & 3) << 10) + 1;
 1179              		.loc 1 460 0
 1180 0082 3140     		and	r1, r6
 461:.\sd/sdmm.c   **** 					*(DWORD*)buff = cs << (n - 9);
 1181              		.loc 1 461 0
 1182 0084 3340     		and	r3, r6
 1183 0086 9B02     		lsl	r3, r3, #10
 1184 0088 D318     		add	r3, r2, r3
 460:.\sd/sdmm.c   **** 					cs = (csd[8] >> 6) + ((WORD)csd[7] << 2) + ((WORD)(csd[6] & 3) << 10) + 1;
 1185              		.loc 1 460 0
 1186 008a 6A46     		mov	r2, sp
 1187 008c 5779     		ldrb	r7, [r2, #5]
 1188 008e 0F22     		mov	r2, #15
 1189 0090 1740     		and	r7, r2
 1190 0092 6A46     		mov	r2, sp
 1191 0094 927A     		ldrb	r2, [r2, #10]
 1192 0096 4E00     		lsl	r6, r1, #1
 1193 0098 D009     		lsr	r0, r2, #7
 1194 009a 3A18     		add	r2, r7, r0
 1195 009c 0232     		add	r2, r2, #2
 1196 009e 9119     		add	r1, r2, r6
 462:.\sd/sdmm.c   **** 				}
 1197              		.loc 1 462 0
 1198 00a0 C9B2     		uxtb	r1, r1
 1199 00a2 0939     		sub	r1, r1, #9
 461:.\sd/sdmm.c   **** 					*(DWORD*)buff = cs << (n - 9);
 1200              		.loc 1 461 0
 1201 00a4 0133     		add	r3, r3, #1
 462:.\sd/sdmm.c   **** 				}
 1202              		.loc 1 462 0
 1203 00a6 8B40     		lsl	r3, r3, r1
 1204 00a8 191C     		mov	r1, r3
 1205              	.LVL146:
 1206              	.L134:
 1207 00aa 2960     		str	r1, [r5]
 1208 00ac 00E0     		b	.L120
 1209              	.LVL147:
 1210              	.L135:
 472:.\sd/sdmm.c   **** 
ARM GAS  C:\Users\Jarik\AppData\Local\Temp\ccYdEmgG.s 			page 32


 473:.\sd/sdmm.c   **** 		default:
 474:.\sd/sdmm.c   **** 			res = RES_PARERR;
 1211              		.loc 1 474 0
 1212 00ae 0424     		mov	r4, #4
 1213              	.LVL148:
 1214              	.L120:
 475:.\sd/sdmm.c   **** 	}
 476:.\sd/sdmm.c   **** 
 477:.\sd/sdmm.c   **** 	deselect();
 1215              		.loc 1 477 0
 1216 00b0 FFF7FEFF 		bl	deselect
 1217              	.LVL149:
 478:.\sd/sdmm.c   **** 
 479:.\sd/sdmm.c   **** 	return res;
 1218              		.loc 1 479 0
 1219 00b4 261C     		mov	r6, r4
 1220              	.LVL150:
 1221              	.L119:
 480:.\sd/sdmm.c   **** }
 1222              		.loc 1 480 0
 1223 00b6 301C     		mov	r0, r6
 1224 00b8 05B0     		add	sp, sp, #20
 1225              		@ sp needed
 1226 00ba F0BD     		pop	{r4, r5, r6, r7, pc}
 1227              	.L137:
 1228              		.align	2
 1229              	.L136:
 1230 00bc 00000000 		.word	.LANCHOR1
 1231              		.cfi_endproc
 1232              	.LFE45:
 1233              		.size	disk_ioctl, .-disk_ioctl
 1234              		.section	.text.get_fattime,"ax",%progbits
 1235              		.align	1
 1236              		.global	get_fattime
 1237              		.code	16
 1238              		.thumb_func
 1239              		.type	get_fattime, %function
 1240              	get_fattime:
 1241              	.LFB46:
 481:.\sd/sdmm.c   **** DWORD get_fattime(void)
 482:.\sd/sdmm.c   **** {
 1242              		.loc 1 482 0
 1243              		.cfi_startproc
 483:.\sd/sdmm.c   ****     return 0b01000000100011110000001100100001;
 484:.\sd/sdmm.c   **** }
 1244              		.loc 1 484 0
 1245 0000 0048     		ldr	r0, .L139
 1246              		@ sp needed
 1247 0002 7047     		bx	lr
 1248              	.L140:
 1249              		.align	2
 1250              	.L139:
 1251 0004 21038F40 		.word	1083114273
 1252              		.cfi_endproc
 1253              	.LFE46:
 1254              		.size	get_fattime, .-get_fattime
 1255              		.section	.text.disk_init,"ax",%progbits
ARM GAS  C:\Users\Jarik\AppData\Local\Temp\ccYdEmgG.s 			page 33


 1256              		.align	1
 1257              		.global	disk_init
 1258              		.code	16
 1259              		.thumb_func
 1260              		.type	disk_init, %function
 1261              	disk_init:
 1262              	.LFB47:
 485:.\sd/sdmm.c   **** 
 486:.\sd/sdmm.c   **** void disk_init(void)
 487:.\sd/sdmm.c   **** {
 1263              		.loc 1 487 0
 1264              		.cfi_startproc
 1265              	.LVL151:
 1266 0000 08B5     		push	{r3, lr}
 1267              		.cfi_def_cfa_offset 8
 1268              		.cfi_offset 3, -8
 1269              		.cfi_offset 14, -4
 1270              	.LBB22:
 1271              	.LBB23:
 1272 0002 FFF7FEFF 		bl	disk_initialize.part.1
 1273              	.LVL152:
 1274              	.LBE23:
 1275              	.LBE22:
 488:.\sd/sdmm.c   ****     disk_initialize (0);		/* Physical drive nmuber (0) */
 489:.\sd/sdmm.c   **** }...
 1276              		.loc 1 489 0
 1277              		@ sp needed
 1278 0006 08BD     		pop	{r3, pc}
 1279              		.cfi_endproc
 1280              	.LFE47:
 1281              		.size	disk_init, .-disk_init
 1282              		.data
 1283              		.set	.LANCHOR1,. + 0
 1284              		.type	Stat, %object
 1285              		.size	Stat, 1
 1286              	Stat:
 1287 0000 01       		.byte	1
 1288              		.bss
 1289              		.set	.LANCHOR0,. + 0
 1290              		.type	CardType, %object
 1291              		.size	CardType, 1
 1292              	CardType:
 1293 0000 00       		.space	1
 1294              		.text
 1295              	.Letext0:
 1296              		.file 2 "c:\\program files\\cypress\\psoc creator\\3.3\\psoc creator\\import\\gnu\\arm\\4.9.3\\arm
 1297              		.file 3 "c:\\program files\\cypress\\psoc creator\\3.3\\psoc creator\\import\\gnu\\arm\\4.9.3\\arm
 1298              		.file 4 "./sd/integer.h"
 1299              		.file 5 "./sd/diskio.h"
 1300              		.file 6 "Generated_Source\\PSoC4/cytypes.h"
 1301              		.file 7 "Generated_Source\\PSoC4/CyLib.h"
 1302              		.file 8 "Generated_Source\\PSoC4/SPI_CS.h"
 1303              		.file 9 "./sd/SPI_routines.h"