ARM GAS  C:\Users\Jarik\AppData\Local\Temp\cc7eZYm3.s 			page 1


   1              		.cpu cortex-m0
   2              		.fpu softvfp
   3              		.eabi_attribute 20, 1
   4              		.eabi_attribute 21, 1
   5              		.eabi_attribute 23, 3
   6              		.eabi_attribute 24, 1
   7              		.eabi_attribute 25, 1
   8              		.eabi_attribute 26, 1
   9              		.eabi_attribute 30, 4
  10              		.eabi_attribute 34, 0
  11              		.eabi_attribute 18, 4
  12              		.code	16
  13              		.file	"SPI_1_SPI_UART.c"
  14              		.text
  15              	.Ltext0:
  16              		.cfi_sections	.debug_frame
  17              		.section	.text.SPI_1_SpiUartReadRxData,"ax",%progbits
  18              		.align	1
  19              		.global	SPI_1_SpiUartReadRxData
  20              		.code	16
  21              		.thumb_func
  22              		.type	SPI_1_SpiUartReadRxData, %function
  23              	SPI_1_SpiUartReadRxData:
  24              	.LFB0:
  25              		.file 1 ".\\Generated_Source\\PSoC4\\SPI_1_SPI_UART.c"
   1:.\Generated_Source\PSoC4/SPI_1_SPI_UART.c **** /*******************************************************************************
   2:.\Generated_Source\PSoC4/SPI_1_SPI_UART.c **** * File Name: SPI_1_SPI_UART.c
   3:.\Generated_Source\PSoC4/SPI_1_SPI_UART.c **** * Version 3.0
   4:.\Generated_Source\PSoC4/SPI_1_SPI_UART.c **** *
   5:.\Generated_Source\PSoC4/SPI_1_SPI_UART.c **** * Description:
   6:.\Generated_Source\PSoC4/SPI_1_SPI_UART.c **** *  This file provides the source code to the API for the SCB Component in
   7:.\Generated_Source\PSoC4/SPI_1_SPI_UART.c **** *  SPI and UART modes.
   8:.\Generated_Source\PSoC4/SPI_1_SPI_UART.c **** *
   9:.\Generated_Source\PSoC4/SPI_1_SPI_UART.c **** * Note:
  10:.\Generated_Source\PSoC4/SPI_1_SPI_UART.c **** *
  11:.\Generated_Source\PSoC4/SPI_1_SPI_UART.c **** *******************************************************************************
  12:.\Generated_Source\PSoC4/SPI_1_SPI_UART.c **** * Copyright 2013-2015, Cypress Semiconductor Corporation.  All rights reserved.
  13:.\Generated_Source\PSoC4/SPI_1_SPI_UART.c **** * You may use this file only in accordance with the license, terms, conditions,
  14:.\Generated_Source\PSoC4/SPI_1_SPI_UART.c **** * disclaimers, and limitations in the end user license agreement accompanying
  15:.\Generated_Source\PSoC4/SPI_1_SPI_UART.c **** * the software package with which this file was provided.
  16:.\Generated_Source\PSoC4/SPI_1_SPI_UART.c **** *******************************************************************************/
  17:.\Generated_Source\PSoC4/SPI_1_SPI_UART.c **** 
  18:.\Generated_Source\PSoC4/SPI_1_SPI_UART.c **** #include "SPI_1_PVT.h"
  19:.\Generated_Source\PSoC4/SPI_1_SPI_UART.c **** #include "SPI_1_SPI_UART_PVT.h"
  20:.\Generated_Source\PSoC4/SPI_1_SPI_UART.c **** 
  21:.\Generated_Source\PSoC4/SPI_1_SPI_UART.c **** /***************************************
  22:.\Generated_Source\PSoC4/SPI_1_SPI_UART.c **** *        SPI/UART Private Vars
  23:.\Generated_Source\PSoC4/SPI_1_SPI_UART.c **** ***************************************/
  24:.\Generated_Source\PSoC4/SPI_1_SPI_UART.c **** 
  25:.\Generated_Source\PSoC4/SPI_1_SPI_UART.c **** #if(SPI_1_INTERNAL_RX_SW_BUFFER_CONST)
  26:.\Generated_Source\PSoC4/SPI_1_SPI_UART.c ****     volatile uint32 SPI_1_rxBufferHead;
  27:.\Generated_Source\PSoC4/SPI_1_SPI_UART.c ****     volatile uint32 SPI_1_rxBufferTail;
  28:.\Generated_Source\PSoC4/SPI_1_SPI_UART.c ****     volatile uint8  SPI_1_rxBufferOverflow;
  29:.\Generated_Source\PSoC4/SPI_1_SPI_UART.c **** #endif /* (SPI_1_INTERNAL_RX_SW_BUFFER_CONST) */
  30:.\Generated_Source\PSoC4/SPI_1_SPI_UART.c **** 
  31:.\Generated_Source\PSoC4/SPI_1_SPI_UART.c **** #if(SPI_1_INTERNAL_TX_SW_BUFFER_CONST)
  32:.\Generated_Source\PSoC4/SPI_1_SPI_UART.c ****     volatile uint32 SPI_1_txBufferHead;
ARM GAS  C:\Users\Jarik\AppData\Local\Temp\cc7eZYm3.s 			page 2


  33:.\Generated_Source\PSoC4/SPI_1_SPI_UART.c ****     volatile uint32 SPI_1_txBufferTail;
  34:.\Generated_Source\PSoC4/SPI_1_SPI_UART.c **** #endif /* (SPI_1_INTERNAL_TX_SW_BUFFER_CONST) */
  35:.\Generated_Source\PSoC4/SPI_1_SPI_UART.c **** 
  36:.\Generated_Source\PSoC4/SPI_1_SPI_UART.c **** #if(SPI_1_INTERNAL_RX_SW_BUFFER)
  37:.\Generated_Source\PSoC4/SPI_1_SPI_UART.c ****     /* Add one element to the buffer to receive full packet. One byte in receive buffer is always e
  38:.\Generated_Source\PSoC4/SPI_1_SPI_UART.c ****     volatile uint8 SPI_1_rxBufferInternal[SPI_1_INTERNAL_RX_BUFFER_SIZE];
  39:.\Generated_Source\PSoC4/SPI_1_SPI_UART.c **** #endif /* (SPI_1_INTERNAL_RX_SW_BUFFER) */
  40:.\Generated_Source\PSoC4/SPI_1_SPI_UART.c **** 
  41:.\Generated_Source\PSoC4/SPI_1_SPI_UART.c **** #if(SPI_1_INTERNAL_TX_SW_BUFFER)
  42:.\Generated_Source\PSoC4/SPI_1_SPI_UART.c ****     volatile uint8 SPI_1_txBufferInternal[SPI_1_TX_BUFFER_SIZE];
  43:.\Generated_Source\PSoC4/SPI_1_SPI_UART.c **** #endif /* (SPI_1_INTERNAL_TX_SW_BUFFER) */
  44:.\Generated_Source\PSoC4/SPI_1_SPI_UART.c **** 
  45:.\Generated_Source\PSoC4/SPI_1_SPI_UART.c **** 
  46:.\Generated_Source\PSoC4/SPI_1_SPI_UART.c **** #if(SPI_1_RX_DIRECTION)
  47:.\Generated_Source\PSoC4/SPI_1_SPI_UART.c ****     /*******************************************************************************
  48:.\Generated_Source\PSoC4/SPI_1_SPI_UART.c ****     * Function Name: SPI_1_SpiUartReadRxData
  49:.\Generated_Source\PSoC4/SPI_1_SPI_UART.c ****     ********************************************************************************
  50:.\Generated_Source\PSoC4/SPI_1_SPI_UART.c ****     *
  51:.\Generated_Source\PSoC4/SPI_1_SPI_UART.c ****     * Summary:
  52:.\Generated_Source\PSoC4/SPI_1_SPI_UART.c ****     *  Retrieves the next data element from the receive buffer.
  53:.\Generated_Source\PSoC4/SPI_1_SPI_UART.c ****     *   - RX software buffer is disabled: Returns data element retrieved from
  54:.\Generated_Source\PSoC4/SPI_1_SPI_UART.c ****     *     RX FIFO. Undefined data will be returned if the RX FIFO is empty.
  55:.\Generated_Source\PSoC4/SPI_1_SPI_UART.c ****     *   - RX software buffer is enabled: Returns data element from the software
  56:.\Generated_Source\PSoC4/SPI_1_SPI_UART.c ****     *     receive buffer. Zero value is returned if the software receive buffer
  57:.\Generated_Source\PSoC4/SPI_1_SPI_UART.c ****     *     is empty.
  58:.\Generated_Source\PSoC4/SPI_1_SPI_UART.c ****     *
  59:.\Generated_Source\PSoC4/SPI_1_SPI_UART.c ****     * Parameters:
  60:.\Generated_Source\PSoC4/SPI_1_SPI_UART.c ****     *  None
  61:.\Generated_Source\PSoC4/SPI_1_SPI_UART.c ****     *
  62:.\Generated_Source\PSoC4/SPI_1_SPI_UART.c ****     * Return:
  63:.\Generated_Source\PSoC4/SPI_1_SPI_UART.c ****     *  Next data element from the receive buffer.
  64:.\Generated_Source\PSoC4/SPI_1_SPI_UART.c ****     *
  65:.\Generated_Source\PSoC4/SPI_1_SPI_UART.c ****     * Global Variables:
  66:.\Generated_Source\PSoC4/SPI_1_SPI_UART.c ****     *  Look into SPI_1_SpiInit for description.
  67:.\Generated_Source\PSoC4/SPI_1_SPI_UART.c ****     *
  68:.\Generated_Source\PSoC4/SPI_1_SPI_UART.c ****     *******************************************************************************/
  69:.\Generated_Source\PSoC4/SPI_1_SPI_UART.c ****     uint32 SPI_1_SpiUartReadRxData(void)
  70:.\Generated_Source\PSoC4/SPI_1_SPI_UART.c ****     {
  26              		.loc 1 70 0
  27              		.cfi_startproc
  28              	.LVL0:
  71:.\Generated_Source\PSoC4/SPI_1_SPI_UART.c ****         uint32 rxData = 0u;
  72:.\Generated_Source\PSoC4/SPI_1_SPI_UART.c **** 
  73:.\Generated_Source\PSoC4/SPI_1_SPI_UART.c ****     #if (SPI_1_INTERNAL_RX_SW_BUFFER_CONST)
  74:.\Generated_Source\PSoC4/SPI_1_SPI_UART.c ****         uint32 locTail;
  75:.\Generated_Source\PSoC4/SPI_1_SPI_UART.c ****     #endif /* (SPI_1_INTERNAL_RX_SW_BUFFER_CONST) */
  76:.\Generated_Source\PSoC4/SPI_1_SPI_UART.c **** 
  77:.\Generated_Source\PSoC4/SPI_1_SPI_UART.c ****         #if (SPI_1_CHECK_RX_SW_BUFFER)
  78:.\Generated_Source\PSoC4/SPI_1_SPI_UART.c ****         {
  79:.\Generated_Source\PSoC4/SPI_1_SPI_UART.c ****             if (SPI_1_rxBufferHead != SPI_1_rxBufferTail)
  80:.\Generated_Source\PSoC4/SPI_1_SPI_UART.c ****             {
  81:.\Generated_Source\PSoC4/SPI_1_SPI_UART.c ****                 /* There is data in RX software buffer */
  82:.\Generated_Source\PSoC4/SPI_1_SPI_UART.c **** 
  83:.\Generated_Source\PSoC4/SPI_1_SPI_UART.c ****                 /* Calculate index to read from */
  84:.\Generated_Source\PSoC4/SPI_1_SPI_UART.c ****                 locTail = (SPI_1_rxBufferTail + 1u);
  85:.\Generated_Source\PSoC4/SPI_1_SPI_UART.c **** 
  86:.\Generated_Source\PSoC4/SPI_1_SPI_UART.c ****                 if (SPI_1_INTERNAL_RX_BUFFER_SIZE == locTail)
ARM GAS  C:\Users\Jarik\AppData\Local\Temp\cc7eZYm3.s 			page 3


  87:.\Generated_Source\PSoC4/SPI_1_SPI_UART.c ****                 {
  88:.\Generated_Source\PSoC4/SPI_1_SPI_UART.c ****                     locTail = 0u;
  89:.\Generated_Source\PSoC4/SPI_1_SPI_UART.c ****                 }
  90:.\Generated_Source\PSoC4/SPI_1_SPI_UART.c **** 
  91:.\Generated_Source\PSoC4/SPI_1_SPI_UART.c ****                 /* Get data from RX software buffer */
  92:.\Generated_Source\PSoC4/SPI_1_SPI_UART.c ****                 rxData = SPI_1_GetWordFromRxBuffer(locTail);
  93:.\Generated_Source\PSoC4/SPI_1_SPI_UART.c **** 
  94:.\Generated_Source\PSoC4/SPI_1_SPI_UART.c ****                 /* Change index in the buffer */
  95:.\Generated_Source\PSoC4/SPI_1_SPI_UART.c ****                 SPI_1_rxBufferTail = locTail;
  96:.\Generated_Source\PSoC4/SPI_1_SPI_UART.c **** 
  97:.\Generated_Source\PSoC4/SPI_1_SPI_UART.c ****                 #if (SPI_1_CHECK_UART_RTS_CONTROL_FLOW)
  98:.\Generated_Source\PSoC4/SPI_1_SPI_UART.c ****                 {
  99:.\Generated_Source\PSoC4/SPI_1_SPI_UART.c ****                     /* Check if RX Not Empty is disabled in the interrupt */
 100:.\Generated_Source\PSoC4/SPI_1_SPI_UART.c ****                     if (0u == (SPI_1_INTR_RX_MASK_REG & SPI_1_INTR_RX_NOT_EMPTY))
 101:.\Generated_Source\PSoC4/SPI_1_SPI_UART.c ****                     {
 102:.\Generated_Source\PSoC4/SPI_1_SPI_UART.c ****                         /* Enable RX Not Empty interrupt source to continue
 103:.\Generated_Source\PSoC4/SPI_1_SPI_UART.c ****                         * receiving data into software buffer.
 104:.\Generated_Source\PSoC4/SPI_1_SPI_UART.c ****                         */
 105:.\Generated_Source\PSoC4/SPI_1_SPI_UART.c ****                         SPI_1_INTR_RX_MASK_REG |= SPI_1_INTR_RX_NOT_EMPTY;
 106:.\Generated_Source\PSoC4/SPI_1_SPI_UART.c ****                     }
 107:.\Generated_Source\PSoC4/SPI_1_SPI_UART.c ****                 }
 108:.\Generated_Source\PSoC4/SPI_1_SPI_UART.c ****                 #endif
 109:.\Generated_Source\PSoC4/SPI_1_SPI_UART.c **** 
 110:.\Generated_Source\PSoC4/SPI_1_SPI_UART.c ****             }
 111:.\Generated_Source\PSoC4/SPI_1_SPI_UART.c ****         }
 112:.\Generated_Source\PSoC4/SPI_1_SPI_UART.c ****         #else
 113:.\Generated_Source\PSoC4/SPI_1_SPI_UART.c ****         {
 114:.\Generated_Source\PSoC4/SPI_1_SPI_UART.c ****             /* Read data from RX FIFO */
 115:.\Generated_Source\PSoC4/SPI_1_SPI_UART.c ****             rxData = SPI_1_RX_FIFO_RD_REG;
  29              		.loc 1 115 0
  30 0000 014B     		ldr	r3, .L2
 116:.\Generated_Source\PSoC4/SPI_1_SPI_UART.c ****         }
 117:.\Generated_Source\PSoC4/SPI_1_SPI_UART.c ****         #endif
 118:.\Generated_Source\PSoC4/SPI_1_SPI_UART.c **** 
 119:.\Generated_Source\PSoC4/SPI_1_SPI_UART.c ****         return (rxData);
 120:.\Generated_Source\PSoC4/SPI_1_SPI_UART.c ****     }
  31              		.loc 1 120 0
  32              		@ sp needed
 115:.\Generated_Source\PSoC4/SPI_1_SPI_UART.c ****         }
  33              		.loc 1 115 0
  34 0002 1868     		ldr	r0, [r3]
  35              	.LVL1:
  36              		.loc 1 120 0
  37 0004 7047     		bx	lr
  38              	.L3:
  39 0006 C046     		.align	2
  40              	.L2:
  41 0008 40030640 		.word	1074135872
  42              		.cfi_endproc
  43              	.LFE0:
  44              		.size	SPI_1_SpiUartReadRxData, .-SPI_1_SpiUartReadRxData
  45              		.section	.text.SPI_1_SpiUartGetRxBufferSize,"ax",%progbits
  46              		.align	1
  47              		.global	SPI_1_SpiUartGetRxBufferSize
  48              		.code	16
  49              		.thumb_func
  50              		.type	SPI_1_SpiUartGetRxBufferSize, %function
ARM GAS  C:\Users\Jarik\AppData\Local\Temp\cc7eZYm3.s 			page 4


  51              	SPI_1_SpiUartGetRxBufferSize:
  52              	.LFB1:
 121:.\Generated_Source\PSoC4/SPI_1_SPI_UART.c **** 
 122:.\Generated_Source\PSoC4/SPI_1_SPI_UART.c **** 
 123:.\Generated_Source\PSoC4/SPI_1_SPI_UART.c ****     /*******************************************************************************
 124:.\Generated_Source\PSoC4/SPI_1_SPI_UART.c ****     * Function Name: SPI_1_SpiUartGetRxBufferSize
 125:.\Generated_Source\PSoC4/SPI_1_SPI_UART.c ****     ********************************************************************************
 126:.\Generated_Source\PSoC4/SPI_1_SPI_UART.c ****     *
 127:.\Generated_Source\PSoC4/SPI_1_SPI_UART.c ****     * Summary:
 128:.\Generated_Source\PSoC4/SPI_1_SPI_UART.c ****     *  Returns the number of received data elements in the receive buffer.
 129:.\Generated_Source\PSoC4/SPI_1_SPI_UART.c ****     *   - RX software buffer disabled: returns the number of used entries in
 130:.\Generated_Source\PSoC4/SPI_1_SPI_UART.c ****     *     RX FIFO.
 131:.\Generated_Source\PSoC4/SPI_1_SPI_UART.c ****     *   - RX software buffer enabled: returns the number of elements which were
 132:.\Generated_Source\PSoC4/SPI_1_SPI_UART.c ****     *     placed in the receive buffer. This does not include the hardware RX FIFO.
 133:.\Generated_Source\PSoC4/SPI_1_SPI_UART.c ****     *
 134:.\Generated_Source\PSoC4/SPI_1_SPI_UART.c ****     * Parameters:
 135:.\Generated_Source\PSoC4/SPI_1_SPI_UART.c ****     *  None
 136:.\Generated_Source\PSoC4/SPI_1_SPI_UART.c ****     *
 137:.\Generated_Source\PSoC4/SPI_1_SPI_UART.c ****     * Return:
 138:.\Generated_Source\PSoC4/SPI_1_SPI_UART.c ****     *  Number of received data elements
 139:.\Generated_Source\PSoC4/SPI_1_SPI_UART.c ****     *
 140:.\Generated_Source\PSoC4/SPI_1_SPI_UART.c ****     *******************************************************************************/
 141:.\Generated_Source\PSoC4/SPI_1_SPI_UART.c ****     uint32 SPI_1_SpiUartGetRxBufferSize(void)
 142:.\Generated_Source\PSoC4/SPI_1_SPI_UART.c ****     {
  53              		.loc 1 142 0
  54              		.cfi_startproc
 143:.\Generated_Source\PSoC4/SPI_1_SPI_UART.c ****         uint32 size;
 144:.\Generated_Source\PSoC4/SPI_1_SPI_UART.c ****     #if (SPI_1_INTERNAL_RX_SW_BUFFER_CONST)
 145:.\Generated_Source\PSoC4/SPI_1_SPI_UART.c ****         uint32 locHead;
 146:.\Generated_Source\PSoC4/SPI_1_SPI_UART.c ****     #endif /* (SPI_1_INTERNAL_RX_SW_BUFFER_CONST) */
 147:.\Generated_Source\PSoC4/SPI_1_SPI_UART.c **** 
 148:.\Generated_Source\PSoC4/SPI_1_SPI_UART.c ****         #if (SPI_1_CHECK_RX_SW_BUFFER)
 149:.\Generated_Source\PSoC4/SPI_1_SPI_UART.c ****         {
 150:.\Generated_Source\PSoC4/SPI_1_SPI_UART.c ****             locHead = SPI_1_rxBufferHead;
 151:.\Generated_Source\PSoC4/SPI_1_SPI_UART.c **** 
 152:.\Generated_Source\PSoC4/SPI_1_SPI_UART.c ****             if(locHead >= SPI_1_rxBufferTail)
 153:.\Generated_Source\PSoC4/SPI_1_SPI_UART.c ****             {
 154:.\Generated_Source\PSoC4/SPI_1_SPI_UART.c ****                 size = (locHead - SPI_1_rxBufferTail);
 155:.\Generated_Source\PSoC4/SPI_1_SPI_UART.c ****             }
 156:.\Generated_Source\PSoC4/SPI_1_SPI_UART.c ****             else
 157:.\Generated_Source\PSoC4/SPI_1_SPI_UART.c ****             {
 158:.\Generated_Source\PSoC4/SPI_1_SPI_UART.c ****                 size = (locHead + (SPI_1_INTERNAL_RX_BUFFER_SIZE - SPI_1_rxBufferTail));
 159:.\Generated_Source\PSoC4/SPI_1_SPI_UART.c ****             }
 160:.\Generated_Source\PSoC4/SPI_1_SPI_UART.c ****         }
 161:.\Generated_Source\PSoC4/SPI_1_SPI_UART.c ****         #else
 162:.\Generated_Source\PSoC4/SPI_1_SPI_UART.c ****         {
 163:.\Generated_Source\PSoC4/SPI_1_SPI_UART.c ****             size = SPI_1_GET_RX_FIFO_ENTRIES;
  55              		.loc 1 163 0
  56 0000 024B     		ldr	r3, .L5
 164:.\Generated_Source\PSoC4/SPI_1_SPI_UART.c ****         }
 165:.\Generated_Source\PSoC4/SPI_1_SPI_UART.c ****         #endif
 166:.\Generated_Source\PSoC4/SPI_1_SPI_UART.c **** 
 167:.\Generated_Source\PSoC4/SPI_1_SPI_UART.c ****         return (size);
 168:.\Generated_Source\PSoC4/SPI_1_SPI_UART.c ****     }
  57              		.loc 1 168 0
  58              		@ sp needed
 163:.\Generated_Source\PSoC4/SPI_1_SPI_UART.c ****         }
ARM GAS  C:\Users\Jarik\AppData\Local\Temp\cc7eZYm3.s 			page 5


  59              		.loc 1 163 0
  60 0002 1868     		ldr	r0, [r3]
  61              	.LVL2:
  62 0004 0F23     		mov	r3, #15
  63 0006 1840     		and	r0, r3
  64              	.LVL3:
  65              		.loc 1 168 0
  66 0008 7047     		bx	lr
  67              	.L6:
  68 000a C046     		.align	2
  69              	.L5:
  70 000c 08030640 		.word	1074135816
  71              		.cfi_endproc
  72              	.LFE1:
  73              		.size	SPI_1_SpiUartGetRxBufferSize, .-SPI_1_SpiUartGetRxBufferSize
  74              		.section	.text.SPI_1_SpiUartClearRxBuffer,"ax",%progbits
  75              		.align	1
  76              		.global	SPI_1_SpiUartClearRxBuffer
  77              		.code	16
  78              		.thumb_func
  79              		.type	SPI_1_SpiUartClearRxBuffer, %function
  80              	SPI_1_SpiUartClearRxBuffer:
  81              	.LFB2:
 169:.\Generated_Source\PSoC4/SPI_1_SPI_UART.c **** 
 170:.\Generated_Source\PSoC4/SPI_1_SPI_UART.c **** 
 171:.\Generated_Source\PSoC4/SPI_1_SPI_UART.c ****     /*******************************************************************************
 172:.\Generated_Source\PSoC4/SPI_1_SPI_UART.c ****     * Function Name: SPI_1_SpiUartClearRxBuffer
 173:.\Generated_Source\PSoC4/SPI_1_SPI_UART.c ****     ********************************************************************************
 174:.\Generated_Source\PSoC4/SPI_1_SPI_UART.c ****     *
 175:.\Generated_Source\PSoC4/SPI_1_SPI_UART.c ****     * Summary:
 176:.\Generated_Source\PSoC4/SPI_1_SPI_UART.c ****     *  Clears the receive buffer and RX FIFO.
 177:.\Generated_Source\PSoC4/SPI_1_SPI_UART.c ****     *
 178:.\Generated_Source\PSoC4/SPI_1_SPI_UART.c ****     * Parameters:
 179:.\Generated_Source\PSoC4/SPI_1_SPI_UART.c ****     *  None
 180:.\Generated_Source\PSoC4/SPI_1_SPI_UART.c ****     *
 181:.\Generated_Source\PSoC4/SPI_1_SPI_UART.c ****     * Return:
 182:.\Generated_Source\PSoC4/SPI_1_SPI_UART.c ****     *  None
 183:.\Generated_Source\PSoC4/SPI_1_SPI_UART.c ****     *
 184:.\Generated_Source\PSoC4/SPI_1_SPI_UART.c ****     *******************************************************************************/
 185:.\Generated_Source\PSoC4/SPI_1_SPI_UART.c ****     void SPI_1_SpiUartClearRxBuffer(void)
 186:.\Generated_Source\PSoC4/SPI_1_SPI_UART.c ****     {
  82              		.loc 1 186 0
  83              		.cfi_startproc
 187:.\Generated_Source\PSoC4/SPI_1_SPI_UART.c ****         #if (SPI_1_CHECK_RX_SW_BUFFER)
 188:.\Generated_Source\PSoC4/SPI_1_SPI_UART.c ****         {
 189:.\Generated_Source\PSoC4/SPI_1_SPI_UART.c ****             /* Lock from component interruption */
 190:.\Generated_Source\PSoC4/SPI_1_SPI_UART.c ****             SPI_1_DisableInt();
 191:.\Generated_Source\PSoC4/SPI_1_SPI_UART.c **** 
 192:.\Generated_Source\PSoC4/SPI_1_SPI_UART.c ****             /* Flush RX software buffer */
 193:.\Generated_Source\PSoC4/SPI_1_SPI_UART.c ****             SPI_1_rxBufferHead = SPI_1_rxBufferTail;
 194:.\Generated_Source\PSoC4/SPI_1_SPI_UART.c ****             SPI_1_rxBufferOverflow = 0u;
 195:.\Generated_Source\PSoC4/SPI_1_SPI_UART.c **** 
 196:.\Generated_Source\PSoC4/SPI_1_SPI_UART.c ****             SPI_1_CLEAR_RX_FIFO;
 197:.\Generated_Source\PSoC4/SPI_1_SPI_UART.c ****             SPI_1_ClearRxInterruptSource(SPI_1_INTR_RX_ALL);
 198:.\Generated_Source\PSoC4/SPI_1_SPI_UART.c **** 
 199:.\Generated_Source\PSoC4/SPI_1_SPI_UART.c ****             #if (SPI_1_CHECK_UART_RTS_CONTROL_FLOW)
 200:.\Generated_Source\PSoC4/SPI_1_SPI_UART.c ****             {
ARM GAS  C:\Users\Jarik\AppData\Local\Temp\cc7eZYm3.s 			page 6


 201:.\Generated_Source\PSoC4/SPI_1_SPI_UART.c ****                 /* Enable RX Not Empty interrupt source to continue receiving
 202:.\Generated_Source\PSoC4/SPI_1_SPI_UART.c ****                 * data into software buffer.
 203:.\Generated_Source\PSoC4/SPI_1_SPI_UART.c ****                 */
 204:.\Generated_Source\PSoC4/SPI_1_SPI_UART.c ****                 SPI_1_INTR_RX_MASK_REG |= SPI_1_INTR_RX_NOT_EMPTY;
 205:.\Generated_Source\PSoC4/SPI_1_SPI_UART.c ****             }
 206:.\Generated_Source\PSoC4/SPI_1_SPI_UART.c ****             #endif
 207:.\Generated_Source\PSoC4/SPI_1_SPI_UART.c **** 
 208:.\Generated_Source\PSoC4/SPI_1_SPI_UART.c ****             /* Release lock */
 209:.\Generated_Source\PSoC4/SPI_1_SPI_UART.c ****             SPI_1_EnableInt();
 210:.\Generated_Source\PSoC4/SPI_1_SPI_UART.c ****         }
 211:.\Generated_Source\PSoC4/SPI_1_SPI_UART.c ****         #else
 212:.\Generated_Source\PSoC4/SPI_1_SPI_UART.c ****         {
 213:.\Generated_Source\PSoC4/SPI_1_SPI_UART.c ****             SPI_1_CLEAR_RX_FIFO;
  84              		.loc 1 213 0
  85 0000 8021     		mov	r1, #128
  86 0002 054B     		ldr	r3, .L8
  87 0004 4902     		lsl	r1, r1, #9
  88 0006 1A68     		ldr	r2, [r3]
 214:.\Generated_Source\PSoC4/SPI_1_SPI_UART.c ****         }
 215:.\Generated_Source\PSoC4/SPI_1_SPI_UART.c ****         #endif
 216:.\Generated_Source\PSoC4/SPI_1_SPI_UART.c ****     }
  89              		.loc 1 216 0
  90              		@ sp needed
 213:.\Generated_Source\PSoC4/SPI_1_SPI_UART.c ****         }
  91              		.loc 1 213 0
  92 0008 0A43     		orr	r2, r1
  93 000a 1A60     		str	r2, [r3]
  94 000c 1968     		ldr	r1, [r3]
  95 000e 034A     		ldr	r2, .L8+4
  96 0010 0A40     		and	r2, r1
  97 0012 1A60     		str	r2, [r3]
  98              		.loc 1 216 0
  99 0014 7047     		bx	lr
 100              	.L9:
 101 0016 C046     		.align	2
 102              	.L8:
 103 0018 04030640 		.word	1074135812
 104 001c FFFFFEFF 		.word	-65537
 105              		.cfi_endproc
 106              	.LFE2:
 107              		.size	SPI_1_SpiUartClearRxBuffer, .-SPI_1_SpiUartClearRxBuffer
 108              		.section	.text.SPI_1_SpiUartWriteTxData,"ax",%progbits
 109              		.align	1
 110              		.global	SPI_1_SpiUartWriteTxData
 111              		.code	16
 112              		.thumb_func
 113              		.type	SPI_1_SpiUartWriteTxData, %function
 114              	SPI_1_SpiUartWriteTxData:
 115              	.LFB3:
 217:.\Generated_Source\PSoC4/SPI_1_SPI_UART.c **** 
 218:.\Generated_Source\PSoC4/SPI_1_SPI_UART.c **** #endif /* (SPI_1_RX_DIRECTION) */
 219:.\Generated_Source\PSoC4/SPI_1_SPI_UART.c **** 
 220:.\Generated_Source\PSoC4/SPI_1_SPI_UART.c **** 
 221:.\Generated_Source\PSoC4/SPI_1_SPI_UART.c **** #if(SPI_1_TX_DIRECTION)
 222:.\Generated_Source\PSoC4/SPI_1_SPI_UART.c ****     /*******************************************************************************
 223:.\Generated_Source\PSoC4/SPI_1_SPI_UART.c ****     * Function Name: SPI_1_SpiUartWriteTxData
 224:.\Generated_Source\PSoC4/SPI_1_SPI_UART.c ****     ********************************************************************************
ARM GAS  C:\Users\Jarik\AppData\Local\Temp\cc7eZYm3.s 			page 7


 225:.\Generated_Source\PSoC4/SPI_1_SPI_UART.c ****     *
 226:.\Generated_Source\PSoC4/SPI_1_SPI_UART.c ****     * Summary:
 227:.\Generated_Source\PSoC4/SPI_1_SPI_UART.c ****     *  Places a data entry into the transmit buffer to be sent at the next available
 228:.\Generated_Source\PSoC4/SPI_1_SPI_UART.c ****     *  bus time.
 229:.\Generated_Source\PSoC4/SPI_1_SPI_UART.c ****     *  This function is blocking and waits until there is space available to put the
 230:.\Generated_Source\PSoC4/SPI_1_SPI_UART.c ****     *  requested data in the transmit buffer.
 231:.\Generated_Source\PSoC4/SPI_1_SPI_UART.c ****     *
 232:.\Generated_Source\PSoC4/SPI_1_SPI_UART.c ****     * Parameters:
 233:.\Generated_Source\PSoC4/SPI_1_SPI_UART.c ****     *  txDataByte: the data to be transmitted.
 234:.\Generated_Source\PSoC4/SPI_1_SPI_UART.c ****     *
 235:.\Generated_Source\PSoC4/SPI_1_SPI_UART.c ****     * Return:
 236:.\Generated_Source\PSoC4/SPI_1_SPI_UART.c ****     *  None
 237:.\Generated_Source\PSoC4/SPI_1_SPI_UART.c ****     *
 238:.\Generated_Source\PSoC4/SPI_1_SPI_UART.c ****     *******************************************************************************/
 239:.\Generated_Source\PSoC4/SPI_1_SPI_UART.c ****     void SPI_1_SpiUartWriteTxData(uint32 txData)
 240:.\Generated_Source\PSoC4/SPI_1_SPI_UART.c ****     {
 116              		.loc 1 240 0
 117              		.cfi_startproc
 118              	.LVL4:
 119              	.L11:
 241:.\Generated_Source\PSoC4/SPI_1_SPI_UART.c ****     #if (SPI_1_INTERNAL_TX_SW_BUFFER_CONST)
 242:.\Generated_Source\PSoC4/SPI_1_SPI_UART.c ****         uint32 locHead;
 243:.\Generated_Source\PSoC4/SPI_1_SPI_UART.c ****     #endif /* (SPI_1_INTERNAL_TX_SW_BUFFER_CONST) */
 244:.\Generated_Source\PSoC4/SPI_1_SPI_UART.c **** 
 245:.\Generated_Source\PSoC4/SPI_1_SPI_UART.c ****         #if (SPI_1_CHECK_TX_SW_BUFFER)
 246:.\Generated_Source\PSoC4/SPI_1_SPI_UART.c ****         {
 247:.\Generated_Source\PSoC4/SPI_1_SPI_UART.c ****             /* Put data directly into the TX FIFO */
 248:.\Generated_Source\PSoC4/SPI_1_SPI_UART.c ****             if ((SPI_1_txBufferHead == SPI_1_txBufferTail) &&
 249:.\Generated_Source\PSoC4/SPI_1_SPI_UART.c ****                 (SPI_1_SPI_UART_FIFO_SIZE != SPI_1_GET_TX_FIFO_ENTRIES))
 250:.\Generated_Source\PSoC4/SPI_1_SPI_UART.c ****             {
 251:.\Generated_Source\PSoC4/SPI_1_SPI_UART.c ****                 /* TX software buffer is empty: put data directly in TX FIFO */
 252:.\Generated_Source\PSoC4/SPI_1_SPI_UART.c ****                 SPI_1_TX_FIFO_WR_REG = txData;
 253:.\Generated_Source\PSoC4/SPI_1_SPI_UART.c ****             }
 254:.\Generated_Source\PSoC4/SPI_1_SPI_UART.c ****             /* Put data into TX software buffer */
 255:.\Generated_Source\PSoC4/SPI_1_SPI_UART.c ****             else
 256:.\Generated_Source\PSoC4/SPI_1_SPI_UART.c ****             {
 257:.\Generated_Source\PSoC4/SPI_1_SPI_UART.c ****                 /* Head index to put data */
 258:.\Generated_Source\PSoC4/SPI_1_SPI_UART.c ****                 locHead = (SPI_1_txBufferHead + 1u);
 259:.\Generated_Source\PSoC4/SPI_1_SPI_UART.c **** 
 260:.\Generated_Source\PSoC4/SPI_1_SPI_UART.c ****                 /* Adjust TX software buffer index */
 261:.\Generated_Source\PSoC4/SPI_1_SPI_UART.c ****                 if (SPI_1_TX_BUFFER_SIZE == locHead)
 262:.\Generated_Source\PSoC4/SPI_1_SPI_UART.c ****                 {
 263:.\Generated_Source\PSoC4/SPI_1_SPI_UART.c ****                     locHead = 0u;
 264:.\Generated_Source\PSoC4/SPI_1_SPI_UART.c ****                 }
 265:.\Generated_Source\PSoC4/SPI_1_SPI_UART.c **** 
 266:.\Generated_Source\PSoC4/SPI_1_SPI_UART.c ****                 /* Wait for space in TX software buffer */
 267:.\Generated_Source\PSoC4/SPI_1_SPI_UART.c ****                 while (locHead == SPI_1_txBufferTail)
 268:.\Generated_Source\PSoC4/SPI_1_SPI_UART.c ****                 {
 269:.\Generated_Source\PSoC4/SPI_1_SPI_UART.c ****                 }
 270:.\Generated_Source\PSoC4/SPI_1_SPI_UART.c **** 
 271:.\Generated_Source\PSoC4/SPI_1_SPI_UART.c ****                 /* TX software buffer has at least one room */
 272:.\Generated_Source\PSoC4/SPI_1_SPI_UART.c **** 
 273:.\Generated_Source\PSoC4/SPI_1_SPI_UART.c ****                 /* Clear old status of INTR_TX_NOT_FULL. It sets at the end of transfer when TX FIF
 274:.\Generated_Source\PSoC4/SPI_1_SPI_UART.c ****                 SPI_1_ClearTxInterruptSource(SPI_1_INTR_TX_NOT_FULL);
 275:.\Generated_Source\PSoC4/SPI_1_SPI_UART.c **** 
 276:.\Generated_Source\PSoC4/SPI_1_SPI_UART.c ****                 SPI_1_PutWordInTxBuffer(locHead, txData);
 277:.\Generated_Source\PSoC4/SPI_1_SPI_UART.c **** 
ARM GAS  C:\Users\Jarik\AppData\Local\Temp\cc7eZYm3.s 			page 8


 278:.\Generated_Source\PSoC4/SPI_1_SPI_UART.c ****                 SPI_1_txBufferHead = locHead;
 279:.\Generated_Source\PSoC4/SPI_1_SPI_UART.c **** 
 280:.\Generated_Source\PSoC4/SPI_1_SPI_UART.c ****                 /* Check if TX Not Full is disabled in interrupt */
 281:.\Generated_Source\PSoC4/SPI_1_SPI_UART.c ****                 if (0u == (SPI_1_INTR_TX_MASK_REG & SPI_1_INTR_TX_NOT_FULL))
 282:.\Generated_Source\PSoC4/SPI_1_SPI_UART.c ****                 {
 283:.\Generated_Source\PSoC4/SPI_1_SPI_UART.c ****                     /* Enable TX Not Full interrupt source to transmit from software buffer */
 284:.\Generated_Source\PSoC4/SPI_1_SPI_UART.c ****                     SPI_1_INTR_TX_MASK_REG |= (uint32) SPI_1_INTR_TX_NOT_FULL;
 285:.\Generated_Source\PSoC4/SPI_1_SPI_UART.c ****                 }
 286:.\Generated_Source\PSoC4/SPI_1_SPI_UART.c ****             }
 287:.\Generated_Source\PSoC4/SPI_1_SPI_UART.c ****         }
 288:.\Generated_Source\PSoC4/SPI_1_SPI_UART.c ****         #else
 289:.\Generated_Source\PSoC4/SPI_1_SPI_UART.c ****         {
 290:.\Generated_Source\PSoC4/SPI_1_SPI_UART.c ****             /* Wait until TX FIFO has space to put data element */
 291:.\Generated_Source\PSoC4/SPI_1_SPI_UART.c ****             while (SPI_1_SPI_UART_FIFO_SIZE == SPI_1_GET_TX_FIFO_ENTRIES)
 120              		.loc 1 291 0 discriminator 1
 121 0000 044B     		ldr	r3, .L14
 122 0002 1A68     		ldr	r2, [r3]
 123 0004 0F23     		mov	r3, #15
 124 0006 1340     		and	r3, r2
 125 0008 082B     		cmp	r3, #8
 126 000a F9D0     		beq	.L11
 292:.\Generated_Source\PSoC4/SPI_1_SPI_UART.c ****             {
 293:.\Generated_Source\PSoC4/SPI_1_SPI_UART.c ****             }
 294:.\Generated_Source\PSoC4/SPI_1_SPI_UART.c **** 
 295:.\Generated_Source\PSoC4/SPI_1_SPI_UART.c ****             SPI_1_TX_FIFO_WR_REG = txData;
 127              		.loc 1 295 0
 128 000c 024B     		ldr	r3, .L14+4
 296:.\Generated_Source\PSoC4/SPI_1_SPI_UART.c ****         }
 297:.\Generated_Source\PSoC4/SPI_1_SPI_UART.c ****         #endif
 298:.\Generated_Source\PSoC4/SPI_1_SPI_UART.c ****     }
 129              		.loc 1 298 0
 130              		@ sp needed
 295:.\Generated_Source\PSoC4/SPI_1_SPI_UART.c ****         }
 131              		.loc 1 295 0
 132 000e 1860     		str	r0, [r3]
 133              		.loc 1 298 0
 134 0010 7047     		bx	lr
 135              	.L15:
 136 0012 C046     		.align	2
 137              	.L14:
 138 0014 08020640 		.word	1074135560
 139 0018 40020640 		.word	1074135616
 140              		.cfi_endproc
 141              	.LFE3:
 142              		.size	SPI_1_SpiUartWriteTxData, .-SPI_1_SpiUartWriteTxData
 143              		.section	.text.SPI_1_SpiUartPutArray,"ax",%progbits
 144              		.align	1
 145              		.global	SPI_1_SpiUartPutArray
 146              		.code	16
 147              		.thumb_func
 148              		.type	SPI_1_SpiUartPutArray, %function
 149              	SPI_1_SpiUartPutArray:
 150              	.LFB4:
 299:.\Generated_Source\PSoC4/SPI_1_SPI_UART.c **** 
 300:.\Generated_Source\PSoC4/SPI_1_SPI_UART.c **** 
 301:.\Generated_Source\PSoC4/SPI_1_SPI_UART.c ****     /*******************************************************************************
 302:.\Generated_Source\PSoC4/SPI_1_SPI_UART.c ****     * Function Name: SPI_1_SpiUartPutArray
ARM GAS  C:\Users\Jarik\AppData\Local\Temp\cc7eZYm3.s 			page 9


 303:.\Generated_Source\PSoC4/SPI_1_SPI_UART.c ****     ********************************************************************************
 304:.\Generated_Source\PSoC4/SPI_1_SPI_UART.c ****     *
 305:.\Generated_Source\PSoC4/SPI_1_SPI_UART.c ****     * Summary:
 306:.\Generated_Source\PSoC4/SPI_1_SPI_UART.c ****     *  Places an array of data into the transmit buffer to be sent.
 307:.\Generated_Source\PSoC4/SPI_1_SPI_UART.c ****     *  This function is blocking and waits until there is a space available to put
 308:.\Generated_Source\PSoC4/SPI_1_SPI_UART.c ****     *  all the requested data in the transmit buffer. The array size can be greater
 309:.\Generated_Source\PSoC4/SPI_1_SPI_UART.c ****     *  than transmit buffer size.
 310:.\Generated_Source\PSoC4/SPI_1_SPI_UART.c ****     *
 311:.\Generated_Source\PSoC4/SPI_1_SPI_UART.c ****     * Parameters:
 312:.\Generated_Source\PSoC4/SPI_1_SPI_UART.c ****     *  wrBuf:  pointer to an array with data to be placed in transmit buffer.
 313:.\Generated_Source\PSoC4/SPI_1_SPI_UART.c ****     *  count:  number of data elements to be placed in the transmit buffer.
 314:.\Generated_Source\PSoC4/SPI_1_SPI_UART.c ****     *
 315:.\Generated_Source\PSoC4/SPI_1_SPI_UART.c ****     * Return:
 316:.\Generated_Source\PSoC4/SPI_1_SPI_UART.c ****     *  None
 317:.\Generated_Source\PSoC4/SPI_1_SPI_UART.c ****     *
 318:.\Generated_Source\PSoC4/SPI_1_SPI_UART.c ****     *******************************************************************************/
 319:.\Generated_Source\PSoC4/SPI_1_SPI_UART.c ****     void SPI_1_SpiUartPutArray(const uint8 wrBuf[], uint32 count)
 320:.\Generated_Source\PSoC4/SPI_1_SPI_UART.c ****     {
 151              		.loc 1 320 0
 152              		.cfi_startproc
 153              	.LVL5:
 154 0000 38B5     		push	{r3, r4, r5, lr}
 155              		.cfi_def_cfa_offset 16
 156              		.cfi_offset 3, -16
 157              		.cfi_offset 4, -12
 158              		.cfi_offset 5, -8
 159              		.cfi_offset 14, -4
 160 0002 041C     		mov	r4, r0
 161 0004 4518     		add	r5, r0, r1
 162              	.LVL6:
 163              	.L17:
 321:.\Generated_Source\PSoC4/SPI_1_SPI_UART.c ****         uint32 i;
 322:.\Generated_Source\PSoC4/SPI_1_SPI_UART.c **** 
 323:.\Generated_Source\PSoC4/SPI_1_SPI_UART.c ****         for (i=0u; i < count; i++)
 164              		.loc 1 323 0 discriminator 1
 165 0006 AC42     		cmp	r4, r5
 166 0008 04D0     		beq	.L19
 324:.\Generated_Source\PSoC4/SPI_1_SPI_UART.c ****         {
 325:.\Generated_Source\PSoC4/SPI_1_SPI_UART.c ****             SPI_1_SpiUartWriteTxData((uint32) wrBuf[i]);
 167              		.loc 1 325 0 discriminator 3
 168 000a 2078     		ldrb	r0, [r4]
 169 000c FFF7FEFF 		bl	SPI_1_SpiUartWriteTxData
 170              	.LVL7:
 171 0010 0134     		add	r4, r4, #1
 172              	.LVL8:
 173 0012 F8E7     		b	.L17
 174              	.L19:
 326:.\Generated_Source\PSoC4/SPI_1_SPI_UART.c ****         }
 327:.\Generated_Source\PSoC4/SPI_1_SPI_UART.c ****     }
 175              		.loc 1 327 0
 176              		@ sp needed
 177              	.LVL9:
 178 0014 38BD     		pop	{r3, r4, r5, pc}
 179              		.cfi_endproc
 180              	.LFE4:
 181              		.size	SPI_1_SpiUartPutArray, .-SPI_1_SpiUartPutArray
 182              		.section	.text.SPI_1_SpiUartGetTxBufferSize,"ax",%progbits
ARM GAS  C:\Users\Jarik\AppData\Local\Temp\cc7eZYm3.s 			page 10


 183              		.align	1
 184              		.global	SPI_1_SpiUartGetTxBufferSize
 185              		.code	16
 186              		.thumb_func
 187              		.type	SPI_1_SpiUartGetTxBufferSize, %function
 188              	SPI_1_SpiUartGetTxBufferSize:
 189              	.LFB5:
 328:.\Generated_Source\PSoC4/SPI_1_SPI_UART.c **** 
 329:.\Generated_Source\PSoC4/SPI_1_SPI_UART.c **** 
 330:.\Generated_Source\PSoC4/SPI_1_SPI_UART.c ****     /*******************************************************************************
 331:.\Generated_Source\PSoC4/SPI_1_SPI_UART.c ****     * Function Name: SPI_1_SpiUartGetTxBufferSize
 332:.\Generated_Source\PSoC4/SPI_1_SPI_UART.c ****     ********************************************************************************
 333:.\Generated_Source\PSoC4/SPI_1_SPI_UART.c ****     *
 334:.\Generated_Source\PSoC4/SPI_1_SPI_UART.c ****     * Summary:
 335:.\Generated_Source\PSoC4/SPI_1_SPI_UART.c ****     * Returns the number of elements currently in the transmit buffer.
 336:.\Generated_Source\PSoC4/SPI_1_SPI_UART.c ****     *  - TX software buffer is disabled: returns the number of used entries in
 337:.\Generated_Source\PSoC4/SPI_1_SPI_UART.c ****     *    TX FIFO.
 338:.\Generated_Source\PSoC4/SPI_1_SPI_UART.c ****     *  - TX software buffer is enabled: returns the number of elements currently
 339:.\Generated_Source\PSoC4/SPI_1_SPI_UART.c ****     *    used in the transmit buffer. This number does not include used entries in
 340:.\Generated_Source\PSoC4/SPI_1_SPI_UART.c ****     *    the TX FIFO. The transmit buffer size is zero until the TX FIFO is
 341:.\Generated_Source\PSoC4/SPI_1_SPI_UART.c ****     *    not full.
 342:.\Generated_Source\PSoC4/SPI_1_SPI_UART.c ****     *
 343:.\Generated_Source\PSoC4/SPI_1_SPI_UART.c ****     * Parameters:
 344:.\Generated_Source\PSoC4/SPI_1_SPI_UART.c ****     *  None
 345:.\Generated_Source\PSoC4/SPI_1_SPI_UART.c ****     *
 346:.\Generated_Source\PSoC4/SPI_1_SPI_UART.c ****     * Return:
 347:.\Generated_Source\PSoC4/SPI_1_SPI_UART.c ****     *  Number of data elements ready to transmit.
 348:.\Generated_Source\PSoC4/SPI_1_SPI_UART.c ****     *
 349:.\Generated_Source\PSoC4/SPI_1_SPI_UART.c ****     *******************************************************************************/
 350:.\Generated_Source\PSoC4/SPI_1_SPI_UART.c ****     uint32 SPI_1_SpiUartGetTxBufferSize(void)
 351:.\Generated_Source\PSoC4/SPI_1_SPI_UART.c ****     {
 190              		.loc 1 351 0
 191              		.cfi_startproc
 352:.\Generated_Source\PSoC4/SPI_1_SPI_UART.c ****         uint32 size;
 353:.\Generated_Source\PSoC4/SPI_1_SPI_UART.c ****     #if (SPI_1_INTERNAL_TX_SW_BUFFER_CONST)
 354:.\Generated_Source\PSoC4/SPI_1_SPI_UART.c ****         uint32 locTail;
 355:.\Generated_Source\PSoC4/SPI_1_SPI_UART.c ****     #endif /* (SPI_1_INTERNAL_TX_SW_BUFFER_CONST) */
 356:.\Generated_Source\PSoC4/SPI_1_SPI_UART.c **** 
 357:.\Generated_Source\PSoC4/SPI_1_SPI_UART.c ****         #if (SPI_1_CHECK_TX_SW_BUFFER)
 358:.\Generated_Source\PSoC4/SPI_1_SPI_UART.c ****         {
 359:.\Generated_Source\PSoC4/SPI_1_SPI_UART.c ****             /* Get current Tail index */
 360:.\Generated_Source\PSoC4/SPI_1_SPI_UART.c ****             locTail = SPI_1_txBufferTail;
 361:.\Generated_Source\PSoC4/SPI_1_SPI_UART.c **** 
 362:.\Generated_Source\PSoC4/SPI_1_SPI_UART.c ****             if (SPI_1_txBufferHead >= locTail)
 363:.\Generated_Source\PSoC4/SPI_1_SPI_UART.c ****             {
 364:.\Generated_Source\PSoC4/SPI_1_SPI_UART.c ****                 size = (SPI_1_txBufferHead - locTail);
 365:.\Generated_Source\PSoC4/SPI_1_SPI_UART.c ****             }
 366:.\Generated_Source\PSoC4/SPI_1_SPI_UART.c ****             else
 367:.\Generated_Source\PSoC4/SPI_1_SPI_UART.c ****             {
 368:.\Generated_Source\PSoC4/SPI_1_SPI_UART.c ****                 size = (SPI_1_txBufferHead + (SPI_1_TX_BUFFER_SIZE - locTail));
 369:.\Generated_Source\PSoC4/SPI_1_SPI_UART.c ****             }
 370:.\Generated_Source\PSoC4/SPI_1_SPI_UART.c ****         }
 371:.\Generated_Source\PSoC4/SPI_1_SPI_UART.c ****         #else
 372:.\Generated_Source\PSoC4/SPI_1_SPI_UART.c ****         {
 373:.\Generated_Source\PSoC4/SPI_1_SPI_UART.c ****             size = SPI_1_GET_TX_FIFO_ENTRIES;
 192              		.loc 1 373 0
 193 0000 024B     		ldr	r3, .L21
ARM GAS  C:\Users\Jarik\AppData\Local\Temp\cc7eZYm3.s 			page 11


 374:.\Generated_Source\PSoC4/SPI_1_SPI_UART.c ****         }
 375:.\Generated_Source\PSoC4/SPI_1_SPI_UART.c ****         #endif
 376:.\Generated_Source\PSoC4/SPI_1_SPI_UART.c **** 
 377:.\Generated_Source\PSoC4/SPI_1_SPI_UART.c ****         return (size);
 378:.\Generated_Source\PSoC4/SPI_1_SPI_UART.c ****     }
 194              		.loc 1 378 0
 195              		@ sp needed
 373:.\Generated_Source\PSoC4/SPI_1_SPI_UART.c ****         }
 196              		.loc 1 373 0
 197 0002 1868     		ldr	r0, [r3]
 198              	.LVL10:
 199 0004 0F23     		mov	r3, #15
 200 0006 1840     		and	r0, r3
 201              	.LVL11:
 202              		.loc 1 378 0
 203 0008 7047     		bx	lr
 204              	.L22:
 205 000a C046     		.align	2
 206              	.L21:
 207 000c 08020640 		.word	1074135560
 208              		.cfi_endproc
 209              	.LFE5:
 210              		.size	SPI_1_SpiUartGetTxBufferSize, .-SPI_1_SpiUartGetTxBufferSize
 211              		.section	.text.SPI_1_SpiUartClearTxBuffer,"ax",%progbits
 212              		.align	1
 213              		.global	SPI_1_SpiUartClearTxBuffer
 214              		.code	16
 215              		.thumb_func
 216              		.type	SPI_1_SpiUartClearTxBuffer, %function
 217              	SPI_1_SpiUartClearTxBuffer:
 218              	.LFB6:
 379:.\Generated_Source\PSoC4/SPI_1_SPI_UART.c **** 
 380:.\Generated_Source\PSoC4/SPI_1_SPI_UART.c **** 
 381:.\Generated_Source\PSoC4/SPI_1_SPI_UART.c ****     /*******************************************************************************
 382:.\Generated_Source\PSoC4/SPI_1_SPI_UART.c ****     * Function Name: SPI_1_SpiUartClearTxBuffer
 383:.\Generated_Source\PSoC4/SPI_1_SPI_UART.c ****     ********************************************************************************
 384:.\Generated_Source\PSoC4/SPI_1_SPI_UART.c ****     *
 385:.\Generated_Source\PSoC4/SPI_1_SPI_UART.c ****     * Summary:
 386:.\Generated_Source\PSoC4/SPI_1_SPI_UART.c ****     *  Clears the transmit buffer and TX FIFO.
 387:.\Generated_Source\PSoC4/SPI_1_SPI_UART.c ****     *
 388:.\Generated_Source\PSoC4/SPI_1_SPI_UART.c ****     * Parameters:
 389:.\Generated_Source\PSoC4/SPI_1_SPI_UART.c ****     *  None
 390:.\Generated_Source\PSoC4/SPI_1_SPI_UART.c ****     *
 391:.\Generated_Source\PSoC4/SPI_1_SPI_UART.c ****     * Return:
 392:.\Generated_Source\PSoC4/SPI_1_SPI_UART.c ****     *  None
 393:.\Generated_Source\PSoC4/SPI_1_SPI_UART.c ****     *
 394:.\Generated_Source\PSoC4/SPI_1_SPI_UART.c ****     *******************************************************************************/
 395:.\Generated_Source\PSoC4/SPI_1_SPI_UART.c ****     void SPI_1_SpiUartClearTxBuffer(void)
 396:.\Generated_Source\PSoC4/SPI_1_SPI_UART.c ****     {
 219              		.loc 1 396 0
 220              		.cfi_startproc
 397:.\Generated_Source\PSoC4/SPI_1_SPI_UART.c ****         #if (SPI_1_CHECK_TX_SW_BUFFER)
 398:.\Generated_Source\PSoC4/SPI_1_SPI_UART.c ****         {
 399:.\Generated_Source\PSoC4/SPI_1_SPI_UART.c ****             /* Lock from component interruption */
 400:.\Generated_Source\PSoC4/SPI_1_SPI_UART.c ****             SPI_1_DisableInt();
 401:.\Generated_Source\PSoC4/SPI_1_SPI_UART.c **** 
 402:.\Generated_Source\PSoC4/SPI_1_SPI_UART.c ****             /* Flush TX software buffer */
ARM GAS  C:\Users\Jarik\AppData\Local\Temp\cc7eZYm3.s 			page 12


 403:.\Generated_Source\PSoC4/SPI_1_SPI_UART.c ****             SPI_1_txBufferHead = SPI_1_txBufferTail;
 404:.\Generated_Source\PSoC4/SPI_1_SPI_UART.c **** 
 405:.\Generated_Source\PSoC4/SPI_1_SPI_UART.c ****             SPI_1_INTR_TX_MASK_REG &= (uint32) ~SPI_1_INTR_TX_NOT_FULL;
 406:.\Generated_Source\PSoC4/SPI_1_SPI_UART.c ****             SPI_1_CLEAR_TX_FIFO;
 407:.\Generated_Source\PSoC4/SPI_1_SPI_UART.c ****             SPI_1_ClearTxInterruptSource(SPI_1_INTR_TX_ALL);
 408:.\Generated_Source\PSoC4/SPI_1_SPI_UART.c **** 
 409:.\Generated_Source\PSoC4/SPI_1_SPI_UART.c ****             /* Release lock */
 410:.\Generated_Source\PSoC4/SPI_1_SPI_UART.c ****             SPI_1_EnableInt();
 411:.\Generated_Source\PSoC4/SPI_1_SPI_UART.c ****         }
 412:.\Generated_Source\PSoC4/SPI_1_SPI_UART.c ****         #else
 413:.\Generated_Source\PSoC4/SPI_1_SPI_UART.c ****         {
 414:.\Generated_Source\PSoC4/SPI_1_SPI_UART.c ****             SPI_1_CLEAR_TX_FIFO;
 221              		.loc 1 414 0
 222 0000 8021     		mov	r1, #128
 223 0002 054B     		ldr	r3, .L24
 224 0004 4902     		lsl	r1, r1, #9
 225 0006 1A68     		ldr	r2, [r3]
 415:.\Generated_Source\PSoC4/SPI_1_SPI_UART.c ****         }
 416:.\Generated_Source\PSoC4/SPI_1_SPI_UART.c ****         #endif
 417:.\Generated_Source\PSoC4/SPI_1_SPI_UART.c ****     }
 226              		.loc 1 417 0
 227              		@ sp needed
 414:.\Generated_Source\PSoC4/SPI_1_SPI_UART.c ****         }
 228              		.loc 1 414 0
 229 0008 0A43     		orr	r2, r1
 230 000a 1A60     		str	r2, [r3]
 231 000c 1968     		ldr	r1, [r3]
 232 000e 034A     		ldr	r2, .L24+4
 233 0010 0A40     		and	r2, r1
 234 0012 1A60     		str	r2, [r3]
 235              		.loc 1 417 0
 236 0014 7047     		bx	lr
 237              	.L25:
 238 0016 C046     		.align	2
 239              	.L24:
 240 0018 04020640 		.word	1074135556
 241 001c FFFFFEFF 		.word	-65537
 242              		.cfi_endproc
 243              	.LFE6:
 244              		.size	SPI_1_SpiUartClearTxBuffer, .-SPI_1_SpiUartClearTxBuffer
 245              		.section	.text.SPI_1_SpiUartDisableIntRx,"ax",%progbits
 246              		.align	1
 247              		.global	SPI_1_SpiUartDisableIntRx
 248              		.code	16
 249              		.thumb_func
 250              		.type	SPI_1_SpiUartDisableIntRx, %function
 251              	SPI_1_SpiUartDisableIntRx:
 252              	.LFB7:
 418:.\Generated_Source\PSoC4/SPI_1_SPI_UART.c **** 
 419:.\Generated_Source\PSoC4/SPI_1_SPI_UART.c **** #endif /* (SPI_1_TX_DIRECTION) */
 420:.\Generated_Source\PSoC4/SPI_1_SPI_UART.c **** 
 421:.\Generated_Source\PSoC4/SPI_1_SPI_UART.c **** 
 422:.\Generated_Source\PSoC4/SPI_1_SPI_UART.c **** /*******************************************************************************
 423:.\Generated_Source\PSoC4/SPI_1_SPI_UART.c **** * Function Name: SPI_1_SpiUartDisableIntRx
 424:.\Generated_Source\PSoC4/SPI_1_SPI_UART.c **** ********************************************************************************
 425:.\Generated_Source\PSoC4/SPI_1_SPI_UART.c **** *
 426:.\Generated_Source\PSoC4/SPI_1_SPI_UART.c **** * Summary:
ARM GAS  C:\Users\Jarik\AppData\Local\Temp\cc7eZYm3.s 			page 13


 427:.\Generated_Source\PSoC4/SPI_1_SPI_UART.c **** *  Disables the RX interrupt sources.
 428:.\Generated_Source\PSoC4/SPI_1_SPI_UART.c **** *
 429:.\Generated_Source\PSoC4/SPI_1_SPI_UART.c **** * Parameters:
 430:.\Generated_Source\PSoC4/SPI_1_SPI_UART.c **** *  None
 431:.\Generated_Source\PSoC4/SPI_1_SPI_UART.c **** *
 432:.\Generated_Source\PSoC4/SPI_1_SPI_UART.c **** * Return:
 433:.\Generated_Source\PSoC4/SPI_1_SPI_UART.c **** *  Returns the RX interrupt sources enabled before the function call.
 434:.\Generated_Source\PSoC4/SPI_1_SPI_UART.c **** *
 435:.\Generated_Source\PSoC4/SPI_1_SPI_UART.c **** *******************************************************************************/
 436:.\Generated_Source\PSoC4/SPI_1_SPI_UART.c **** uint32 SPI_1_SpiUartDisableIntRx(void)
 437:.\Generated_Source\PSoC4/SPI_1_SPI_UART.c **** {
 253              		.loc 1 437 0
 254              		.cfi_startproc
 438:.\Generated_Source\PSoC4/SPI_1_SPI_UART.c ****     uint32 intSource;
 439:.\Generated_Source\PSoC4/SPI_1_SPI_UART.c **** 
 440:.\Generated_Source\PSoC4/SPI_1_SPI_UART.c ****     intSource = SPI_1_GetRxInterruptMode();
 441:.\Generated_Source\PSoC4/SPI_1_SPI_UART.c **** 
 442:.\Generated_Source\PSoC4/SPI_1_SPI_UART.c ****     SPI_1_SetRxInterruptMode(SPI_1_NO_INTR_SOURCES);
 255              		.loc 1 442 0
 256 0000 0022     		mov	r2, #0
 440:.\Generated_Source\PSoC4/SPI_1_SPI_UART.c **** 
 257              		.loc 1 440 0
 258 0002 024B     		ldr	r3, .L27
 443:.\Generated_Source\PSoC4/SPI_1_SPI_UART.c **** 
 444:.\Generated_Source\PSoC4/SPI_1_SPI_UART.c ****     return (intSource);
 445:.\Generated_Source\PSoC4/SPI_1_SPI_UART.c **** }
 259              		.loc 1 445 0
 260              		@ sp needed
 440:.\Generated_Source\PSoC4/SPI_1_SPI_UART.c **** 
 261              		.loc 1 440 0
 262 0004 1868     		ldr	r0, [r3]
 263              	.LVL12:
 442:.\Generated_Source\PSoC4/SPI_1_SPI_UART.c **** 
 264              		.loc 1 442 0
 265 0006 1A60     		str	r2, [r3]
 266              		.loc 1 445 0
 267 0008 7047     		bx	lr
 268              	.L28:
 269 000a C046     		.align	2
 270              	.L27:
 271 000c C80F0640 		.word	1074139080
 272              		.cfi_endproc
 273              	.LFE7:
 274              		.size	SPI_1_SpiUartDisableIntRx, .-SPI_1_SpiUartDisableIntRx
 275              		.section	.text.SPI_1_SpiUartDisableIntTx,"ax",%progbits
 276              		.align	1
 277              		.global	SPI_1_SpiUartDisableIntTx
 278              		.code	16
 279              		.thumb_func
 280              		.type	SPI_1_SpiUartDisableIntTx, %function
 281              	SPI_1_SpiUartDisableIntTx:
 282              	.LFB8:
 446:.\Generated_Source\PSoC4/SPI_1_SPI_UART.c **** 
 447:.\Generated_Source\PSoC4/SPI_1_SPI_UART.c **** 
 448:.\Generated_Source\PSoC4/SPI_1_SPI_UART.c **** /*******************************************************************************
 449:.\Generated_Source\PSoC4/SPI_1_SPI_UART.c **** * Function Name: SPI_1_SpiUartDisableIntTx
 450:.\Generated_Source\PSoC4/SPI_1_SPI_UART.c **** ********************************************************************************
ARM GAS  C:\Users\Jarik\AppData\Local\Temp\cc7eZYm3.s 			page 14


 451:.\Generated_Source\PSoC4/SPI_1_SPI_UART.c **** *
 452:.\Generated_Source\PSoC4/SPI_1_SPI_UART.c **** * Summary:
 453:.\Generated_Source\PSoC4/SPI_1_SPI_UART.c **** *  Disables TX interrupt sources.
 454:.\Generated_Source\PSoC4/SPI_1_SPI_UART.c **** *
 455:.\Generated_Source\PSoC4/SPI_1_SPI_UART.c **** * Parameters:
 456:.\Generated_Source\PSoC4/SPI_1_SPI_UART.c **** *  None
 457:.\Generated_Source\PSoC4/SPI_1_SPI_UART.c **** *
 458:.\Generated_Source\PSoC4/SPI_1_SPI_UART.c **** * Return:
 459:.\Generated_Source\PSoC4/SPI_1_SPI_UART.c **** *  Returns TX interrupt sources enabled before function call.
 460:.\Generated_Source\PSoC4/SPI_1_SPI_UART.c **** *
 461:.\Generated_Source\PSoC4/SPI_1_SPI_UART.c **** *******************************************************************************/
 462:.\Generated_Source\PSoC4/SPI_1_SPI_UART.c **** uint32 SPI_1_SpiUartDisableIntTx(void)
 463:.\Generated_Source\PSoC4/SPI_1_SPI_UART.c **** {
 283              		.loc 1 463 0
 284              		.cfi_startproc
 464:.\Generated_Source\PSoC4/SPI_1_SPI_UART.c ****     uint32 intSourceMask;
 465:.\Generated_Source\PSoC4/SPI_1_SPI_UART.c **** 
 466:.\Generated_Source\PSoC4/SPI_1_SPI_UART.c ****     intSourceMask = SPI_1_GetTxInterruptMode();
 467:.\Generated_Source\PSoC4/SPI_1_SPI_UART.c **** 
 468:.\Generated_Source\PSoC4/SPI_1_SPI_UART.c ****     SPI_1_SetTxInterruptMode(SPI_1_NO_INTR_SOURCES);
 285              		.loc 1 468 0
 286 0000 0022     		mov	r2, #0
 466:.\Generated_Source\PSoC4/SPI_1_SPI_UART.c **** 
 287              		.loc 1 466 0
 288 0002 024B     		ldr	r3, .L30
 469:.\Generated_Source\PSoC4/SPI_1_SPI_UART.c **** 
 470:.\Generated_Source\PSoC4/SPI_1_SPI_UART.c ****     return (intSourceMask);
 471:.\Generated_Source\PSoC4/SPI_1_SPI_UART.c **** }
 289              		.loc 1 471 0
 290              		@ sp needed
 466:.\Generated_Source\PSoC4/SPI_1_SPI_UART.c **** 
 291              		.loc 1 466 0
 292 0004 1868     		ldr	r0, [r3]
 293              	.LVL13:
 468:.\Generated_Source\PSoC4/SPI_1_SPI_UART.c **** 
 294              		.loc 1 468 0
 295 0006 1A60     		str	r2, [r3]
 296              		.loc 1 471 0
 297 0008 7047     		bx	lr
 298              	.L31:
 299 000a C046     		.align	2
 300              	.L30:
 301 000c 880F0640 		.word	1074139016
 302              		.cfi_endproc
 303              	.LFE8:
 304              		.size	SPI_1_SpiUartDisableIntTx, .-SPI_1_SpiUartDisableIntTx
 305              		.text
 306              	.Letext0:
 307              		.file 2 "Generated_Source\\PSoC4/cytypes.h"